Archive member included because of file (symbol)

/opt/paparazzi/arm-multilib/lib/gcc/arm-none-eabi/4.6.2/../../../../arm-none-eabi/lib/thumb2/libc.a(lib_a-ldiv.o)
                              /home/mav/paparazzi/var/Radian/ap/subsystems/ahrs/ahrs_int_cmpl_quat.o (ldiv)
/opt/paparazzi/arm-multilib/lib/gcc/arm-none-eabi/4.6.2/../../../../arm-none-eabi/lib/thumb2/libc.a(lib_a-memcpy.o)
                              /home/mav/paparazzi/var/Radian/ap/arch/stm32/mcu_periph/spi_arch.o (memcpy)
/opt/paparazzi/arm-multilib/lib/gcc/arm-none-eabi/4.6.2/../../../../arm-none-eabi/lib/thumb2/libm.a(lib_a-s_atan.o)
                              /home/mav/paparazzi/var/Radian/ap/math/pprz_geodetic_float.o (atan)
/opt/paparazzi/arm-multilib/lib/gcc/arm-none-eabi/4.6.2/../../../../arm-none-eabi/lib/thumb2/libm.a(lib_a-s_cos.o)
                              /home/mav/paparazzi/var/Radian/ap/math/pprz_geodetic_float.o (cos)
/opt/paparazzi/arm-multilib/lib/gcc/arm-none-eabi/4.6.2/../../../../arm-none-eabi/lib/thumb2/libm.a(lib_a-s_fabs.o)
                              /opt/paparazzi/arm-multilib/lib/gcc/arm-none-eabi/4.6.2/../../../../arm-none-eabi/lib/thumb2/libm.a(lib_a-s_atan.o) (fabs)
/opt/paparazzi/arm-multilib/lib/gcc/arm-none-eabi/4.6.2/../../../../arm-none-eabi/lib/thumb2/libm.a(lib_a-s_rint.o)
                              /home/mav/paparazzi/var/Radian/ap/math/pprz_geodetic_int.o (rint)
/opt/paparazzi/arm-multilib/lib/gcc/arm-none-eabi/4.6.2/../../../../arm-none-eabi/lib/thumb2/libm.a(lib_a-s_sin.o)
                              /home/mav/paparazzi/var/Radian/ap/math/pprz_geodetic_float.o (sin)
/opt/paparazzi/arm-multilib/lib/gcc/arm-none-eabi/4.6.2/../../../../arm-none-eabi/lib/thumb2/libm.a(lib_a-s_tan.o)
                              /home/mav/paparazzi/var/Radian/ap/math/pprz_geodetic_float.o (tan)
/opt/paparazzi/arm-multilib/lib/gcc/arm-none-eabi/4.6.2/../../../../arm-none-eabi/lib/thumb2/libm.a(lib_a-sf_atan.o)
                              /home/mav/paparazzi/var/Radian/ap/math/pprz_geodetic_float.o (atanf)
/opt/paparazzi/arm-multilib/lib/gcc/arm-none-eabi/4.6.2/../../../../arm-none-eabi/lib/thumb2/libm.a(lib_a-sf_cos.o)
                              /home/mav/paparazzi/var/Radian/ap/math/pprz_geodetic_int.o (cosf)
/opt/paparazzi/arm-multilib/lib/gcc/arm-none-eabi/4.6.2/../../../../arm-none-eabi/lib/thumb2/libm.a(lib_a-sf_fabs.o)
                              /opt/paparazzi/arm-multilib/lib/gcc/arm-none-eabi/4.6.2/../../../../arm-none-eabi/lib/thumb2/libm.a(lib_a-sf_atan.o) (fabsf)
/opt/paparazzi/arm-multilib/lib/gcc/arm-none-eabi/4.6.2/../../../../arm-none-eabi/lib/thumb2/libm.a(lib_a-sf_sin.o)
                              /home/mav/paparazzi/var/Radian/ap/math/pprz_geodetic_int.o (sinf)
/opt/paparazzi/arm-multilib/lib/gcc/arm-none-eabi/4.6.2/../../../../arm-none-eabi/lib/thumb2/libm.a(lib_a-w_asin.o)
                              /home/mav/paparazzi/var/Radian/ap/math/pprz_geodetic_float.o (asin)
/opt/paparazzi/arm-multilib/lib/gcc/arm-none-eabi/4.6.2/../../../../arm-none-eabi/lib/thumb2/libm.a(lib_a-w_atan2.o)
                              /home/mav/paparazzi/var/Radian/ap/math/pprz_geodetic_double.o (atan2)
/opt/paparazzi/arm-multilib/lib/gcc/arm-none-eabi/4.6.2/../../../../arm-none-eabi/lib/thumb2/libm.a(lib_a-w_cosh.o)
                              /home/mav/paparazzi/var/Radian/ap/math/pprz_geodetic_float.o (cosh)
/opt/paparazzi/arm-multilib/lib/gcc/arm-none-eabi/4.6.2/../../../../arm-none-eabi/lib/thumb2/libm.a(lib_a-w_exp.o)
                              /home/mav/paparazzi/var/Radian/ap/math/pprz_geodetic_float.o (exp)
/opt/paparazzi/arm-multilib/lib/gcc/arm-none-eabi/4.6.2/../../../../arm-none-eabi/lib/thumb2/libm.a(lib_a-w_log.o)
                              /home/mav/paparazzi/var/Radian/ap/math/pprz_geodetic_float.o (log)
/opt/paparazzi/arm-multilib/lib/gcc/arm-none-eabi/4.6.2/../../../../arm-none-eabi/lib/thumb2/libm.a(lib_a-w_pow.o)
                              /home/mav/paparazzi/var/Radian/ap/math/pprz_geodetic_float.o (pow)
/opt/paparazzi/arm-multilib/lib/gcc/arm-none-eabi/4.6.2/../../../../arm-none-eabi/lib/thumb2/libm.a(lib_a-w_sinh.o)
                              /home/mav/paparazzi/var/Radian/ap/math/pprz_geodetic_float.o (sinh)
/opt/paparazzi/arm-multilib/lib/gcc/arm-none-eabi/4.6.2/../../../../arm-none-eabi/lib/thumb2/libm.a(lib_a-w_sqrt.o)
                              /home/mav/paparazzi/var/Radian/ap/math/pprz_geodetic_double.o (sqrt)
/opt/paparazzi/arm-multilib/lib/gcc/arm-none-eabi/4.6.2/../../../../arm-none-eabi/lib/thumb2/libm.a(lib_a-wf_asin.o)
                              /home/mav/paparazzi/var/Radian/ap/subsystems/ahrs/ahrs_int_cmpl_quat.o (asinf)
/opt/paparazzi/arm-multilib/lib/gcc/arm-none-eabi/4.6.2/../../../../arm-none-eabi/lib/thumb2/libm.a(lib_a-wf_atan2.o)
                              /home/mav/paparazzi/var/Radian/ap/math/pprz_geodetic_float.o (atan2f)
/opt/paparazzi/arm-multilib/lib/gcc/arm-none-eabi/4.6.2/../../../../arm-none-eabi/lib/thumb2/libm.a(lib_a-wf_pow.o)
                              /home/mav/paparazzi/var/Radian/ap/math/pprz_geodetic_float.o (powf)
/opt/paparazzi/arm-multilib/lib/gcc/arm-none-eabi/4.6.2/../../../../arm-none-eabi/lib/thumb2/libm.a(lib_a-wf_sqrt.o)
                              /home/mav/paparazzi/var/Radian/ap/math/pprz_geodetic_float.o (sqrtf)
/opt/paparazzi/arm-multilib/lib/gcc/arm-none-eabi/4.6.2/../../../../arm-none-eabi/lib/thumb2/libm.a(lib_a-e_asin.o)
                              /opt/paparazzi/arm-multilib/lib/gcc/arm-none-eabi/4.6.2/../../../../arm-none-eabi/lib/thumb2/libm.a(lib_a-w_asin.o) (__ieee754_asin)
/opt/paparazzi/arm-multilib/lib/gcc/arm-none-eabi/4.6.2/../../../../arm-none-eabi/lib/thumb2/libm.a(lib_a-e_atan2.o)
                              /opt/paparazzi/arm-multilib/lib/gcc/arm-none-eabi/4.6.2/../../../../arm-none-eabi/lib/thumb2/libm.a(lib_a-w_atan2.o) (__ieee754_atan2)
/opt/paparazzi/arm-multilib/lib/gcc/arm-none-eabi/4.6.2/../../../../arm-none-eabi/lib/thumb2/libm.a(lib_a-e_cosh.o)
                              /opt/paparazzi/arm-multilib/lib/gcc/arm-none-eabi/4.6.2/../../../../arm-none-eabi/lib/thumb2/libm.a(lib_a-w_cosh.o) (__ieee754_cosh)
/opt/paparazzi/arm-multilib/lib/gcc/arm-none-eabi/4.6.2/../../../../arm-none-eabi/lib/thumb2/libm.a(lib_a-e_exp.o)
                              /opt/paparazzi/arm-multilib/lib/gcc/arm-none-eabi/4.6.2/../../../../arm-none-eabi/lib/thumb2/libm.a(lib_a-w_exp.o) (__ieee754_exp)
/opt/paparazzi/arm-multilib/lib/gcc/arm-none-eabi/4.6.2/../../../../arm-none-eabi/lib/thumb2/libm.a(lib_a-e_log.o)
                              /opt/paparazzi/arm-multilib/lib/gcc/arm-none-eabi/4.6.2/../../../../arm-none-eabi/lib/thumb2/libm.a(lib_a-w_log.o) (__ieee754_log)
/opt/paparazzi/arm-multilib/lib/gcc/arm-none-eabi/4.6.2/../../../../arm-none-eabi/lib/thumb2/libm.a(lib_a-e_pow.o)
                              /opt/paparazzi/arm-multilib/lib/gcc/arm-none-eabi/4.6.2/../../../../arm-none-eabi/lib/thumb2/libm.a(lib_a-w_pow.o) (__ieee754_pow)
/opt/paparazzi/arm-multilib/lib/gcc/arm-none-eabi/4.6.2/../../../../arm-none-eabi/lib/thumb2/libm.a(lib_a-e_rem_pio2.o)
                              /opt/paparazzi/arm-multilib/lib/gcc/arm-none-eabi/4.6.2/../../../../arm-none-eabi/lib/thumb2/libm.a(lib_a-s_cos.o) (__ieee754_rem_pio2)
/opt/paparazzi/arm-multilib/lib/gcc/arm-none-eabi/4.6.2/../../../../arm-none-eabi/lib/thumb2/libm.a(lib_a-e_sinh.o)
                              /opt/paparazzi/arm-multilib/lib/gcc/arm-none-eabi/4.6.2/../../../../arm-none-eabi/lib/thumb2/libm.a(lib_a-w_sinh.o) (__ieee754_sinh)
/opt/paparazzi/arm-multilib/lib/gcc/arm-none-eabi/4.6.2/../../../../arm-none-eabi/lib/thumb2/libm.a(lib_a-e_sqrt.o)
                              /opt/paparazzi/arm-multilib/lib/gcc/arm-none-eabi/4.6.2/../../../../arm-none-eabi/lib/thumb2/libm.a(lib_a-w_sqrt.o) (__ieee754_sqrt)
/opt/paparazzi/arm-multilib/lib/gcc/arm-none-eabi/4.6.2/../../../../arm-none-eabi/lib/thumb2/libm.a(lib_a-ef_asin.o)
                              /opt/paparazzi/arm-multilib/lib/gcc/arm-none-eabi/4.6.2/../../../../arm-none-eabi/lib/thumb2/libm.a(lib_a-wf_asin.o) (__ieee754_asinf)
/opt/paparazzi/arm-multilib/lib/gcc/arm-none-eabi/4.6.2/../../../../arm-none-eabi/lib/thumb2/libm.a(lib_a-ef_atan2.o)
                              /opt/paparazzi/arm-multilib/lib/gcc/arm-none-eabi/4.6.2/../../../../arm-none-eabi/lib/thumb2/libm.a(lib_a-wf_atan2.o) (__ieee754_atan2f)
/opt/paparazzi/arm-multilib/lib/gcc/arm-none-eabi/4.6.2/../../../../arm-none-eabi/lib/thumb2/libm.a(lib_a-ef_pow.o)
                              /opt/paparazzi/arm-multilib/lib/gcc/arm-none-eabi/4.6.2/../../../../arm-none-eabi/lib/thumb2/libm.a(lib_a-wf_pow.o) (__ieee754_powf)
/opt/paparazzi/arm-multilib/lib/gcc/arm-none-eabi/4.6.2/../../../../arm-none-eabi/lib/thumb2/libm.a(lib_a-ef_rem_pio2.o)
                              /opt/paparazzi/arm-multilib/lib/gcc/arm-none-eabi/4.6.2/../../../../arm-none-eabi/lib/thumb2/libm.a(lib_a-sf_cos.o) (__ieee754_rem_pio2f)
/opt/paparazzi/arm-multilib/lib/gcc/arm-none-eabi/4.6.2/../../../../arm-none-eabi/lib/thumb2/libm.a(lib_a-ef_sqrt.o)
                              /opt/paparazzi/arm-multilib/lib/gcc/arm-none-eabi/4.6.2/../../../../arm-none-eabi/lib/thumb2/libm.a(lib_a-wf_sqrt.o) (__ieee754_sqrtf)
/opt/paparazzi/arm-multilib/lib/gcc/arm-none-eabi/4.6.2/../../../../arm-none-eabi/lib/thumb2/libm.a(lib_a-k_cos.o)
                              /opt/paparazzi/arm-multilib/lib/gcc/arm-none-eabi/4.6.2/../../../../arm-none-eabi/lib/thumb2/libm.a(lib_a-s_cos.o) (__kernel_cos)
/opt/paparazzi/arm-multilib/lib/gcc/arm-none-eabi/4.6.2/../../../../arm-none-eabi/lib/thumb2/libm.a(lib_a-k_rem_pio2.o)
                              /opt/paparazzi/arm-multilib/lib/gcc/arm-none-eabi/4.6.2/../../../../arm-none-eabi/lib/thumb2/libm.a(lib_a-e_rem_pio2.o) (__kernel_rem_pio2)
/opt/paparazzi/arm-multilib/lib/gcc/arm-none-eabi/4.6.2/../../../../arm-none-eabi/lib/thumb2/libm.a(lib_a-k_sin.o)
                              /opt/paparazzi/arm-multilib/lib/gcc/arm-none-eabi/4.6.2/../../../../arm-none-eabi/lib/thumb2/libm.a(lib_a-s_cos.o) (__kernel_sin)
/opt/paparazzi/arm-multilib/lib/gcc/arm-none-eabi/4.6.2/../../../../arm-none-eabi/lib/thumb2/libm.a(lib_a-k_tan.o)
                              /opt/paparazzi/arm-multilib/lib/gcc/arm-none-eabi/4.6.2/../../../../arm-none-eabi/lib/thumb2/libm.a(lib_a-s_tan.o) (__kernel_tan)
/opt/paparazzi/arm-multilib/lib/gcc/arm-none-eabi/4.6.2/../../../../arm-none-eabi/lib/thumb2/libm.a(lib_a-kf_cos.o)
                              /opt/paparazzi/arm-multilib/lib/gcc/arm-none-eabi/4.6.2/../../../../arm-none-eabi/lib/thumb2/libm.a(lib_a-sf_cos.o) (__kernel_cosf)
/opt/paparazzi/arm-multilib/lib/gcc/arm-none-eabi/4.6.2/../../../../arm-none-eabi/lib/thumb2/libm.a(lib_a-kf_rem_pio2.o)
                              /opt/paparazzi/arm-multilib/lib/gcc/arm-none-eabi/4.6.2/../../../../arm-none-eabi/lib/thumb2/libm.a(lib_a-ef_rem_pio2.o) (__kernel_rem_pio2f)
/opt/paparazzi/arm-multilib/lib/gcc/arm-none-eabi/4.6.2/../../../../arm-none-eabi/lib/thumb2/libm.a(lib_a-kf_sin.o)
                              /opt/paparazzi/arm-multilib/lib/gcc/arm-none-eabi/4.6.2/../../../../arm-none-eabi/lib/thumb2/libm.a(lib_a-sf_cos.o) (__kernel_sinf)
/opt/paparazzi/arm-multilib/lib/gcc/arm-none-eabi/4.6.2/../../../../arm-none-eabi/lib/thumb2/libm.a(lib_a-s_expm1.o)
                              /opt/paparazzi/arm-multilib/lib/gcc/arm-none-eabi/4.6.2/../../../../arm-none-eabi/lib/thumb2/libm.a(lib_a-e_cosh.o) (expm1)
/opt/paparazzi/arm-multilib/lib/gcc/arm-none-eabi/4.6.2/../../../../arm-none-eabi/lib/thumb2/libm.a(lib_a-s_finite.o)
                              /opt/paparazzi/arm-multilib/lib/gcc/arm-none-eabi/4.6.2/../../../../arm-none-eabi/lib/thumb2/libm.a(lib_a-w_exp.o) (finite)
/opt/paparazzi/arm-multilib/lib/gcc/arm-none-eabi/4.6.2/../../../../arm-none-eabi/lib/thumb2/libm.a(lib_a-s_floor.o)
                              /opt/paparazzi/arm-multilib/lib/gcc/arm-none-eabi/4.6.2/../../../../arm-none-eabi/lib/thumb2/libm.a(lib_a-k_rem_pio2.o) (floor)
/opt/paparazzi/arm-multilib/lib/gcc/arm-none-eabi/4.6.2/../../../../arm-none-eabi/lib/thumb2/libm.a(lib_a-s_fpclassify.o)
                              /opt/paparazzi/arm-multilib/lib/gcc/arm-none-eabi/4.6.2/../../../../arm-none-eabi/lib/thumb2/libm.a(lib_a-w_asin.o) (__fpclassifyd)
/opt/paparazzi/arm-multilib/lib/gcc/arm-none-eabi/4.6.2/../../../../arm-none-eabi/lib/thumb2/libm.a(lib_a-s_lib_ver.o)
                              /opt/paparazzi/arm-multilib/lib/gcc/arm-none-eabi/4.6.2/../../../../arm-none-eabi/lib/thumb2/libm.a(lib_a-w_asin.o) (__fdlib_version)
/opt/paparazzi/arm-multilib/lib/gcc/arm-none-eabi/4.6.2/../../../../arm-none-eabi/lib/thumb2/libm.a(lib_a-s_matherr.o)
                              /opt/paparazzi/arm-multilib/lib/gcc/arm-none-eabi/4.6.2/../../../../arm-none-eabi/lib/thumb2/libm.a(lib_a-w_asin.o) (matherr)
/opt/paparazzi/arm-multilib/lib/gcc/arm-none-eabi/4.6.2/../../../../arm-none-eabi/lib/thumb2/libm.a(lib_a-s_nan.o)
                              /opt/paparazzi/arm-multilib/lib/gcc/arm-none-eabi/4.6.2/../../../../arm-none-eabi/lib/thumb2/libm.a(lib_a-w_asin.o) (nan)
/opt/paparazzi/arm-multilib/lib/gcc/arm-none-eabi/4.6.2/../../../../arm-none-eabi/lib/thumb2/libm.a(lib_a-s_scalbn.o)
                              /opt/paparazzi/arm-multilib/lib/gcc/arm-none-eabi/4.6.2/../../../../arm-none-eabi/lib/thumb2/libm.a(lib_a-e_pow.o) (scalbn)
/opt/paparazzi/arm-multilib/lib/gcc/arm-none-eabi/4.6.2/../../../../arm-none-eabi/lib/thumb2/libm.a(lib_a-sf_finite.o)
                              /opt/paparazzi/arm-multilib/lib/gcc/arm-none-eabi/4.6.2/../../../../arm-none-eabi/lib/thumb2/libm.a(lib_a-wf_pow.o) (finitef)
/opt/paparazzi/arm-multilib/lib/gcc/arm-none-eabi/4.6.2/../../../../arm-none-eabi/lib/thumb2/libm.a(lib_a-sf_floor.o)
                              /opt/paparazzi/arm-multilib/lib/gcc/arm-none-eabi/4.6.2/../../../../arm-none-eabi/lib/thumb2/libm.a(lib_a-kf_rem_pio2.o) (floorf)
/opt/paparazzi/arm-multilib/lib/gcc/arm-none-eabi/4.6.2/../../../../arm-none-eabi/lib/thumb2/libm.a(lib_a-sf_fpclassify.o)
                              /opt/paparazzi/arm-multilib/lib/gcc/arm-none-eabi/4.6.2/../../../../arm-none-eabi/lib/thumb2/libm.a(lib_a-wf_asin.o) (__fpclassifyf)
/opt/paparazzi/arm-multilib/lib/gcc/arm-none-eabi/4.6.2/../../../../arm-none-eabi/lib/thumb2/libm.a(lib_a-sf_nan.o)
                              /opt/paparazzi/arm-multilib/lib/gcc/arm-none-eabi/4.6.2/../../../../arm-none-eabi/lib/thumb2/libm.a(lib_a-ef_pow.o) (nanf)
/opt/paparazzi/arm-multilib/lib/gcc/arm-none-eabi/4.6.2/../../../../arm-none-eabi/lib/thumb2/libm.a(lib_a-sf_scalbn.o)
                              /opt/paparazzi/arm-multilib/lib/gcc/arm-none-eabi/4.6.2/../../../../arm-none-eabi/lib/thumb2/libm.a(lib_a-ef_pow.o) (scalbnf)
/opt/paparazzi/arm-multilib/lib/gcc/arm-none-eabi/4.6.2/../../../../arm-none-eabi/lib/thumb2/libm.a(lib_a-s_copysign.o)
                              /opt/paparazzi/arm-multilib/lib/gcc/arm-none-eabi/4.6.2/../../../../arm-none-eabi/lib/thumb2/libm.a(lib_a-s_scalbn.o) (copysign)
/opt/paparazzi/arm-multilib/lib/gcc/arm-none-eabi/4.6.2/../../../../arm-none-eabi/lib/thumb2/libm.a(lib_a-sf_copysign.o)
                              /opt/paparazzi/arm-multilib/lib/gcc/arm-none-eabi/4.6.2/../../../../arm-none-eabi/lib/thumb2/libm.a(lib_a-sf_scalbn.o) (copysignf)
/opt/paparazzi/arm-multilib/lib/gcc/arm-none-eabi/4.6.2/thumb2/libgcc.a(_divsi3.o)
                              /opt/paparazzi/arm-multilib/lib/gcc/arm-none-eabi/4.6.2/../../../../arm-none-eabi/lib/thumb2/libc.a(lib_a-ldiv.o) (__aeabi_idiv)
/opt/paparazzi/arm-multilib/lib/gcc/arm-none-eabi/4.6.2/thumb2/libgcc.a(_dvmd_tls.o)
                              /opt/paparazzi/arm-multilib/lib/gcc/arm-none-eabi/4.6.2/thumb2/libgcc.a(_divsi3.o) (__aeabi_idiv0)
/opt/paparazzi/arm-multilib/lib/gcc/arm-none-eabi/4.6.2/thumb2/libgcc.a(_arm_addsubdf3.o)
                              /home/mav/paparazzi/var/Radian/ap/math/pprz_geodetic_float.o (__aeabi_dsub)
/opt/paparazzi/arm-multilib/lib/gcc/arm-none-eabi/4.6.2/thumb2/libgcc.a(_arm_muldivdf3.o)
                              /home/mav/paparazzi/var/Radian/ap/math/pprz_geodetic_int.o (__aeabi_dmul)
/opt/paparazzi/arm-multilib/lib/gcc/arm-none-eabi/4.6.2/thumb2/libgcc.a(_arm_cmpdf2.o)
                              /opt/paparazzi/arm-multilib/lib/gcc/arm-none-eabi/4.6.2/../../../../arm-none-eabi/lib/thumb2/libm.a(lib_a-w_log.o) (__aeabi_dcmpeq)
/opt/paparazzi/arm-multilib/lib/gcc/arm-none-eabi/4.6.2/thumb2/libgcc.a(_arm_fixdfsi.o)
                              /home/mav/paparazzi/var/Radian/ap/math/pprz_geodetic_int.o (__aeabi_d2iz)
/opt/paparazzi/arm-multilib/lib/gcc/arm-none-eabi/4.6.2/thumb2/libgcc.a(_arm_fixunsdfsi.o)
                              /home/mav/paparazzi/var/Radian/ap/mcu_periph/sys_time.o (__aeabi_d2uiz)
/opt/paparazzi/arm-multilib/lib/gcc/arm-none-eabi/4.6.2/thumb2/libgcc.a(_arm_truncdfsf2.o)
                              /home/mav/paparazzi/var/Radian/ap/math/pprz_geodetic_float.o (__aeabi_d2f)
/opt/paparazzi/arm-multilib/lib/gcc/arm-none-eabi/4.6.2/thumb2/libgcc.a(_arm_addsubsf3.o)
                              /home/mav/paparazzi/var/Radian/ap/math/pprz_geodetic_float.o (__aeabi_fsub)
/opt/paparazzi/arm-multilib/lib/gcc/arm-none-eabi/4.6.2/thumb2/libgcc.a(_arm_muldivsf3.o)
                              /home/mav/paparazzi/var/Radian/ap/math/pprz_geodetic_int.o (__aeabi_fmul)
/opt/paparazzi/arm-multilib/lib/gcc/arm-none-eabi/4.6.2/thumb2/libgcc.a(_arm_cmpsf2.o)
                              /home/mav/paparazzi/var/Radian/ap/firmwares/fixedwing/datalink.o (__aeabi_fcmpeq)
/opt/paparazzi/arm-multilib/lib/gcc/arm-none-eabi/4.6.2/thumb2/libgcc.a(_arm_fixsfsi.o)
                              /home/mav/paparazzi/var/Radian/ap/firmwares/fixedwing/main_fbw.o (__aeabi_f2iz)
/opt/paparazzi/arm-multilib/lib/gcc/arm-none-eabi/4.6.2/thumb2/libgcc.a(_arm_fixunssfsi.o)
                              /home/mav/paparazzi/var/Radian/ap/firmwares/fixedwing/datalink.o (__aeabi_f2uiz)
/opt/paparazzi/arm-multilib/lib/gcc/arm-none-eabi/4.6.2/../../../../arm-none-eabi/lib/libstm32.a(stm32_adc.o)
                              /home/mav/paparazzi/var/Radian/ap/arch/stm32/mcu_periph/adc_arch.o (ADC_Init)
/opt/paparazzi/arm-multilib/lib/gcc/arm-none-eabi/4.6.2/../../../../arm-none-eabi/lib/libstm32.a(stm32_tim.o)
                              /home/mav/paparazzi/var/Radian/ap/arch/stm32/mcu_periph/adc_arch.o (TIM_TimeBaseInit)
/opt/paparazzi/arm-multilib/lib/gcc/arm-none-eabi/4.6.2/../../../../arm-none-eabi/lib/libstm32.a(stm32_dma.o)
                              /home/mav/paparazzi/var/Radian/ap/arch/stm32/mcu_periph/spi_arch.o (DMA_DeInit)
/opt/paparazzi/arm-multilib/lib/gcc/arm-none-eabi/4.6.2/../../../../arm-none-eabi/lib/libstm32.a(stm32_gpio.o)
                              /home/mav/paparazzi/var/Radian/ap/mcu.o (GPIO_Init)
/opt/paparazzi/arm-multilib/lib/gcc/arm-none-eabi/4.6.2/../../../../arm-none-eabi/lib/libstm32.a(stm32_usart.o)
                              /home/mav/paparazzi/var/Radian/ap/arch/stm32/mcu_periph/uart_arch.o (USART_Init)
/opt/paparazzi/arm-multilib/lib/gcc/arm-none-eabi/4.6.2/../../../../arm-none-eabi/lib/libstm32.a(stm32_exti.o)
                              /home/mav/paparazzi/var/Radian/ap/arch/stm32/subsystems/imu/imu_aspirin2_arch.o (EXTI_GetITStatus)
/opt/paparazzi/arm-multilib/lib/gcc/arm-none-eabi/4.6.2/../../../../arm-none-eabi/lib/libstm32.a(stm32_i2c.o)
                              /home/mav/paparazzi/var/Radian/ap/arch/stm32/mcu_periph/i2c_arch.o (I2C_GenerateSTART)
/opt/paparazzi/arm-multilib/lib/gcc/arm-none-eabi/4.6.2/../../../../arm-none-eabi/lib/libstm32.a(stm32_spi.o)
                              /home/mav/paparazzi/var/Radian/ap/arch/stm32/mcu_periph/spi_arch.o (SPI_Init)
/opt/paparazzi/arm-multilib/lib/gcc/arm-none-eabi/4.6.2/../../../../arm-none-eabi/lib/libstm32.a(stm32_rcc.o)
                              /home/mav/paparazzi/var/Radian/ap/arch/stm32/mcu_periph/adc_arch.o (RCC_ADCCLKConfig)
/opt/paparazzi/arm-multilib/lib/gcc/arm-none-eabi/4.6.2/../../../../arm-none-eabi/lib/libstm32.a(stm32_misc.o)
                              /home/mav/paparazzi/var/Radian/ap/arch/stm32/mcu_periph/uart_arch.o (NVIC_Init)
/opt/paparazzi/arm-multilib/lib/gcc/arm-none-eabi/4.6.2/../../../../arm-none-eabi/lib/libopencm3_stm32.a(rcc.o)
                              /home/mav/paparazzi/var/Radian/ap/arch/stm32/mcu_arch.o (rcc_clock_setup_in_hse_12mhz_out_72mhz)
/opt/paparazzi/arm-multilib/lib/gcc/arm-none-eabi/4.6.2/../../../../arm-none-eabi/lib/libopencm3_stm32.a(usart.o)
                              /home/mav/paparazzi/var/Radian/ap/arch/stm32/mcu_periph/uart_arch.o (usart_set_baudrate)
/opt/paparazzi/arm-multilib/lib/gcc/arm-none-eabi/4.6.2/../../../../arm-none-eabi/lib/libopencm3_stm32.a(flash.o)
                              /opt/paparazzi/arm-multilib/lib/gcc/arm-none-eabi/4.6.2/../../../../arm-none-eabi/lib/libopencm3_stm32.a(rcc.o) (flash_set_ws)
/opt/paparazzi/arm-multilib/lib/gcc/arm-none-eabi/4.6.2/../../../../arm-none-eabi/lib/thumb2/libc.a(lib_a-errno.o)
                              /opt/paparazzi/arm-multilib/lib/gcc/arm-none-eabi/4.6.2/../../../../arm-none-eabi/lib/thumb2/libm.a(lib_a-w_asin.o) (__errno)
/opt/paparazzi/arm-multilib/lib/gcc/arm-none-eabi/4.6.2/../../../../arm-none-eabi/lib/thumb2/libc.a(lib_a-impure.o)
                              /opt/paparazzi/arm-multilib/lib/gcc/arm-none-eabi/4.6.2/../../../../arm-none-eabi/lib/thumb2/libc.a(lib_a-errno.o) (_impure_ptr)

Discarded input sections

 .text          0x00000000        0x0 /home/mav/paparazzi/var/Radian/ap/mcu.o
 .data          0x00000000        0x0 /home/mav/paparazzi/var/Radian/ap/mcu.o
 .bss           0x00000000        0x0 /home/mav/paparazzi/var/Radian/ap/mcu.o
 .text          0x00000000        0x0 /home/mav/paparazzi/var/Radian/ap/arch/stm32/mcu_arch.o
 .data          0x00000000        0x0 /home/mav/paparazzi/var/Radian/ap/arch/stm32/mcu_arch.o
 .bss           0x00000000        0x0 /home/mav/paparazzi/var/Radian/ap/arch/stm32/mcu_arch.o
 .text          0x00000000        0x0 /home/mav/paparazzi/var/Radian/ap/arch/stm32/led_hw.o
 .data          0x00000000        0x0 /home/mav/paparazzi/var/Radian/ap/arch/stm32/led_hw.o
 .bss           0x00000000        0x0 /home/mav/paparazzi/var/Radian/ap/arch/stm32/led_hw.o
 .text          0x00000000        0x0 /home/mav/paparazzi/var/Radian/ap/mcu_periph/sys_time.o
 .data          0x00000000        0x0 /home/mav/paparazzi/var/Radian/ap/mcu_periph/sys_time.o
 .bss           0x00000000        0x0 /home/mav/paparazzi/var/Radian/ap/mcu_periph/sys_time.o
 .text.sys_time_cancel_timer
                0x00000000       0x14 /home/mav/paparazzi/var/Radian/ap/mcu_periph/sys_time.o
 .text.sys_time_update_timer
                0x00000000       0x44 /home/mav/paparazzi/var/Radian/ap/mcu_periph/sys_time.o
 .text          0x00000000        0x0 /home/mav/paparazzi/var/Radian/ap/arch/stm32/mcu_periph/sys_time_arch.o
 .data          0x00000000        0x0 /home/mav/paparazzi/var/Radian/ap/arch/stm32/mcu_periph/sys_time_arch.o
 .bss           0x00000000        0x0 /home/mav/paparazzi/var/Radian/ap/arch/stm32/mcu_periph/sys_time_arch.o
 .text          0x00000000        0x0 /home/mav/paparazzi/var/Radian/ap/./inter_mcu.o
 .data          0x00000000        0x0 /home/mav/paparazzi/var/Radian/ap/./inter_mcu.o
 .bss           0x00000000        0x0 /home/mav/paparazzi/var/Radian/ap/./inter_mcu.o
 .text          0x00000000        0x0 /home/mav/paparazzi/var/Radian/ap/math/pprz_geodetic_int.o
 .data          0x00000000        0x0 /home/mav/paparazzi/var/Radian/ap/math/pprz_geodetic_int.o
 .bss           0x00000000        0x0 /home/mav/paparazzi/var/Radian/ap/math/pprz_geodetic_int.o
 .text.enu_of_ecef_point_i
                0x00000000       0x62 /home/mav/paparazzi/var/Radian/ap/math/pprz_geodetic_int.o
 .text.ned_of_ecef_point_i
                0x00000000       0x1a /home/mav/paparazzi/var/Radian/ap/math/pprz_geodetic_int.o
 .text.enu_of_ecef_vect_i
                0x00000000       0x5a /home/mav/paparazzi/var/Radian/ap/math/pprz_geodetic_int.o
 .text.ned_of_ecef_vect_i
                0x00000000       0x1a /home/mav/paparazzi/var/Radian/ap/math/pprz_geodetic_int.o
 .text.ecef_of_enu_point_i
                0x00000000       0x5c /home/mav/paparazzi/var/Radian/ap/math/pprz_geodetic_int.o
 .text.ecef_of_ned_point_i
                0x00000000       0x1a /home/mav/paparazzi/var/Radian/ap/math/pprz_geodetic_int.o
 .text.ecef_of_enu_vect_i
                0x00000000       0x46 /home/mav/paparazzi/var/Radian/ap/math/pprz_geodetic_int.o
 .text.ecef_of_ned_vect_i
                0x00000000       0x1a /home/mav/paparazzi/var/Radian/ap/math/pprz_geodetic_int.o
 .text.lla_of_ecef_i
                0x00000000       0xa0 /home/mav/paparazzi/var/Radian/ap/math/pprz_geodetic_int.o
 .text.ltp_def_from_ecef_i
                0x00000000      0x11c /home/mav/paparazzi/var/Radian/ap/math/pprz_geodetic_int.o
 .text.ecef_of_lla_i
                0x00000000       0x98 /home/mav/paparazzi/var/Radian/ap/math/pprz_geodetic_int.o
 .text.ned_of_lla_vect_i
                0x00000000       0x1e /home/mav/paparazzi/var/Radian/ap/math/pprz_geodetic_int.o
 .text.enu_of_lla_vect_i
                0x00000000       0x1e /home/mav/paparazzi/var/Radian/ap/math/pprz_geodetic_int.o
 .text.ned_of_lla_point_i
                0x00000000       0x1e /home/mav/paparazzi/var/Radian/ap/math/pprz_geodetic_int.o
 .text.enu_of_lla_point_i
                0x00000000       0x1e /home/mav/paparazzi/var/Radian/ap/math/pprz_geodetic_int.o
 .text.ltp_def_from_lla_i
                0x00000000      0x118 /home/mav/paparazzi/var/Radian/ap/math/pprz_geodetic_int.o
 .text          0x00000000        0x0 /home/mav/paparazzi/var/Radian/ap/math/pprz_geodetic_float.o
 .data          0x00000000        0x0 /home/mav/paparazzi/var/Radian/ap/math/pprz_geodetic_float.o
 .bss           0x00000000        0x0 /home/mav/paparazzi/var/Radian/ap/math/pprz_geodetic_float.o
 .text.enu_of_ecef_point_f
                0x00000000       0xb6 /home/mav/paparazzi/var/Radian/ap/math/pprz_geodetic_float.o
 .text.ned_of_ecef_point_f
                0x00000000       0x1c /home/mav/paparazzi/var/Radian/ap/math/pprz_geodetic_float.o
 .text.enu_of_ecef_vect_f
                0x00000000       0x9e /home/mav/paparazzi/var/Radian/ap/math/pprz_geodetic_float.o
 .text.ned_of_ecef_vect_f
                0x00000000       0x1c /home/mav/paparazzi/var/Radian/ap/math/pprz_geodetic_float.o
 .text.ecef_of_enu_point_f
                0x00000000      0x142 /home/mav/paparazzi/var/Radian/ap/math/pprz_geodetic_float.o
 .text.ecef_of_ned_point_f
                0x00000000       0x1c /home/mav/paparazzi/var/Radian/ap/math/pprz_geodetic_float.o
 .text.ecef_of_enu_vect_f
                0x00000000      0x130 /home/mav/paparazzi/var/Radian/ap/math/pprz_geodetic_float.o
 .text.ecef_of_ned_vect_f
                0x00000000       0x1c /home/mav/paparazzi/var/Radian/ap/math/pprz_geodetic_float.o
 .text.lla_of_ecef_f
                0x00000000      0x290 /home/mav/paparazzi/var/Radian/ap/math/pprz_geodetic_float.o
 .text.ltp_def_from_ecef_f
                0x00000000       0x82 /home/mav/paparazzi/var/Radian/ap/math/pprz_geodetic_float.o
 .text.ecef_of_lla_f
                0x00000000       0xd0 /home/mav/paparazzi/var/Radian/ap/math/pprz_geodetic_float.o
 .text.ned_of_lla_point_f
                0x00000000       0x1e /home/mav/paparazzi/var/Radian/ap/math/pprz_geodetic_float.o
 .text.enu_of_lla_point_f
                0x00000000       0x1e /home/mav/paparazzi/var/Radian/ap/math/pprz_geodetic_float.o
 .text.ltp_def_from_lla_f
                0x00000000       0x80 /home/mav/paparazzi/var/Radian/ap/math/pprz_geodetic_float.o
 .text.lla_of_utm_f
                0x00000000      0x288 /home/mav/paparazzi/var/Radian/ap/math/pprz_geodetic_float.o
 .text          0x00000000        0x0 /home/mav/paparazzi/var/Radian/ap/math/pprz_geodetic_double.o
 .data          0x00000000        0x0 /home/mav/paparazzi/var/Radian/ap/math/pprz_geodetic_double.o
 .bss           0x00000000        0x0 /home/mav/paparazzi/var/Radian/ap/math/pprz_geodetic_double.o
 .text.lla_of_ecef_d
                0x00000000      0x388 /home/mav/paparazzi/var/Radian/ap/math/pprz_geodetic_double.o
 .text.ltp_def_from_ecef_d
                0x00000000       0xcc /home/mav/paparazzi/var/Radian/ap/math/pprz_geodetic_double.o
 .text.ecef_of_lla_d
                0x00000000      0x100 /home/mav/paparazzi/var/Radian/ap/math/pprz_geodetic_double.o
 .text.enu_of_ecef_point_d
                0x00000000      0x116 /home/mav/paparazzi/var/Radian/ap/math/pprz_geodetic_double.o
 .text.ned_of_ecef_point_d
                0x00000000       0x2c /home/mav/paparazzi/var/Radian/ap/math/pprz_geodetic_double.o
 .text.enu_of_ecef_vect_d
                0x00000000       0xf4 /home/mav/paparazzi/var/Radian/ap/math/pprz_geodetic_double.o
 .text.ned_of_ecef_vect_d
                0x00000000       0x2c /home/mav/paparazzi/var/Radian/ap/math/pprz_geodetic_double.o
 .text.ecef_of_enu_point_d
                0x00000000      0x138 /home/mav/paparazzi/var/Radian/ap/math/pprz_geodetic_double.o
 .text.ecef_of_ned_point_d
                0x00000000       0x2a /home/mav/paparazzi/var/Radian/ap/math/pprz_geodetic_double.o
 .text.ecef_of_enu_vect_d
                0x00000000       0xf4 /home/mav/paparazzi/var/Radian/ap/math/pprz_geodetic_double.o
 .text.ecef_of_ned_vect_d
                0x00000000       0x2a /home/mav/paparazzi/var/Radian/ap/math/pprz_geodetic_double.o
 .text.gc_of_gd_lat_d
                0x00000000       0xd0 /home/mav/paparazzi/var/Radian/ap/math/pprz_geodetic_double.o
 .text.lla_of_utm_d
                0x00000000      0x318 /home/mav/paparazzi/var/Radian/ap/math/pprz_geodetic_double.o
 .text          0x00000000        0x0 /home/mav/paparazzi/var/Radian/ap/math/pprz_trig_int.o
 .data          0x00000000        0x0 /home/mav/paparazzi/var/Radian/ap/math/pprz_trig_int.o
 .bss           0x00000000        0x0 /home/mav/paparazzi/var/Radian/ap/math/pprz_trig_int.o
 .text          0x00000000        0x0 /home/mav/paparazzi/var/Radian/ap/mcu_periph/i2c.o
 .data          0x00000000        0x0 /home/mav/paparazzi/var/Radian/ap/mcu_periph/i2c.o
 .bss           0x00000000        0x0 /home/mav/paparazzi/var/Radian/ap/mcu_periph/i2c.o
 .text.i2c_init
                0x00000000       0x10 /home/mav/paparazzi/var/Radian/ap/mcu_periph/i2c.o
 .text          0x00000000        0x0 /home/mav/paparazzi/var/Radian/ap/arch/stm32/mcu_periph/i2c_arch.o
 .data          0x00000000        0x0 /home/mav/paparazzi/var/Radian/ap/arch/stm32/mcu_periph/i2c_arch.o
 .bss           0x00000000        0x0 /home/mav/paparazzi/var/Radian/ap/arch/stm32/mcu_periph/i2c_arch.o
 .text.i2c_idle
                0x00000000       0x16 /home/mav/paparazzi/var/Radian/ap/arch/stm32/mcu_periph/i2c_arch.o
 .text.i2c_submit
                0x00000000       0x5a /home/mav/paparazzi/var/Radian/ap/arch/stm32/mcu_periph/i2c_arch.o
 .text          0x00000000        0x0 /home/mav/paparazzi/var/Radian/ap/firmwares/fixedwing/main_fbw.o
 .data          0x00000000        0x0 /home/mav/paparazzi/var/Radian/ap/firmwares/fixedwing/main_fbw.o
 .bss           0x00000000        0x0 /home/mav/paparazzi/var/Radian/ap/firmwares/fixedwing/main_fbw.o
 .text          0x00000000        0x0 /home/mav/paparazzi/var/Radian/ap/subsystems/electrical.o
 .data          0x00000000        0x0 /home/mav/paparazzi/var/Radian/ap/subsystems/electrical.o
 .bss           0x00000000        0x0 /home/mav/paparazzi/var/Radian/ap/subsystems/electrical.o
 .text          0x00000000        0x0 /home/mav/paparazzi/var/Radian/ap/./commands.o
 .data          0x00000000        0x0 /home/mav/paparazzi/var/Radian/ap/./commands.o
 .bss           0x00000000        0x0 /home/mav/paparazzi/var/Radian/ap/./commands.o
 .text          0x00000000        0x0 /home/mav/paparazzi/var/Radian/ap/firmwares/fixedwing/fbw_downlink.o
 .data          0x00000000        0x0 /home/mav/paparazzi/var/Radian/ap/firmwares/fixedwing/fbw_downlink.o
 .bss           0x00000000        0x0 /home/mav/paparazzi/var/Radian/ap/firmwares/fixedwing/fbw_downlink.o
 .text          0x00000000        0x0 /home/mav/paparazzi/var/Radian/ap/firmwares/fixedwing/main_ap.o
 .data          0x00000000        0x0 /home/mav/paparazzi/var/Radian/ap/firmwares/fixedwing/main_ap.o
 .bss           0x00000000        0x0 /home/mav/paparazzi/var/Radian/ap/firmwares/fixedwing/main_ap.o
 .text          0x00000000        0x0 /home/mav/paparazzi/var/Radian/ap/./estimator.o
 .data          0x00000000        0x0 /home/mav/paparazzi/var/Radian/ap/./estimator.o
 .bss           0x00000000        0x0 /home/mav/paparazzi/var/Radian/ap/./estimator.o
 .bss.alt_kalman_enabled
                0x00000000        0x1 /home/mav/paparazzi/var/Radian/ap/./estimator.o
 .bss.estimator_AOA
                0x00000000        0x4 /home/mav/paparazzi/var/Radian/ap/./estimator.o
 .bss.estimator_t
                0x00000000        0x4 /home/mav/paparazzi/var/Radian/ap/./estimator.o
 .text          0x00000000        0x0 /home/mav/paparazzi/var/Radian/ap/firmwares/fixedwing/ap_downlink.o
 .data          0x00000000        0x0 /home/mav/paparazzi/var/Radian/ap/firmwares/fixedwing/ap_downlink.o
 .bss           0x00000000        0x0 /home/mav/paparazzi/var/Radian/ap/firmwares/fixedwing/ap_downlink.o
 .text          0x00000000        0x0 /home/mav/paparazzi/var/Radian/ap/arch/stm32/stm32_exceptions.o
 .data          0x00000000        0x0 /home/mav/paparazzi/var/Radian/ap/arch/stm32/stm32_exceptions.o
 .bss           0x00000000        0x0 /home/mav/paparazzi/var/Radian/ap/arch/stm32/stm32_exceptions.o
 .text          0x00000000        0x0 /home/mav/paparazzi/var/Radian/ap/arch/stm32/stm32_vector_table.o
 .data          0x00000000        0x0 /home/mav/paparazzi/var/Radian/ap/arch/stm32/stm32_vector_table.o
 .bss           0x00000000        0x0 /home/mav/paparazzi/var/Radian/ap/arch/stm32/stm32_vector_table.o
 .text.assert_param
                0x00000000        0x2 /home/mav/paparazzi/var/Radian/ap/arch/stm32/stm32_vector_table.o
 .text          0x00000000        0x0 /home/mav/paparazzi/var/Radian/ap/lisa/plug_sys.o
 .data          0x00000000        0x0 /home/mav/paparazzi/var/Radian/ap/lisa/plug_sys.o
 .bss           0x00000000        0x0 /home/mav/paparazzi/var/Radian/ap/lisa/plug_sys.o
 .text._lseek   0x00000000        0x4 /home/mav/paparazzi/var/Radian/ap/lisa/plug_sys.o
 .text.abort    0x00000000        0x2 /home/mav/paparazzi/var/Radian/ap/lisa/plug_sys.o
 .text.getpid   0x00000000        0x4 /home/mav/paparazzi/var/Radian/ap/lisa/plug_sys.o
 .text.kill     0x00000000        0x4 /home/mav/paparazzi/var/Radian/ap/lisa/plug_sys.o
 .text._sbrk    0x00000000        0x4 /home/mav/paparazzi/var/Radian/ap/lisa/plug_sys.o
 .text._write   0x00000000        0x4 /home/mav/paparazzi/var/Radian/ap/lisa/plug_sys.o
 .text._close   0x00000000        0x4 /home/mav/paparazzi/var/Radian/ap/lisa/plug_sys.o
 .text._read    0x00000000        0x4 /home/mav/paparazzi/var/Radian/ap/lisa/plug_sys.o
 .text          0x00000000        0x0 /home/mav/paparazzi/var/Radian/ap/firmwares/fixedwing/main.o
 .data          0x00000000        0x0 /home/mav/paparazzi/var/Radian/ap/firmwares/fixedwing/main.o
 .bss           0x00000000        0x0 /home/mav/paparazzi/var/Radian/ap/firmwares/fixedwing/main.o
 .text          0x00000000        0x0 /home/mav/paparazzi/var/Radian/ap/mcu_periph/uart.o
 .data          0x00000000        0x0 /home/mav/paparazzi/var/Radian/ap/mcu_periph/uart.o
 .bss           0x00000000        0x0 /home/mav/paparazzi/var/Radian/ap/mcu_periph/uart.o
 .text          0x00000000        0x0 /home/mav/paparazzi/var/Radian/ap/arch/stm32/mcu_periph/uart_arch.o
 .data          0x00000000        0x0 /home/mav/paparazzi/var/Radian/ap/arch/stm32/mcu_periph/uart_arch.o
 .bss           0x00000000        0x0 /home/mav/paparazzi/var/Radian/ap/arch/stm32/mcu_periph/uart_arch.o
 .text          0x00000000        0x0 /home/mav/paparazzi/var/Radian/ap/subsystems/settings.o
 .data          0x00000000        0x0 /home/mav/paparazzi/var/Radian/ap/subsystems/settings.o
 .bss           0x00000000        0x0 /home/mav/paparazzi/var/Radian/ap/subsystems/settings.o
 .text.settings_store
                0x00000000        0x2 /home/mav/paparazzi/var/Radian/ap/subsystems/settings.o
 .bss.settings_store_now
                0x00000000        0x1 /home/mav/paparazzi/var/Radian/ap/subsystems/settings.o
 .bss.pers_settings
                0x00000000        0x0 /home/mav/paparazzi/var/Radian/ap/subsystems/settings.o
 .text          0x00000000        0x0 /home/mav/paparazzi/var/Radian/ap/arch/stm32/subsystems/settings_arch.o
 .data          0x00000000        0x0 /home/mav/paparazzi/var/Radian/ap/arch/stm32/subsystems/settings_arch.o
 .bss           0x00000000        0x0 /home/mav/paparazzi/var/Radian/ap/arch/stm32/subsystems/settings_arch.o
 .text.pflash_checksum
                0x00000000       0x98 /home/mav/paparazzi/var/Radian/ap/arch/stm32/subsystems/settings_arch.o
 .text.flash_detect
                0x00000000       0x70 /home/mav/paparazzi/var/Radian/ap/arch/stm32/subsystems/settings_arch.o
 .text.persistent_write
                0x00000000      0x106 /home/mav/paparazzi/var/Radian/ap/arch/stm32/subsystems/settings_arch.o
 .text.persistent_read
                0x00000000       0x64 /home/mav/paparazzi/var/Radian/ap/arch/stm32/subsystems/settings_arch.o
 .text          0x00000000        0x0 /home/mav/paparazzi/var/Radian/ap/arch/stm32/mcu_periph/adc_arch.o
 .data          0x00000000        0x0 /home/mav/paparazzi/var/Radian/ap/arch/stm32/mcu_periph/adc_arch.o
 .bss           0x00000000        0x0 /home/mav/paparazzi/var/Radian/ap/arch/stm32/mcu_periph/adc_arch.o
 .text          0x00000000        0x0 /home/mav/paparazzi/var/Radian/ap/arch/stm32/servos_direct_hw.o
 .data          0x00000000        0x0 /home/mav/paparazzi/var/Radian/ap/arch/stm32/servos_direct_hw.o
 .bss           0x00000000        0x0 /home/mav/paparazzi/var/Radian/ap/arch/stm32/servos_direct_hw.o
 .text          0x00000000        0x0 /home/mav/paparazzi/var/Radian/ap/actuators.o
 .data          0x00000000        0x0 /home/mav/paparazzi/var/Radian/ap/actuators.o
 .bss           0x00000000        0x0 /home/mav/paparazzi/var/Radian/ap/actuators.o
 .text          0x00000000        0x0 /home/mav/paparazzi/var/Radian/ap/firmwares/rotorcraft/actuators/arch/stm32/actuators_pwm_arch.o
 .data          0x00000000        0x0 /home/mav/paparazzi/var/Radian/ap/firmwares/rotorcraft/actuators/arch/stm32/actuators_pwm_arch.o
 .bss           0x00000000        0x0 /home/mav/paparazzi/var/Radian/ap/firmwares/rotorcraft/actuators/arch/stm32/actuators_pwm_arch.o
 .text          0x00000000        0x0 /home/mav/paparazzi/var/Radian/ap/subsystems/radio_control.o
 .data          0x00000000        0x0 /home/mav/paparazzi/var/Radian/ap/subsystems/radio_control.o
 .bss           0x00000000        0x0 /home/mav/paparazzi/var/Radian/ap/subsystems/radio_control.o
 .text          0x00000000        0x0 /home/mav/paparazzi/var/Radian/ap/subsystems/radio_control/spektrum.o
 .data          0x00000000        0x0 /home/mav/paparazzi/var/Radian/ap/subsystems/radio_control/spektrum.o
 .bss           0x00000000        0x0 /home/mav/paparazzi/var/Radian/ap/subsystems/radio_control/spektrum.o
 .text          0x00000000        0x0 /home/mav/paparazzi/var/Radian/ap/arch/stm32/subsystems/radio_control/spektrum_arch.o
 .data          0x00000000        0x0 /home/mav/paparazzi/var/Radian/ap/arch/stm32/subsystems/radio_control/spektrum_arch.o
 .bss           0x00000000        0x0 /home/mav/paparazzi/var/Radian/ap/arch/stm32/subsystems/radio_control/spektrum_arch.o
 .text.DebugInit
                0x00000000       0x38 /home/mav/paparazzi/var/Radian/ap/arch/stm32/subsystems/radio_control/spektrum_arch.o
 .text          0x00000000        0x0 /home/mav/paparazzi/var/Radian/ap/subsystems/datalink/downlink.o
 .data          0x00000000        0x0 /home/mav/paparazzi/var/Radian/ap/subsystems/datalink/downlink.o
 .bss           0x00000000        0x0 /home/mav/paparazzi/var/Radian/ap/subsystems/datalink/downlink.o
 .text          0x00000000        0x0 /home/mav/paparazzi/var/Radian/ap/subsystems/datalink/pprz_transport.o
 .data          0x00000000        0x0 /home/mav/paparazzi/var/Radian/ap/subsystems/datalink/pprz_transport.o
 .bss           0x00000000        0x0 /home/mav/paparazzi/var/Radian/ap/subsystems/datalink/pprz_transport.o
 .text          0x00000000        0x0 /home/mav/paparazzi/var/Radian/ap/firmwares/fixedwing/datalink.o
 .data          0x00000000        0x0 /home/mav/paparazzi/var/Radian/ap/firmwares/fixedwing/datalink.o
 .bss           0x00000000        0x0 /home/mav/paparazzi/var/Radian/ap/firmwares/fixedwing/datalink.o
 .text          0x00000000        0x0 /home/mav/paparazzi/var/Radian/ap/firmwares/fixedwing/stabilization/stabilization_attitude.o
 .data          0x00000000        0x0 /home/mav/paparazzi/var/Radian/ap/firmwares/fixedwing/stabilization/stabilization_attitude.o
 .bss           0x00000000        0x0 /home/mav/paparazzi/var/Radian/ap/firmwares/fixedwing/stabilization/stabilization_attitude.o
 .bss.h_ctl_auto1_rate
                0x00000000        0x1 /home/mav/paparazzi/var/Radian/ap/firmwares/fixedwing/stabilization/stabilization_attitude.o
 .bss.h_ctl_roll_attitude_gain
                0x00000000        0x4 /home/mav/paparazzi/var/Radian/ap/firmwares/fixedwing/stabilization/stabilization_attitude.o
 .bss.h_ctl_roll_slew
                0x00000000        0x4 /home/mav/paparazzi/var/Radian/ap/firmwares/fixedwing/stabilization/stabilization_attitude.o
 .bss.h_ctl_roll_rate_gain
                0x00000000        0x4 /home/mav/paparazzi/var/Radian/ap/firmwares/fixedwing/stabilization/stabilization_attitude.o
 .text          0x00000000        0x0 /home/mav/paparazzi/var/Radian/ap/firmwares/fixedwing/guidance/guidance_v.o
 .data          0x00000000        0x0 /home/mav/paparazzi/var/Radian/ap/firmwares/fixedwing/guidance/guidance_v.o
 .bss           0x00000000        0x0 /home/mav/paparazzi/var/Radian/ap/firmwares/fixedwing/guidance/guidance_v.o
 .text          0x00000000        0x0 /home/mav/paparazzi/var/Radian/ap/subsystems/ahrs.o
 .data          0x00000000        0x0 /home/mav/paparazzi/var/Radian/ap/subsystems/ahrs.o
 .bss           0x00000000        0x0 /home/mav/paparazzi/var/Radian/ap/subsystems/ahrs.o
 .bss.ahrs_mag_offset
                0x00000000        0x4 /home/mav/paparazzi/var/Radian/ap/subsystems/ahrs.o
 .bss.ahrs_float
                0x00000000       0xbc /home/mav/paparazzi/var/Radian/ap/subsystems/ahrs.o
 .text          0x00000000        0x0 /home/mav/paparazzi/var/Radian/ap/subsystems/ahrs/ahrs_int_cmpl_quat.o
 .data          0x00000000        0x0 /home/mav/paparazzi/var/Radian/ap/subsystems/ahrs/ahrs_int_cmpl_quat.o
 .bss           0x00000000        0x0 /home/mav/paparazzi/var/Radian/ap/subsystems/ahrs/ahrs_int_cmpl_quat.o
 .text.ahrs_update_heading
                0x00000000      0x164 /home/mav/paparazzi/var/Radian/ap/subsystems/ahrs/ahrs_int_cmpl_quat.o
 .text.ahrs_realign_heading
                0x00000000      0x5f4 /home/mav/paparazzi/var/Radian/ap/subsystems/ahrs/ahrs_int_cmpl_quat.o
 .text          0x00000000        0x0 /home/mav/paparazzi/var/Radian/ap/subsystems/ahrs/ahrs_aligner.o
 .data          0x00000000        0x0 /home/mav/paparazzi/var/Radian/ap/subsystems/ahrs/ahrs_aligner.o
 .bss           0x00000000        0x0 /home/mav/paparazzi/var/Radian/ap/subsystems/ahrs/ahrs_aligner.o
 .text          0x00000000        0x0 /home/mav/paparazzi/var/Radian/ap/subsystems/gps/gps_ubx.o
 .data          0x00000000        0x0 /home/mav/paparazzi/var/Radian/ap/subsystems/gps/gps_ubx.o
 .bss           0x00000000        0x0 /home/mav/paparazzi/var/Radian/ap/subsystems/gps/gps_ubx.o
 .text.ubxsend_cfg_rst
                0x00000000      0x134 /home/mav/paparazzi/var/Radian/ap/subsystems/gps/gps_ubx.o
 .text          0x00000000        0x0 /home/mav/paparazzi/var/Radian/ap/subsystems/gps.o
 .data          0x00000000        0x0 /home/mav/paparazzi/var/Radian/ap/subsystems/gps.o
 .bss           0x00000000        0x0 /home/mav/paparazzi/var/Radian/ap/subsystems/gps.o
 .text          0x00000000        0x0 /home/mav/paparazzi/var/Radian/ap/subsystems/imu.o
 .data          0x00000000        0x0 /home/mav/paparazzi/var/Radian/ap/subsystems/imu.o
 .bss           0x00000000        0x0 /home/mav/paparazzi/var/Radian/ap/subsystems/imu.o
 .text.imu_float_init
                0x00000000       0x68 /home/mav/paparazzi/var/Radian/ap/subsystems/imu.o
 .text          0x00000000        0x0 /home/mav/paparazzi/var/Radian/ap/subsystems/imu/imu_aspirin2.o
 .data          0x00000000        0x0 /home/mav/paparazzi/var/Radian/ap/subsystems/imu/imu_aspirin2.o
 .bss           0x00000000        0x0 /home/mav/paparazzi/var/Radian/ap/subsystems/imu/imu_aspirin2.o
 .text          0x00000000        0x0 /home/mav/paparazzi/var/Radian/ap/arch/stm32/subsystems/imu/imu_aspirin2_arch.o
 .data          0x00000000        0x0 /home/mav/paparazzi/var/Radian/ap/arch/stm32/subsystems/imu/imu_aspirin2_arch.o
 .bss           0x00000000        0x0 /home/mav/paparazzi/var/Radian/ap/arch/stm32/subsystems/imu/imu_aspirin2_arch.o
 .text.imu_aspirin2_arch_int_enable
                0x00000000        0x2 /home/mav/paparazzi/var/Radian/ap/arch/stm32/subsystems/imu/imu_aspirin2_arch.o
 .text.imu_aspirin2_arch_int_disable
                0x00000000        0x2 /home/mav/paparazzi/var/Radian/ap/arch/stm32/subsystems/imu/imu_aspirin2_arch.o
 .text.imu_aspirin2_arch_init
                0x00000000        0x2 /home/mav/paparazzi/var/Radian/ap/arch/stm32/subsystems/imu/imu_aspirin2_arch.o
 .text.exti15_10_irq_handler
                0x00000000       0x1a /home/mav/paparazzi/var/Radian/ap/arch/stm32/subsystems/imu/imu_aspirin2_arch.o
 .text          0x00000000        0x0 /home/mav/paparazzi/var/Radian/ap/arch/stm32/mcu_periph/spi_arch.o
 .data          0x00000000        0x0 /home/mav/paparazzi/var/Radian/ap/arch/stm32/mcu_periph/spi_arch.o
 .bss           0x00000000        0x0 /home/mav/paparazzi/var/Radian/ap/arch/stm32/mcu_periph/spi_arch.o
 .text.spi_arch_int_disable
                0x00000000       0x1e /home/mav/paparazzi/var/Radian/ap/arch/stm32/mcu_periph/spi_arch.o
 .text          0x00000000        0x0 /home/mav/paparazzi/var/Radian/ap/mcu_periph/spi.o
 .data          0x00000000        0x0 /home/mav/paparazzi/var/Radian/ap/mcu_periph/spi.o
 .bss           0x00000000        0x0 /home/mav/paparazzi/var/Radian/ap/mcu_periph/spi.o
 .bss.spi_buffer_length
                0x00000000        0x1 /home/mav/paparazzi/var/Radian/ap/mcu_periph/spi.o
 .bss.spi_buffer_input
                0x00000000        0x4 /home/mav/paparazzi/var/Radian/ap/mcu_periph/spi.o
 .bss.spi_buffer_output
                0x00000000        0x4 /home/mav/paparazzi/var/Radian/ap/mcu_periph/spi.o
 .text          0x00000000        0x0 /home/mav/paparazzi/var/Radian/ap/subsystems/nav.o
 .data          0x00000000        0x0 /home/mav/paparazzi/var/Radian/ap/subsystems/nav.o
 .bss           0x00000000        0x0 /home/mav/paparazzi/var/Radian/ap/subsystems/nav.o
 .text.nav_eight_init
                0x00000000        0xc /home/mav/paparazzi/var/Radian/ap/subsystems/nav.o
 .text.nav_eight
                0x00000000      0x538 /home/mav/paparazzi/var/Radian/ap/subsystems/nav.o
 .text.nav_oval_init
                0x00000000       0x18 /home/mav/paparazzi/var/Radian/ap/subsystems/nav.o
 .text.nav_oval
                0x00000000      0x4c0 /home/mav/paparazzi/var/Radian/ap/subsystems/nav.o
 .bss.carrot_x  0x00000000        0x4 /home/mav/paparazzi/var/Radian/ap/subsystems/nav.o
 .bss.carrot_y  0x00000000        0x4 /home/mav/paparazzi/var/Radian/ap/subsystems/nav.o
 .bss.fp_pitch  0x00000000        0x4 /home/mav/paparazzi/var/Radian/ap/subsystems/nav.o
 .bss.nav_climb
                0x00000000        0x4 /home/mav/paparazzi/var/Radian/ap/subsystems/nav.o
 .bss.oval_status
                0x00000000        0x1 /home/mav/paparazzi/var/Radian/ap/subsystems/nav.o
 .bss.nav_ground_speed_setpoint
                0x00000000        0x4 /home/mav/paparazzi/var/Radian/ap/subsystems/nav.o
 .bss.rc_pitch  0x00000000        0x4 /home/mav/paparazzi/var/Radian/ap/subsystems/nav.o
 .bss.nav_ground_speed_pgain
                0x00000000        0x4 /home/mav/paparazzi/var/Radian/ap/subsystems/nav.o
 .bss.eight_status
                0x00000000        0x1 /home/mav/paparazzi/var/Radian/ap/subsystems/nav.o
 .text          0x00000000        0x0 /home/mav/paparazzi/var/Radian/ap/subsystems/navigation/common_flight_plan.o
 .data          0x00000000        0x0 /home/mav/paparazzi/var/Radian/ap/subsystems/navigation/common_flight_plan.o
 .bss           0x00000000        0x0 /home/mav/paparazzi/var/Radian/ap/subsystems/navigation/common_flight_plan.o
 .text          0x00000000        0x0 /home/mav/paparazzi/var/Radian/ap/subsystems/navigation/traffic_info.o
 .data          0x00000000        0x0 /home/mav/paparazzi/var/Radian/ap/subsystems/navigation/traffic_info.o
 .bss           0x00000000        0x0 /home/mav/paparazzi/var/Radian/ap/subsystems/navigation/traffic_info.o
 .text.get_ac_info
                0x00000000       0x14 /home/mav/paparazzi/var/Radian/ap/subsystems/navigation/traffic_info.o
 .text          0x00000000        0x0 /home/mav/paparazzi/var/Radian/ap/subsystems/navigation/nav_survey_rectangle.o
 .data          0x00000000        0x0 /home/mav/paparazzi/var/Radian/ap/subsystems/navigation/nav_survey_rectangle.o
 .bss           0x00000000        0x0 /home/mav/paparazzi/var/Radian/ap/subsystems/navigation/nav_survey_rectangle.o
 .text.nav_survey_rectangle_init
                0x00000000      0x2a8 /home/mav/paparazzi/var/Radian/ap/subsystems/navigation/nav_survey_rectangle.o
 .text.nav_survey_rectangle
                0x00000000      0x640 /home/mav/paparazzi/var/Radian/ap/subsystems/navigation/nav_survey_rectangle.o
 .bss.survey_from
                0x00000000        0xc /home/mav/paparazzi/var/Radian/ap/subsystems/navigation/nav_survey_rectangle.o
 .bss.survey_orientation
                0x00000000        0x1 /home/mav/paparazzi/var/Radian/ap/subsystems/navigation/nav_survey_rectangle.o
 .bss.survey_to
                0x00000000        0xc /home/mav/paparazzi/var/Radian/ap/subsystems/navigation/nav_survey_rectangle.o
 .bss.survey_uturn
                0x00000000        0x1 /home/mav/paparazzi/var/Radian/ap/subsystems/navigation/nav_survey_rectangle.o
 .bss.survey_radius.2217
                0x00000000        0x4 /home/mav/paparazzi/var/Radian/ap/subsystems/navigation/nav_survey_rectangle.o
 .text          0x00000000        0x0 /home/mav/paparazzi/var/Radian/ap/subsystems/navigation/nav_line.o
 .data          0x00000000        0x0 /home/mav/paparazzi/var/Radian/ap/subsystems/navigation/nav_line.o
 .bss           0x00000000        0x0 /home/mav/paparazzi/var/Radian/ap/subsystems/navigation/nav_line.o
 .data          0x00000000        0x0 /opt/paparazzi/arm-multilib/lib/gcc/arm-none-eabi/4.6.2/../../../../arm-none-eabi/lib/thumb2/libc.a(lib_a-ldiv.o)
 .bss           0x00000000        0x0 /opt/paparazzi/arm-multilib/lib/gcc/arm-none-eabi/4.6.2/../../../../arm-none-eabi/lib/thumb2/libc.a(lib_a-ldiv.o)
 .data          0x00000000        0x0 /opt/paparazzi/arm-multilib/lib/gcc/arm-none-eabi/4.6.2/../../../../arm-none-eabi/lib/thumb2/libc.a(lib_a-memcpy.o)
 .bss           0x00000000        0x0 /opt/paparazzi/arm-multilib/lib/gcc/arm-none-eabi/4.6.2/../../../../arm-none-eabi/lib/thumb2/libc.a(lib_a-memcpy.o)
 .data          0x00000000        0x0 /opt/paparazzi/arm-multilib/lib/gcc/arm-none-eabi/4.6.2/../../../../arm-none-eabi/lib/thumb2/libm.a(lib_a-s_atan.o)
 .bss           0x00000000        0x0 /opt/paparazzi/arm-multilib/lib/gcc/arm-none-eabi/4.6.2/../../../../arm-none-eabi/lib/thumb2/libm.a(lib_a-s_atan.o)
 .data          0x00000000        0x0 /opt/paparazzi/arm-multilib/lib/gcc/arm-none-eabi/4.6.2/../../../../arm-none-eabi/lib/thumb2/libm.a(lib_a-s_cos.o)
 .bss           0x00000000        0x0 /opt/paparazzi/arm-multilib/lib/gcc/arm-none-eabi/4.6.2/../../../../arm-none-eabi/lib/thumb2/libm.a(lib_a-s_cos.o)
 .data          0x00000000        0x0 /opt/paparazzi/arm-multilib/lib/gcc/arm-none-eabi/4.6.2/../../../../arm-none-eabi/lib/thumb2/libm.a(lib_a-s_fabs.o)
 .bss           0x00000000        0x0 /opt/paparazzi/arm-multilib/lib/gcc/arm-none-eabi/4.6.2/../../../../arm-none-eabi/lib/thumb2/libm.a(lib_a-s_fabs.o)
 .text          0x00000000      0x120 /opt/paparazzi/arm-multilib/lib/gcc/arm-none-eabi/4.6.2/../../../../arm-none-eabi/lib/thumb2/libm.a(lib_a-s_rint.o)
 .data          0x00000000        0x0 /opt/paparazzi/arm-multilib/lib/gcc/arm-none-eabi/4.6.2/../../../../arm-none-eabi/lib/thumb2/libm.a(lib_a-s_rint.o)
 .bss           0x00000000        0x0 /opt/paparazzi/arm-multilib/lib/gcc/arm-none-eabi/4.6.2/../../../../arm-none-eabi/lib/thumb2/libm.a(lib_a-s_rint.o)
 .rodata        0x00000000       0x10 /opt/paparazzi/arm-multilib/lib/gcc/arm-none-eabi/4.6.2/../../../../arm-none-eabi/lib/thumb2/libm.a(lib_a-s_rint.o)
 .data          0x00000000        0x0 /opt/paparazzi/arm-multilib/lib/gcc/arm-none-eabi/4.6.2/../../../../arm-none-eabi/lib/thumb2/libm.a(lib_a-s_sin.o)
 .bss           0x00000000        0x0 /opt/paparazzi/arm-multilib/lib/gcc/arm-none-eabi/4.6.2/../../../../arm-none-eabi/lib/thumb2/libm.a(lib_a-s_sin.o)
 .data          0x00000000        0x0 /opt/paparazzi/arm-multilib/lib/gcc/arm-none-eabi/4.6.2/../../../../arm-none-eabi/lib/thumb2/libm.a(lib_a-s_tan.o)
 .bss           0x00000000        0x0 /opt/paparazzi/arm-multilib/lib/gcc/arm-none-eabi/4.6.2/../../../../arm-none-eabi/lib/thumb2/libm.a(lib_a-s_tan.o)
 .data          0x00000000        0x0 /opt/paparazzi/arm-multilib/lib/gcc/arm-none-eabi/4.6.2/../../../../arm-none-eabi/lib/thumb2/libm.a(lib_a-sf_atan.o)
 .bss           0x00000000        0x0 /opt/paparazzi/arm-multilib/lib/gcc/arm-none-eabi/4.6.2/../../../../arm-none-eabi/lib/thumb2/libm.a(lib_a-sf_atan.o)
 .text          0x00000000       0x58 /opt/paparazzi/arm-multilib/lib/gcc/arm-none-eabi/4.6.2/../../../../arm-none-eabi/lib/thumb2/libm.a(lib_a-sf_cos.o)
 .data          0x00000000        0x0 /opt/paparazzi/arm-multilib/lib/gcc/arm-none-eabi/4.6.2/../../../../arm-none-eabi/lib/thumb2/libm.a(lib_a-sf_cos.o)
 .bss           0x00000000        0x0 /opt/paparazzi/arm-multilib/lib/gcc/arm-none-eabi/4.6.2/../../../../arm-none-eabi/lib/thumb2/libm.a(lib_a-sf_cos.o)
 .data          0x00000000        0x0 /opt/paparazzi/arm-multilib/lib/gcc/arm-none-eabi/4.6.2/../../../../arm-none-eabi/lib/thumb2/libm.a(lib_a-sf_fabs.o)
 .bss           0x00000000        0x0 /opt/paparazzi/arm-multilib/lib/gcc/arm-none-eabi/4.6.2/../../../../arm-none-eabi/lib/thumb2/libm.a(lib_a-sf_fabs.o)
 .text          0x00000000       0x68 /opt/paparazzi/arm-multilib/lib/gcc/arm-none-eabi/4.6.2/../../../../arm-none-eabi/lib/thumb2/libm.a(lib_a-sf_sin.o)
 .data          0x00000000        0x0 /opt/paparazzi/arm-multilib/lib/gcc/arm-none-eabi/4.6.2/../../../../arm-none-eabi/lib/thumb2/libm.a(lib_a-sf_sin.o)
 .bss           0x00000000        0x0 /opt/paparazzi/arm-multilib/lib/gcc/arm-none-eabi/4.6.2/../../../../arm-none-eabi/lib/thumb2/libm.a(lib_a-sf_sin.o)
 .data          0x00000000        0x0 /opt/paparazzi/arm-multilib/lib/gcc/arm-none-eabi/4.6.2/../../../../arm-none-eabi/lib/thumb2/libm.a(lib_a-w_asin.o)
 .bss           0x00000000        0x0 /opt/paparazzi/arm-multilib/lib/gcc/arm-none-eabi/4.6.2/../../../../arm-none-eabi/lib/thumb2/libm.a(lib_a-w_asin.o)
 .data          0x00000000        0x0 /opt/paparazzi/arm-multilib/lib/gcc/arm-none-eabi/4.6.2/../../../../arm-none-eabi/lib/thumb2/libm.a(lib_a-w_atan2.o)
 .bss           0x00000000        0x0 /opt/paparazzi/arm-multilib/lib/gcc/arm-none-eabi/4.6.2/../../../../arm-none-eabi/lib/thumb2/libm.a(lib_a-w_atan2.o)
 .data          0x00000000        0x0 /opt/paparazzi/arm-multilib/lib/gcc/arm-none-eabi/4.6.2/../../../../arm-none-eabi/lib/thumb2/libm.a(lib_a-w_cosh.o)
 .bss           0x00000000        0x0 /opt/paparazzi/arm-multilib/lib/gcc/arm-none-eabi/4.6.2/../../../../arm-none-eabi/lib/thumb2/libm.a(lib_a-w_cosh.o)
 .data          0x00000000        0x0 /opt/paparazzi/arm-multilib/lib/gcc/arm-none-eabi/4.6.2/../../../../arm-none-eabi/lib/thumb2/libm.a(lib_a-w_exp.o)
 .bss           0x00000000        0x0 /opt/paparazzi/arm-multilib/lib/gcc/arm-none-eabi/4.6.2/../../../../arm-none-eabi/lib/thumb2/libm.a(lib_a-w_exp.o)
 .data          0x00000000        0x0 /opt/paparazzi/arm-multilib/lib/gcc/arm-none-eabi/4.6.2/../../../../arm-none-eabi/lib/thumb2/libm.a(lib_a-w_log.o)
 .bss           0x00000000        0x0 /opt/paparazzi/arm-multilib/lib/gcc/arm-none-eabi/4.6.2/../../../../arm-none-eabi/lib/thumb2/libm.a(lib_a-w_log.o)
 .text          0x00000000      0x2c0 /opt/paparazzi/arm-multilib/lib/gcc/arm-none-eabi/4.6.2/../../../../arm-none-eabi/lib/thumb2/libm.a(lib_a-w_pow.o)
 .data          0x00000000        0x0 /opt/paparazzi/arm-multilib/lib/gcc/arm-none-eabi/4.6.2/../../../../arm-none-eabi/lib/thumb2/libm.a(lib_a-w_pow.o)
 .bss           0x00000000        0x0 /opt/paparazzi/arm-multilib/lib/gcc/arm-none-eabi/4.6.2/../../../../arm-none-eabi/lib/thumb2/libm.a(lib_a-w_pow.o)
 .rodata.str1.1
                0x00000000        0x4 /opt/paparazzi/arm-multilib/lib/gcc/arm-none-eabi/4.6.2/../../../../arm-none-eabi/lib/thumb2/libm.a(lib_a-w_pow.o)
 .data          0x00000000        0x0 /opt/paparazzi/arm-multilib/lib/gcc/arm-none-eabi/4.6.2/../../../../arm-none-eabi/lib/thumb2/libm.a(lib_a-w_sinh.o)
 .bss           0x00000000        0x0 /opt/paparazzi/arm-multilib/lib/gcc/arm-none-eabi/4.6.2/../../../../arm-none-eabi/lib/thumb2/libm.a(lib_a-w_sinh.o)
 .data          0x00000000        0x0 /opt/paparazzi/arm-multilib/lib/gcc/arm-none-eabi/4.6.2/../../../../arm-none-eabi/lib/thumb2/libm.a(lib_a-w_sqrt.o)
 .bss           0x00000000        0x0 /opt/paparazzi/arm-multilib/lib/gcc/arm-none-eabi/4.6.2/../../../../arm-none-eabi/lib/thumb2/libm.a(lib_a-w_sqrt.o)
 .data          0x00000000        0x0 /opt/paparazzi/arm-multilib/lib/gcc/arm-none-eabi/4.6.2/../../../../arm-none-eabi/lib/thumb2/libm.a(lib_a-wf_asin.o)
 .bss           0x00000000        0x0 /opt/paparazzi/arm-multilib/lib/gcc/arm-none-eabi/4.6.2/../../../../arm-none-eabi/lib/thumb2/libm.a(lib_a-wf_asin.o)
 .data          0x00000000        0x0 /opt/paparazzi/arm-multilib/lib/gcc/arm-none-eabi/4.6.2/../../../../arm-none-eabi/lib/thumb2/libm.a(lib_a-wf_atan2.o)
 .bss           0x00000000        0x0 /opt/paparazzi/arm-multilib/lib/gcc/arm-none-eabi/4.6.2/../../../../arm-none-eabi/lib/thumb2/libm.a(lib_a-wf_atan2.o)
 .text          0x00000000      0x2dc /opt/paparazzi/arm-multilib/lib/gcc/arm-none-eabi/4.6.2/../../../../arm-none-eabi/lib/thumb2/libm.a(lib_a-wf_pow.o)
 .data          0x00000000        0x0 /opt/paparazzi/arm-multilib/lib/gcc/arm-none-eabi/4.6.2/../../../../arm-none-eabi/lib/thumb2/libm.a(lib_a-wf_pow.o)
 .bss           0x00000000        0x0 /opt/paparazzi/arm-multilib/lib/gcc/arm-none-eabi/4.6.2/../../../../arm-none-eabi/lib/thumb2/libm.a(lib_a-wf_pow.o)
 .rodata.str1.1
                0x00000000        0x5 /opt/paparazzi/arm-multilib/lib/gcc/arm-none-eabi/4.6.2/../../../../arm-none-eabi/lib/thumb2/libm.a(lib_a-wf_pow.o)
 .data          0x00000000        0x0 /opt/paparazzi/arm-multilib/lib/gcc/arm-none-eabi/4.6.2/../../../../arm-none-eabi/lib/thumb2/libm.a(lib_a-wf_sqrt.o)
 .bss           0x00000000        0x0 /opt/paparazzi/arm-multilib/lib/gcc/arm-none-eabi/4.6.2/../../../../arm-none-eabi/lib/thumb2/libm.a(lib_a-wf_sqrt.o)
 .data          0x00000000        0x0 /opt/paparazzi/arm-multilib/lib/gcc/arm-none-eabi/4.6.2/../../../../arm-none-eabi/lib/thumb2/libm.a(lib_a-e_asin.o)
 .bss           0x00000000        0x0 /opt/paparazzi/arm-multilib/lib/gcc/arm-none-eabi/4.6.2/../../../../arm-none-eabi/lib/thumb2/libm.a(lib_a-e_asin.o)
 .data          0x00000000        0x0 /opt/paparazzi/arm-multilib/lib/gcc/arm-none-eabi/4.6.2/../../../../arm-none-eabi/lib/thumb2/libm.a(lib_a-e_atan2.o)
 .bss           0x00000000        0x0 /opt/paparazzi/arm-multilib/lib/gcc/arm-none-eabi/4.6.2/../../../../arm-none-eabi/lib/thumb2/libm.a(lib_a-e_atan2.o)
 .data          0x00000000        0x0 /opt/paparazzi/arm-multilib/lib/gcc/arm-none-eabi/4.6.2/../../../../arm-none-eabi/lib/thumb2/libm.a(lib_a-e_cosh.o)
 .bss           0x00000000        0x0 /opt/paparazzi/arm-multilib/lib/gcc/arm-none-eabi/4.6.2/../../../../arm-none-eabi/lib/thumb2/libm.a(lib_a-e_cosh.o)
 .data          0x00000000        0x0 /opt/paparazzi/arm-multilib/lib/gcc/arm-none-eabi/4.6.2/../../../../arm-none-eabi/lib/thumb2/libm.a(lib_a-e_exp.o)
 .bss           0x00000000        0x0 /opt/paparazzi/arm-multilib/lib/gcc/arm-none-eabi/4.6.2/../../../../arm-none-eabi/lib/thumb2/libm.a(lib_a-e_exp.o)
 .data          0x00000000        0x0 /opt/paparazzi/arm-multilib/lib/gcc/arm-none-eabi/4.6.2/../../../../arm-none-eabi/lib/thumb2/libm.a(lib_a-e_log.o)
 .bss           0x00000000        0x0 /opt/paparazzi/arm-multilib/lib/gcc/arm-none-eabi/4.6.2/../../../../arm-none-eabi/lib/thumb2/libm.a(lib_a-e_log.o)
 .text          0x00000000      0xa88 /opt/paparazzi/arm-multilib/lib/gcc/arm-none-eabi/4.6.2/../../../../arm-none-eabi/lib/thumb2/libm.a(lib_a-e_pow.o)
 .data          0x00000000        0x0 /opt/paparazzi/arm-multilib/lib/gcc/arm-none-eabi/4.6.2/../../../../arm-none-eabi/lib/thumb2/libm.a(lib_a-e_pow.o)
 .bss           0x00000000        0x0 /opt/paparazzi/arm-multilib/lib/gcc/arm-none-eabi/4.6.2/../../../../arm-none-eabi/lib/thumb2/libm.a(lib_a-e_pow.o)
 .rodata        0x00000000       0x30 /opt/paparazzi/arm-multilib/lib/gcc/arm-none-eabi/4.6.2/../../../../arm-none-eabi/lib/thumb2/libm.a(lib_a-e_pow.o)
 .rodata.str1.1
                0x00000000        0x1 /opt/paparazzi/arm-multilib/lib/gcc/arm-none-eabi/4.6.2/../../../../arm-none-eabi/lib/thumb2/libm.a(lib_a-e_pow.o)
 .data          0x00000000        0x0 /opt/paparazzi/arm-multilib/lib/gcc/arm-none-eabi/4.6.2/../../../../arm-none-eabi/lib/thumb2/libm.a(lib_a-e_rem_pio2.o)
 .bss           0x00000000        0x0 /opt/paparazzi/arm-multilib/lib/gcc/arm-none-eabi/4.6.2/../../../../arm-none-eabi/lib/thumb2/libm.a(lib_a-e_rem_pio2.o)
 .data          0x00000000        0x0 /opt/paparazzi/arm-multilib/lib/gcc/arm-none-eabi/4.6.2/../../../../arm-none-eabi/lib/thumb2/libm.a(lib_a-e_sinh.o)
 .bss           0x00000000        0x0 /opt/paparazzi/arm-multilib/lib/gcc/arm-none-eabi/4.6.2/../../../../arm-none-eabi/lib/thumb2/libm.a(lib_a-e_sinh.o)
 .data          0x00000000        0x0 /opt/paparazzi/arm-multilib/lib/gcc/arm-none-eabi/4.6.2/../../../../arm-none-eabi/lib/thumb2/libm.a(lib_a-e_sqrt.o)
 .bss           0x00000000        0x0 /opt/paparazzi/arm-multilib/lib/gcc/arm-none-eabi/4.6.2/../../../../arm-none-eabi/lib/thumb2/libm.a(lib_a-e_sqrt.o)
 .data          0x00000000        0x0 /opt/paparazzi/arm-multilib/lib/gcc/arm-none-eabi/4.6.2/../../../../arm-none-eabi/lib/thumb2/libm.a(lib_a-ef_asin.o)
 .bss           0x00000000        0x0 /opt/paparazzi/arm-multilib/lib/gcc/arm-none-eabi/4.6.2/../../../../arm-none-eabi/lib/thumb2/libm.a(lib_a-ef_asin.o)
 .data          0x00000000        0x0 /opt/paparazzi/arm-multilib/lib/gcc/arm-none-eabi/4.6.2/../../../../arm-none-eabi/lib/thumb2/libm.a(lib_a-ef_atan2.o)
 .bss           0x00000000        0x0 /opt/paparazzi/arm-multilib/lib/gcc/arm-none-eabi/4.6.2/../../../../arm-none-eabi/lib/thumb2/libm.a(lib_a-ef_atan2.o)
 .text          0x00000000      0x6d4 /opt/paparazzi/arm-multilib/lib/gcc/arm-none-eabi/4.6.2/../../../../arm-none-eabi/lib/thumb2/libm.a(lib_a-ef_pow.o)
 .data          0x00000000        0x0 /opt/paparazzi/arm-multilib/lib/gcc/arm-none-eabi/4.6.2/../../../../arm-none-eabi/lib/thumb2/libm.a(lib_a-ef_pow.o)
 .bss           0x00000000        0x0 /opt/paparazzi/arm-multilib/lib/gcc/arm-none-eabi/4.6.2/../../../../arm-none-eabi/lib/thumb2/libm.a(lib_a-ef_pow.o)
 .rodata        0x00000000       0x18 /opt/paparazzi/arm-multilib/lib/gcc/arm-none-eabi/4.6.2/../../../../arm-none-eabi/lib/thumb2/libm.a(lib_a-ef_pow.o)
 .rodata.str1.1
                0x00000000        0x1 /opt/paparazzi/arm-multilib/lib/gcc/arm-none-eabi/4.6.2/../../../../arm-none-eabi/lib/thumb2/libm.a(lib_a-ef_pow.o)
 .text          0x00000000      0x2a8 /opt/paparazzi/arm-multilib/lib/gcc/arm-none-eabi/4.6.2/../../../../arm-none-eabi/lib/thumb2/libm.a(lib_a-ef_rem_pio2.o)
 .data          0x00000000        0x0 /opt/paparazzi/arm-multilib/lib/gcc/arm-none-eabi/4.6.2/../../../../arm-none-eabi/lib/thumb2/libm.a(lib_a-ef_rem_pio2.o)
 .bss           0x00000000        0x0 /opt/paparazzi/arm-multilib/lib/gcc/arm-none-eabi/4.6.2/../../../../arm-none-eabi/lib/thumb2/libm.a(lib_a-ef_rem_pio2.o)
 .rodata        0x00000000      0x398 /opt/paparazzi/arm-multilib/lib/gcc/arm-none-eabi/4.6.2/../../../../arm-none-eabi/lib/thumb2/libm.a(lib_a-ef_rem_pio2.o)
 .data          0x00000000        0x0 /opt/paparazzi/arm-multilib/lib/gcc/arm-none-eabi/4.6.2/../../../../arm-none-eabi/lib/thumb2/libm.a(lib_a-ef_sqrt.o)
 .bss           0x00000000        0x0 /opt/paparazzi/arm-multilib/lib/gcc/arm-none-eabi/4.6.2/../../../../arm-none-eabi/lib/thumb2/libm.a(lib_a-ef_sqrt.o)
 .data          0x00000000        0x0 /opt/paparazzi/arm-multilib/lib/gcc/arm-none-eabi/4.6.2/../../../../arm-none-eabi/lib/thumb2/libm.a(lib_a-k_cos.o)
 .bss           0x00000000        0x0 /opt/paparazzi/arm-multilib/lib/gcc/arm-none-eabi/4.6.2/../../../../arm-none-eabi/lib/thumb2/libm.a(lib_a-k_cos.o)
 .data          0x00000000        0x0 /opt/paparazzi/arm-multilib/lib/gcc/arm-none-eabi/4.6.2/../../../../arm-none-eabi/lib/thumb2/libm.a(lib_a-k_rem_pio2.o)
 .bss           0x00000000        0x0 /opt/paparazzi/arm-multilib/lib/gcc/arm-none-eabi/4.6.2/../../../../arm-none-eabi/lib/thumb2/libm.a(lib_a-k_rem_pio2.o)
 .data          0x00000000        0x0 /opt/paparazzi/arm-multilib/lib/gcc/arm-none-eabi/4.6.2/../../../../arm-none-eabi/lib/thumb2/libm.a(lib_a-k_sin.o)
 .bss           0x00000000        0x0 /opt/paparazzi/arm-multilib/lib/gcc/arm-none-eabi/4.6.2/../../../../arm-none-eabi/lib/thumb2/libm.a(lib_a-k_sin.o)
 .data          0x00000000        0x0 /opt/paparazzi/arm-multilib/lib/gcc/arm-none-eabi/4.6.2/../../../../arm-none-eabi/lib/thumb2/libm.a(lib_a-k_tan.o)
 .bss           0x00000000        0x0 /opt/paparazzi/arm-multilib/lib/gcc/arm-none-eabi/4.6.2/../../../../arm-none-eabi/lib/thumb2/libm.a(lib_a-k_tan.o)
 .text          0x00000000      0x134 /opt/paparazzi/arm-multilib/lib/gcc/arm-none-eabi/4.6.2/../../../../arm-none-eabi/lib/thumb2/libm.a(lib_a-kf_cos.o)
 .data          0x00000000        0x0 /opt/paparazzi/arm-multilib/lib/gcc/arm-none-eabi/4.6.2/../../../../arm-none-eabi/lib/thumb2/libm.a(lib_a-kf_cos.o)
 .bss           0x00000000        0x0 /opt/paparazzi/arm-multilib/lib/gcc/arm-none-eabi/4.6.2/../../../../arm-none-eabi/lib/thumb2/libm.a(lib_a-kf_cos.o)
 .text          0x00000000      0x608 /opt/paparazzi/arm-multilib/lib/gcc/arm-none-eabi/4.6.2/../../../../arm-none-eabi/lib/thumb2/libm.a(lib_a-kf_rem_pio2.o)
 .data          0x00000000        0x0 /opt/paparazzi/arm-multilib/lib/gcc/arm-none-eabi/4.6.2/../../../../arm-none-eabi/lib/thumb2/libm.a(lib_a-kf_rem_pio2.o)
 .bss           0x00000000        0x0 /opt/paparazzi/arm-multilib/lib/gcc/arm-none-eabi/4.6.2/../../../../arm-none-eabi/lib/thumb2/libm.a(lib_a-kf_rem_pio2.o)
 .rodata        0x00000000       0x38 /opt/paparazzi/arm-multilib/lib/gcc/arm-none-eabi/4.6.2/../../../../arm-none-eabi/lib/thumb2/libm.a(lib_a-kf_rem_pio2.o)
 .text          0x00000000       0xf4 /opt/paparazzi/arm-multilib/lib/gcc/arm-none-eabi/4.6.2/../../../../arm-none-eabi/lib/thumb2/libm.a(lib_a-kf_sin.o)
 .data          0x00000000        0x0 /opt/paparazzi/arm-multilib/lib/gcc/arm-none-eabi/4.6.2/../../../../arm-none-eabi/lib/thumb2/libm.a(lib_a-kf_sin.o)
 .bss           0x00000000        0x0 /opt/paparazzi/arm-multilib/lib/gcc/arm-none-eabi/4.6.2/../../../../arm-none-eabi/lib/thumb2/libm.a(lib_a-kf_sin.o)
 .data          0x00000000        0x0 /opt/paparazzi/arm-multilib/lib/gcc/arm-none-eabi/4.6.2/../../../../arm-none-eabi/lib/thumb2/libm.a(lib_a-s_expm1.o)
 .bss           0x00000000        0x0 /opt/paparazzi/arm-multilib/lib/gcc/arm-none-eabi/4.6.2/../../../../arm-none-eabi/lib/thumb2/libm.a(lib_a-s_expm1.o)
 .data          0x00000000        0x0 /opt/paparazzi/arm-multilib/lib/gcc/arm-none-eabi/4.6.2/../../../../arm-none-eabi/lib/thumb2/libm.a(lib_a-s_finite.o)
 .bss           0x00000000        0x0 /opt/paparazzi/arm-multilib/lib/gcc/arm-none-eabi/4.6.2/../../../../arm-none-eabi/lib/thumb2/libm.a(lib_a-s_finite.o)
 .data          0x00000000        0x0 /opt/paparazzi/arm-multilib/lib/gcc/arm-none-eabi/4.6.2/../../../../arm-none-eabi/lib/thumb2/libm.a(lib_a-s_floor.o)
 .bss           0x00000000        0x0 /opt/paparazzi/arm-multilib/lib/gcc/arm-none-eabi/4.6.2/../../../../arm-none-eabi/lib/thumb2/libm.a(lib_a-s_floor.o)
 .data          0x00000000        0x0 /opt/paparazzi/arm-multilib/lib/gcc/arm-none-eabi/4.6.2/../../../../arm-none-eabi/lib/thumb2/libm.a(lib_a-s_fpclassify.o)
 .bss           0x00000000        0x0 /opt/paparazzi/arm-multilib/lib/gcc/arm-none-eabi/4.6.2/../../../../arm-none-eabi/lib/thumb2/libm.a(lib_a-s_fpclassify.o)
 .text          0x00000000        0x0 /opt/paparazzi/arm-multilib/lib/gcc/arm-none-eabi/4.6.2/../../../../arm-none-eabi/lib/thumb2/libm.a(lib_a-s_lib_ver.o)
 .bss           0x00000000        0x0 /opt/paparazzi/arm-multilib/lib/gcc/arm-none-eabi/4.6.2/../../../../arm-none-eabi/lib/thumb2/libm.a(lib_a-s_lib_ver.o)
 .data          0x00000000        0x0 /opt/paparazzi/arm-multilib/lib/gcc/arm-none-eabi/4.6.2/../../../../arm-none-eabi/lib/thumb2/libm.a(lib_a-s_matherr.o)
 .bss           0x00000000        0x0 /opt/paparazzi/arm-multilib/lib/gcc/arm-none-eabi/4.6.2/../../../../arm-none-eabi/lib/thumb2/libm.a(lib_a-s_matherr.o)
 .data          0x00000000        0x0 /opt/paparazzi/arm-multilib/lib/gcc/arm-none-eabi/4.6.2/../../../../arm-none-eabi/lib/thumb2/libm.a(lib_a-s_nan.o)
 .bss           0x00000000        0x0 /opt/paparazzi/arm-multilib/lib/gcc/arm-none-eabi/4.6.2/../../../../arm-none-eabi/lib/thumb2/libm.a(lib_a-s_nan.o)
 .data          0x00000000        0x0 /opt/paparazzi/arm-multilib/lib/gcc/arm-none-eabi/4.6.2/../../../../arm-none-eabi/lib/thumb2/libm.a(lib_a-s_scalbn.o)
 .bss           0x00000000        0x0 /opt/paparazzi/arm-multilib/lib/gcc/arm-none-eabi/4.6.2/../../../../arm-none-eabi/lib/thumb2/libm.a(lib_a-s_scalbn.o)
 .text          0x00000000       0x10 /opt/paparazzi/arm-multilib/lib/gcc/arm-none-eabi/4.6.2/../../../../arm-none-eabi/lib/thumb2/libm.a(lib_a-sf_finite.o)
 .data          0x00000000        0x0 /opt/paparazzi/arm-multilib/lib/gcc/arm-none-eabi/4.6.2/../../../../arm-none-eabi/lib/thumb2/libm.a(lib_a-sf_finite.o)
 .bss           0x00000000        0x0 /opt/paparazzi/arm-multilib/lib/gcc/arm-none-eabi/4.6.2/../../../../arm-none-eabi/lib/thumb2/libm.a(lib_a-sf_finite.o)
 .text          0x00000000       0x80 /opt/paparazzi/arm-multilib/lib/gcc/arm-none-eabi/4.6.2/../../../../arm-none-eabi/lib/thumb2/libm.a(lib_a-sf_floor.o)
 .data          0x00000000        0x0 /opt/paparazzi/arm-multilib/lib/gcc/arm-none-eabi/4.6.2/../../../../arm-none-eabi/lib/thumb2/libm.a(lib_a-sf_floor.o)
 .bss           0x00000000        0x0 /opt/paparazzi/arm-multilib/lib/gcc/arm-none-eabi/4.6.2/../../../../arm-none-eabi/lib/thumb2/libm.a(lib_a-sf_floor.o)
 .data          0x00000000        0x0 /opt/paparazzi/arm-multilib/lib/gcc/arm-none-eabi/4.6.2/../../../../arm-none-eabi/lib/thumb2/libm.a(lib_a-sf_fpclassify.o)
 .bss           0x00000000        0x0 /opt/paparazzi/arm-multilib/lib/gcc/arm-none-eabi/4.6.2/../../../../arm-none-eabi/lib/thumb2/libm.a(lib_a-sf_fpclassify.o)
 .text          0x00000000        0x8 /opt/paparazzi/arm-multilib/lib/gcc/arm-none-eabi/4.6.2/../../../../arm-none-eabi/lib/thumb2/libm.a(lib_a-sf_nan.o)
 .data          0x00000000        0x0 /opt/paparazzi/arm-multilib/lib/gcc/arm-none-eabi/4.6.2/../../../../arm-none-eabi/lib/thumb2/libm.a(lib_a-sf_nan.o)
 .bss           0x00000000        0x0 /opt/paparazzi/arm-multilib/lib/gcc/arm-none-eabi/4.6.2/../../../../arm-none-eabi/lib/thumb2/libm.a(lib_a-sf_nan.o)
 .text          0x00000000       0x9c /opt/paparazzi/arm-multilib/lib/gcc/arm-none-eabi/4.6.2/../../../../arm-none-eabi/lib/thumb2/libm.a(lib_a-sf_scalbn.o)
 .data          0x00000000        0x0 /opt/paparazzi/arm-multilib/lib/gcc/arm-none-eabi/4.6.2/../../../../arm-none-eabi/lib/thumb2/libm.a(lib_a-sf_scalbn.o)
 .bss           0x00000000        0x0 /opt/paparazzi/arm-multilib/lib/gcc/arm-none-eabi/4.6.2/../../../../arm-none-eabi/lib/thumb2/libm.a(lib_a-sf_scalbn.o)
 .data          0x00000000        0x0 /opt/paparazzi/arm-multilib/lib/gcc/arm-none-eabi/4.6.2/../../../../arm-none-eabi/lib/thumb2/libm.a(lib_a-s_copysign.o)
 .bss           0x00000000        0x0 /opt/paparazzi/arm-multilib/lib/gcc/arm-none-eabi/4.6.2/../../../../arm-none-eabi/lib/thumb2/libm.a(lib_a-s_copysign.o)
 .text          0x00000000        0xc /opt/paparazzi/arm-multilib/lib/gcc/arm-none-eabi/4.6.2/../../../../arm-none-eabi/lib/thumb2/libm.a(lib_a-sf_copysign.o)
 .data          0x00000000        0x0 /opt/paparazzi/arm-multilib/lib/gcc/arm-none-eabi/4.6.2/../../../../arm-none-eabi/lib/thumb2/libm.a(lib_a-sf_copysign.o)
 .bss           0x00000000        0x0 /opt/paparazzi/arm-multilib/lib/gcc/arm-none-eabi/4.6.2/../../../../arm-none-eabi/lib/thumb2/libm.a(lib_a-sf_copysign.o)
 .data          0x00000000        0x0 /opt/paparazzi/arm-multilib/lib/gcc/arm-none-eabi/4.6.2/thumb2/libgcc.a(_divsi3.o)
 .bss           0x00000000        0x0 /opt/paparazzi/arm-multilib/lib/gcc/arm-none-eabi/4.6.2/thumb2/libgcc.a(_divsi3.o)
 .data          0x00000000        0x0 /opt/paparazzi/arm-multilib/lib/gcc/arm-none-eabi/4.6.2/thumb2/libgcc.a(_dvmd_tls.o)
 .bss           0x00000000        0x0 /opt/paparazzi/arm-multilib/lib/gcc/arm-none-eabi/4.6.2/thumb2/libgcc.a(_dvmd_tls.o)
 .data          0x00000000        0x0 /opt/paparazzi/arm-multilib/lib/gcc/arm-none-eabi/4.6.2/thumb2/libgcc.a(_arm_addsubdf3.o)
 .bss           0x00000000        0x0 /opt/paparazzi/arm-multilib/lib/gcc/arm-none-eabi/4.6.2/thumb2/libgcc.a(_arm_addsubdf3.o)
 .data          0x00000000        0x0 /opt/paparazzi/arm-multilib/lib/gcc/arm-none-eabi/4.6.2/thumb2/libgcc.a(_arm_muldivdf3.o)
 .bss           0x00000000        0x0 /opt/paparazzi/arm-multilib/lib/gcc/arm-none-eabi/4.6.2/thumb2/libgcc.a(_arm_muldivdf3.o)
 .data          0x00000000        0x0 /opt/paparazzi/arm-multilib/lib/gcc/arm-none-eabi/4.6.2/thumb2/libgcc.a(_arm_cmpdf2.o)
 .bss           0x00000000        0x0 /opt/paparazzi/arm-multilib/lib/gcc/arm-none-eabi/4.6.2/thumb2/libgcc.a(_arm_cmpdf2.o)
 .data          0x00000000        0x0 /opt/paparazzi/arm-multilib/lib/gcc/arm-none-eabi/4.6.2/thumb2/libgcc.a(_arm_fixdfsi.o)
 .bss           0x00000000        0x0 /opt/paparazzi/arm-multilib/lib/gcc/arm-none-eabi/4.6.2/thumb2/libgcc.a(_arm_fixdfsi.o)
 .data          0x00000000        0x0 /opt/paparazzi/arm-multilib/lib/gcc/arm-none-eabi/4.6.2/thumb2/libgcc.a(_arm_fixunsdfsi.o)
 .bss           0x00000000        0x0 /opt/paparazzi/arm-multilib/lib/gcc/arm-none-eabi/4.6.2/thumb2/libgcc.a(_arm_fixunsdfsi.o)
 .data          0x00000000        0x0 /opt/paparazzi/arm-multilib/lib/gcc/arm-none-eabi/4.6.2/thumb2/libgcc.a(_arm_truncdfsf2.o)
 .bss           0x00000000        0x0 /opt/paparazzi/arm-multilib/lib/gcc/arm-none-eabi/4.6.2/thumb2/libgcc.a(_arm_truncdfsf2.o)
 .data          0x00000000        0x0 /opt/paparazzi/arm-multilib/lib/gcc/arm-none-eabi/4.6.2/thumb2/libgcc.a(_arm_addsubsf3.o)
 .bss           0x00000000        0x0 /opt/paparazzi/arm-multilib/lib/gcc/arm-none-eabi/4.6.2/thumb2/libgcc.a(_arm_addsubsf3.o)
 .data          0x00000000        0x0 /opt/paparazzi/arm-multilib/lib/gcc/arm-none-eabi/4.6.2/thumb2/libgcc.a(_arm_muldivsf3.o)
 .bss           0x00000000        0x0 /opt/paparazzi/arm-multilib/lib/gcc/arm-none-eabi/4.6.2/thumb2/libgcc.a(_arm_muldivsf3.o)
 .data          0x00000000        0x0 /opt/paparazzi/arm-multilib/lib/gcc/arm-none-eabi/4.6.2/thumb2/libgcc.a(_arm_cmpsf2.o)
 .bss           0x00000000        0x0 /opt/paparazzi/arm-multilib/lib/gcc/arm-none-eabi/4.6.2/thumb2/libgcc.a(_arm_cmpsf2.o)
 .data          0x00000000        0x0 /opt/paparazzi/arm-multilib/lib/gcc/arm-none-eabi/4.6.2/thumb2/libgcc.a(_arm_fixsfsi.o)
 .bss           0x00000000        0x0 /opt/paparazzi/arm-multilib/lib/gcc/arm-none-eabi/4.6.2/thumb2/libgcc.a(_arm_fixsfsi.o)
 .data          0x00000000        0x0 /opt/paparazzi/arm-multilib/lib/gcc/arm-none-eabi/4.6.2/thumb2/libgcc.a(_arm_fixunssfsi.o)
 .bss           0x00000000        0x0 /opt/paparazzi/arm-multilib/lib/gcc/arm-none-eabi/4.6.2/thumb2/libgcc.a(_arm_fixunssfsi.o)
 .text          0x00000000        0x0 /opt/paparazzi/arm-multilib/lib/gcc/arm-none-eabi/4.6.2/../../../../arm-none-eabi/lib/libstm32.a(stm32_adc.o)
 .data          0x00000000        0x0 /opt/paparazzi/arm-multilib/lib/gcc/arm-none-eabi/4.6.2/../../../../arm-none-eabi/lib/libstm32.a(stm32_adc.o)
 .bss           0x00000000        0x0 /opt/paparazzi/arm-multilib/lib/gcc/arm-none-eabi/4.6.2/../../../../arm-none-eabi/lib/libstm32.a(stm32_adc.o)
 .text.ADC_DeInit
                0x00000000       0x58 /opt/paparazzi/arm-multilib/lib/gcc/arm-none-eabi/4.6.2/../../../../arm-none-eabi/lib/libstm32.a(stm32_adc.o)
 .text.ADC_StructInit
                0x00000000       0x12 /opt/paparazzi/arm-multilib/lib/gcc/arm-none-eabi/4.6.2/../../../../arm-none-eabi/lib/libstm32.a(stm32_adc.o)
 .text.ADC_DMACmd
                0x00000000       0x12 /opt/paparazzi/arm-multilib/lib/gcc/arm-none-eabi/4.6.2/../../../../arm-none-eabi/lib/libstm32.a(stm32_adc.o)
 .text.ADC_SoftwareStartConvCmd
                0x00000000       0x12 /opt/paparazzi/arm-multilib/lib/gcc/arm-none-eabi/4.6.2/../../../../arm-none-eabi/lib/libstm32.a(stm32_adc.o)
 .text.ADC_GetSoftwareStartConvStatus
                0x00000000        0x8 /opt/paparazzi/arm-multilib/lib/gcc/arm-none-eabi/4.6.2/../../../../arm-none-eabi/lib/libstm32.a(stm32_adc.o)
 .text.ADC_DiscModeChannelCountConfig
                0x00000000       0x10 /opt/paparazzi/arm-multilib/lib/gcc/arm-none-eabi/4.6.2/../../../../arm-none-eabi/lib/libstm32.a(stm32_adc.o)
 .text.ADC_DiscModeCmd
                0x00000000       0x12 /opt/paparazzi/arm-multilib/lib/gcc/arm-none-eabi/4.6.2/../../../../arm-none-eabi/lib/libstm32.a(stm32_adc.o)
 .text.ADC_RegularChannelConfig
                0x00000000       0x8c /opt/paparazzi/arm-multilib/lib/gcc/arm-none-eabi/4.6.2/../../../../arm-none-eabi/lib/libstm32.a(stm32_adc.o)
 .text.ADC_ExternalTrigConvCmd
                0x00000000       0x12 /opt/paparazzi/arm-multilib/lib/gcc/arm-none-eabi/4.6.2/../../../../arm-none-eabi/lib/libstm32.a(stm32_adc.o)
 .text.ADC_GetConversionValue
                0x00000000        0x6 /opt/paparazzi/arm-multilib/lib/gcc/arm-none-eabi/4.6.2/../../../../arm-none-eabi/lib/libstm32.a(stm32_adc.o)
 .text.ADC_GetDualModeConversionValue
                0x00000000        0xc /opt/paparazzi/arm-multilib/lib/gcc/arm-none-eabi/4.6.2/../../../../arm-none-eabi/lib/libstm32.a(stm32_adc.o)
 .text.ADC_AutoInjectedConvCmd
                0x00000000       0x12 /opt/paparazzi/arm-multilib/lib/gcc/arm-none-eabi/4.6.2/../../../../arm-none-eabi/lib/libstm32.a(stm32_adc.o)
 .text.ADC_InjectedDiscModeCmd
                0x00000000       0x12 /opt/paparazzi/arm-multilib/lib/gcc/arm-none-eabi/4.6.2/../../../../arm-none-eabi/lib/libstm32.a(stm32_adc.o)
 .text.ADC_SoftwareStartInjectedConvCmd
                0x00000000       0x12 /opt/paparazzi/arm-multilib/lib/gcc/arm-none-eabi/4.6.2/../../../../arm-none-eabi/lib/libstm32.a(stm32_adc.o)
 .text.ADC_GetSoftwareStartInjectedConvCmdStatus
                0x00000000        0x8 /opt/paparazzi/arm-multilib/lib/gcc/arm-none-eabi/4.6.2/../../../../arm-none-eabi/lib/libstm32.a(stm32_adc.o)
 .text.ADC_SetInjectedOffset
                0x00000000        0x4 /opt/paparazzi/arm-multilib/lib/gcc/arm-none-eabi/4.6.2/../../../../arm-none-eabi/lib/libstm32.a(stm32_adc.o)
 .text.ADC_AnalogWatchdogCmd
                0x00000000       0x10 /opt/paparazzi/arm-multilib/lib/gcc/arm-none-eabi/4.6.2/../../../../arm-none-eabi/lib/libstm32.a(stm32_adc.o)
 .text.ADC_AnalogWatchdogThresholdsConfig
                0x00000000        0x6 /opt/paparazzi/arm-multilib/lib/gcc/arm-none-eabi/4.6.2/../../../../arm-none-eabi/lib/libstm32.a(stm32_adc.o)
 .text.ADC_AnalogWatchdogSingleChannelConfig
                0x00000000        0xc /opt/paparazzi/arm-multilib/lib/gcc/arm-none-eabi/4.6.2/../../../../arm-none-eabi/lib/libstm32.a(stm32_adc.o)
 .text.ADC_TempSensorVrefintCmd
                0x00000000       0x18 /opt/paparazzi/arm-multilib/lib/gcc/arm-none-eabi/4.6.2/../../../../arm-none-eabi/lib/libstm32.a(stm32_adc.o)
 .text.ADC_GetFlagStatus
                0x00000000        0xc /opt/paparazzi/arm-multilib/lib/gcc/arm-none-eabi/4.6.2/../../../../arm-none-eabi/lib/libstm32.a(stm32_adc.o)
 .text.ADC_ClearFlag
                0x00000000        0x6 /opt/paparazzi/arm-multilib/lib/gcc/arm-none-eabi/4.6.2/../../../../arm-none-eabi/lib/libstm32.a(stm32_adc.o)
 .text.ADC_GetITStatus
                0x00000000       0x16 /opt/paparazzi/arm-multilib/lib/gcc/arm-none-eabi/4.6.2/../../../../arm-none-eabi/lib/libstm32.a(stm32_adc.o)
 .text          0x00000000        0x0 /opt/paparazzi/arm-multilib/lib/gcc/arm-none-eabi/4.6.2/../../../../arm-none-eabi/lib/libstm32.a(stm32_tim.o)
 .data          0x00000000        0x0 /opt/paparazzi/arm-multilib/lib/gcc/arm-none-eabi/4.6.2/../../../../arm-none-eabi/lib/libstm32.a(stm32_tim.o)
 .bss           0x00000000        0x0 /opt/paparazzi/arm-multilib/lib/gcc/arm-none-eabi/4.6.2/../../../../arm-none-eabi/lib/libstm32.a(stm32_tim.o)
 .text.TI1_Config
                0x00000000       0x32 /opt/paparazzi/arm-multilib/lib/gcc/arm-none-eabi/4.6.2/../../../../arm-none-eabi/lib/libstm32.a(stm32_tim.o)
 .text.TI2_Config
                0x00000000       0x3a /opt/paparazzi/arm-multilib/lib/gcc/arm-none-eabi/4.6.2/../../../../arm-none-eabi/lib/libstm32.a(stm32_tim.o)
 .text.TIM_DeInit
                0x00000000       0xcc /opt/paparazzi/arm-multilib/lib/gcc/arm-none-eabi/4.6.2/../../../../arm-none-eabi/lib/libstm32.a(stm32_tim.o)
 .text.TIM_BDTRConfig
                0x00000000       0x22 /opt/paparazzi/arm-multilib/lib/gcc/arm-none-eabi/4.6.2/../../../../arm-none-eabi/lib/libstm32.a(stm32_tim.o)
 .text.TIM_OCStructInit
                0x00000000       0x14 /opt/paparazzi/arm-multilib/lib/gcc/arm-none-eabi/4.6.2/../../../../arm-none-eabi/lib/libstm32.a(stm32_tim.o)
 .text.TIM_ICStructInit
                0x00000000       0x10 /opt/paparazzi/arm-multilib/lib/gcc/arm-none-eabi/4.6.2/../../../../arm-none-eabi/lib/libstm32.a(stm32_tim.o)
 .text.TIM_BDTRStructInit
                0x00000000       0x12 /opt/paparazzi/arm-multilib/lib/gcc/arm-none-eabi/4.6.2/../../../../arm-none-eabi/lib/libstm32.a(stm32_tim.o)
 .text.TIM_GenerateEvent
                0x00000000        0x4 /opt/paparazzi/arm-multilib/lib/gcc/arm-none-eabi/4.6.2/../../../../arm-none-eabi/lib/libstm32.a(stm32_tim.o)
 .text.TIM_DMAConfig
                0x00000000        0x8 /opt/paparazzi/arm-multilib/lib/gcc/arm-none-eabi/4.6.2/../../../../arm-none-eabi/lib/libstm32.a(stm32_tim.o)
 .text.TIM_DMACmd
                0x00000000       0x12 /opt/paparazzi/arm-multilib/lib/gcc/arm-none-eabi/4.6.2/../../../../arm-none-eabi/lib/libstm32.a(stm32_tim.o)
 .text.TIM_InternalClockConfig
                0x00000000        0xe /opt/paparazzi/arm-multilib/lib/gcc/arm-none-eabi/4.6.2/../../../../arm-none-eabi/lib/libstm32.a(stm32_tim.o)
 .text.TIM_ITRxExternalClockConfig
                0x00000000       0x1a /opt/paparazzi/arm-multilib/lib/gcc/arm-none-eabi/4.6.2/../../../../arm-none-eabi/lib/libstm32.a(stm32_tim.o)
 .text.TIM_TIxExternalClockConfig
                0x00000000       0x32 /opt/paparazzi/arm-multilib/lib/gcc/arm-none-eabi/4.6.2/../../../../arm-none-eabi/lib/libstm32.a(stm32_tim.o)
 .text.TIM_ETRConfig
                0x00000000       0x14 /opt/paparazzi/arm-multilib/lib/gcc/arm-none-eabi/4.6.2/../../../../arm-none-eabi/lib/libstm32.a(stm32_tim.o)
 .text.TIM_ETRClockMode2Config
                0x00000000       0x14 /opt/paparazzi/arm-multilib/lib/gcc/arm-none-eabi/4.6.2/../../../../arm-none-eabi/lib/libstm32.a(stm32_tim.o)
 .text.TIM_ETRClockMode1Config
                0x00000000       0x1a /opt/paparazzi/arm-multilib/lib/gcc/arm-none-eabi/4.6.2/../../../../arm-none-eabi/lib/libstm32.a(stm32_tim.o)
 .text.TIM_PrescalerConfig
                0x00000000        0x6 /opt/paparazzi/arm-multilib/lib/gcc/arm-none-eabi/4.6.2/../../../../arm-none-eabi/lib/libstm32.a(stm32_tim.o)
 .text.TIM_CounterModeConfig
                0x00000000       0x10 /opt/paparazzi/arm-multilib/lib/gcc/arm-none-eabi/4.6.2/../../../../arm-none-eabi/lib/libstm32.a(stm32_tim.o)
 .text.TIM_SelectInputTrigger
                0x00000000       0x10 /opt/paparazzi/arm-multilib/lib/gcc/arm-none-eabi/4.6.2/../../../../arm-none-eabi/lib/libstm32.a(stm32_tim.o)
 .text.TIM_EncoderInterfaceConfig
                0x00000000       0x3c /opt/paparazzi/arm-multilib/lib/gcc/arm-none-eabi/4.6.2/../../../../arm-none-eabi/lib/libstm32.a(stm32_tim.o)
 .text.TIM_ForcedOC1Config
                0x00000000       0x10 /opt/paparazzi/arm-multilib/lib/gcc/arm-none-eabi/4.6.2/../../../../arm-none-eabi/lib/libstm32.a(stm32_tim.o)
 .text.TIM_ForcedOC2Config
                0x00000000       0x14 /opt/paparazzi/arm-multilib/lib/gcc/arm-none-eabi/4.6.2/../../../../arm-none-eabi/lib/libstm32.a(stm32_tim.o)
 .text.TIM_ForcedOC3Config
                0x00000000       0x10 /opt/paparazzi/arm-multilib/lib/gcc/arm-none-eabi/4.6.2/../../../../arm-none-eabi/lib/libstm32.a(stm32_tim.o)
 .text.TIM_ForcedOC4Config
                0x00000000       0x14 /opt/paparazzi/arm-multilib/lib/gcc/arm-none-eabi/4.6.2/../../../../arm-none-eabi/lib/libstm32.a(stm32_tim.o)
 .text.TIM_SelectCOM
                0x00000000       0x18 /opt/paparazzi/arm-multilib/lib/gcc/arm-none-eabi/4.6.2/../../../../arm-none-eabi/lib/libstm32.a(stm32_tim.o)
 .text.TIM_SelectCCDMA
                0x00000000       0x18 /opt/paparazzi/arm-multilib/lib/gcc/arm-none-eabi/4.6.2/../../../../arm-none-eabi/lib/libstm32.a(stm32_tim.o)
 .text.TIM_CCPreloadControl
                0x00000000       0x18 /opt/paparazzi/arm-multilib/lib/gcc/arm-none-eabi/4.6.2/../../../../arm-none-eabi/lib/libstm32.a(stm32_tim.o)
 .text.TIM_OC1FastConfig
                0x00000000       0x10 /opt/paparazzi/arm-multilib/lib/gcc/arm-none-eabi/4.6.2/../../../../arm-none-eabi/lib/libstm32.a(stm32_tim.o)
 .text.TIM_OC2FastConfig
                0x00000000       0x14 /opt/paparazzi/arm-multilib/lib/gcc/arm-none-eabi/4.6.2/../../../../arm-none-eabi/lib/libstm32.a(stm32_tim.o)
 .text.TIM_OC3FastConfig
                0x00000000       0x10 /opt/paparazzi/arm-multilib/lib/gcc/arm-none-eabi/4.6.2/../../../../arm-none-eabi/lib/libstm32.a(stm32_tim.o)
 .text.TIM_OC4FastConfig
                0x00000000       0x14 /opt/paparazzi/arm-multilib/lib/gcc/arm-none-eabi/4.6.2/../../../../arm-none-eabi/lib/libstm32.a(stm32_tim.o)
 .text.TIM_ClearOC1Ref
                0x00000000       0x10 /opt/paparazzi/arm-multilib/lib/gcc/arm-none-eabi/4.6.2/../../../../arm-none-eabi/lib/libstm32.a(stm32_tim.o)
 .text.TIM_ClearOC2Ref
                0x00000000       0x10 /opt/paparazzi/arm-multilib/lib/gcc/arm-none-eabi/4.6.2/../../../../arm-none-eabi/lib/libstm32.a(stm32_tim.o)
 .text.TIM_ClearOC3Ref
                0x00000000       0x10 /opt/paparazzi/arm-multilib/lib/gcc/arm-none-eabi/4.6.2/../../../../arm-none-eabi/lib/libstm32.a(stm32_tim.o)
 .text.TIM_ClearOC4Ref
                0x00000000       0x10 /opt/paparazzi/arm-multilib/lib/gcc/arm-none-eabi/4.6.2/../../../../arm-none-eabi/lib/libstm32.a(stm32_tim.o)
 .text.TIM_OC1PolarityConfig
                0x00000000       0x10 /opt/paparazzi/arm-multilib/lib/gcc/arm-none-eabi/4.6.2/../../../../arm-none-eabi/lib/libstm32.a(stm32_tim.o)
 .text.TIM_OC1NPolarityConfig
                0x00000000       0x10 /opt/paparazzi/arm-multilib/lib/gcc/arm-none-eabi/4.6.2/../../../../arm-none-eabi/lib/libstm32.a(stm32_tim.o)
 .text.TIM_OC2PolarityConfig
                0x00000000       0x14 /opt/paparazzi/arm-multilib/lib/gcc/arm-none-eabi/4.6.2/../../../../arm-none-eabi/lib/libstm32.a(stm32_tim.o)
 .text.TIM_OC2NPolarityConfig
                0x00000000       0x14 /opt/paparazzi/arm-multilib/lib/gcc/arm-none-eabi/4.6.2/../../../../arm-none-eabi/lib/libstm32.a(stm32_tim.o)
 .text.TIM_OC3PolarityConfig
                0x00000000       0x14 /opt/paparazzi/arm-multilib/lib/gcc/arm-none-eabi/4.6.2/../../../../arm-none-eabi/lib/libstm32.a(stm32_tim.o)
 .text.TIM_OC3NPolarityConfig
                0x00000000       0x14 /opt/paparazzi/arm-multilib/lib/gcc/arm-none-eabi/4.6.2/../../../../arm-none-eabi/lib/libstm32.a(stm32_tim.o)
 .text.TIM_OC4PolarityConfig
                0x00000000       0x14 /opt/paparazzi/arm-multilib/lib/gcc/arm-none-eabi/4.6.2/../../../../arm-none-eabi/lib/libstm32.a(stm32_tim.o)
 .text.TIM_CCxCmd
                0x00000000       0x1e /opt/paparazzi/arm-multilib/lib/gcc/arm-none-eabi/4.6.2/../../../../arm-none-eabi/lib/libstm32.a(stm32_tim.o)
 .text.TIM_CCxNCmd
                0x00000000       0x1e /opt/paparazzi/arm-multilib/lib/gcc/arm-none-eabi/4.6.2/../../../../arm-none-eabi/lib/libstm32.a(stm32_tim.o)
 .text.TIM_SelectOCxM
                0x00000000       0x44 /opt/paparazzi/arm-multilib/lib/gcc/arm-none-eabi/4.6.2/../../../../arm-none-eabi/lib/libstm32.a(stm32_tim.o)
 .text.TIM_UpdateDisableConfig
                0x00000000       0x18 /opt/paparazzi/arm-multilib/lib/gcc/arm-none-eabi/4.6.2/../../../../arm-none-eabi/lib/libstm32.a(stm32_tim.o)
 .text.TIM_UpdateRequestConfig
                0x00000000       0x18 /opt/paparazzi/arm-multilib/lib/gcc/arm-none-eabi/4.6.2/../../../../arm-none-eabi/lib/libstm32.a(stm32_tim.o)
 .text.TIM_SelectHallSensor
                0x00000000       0x18 /opt/paparazzi/arm-multilib/lib/gcc/arm-none-eabi/4.6.2/../../../../arm-none-eabi/lib/libstm32.a(stm32_tim.o)
 .text.TIM_SelectOnePulseMode
                0x00000000       0x16 /opt/paparazzi/arm-multilib/lib/gcc/arm-none-eabi/4.6.2/../../../../arm-none-eabi/lib/libstm32.a(stm32_tim.o)
 .text.TIM_SelectSlaveMode
                0x00000000       0x16 /opt/paparazzi/arm-multilib/lib/gcc/arm-none-eabi/4.6.2/../../../../arm-none-eabi/lib/libstm32.a(stm32_tim.o)
 .text.TIM_SelectMasterSlaveMode
                0x00000000       0x16 /opt/paparazzi/arm-multilib/lib/gcc/arm-none-eabi/4.6.2/../../../../arm-none-eabi/lib/libstm32.a(stm32_tim.o)
 .text.TIM_SetCounter
                0x00000000        0x4 /opt/paparazzi/arm-multilib/lib/gcc/arm-none-eabi/4.6.2/../../../../arm-none-eabi/lib/libstm32.a(stm32_tim.o)
 .text.TIM_SetAutoreload
                0x00000000        0x4 /opt/paparazzi/arm-multilib/lib/gcc/arm-none-eabi/4.6.2/../../../../arm-none-eabi/lib/libstm32.a(stm32_tim.o)
 .text.TIM_SetIC1Prescaler
                0x00000000       0x16 /opt/paparazzi/arm-multilib/lib/gcc/arm-none-eabi/4.6.2/../../../../arm-none-eabi/lib/libstm32.a(stm32_tim.o)
 .text.TIM_SetIC2Prescaler
                0x00000000       0x1a /opt/paparazzi/arm-multilib/lib/gcc/arm-none-eabi/4.6.2/../../../../arm-none-eabi/lib/libstm32.a(stm32_tim.o)
 .text.TIM_PWMIConfig
                0x00000000       0x6e /opt/paparazzi/arm-multilib/lib/gcc/arm-none-eabi/4.6.2/../../../../arm-none-eabi/lib/libstm32.a(stm32_tim.o)
 .text.TIM_SetIC3Prescaler
                0x00000000       0x16 /opt/paparazzi/arm-multilib/lib/gcc/arm-none-eabi/4.6.2/../../../../arm-none-eabi/lib/libstm32.a(stm32_tim.o)
 .text.TIM_SetIC4Prescaler
                0x00000000       0x1a /opt/paparazzi/arm-multilib/lib/gcc/arm-none-eabi/4.6.2/../../../../arm-none-eabi/lib/libstm32.a(stm32_tim.o)
 .text.TIM_ICInit
                0x00000000       0xb6 /opt/paparazzi/arm-multilib/lib/gcc/arm-none-eabi/4.6.2/../../../../arm-none-eabi/lib/libstm32.a(stm32_tim.o)
 .text.TIM_SetClockDivision
                0x00000000       0x10 /opt/paparazzi/arm-multilib/lib/gcc/arm-none-eabi/4.6.2/../../../../arm-none-eabi/lib/libstm32.a(stm32_tim.o)
 .text.TIM_GetCapture1
                0x00000000        0x6 /opt/paparazzi/arm-multilib/lib/gcc/arm-none-eabi/4.6.2/../../../../arm-none-eabi/lib/libstm32.a(stm32_tim.o)
 .text.TIM_GetCapture2
                0x00000000        0x6 /opt/paparazzi/arm-multilib/lib/gcc/arm-none-eabi/4.6.2/../../../../arm-none-eabi/lib/libstm32.a(stm32_tim.o)
 .text.TIM_GetCapture3
                0x00000000        0x6 /opt/paparazzi/arm-multilib/lib/gcc/arm-none-eabi/4.6.2/../../../../arm-none-eabi/lib/libstm32.a(stm32_tim.o)
 .text.TIM_GetCapture4
                0x00000000        0x8 /opt/paparazzi/arm-multilib/lib/gcc/arm-none-eabi/4.6.2/../../../../arm-none-eabi/lib/libstm32.a(stm32_tim.o)
 .text.TIM_GetCounter
                0x00000000        0x6 /opt/paparazzi/arm-multilib/lib/gcc/arm-none-eabi/4.6.2/../../../../arm-none-eabi/lib/libstm32.a(stm32_tim.o)
 .text.TIM_GetPrescaler
                0x00000000        0x6 /opt/paparazzi/arm-multilib/lib/gcc/arm-none-eabi/4.6.2/../../../../arm-none-eabi/lib/libstm32.a(stm32_tim.o)
 .text.TIM_GetFlagStatus
                0x00000000        0xc /opt/paparazzi/arm-multilib/lib/gcc/arm-none-eabi/4.6.2/../../../../arm-none-eabi/lib/libstm32.a(stm32_tim.o)
 .text.TIM_GetITStatus
                0x00000000       0x16 /opt/paparazzi/arm-multilib/lib/gcc/arm-none-eabi/4.6.2/../../../../arm-none-eabi/lib/libstm32.a(stm32_tim.o)
 .text          0x00000000        0x0 /opt/paparazzi/arm-multilib/lib/gcc/arm-none-eabi/4.6.2/../../../../arm-none-eabi/lib/libstm32.a(stm32_dma.o)
 .data          0x00000000        0x0 /opt/paparazzi/arm-multilib/lib/gcc/arm-none-eabi/4.6.2/../../../../arm-none-eabi/lib/libstm32.a(stm32_dma.o)
 .bss           0x00000000        0x0 /opt/paparazzi/arm-multilib/lib/gcc/arm-none-eabi/4.6.2/../../../../arm-none-eabi/lib/libstm32.a(stm32_dma.o)
 .text.DMA_StructInit
                0x00000000       0x1a /opt/paparazzi/arm-multilib/lib/gcc/arm-none-eabi/4.6.2/../../../../arm-none-eabi/lib/libstm32.a(stm32_dma.o)
 .text.DMA_GetCurrDataCounter
                0x00000000        0x6 /opt/paparazzi/arm-multilib/lib/gcc/arm-none-eabi/4.6.2/../../../../arm-none-eabi/lib/libstm32.a(stm32_dma.o)
 .text.DMA_GetFlagStatus
                0x00000000       0x1c /opt/paparazzi/arm-multilib/lib/gcc/arm-none-eabi/4.6.2/../../../../arm-none-eabi/lib/libstm32.a(stm32_dma.o)
 .text.DMA_ClearFlag
                0x00000000       0x14 /opt/paparazzi/arm-multilib/lib/gcc/arm-none-eabi/4.6.2/../../../../arm-none-eabi/lib/libstm32.a(stm32_dma.o)
 .text          0x00000000        0x0 /opt/paparazzi/arm-multilib/lib/gcc/arm-none-eabi/4.6.2/../../../../arm-none-eabi/lib/libstm32.a(stm32_gpio.o)
 .data          0x00000000        0x0 /opt/paparazzi/arm-multilib/lib/gcc/arm-none-eabi/4.6.2/../../../../arm-none-eabi/lib/libstm32.a(stm32_gpio.o)
 .bss           0x00000000        0x0 /opt/paparazzi/arm-multilib/lib/gcc/arm-none-eabi/4.6.2/../../../../arm-none-eabi/lib/libstm32.a(stm32_gpio.o)
 .text.GPIO_DeInit
                0x00000000       0xa8 /opt/paparazzi/arm-multilib/lib/gcc/arm-none-eabi/4.6.2/../../../../arm-none-eabi/lib/libstm32.a(stm32_gpio.o)
 .text.GPIO_AFIODeInit
                0x00000000       0x16 /opt/paparazzi/arm-multilib/lib/gcc/arm-none-eabi/4.6.2/../../../../arm-none-eabi/lib/libstm32.a(stm32_gpio.o)
 .text.GPIO_StructInit
                0x00000000       0x10 /opt/paparazzi/arm-multilib/lib/gcc/arm-none-eabi/4.6.2/../../../../arm-none-eabi/lib/libstm32.a(stm32_gpio.o)
 .text.GPIO_ReadInputData
                0x00000000        0x6 /opt/paparazzi/arm-multilib/lib/gcc/arm-none-eabi/4.6.2/../../../../arm-none-eabi/lib/libstm32.a(stm32_gpio.o)
 .text.GPIO_ReadOutputDataBit
                0x00000000        0xc /opt/paparazzi/arm-multilib/lib/gcc/arm-none-eabi/4.6.2/../../../../arm-none-eabi/lib/libstm32.a(stm32_gpio.o)
 .text.GPIO_ReadOutputData
                0x00000000        0x6 /opt/paparazzi/arm-multilib/lib/gcc/arm-none-eabi/4.6.2/../../../../arm-none-eabi/lib/libstm32.a(stm32_gpio.o)
 .text.GPIO_SetBits
                0x00000000        0x4 /opt/paparazzi/arm-multilib/lib/gcc/arm-none-eabi/4.6.2/../../../../arm-none-eabi/lib/libstm32.a(stm32_gpio.o)
 .text.GPIO_ResetBits
                0x00000000        0x4 /opt/paparazzi/arm-multilib/lib/gcc/arm-none-eabi/4.6.2/../../../../arm-none-eabi/lib/libstm32.a(stm32_gpio.o)
 .text.GPIO_Write
                0x00000000        0x4 /opt/paparazzi/arm-multilib/lib/gcc/arm-none-eabi/4.6.2/../../../../arm-none-eabi/lib/libstm32.a(stm32_gpio.o)
 .text.GPIO_PinLockConfig
                0x00000000       0x10 /opt/paparazzi/arm-multilib/lib/gcc/arm-none-eabi/4.6.2/../../../../arm-none-eabi/lib/libstm32.a(stm32_gpio.o)
 .text.GPIO_EventOutputConfig
                0x00000000       0x1c /opt/paparazzi/arm-multilib/lib/gcc/arm-none-eabi/4.6.2/../../../../arm-none-eabi/lib/libstm32.a(stm32_gpio.o)
 .text.GPIO_EventOutputCmd
                0x00000000        0xc /opt/paparazzi/arm-multilib/lib/gcc/arm-none-eabi/4.6.2/../../../../arm-none-eabi/lib/libstm32.a(stm32_gpio.o)
 .text.GPIO_EXTILineConfig
                0x00000000       0x34 /opt/paparazzi/arm-multilib/lib/gcc/arm-none-eabi/4.6.2/../../../../arm-none-eabi/lib/libstm32.a(stm32_gpio.o)
 .text          0x00000000        0x0 /opt/paparazzi/arm-multilib/lib/gcc/arm-none-eabi/4.6.2/../../../../arm-none-eabi/lib/libstm32.a(stm32_usart.o)
 .data          0x00000000        0x0 /opt/paparazzi/arm-multilib/lib/gcc/arm-none-eabi/4.6.2/../../../../arm-none-eabi/lib/libstm32.a(stm32_usart.o)
 .bss           0x00000000        0x0 /opt/paparazzi/arm-multilib/lib/gcc/arm-none-eabi/4.6.2/../../../../arm-none-eabi/lib/libstm32.a(stm32_usart.o)
 .text.USART_DeInit
                0x00000000       0x94 /opt/paparazzi/arm-multilib/lib/gcc/arm-none-eabi/4.6.2/../../../../arm-none-eabi/lib/libstm32.a(stm32_usart.o)
 .text.USART_StructInit
                0x00000000       0x16 /opt/paparazzi/arm-multilib/lib/gcc/arm-none-eabi/4.6.2/../../../../arm-none-eabi/lib/libstm32.a(stm32_usart.o)
 .text.USART_ClockInit
                0x00000000       0x22 /opt/paparazzi/arm-multilib/lib/gcc/arm-none-eabi/4.6.2/../../../../arm-none-eabi/lib/libstm32.a(stm32_usart.o)
 .text.USART_ClockStructInit
                0x00000000        0xc /opt/paparazzi/arm-multilib/lib/gcc/arm-none-eabi/4.6.2/../../../../arm-none-eabi/lib/libstm32.a(stm32_usart.o)
 .text.USART_DMACmd
                0x00000000       0x12 /opt/paparazzi/arm-multilib/lib/gcc/arm-none-eabi/4.6.2/../../../../arm-none-eabi/lib/libstm32.a(stm32_usart.o)
 .text.USART_SetAddress
                0x00000000       0x16 /opt/paparazzi/arm-multilib/lib/gcc/arm-none-eabi/4.6.2/../../../../arm-none-eabi/lib/libstm32.a(stm32_usart.o)
 .text.USART_WakeUpConfig
                0x00000000       0x16 /opt/paparazzi/arm-multilib/lib/gcc/arm-none-eabi/4.6.2/../../../../arm-none-eabi/lib/libstm32.a(stm32_usart.o)
 .text.USART_ReceiverWakeUpCmd
                0x00000000       0x18 /opt/paparazzi/arm-multilib/lib/gcc/arm-none-eabi/4.6.2/../../../../arm-none-eabi/lib/libstm32.a(stm32_usart.o)
 .text.USART_LINBreakDetectLengthConfig
                0x00000000       0x16 /opt/paparazzi/arm-multilib/lib/gcc/arm-none-eabi/4.6.2/../../../../arm-none-eabi/lib/libstm32.a(stm32_usart.o)
 .text.USART_LINCmd
                0x00000000       0x18 /opt/paparazzi/arm-multilib/lib/gcc/arm-none-eabi/4.6.2/../../../../arm-none-eabi/lib/libstm32.a(stm32_usart.o)
 .text.USART_SendBreak
                0x00000000        0xc /opt/paparazzi/arm-multilib/lib/gcc/arm-none-eabi/4.6.2/../../../../arm-none-eabi/lib/libstm32.a(stm32_usart.o)
 .text.USART_SetGuardTime
                0x00000000       0x12 /opt/paparazzi/arm-multilib/lib/gcc/arm-none-eabi/4.6.2/../../../../arm-none-eabi/lib/libstm32.a(stm32_usart.o)
 .text.USART_SetPrescaler
                0x00000000       0x12 /opt/paparazzi/arm-multilib/lib/gcc/arm-none-eabi/4.6.2/../../../../arm-none-eabi/lib/libstm32.a(stm32_usart.o)
 .text.USART_SmartCardCmd
                0x00000000       0x18 /opt/paparazzi/arm-multilib/lib/gcc/arm-none-eabi/4.6.2/../../../../arm-none-eabi/lib/libstm32.a(stm32_usart.o)
 .text.USART_SmartCardNACKCmd
                0x00000000       0x18 /opt/paparazzi/arm-multilib/lib/gcc/arm-none-eabi/4.6.2/../../../../arm-none-eabi/lib/libstm32.a(stm32_usart.o)
 .text.USART_HalfDuplexCmd
                0x00000000       0x18 /opt/paparazzi/arm-multilib/lib/gcc/arm-none-eabi/4.6.2/../../../../arm-none-eabi/lib/libstm32.a(stm32_usart.o)
 .text.USART_IrDAConfig
                0x00000000       0x16 /opt/paparazzi/arm-multilib/lib/gcc/arm-none-eabi/4.6.2/../../../../arm-none-eabi/lib/libstm32.a(stm32_usart.o)
 .text.USART_IrDACmd
                0x00000000       0x18 /opt/paparazzi/arm-multilib/lib/gcc/arm-none-eabi/4.6.2/../../../../arm-none-eabi/lib/libstm32.a(stm32_usart.o)
 .text.USART_GetFlagStatus
                0x00000000        0xc /opt/paparazzi/arm-multilib/lib/gcc/arm-none-eabi/4.6.2/../../../../arm-none-eabi/lib/libstm32.a(stm32_usart.o)
 .text.USART_ClearFlag
                0x00000000        0x8 /opt/paparazzi/arm-multilib/lib/gcc/arm-none-eabi/4.6.2/../../../../arm-none-eabi/lib/libstm32.a(stm32_usart.o)
 .text.USART_ClearITPendingBit
                0x00000000        0xe /opt/paparazzi/arm-multilib/lib/gcc/arm-none-eabi/4.6.2/../../../../arm-none-eabi/lib/libstm32.a(stm32_usart.o)
 .text          0x00000000        0x0 /opt/paparazzi/arm-multilib/lib/gcc/arm-none-eabi/4.6.2/../../../../arm-none-eabi/lib/libstm32.a(stm32_exti.o)
 .data          0x00000000        0x0 /opt/paparazzi/arm-multilib/lib/gcc/arm-none-eabi/4.6.2/../../../../arm-none-eabi/lib/libstm32.a(stm32_exti.o)
 .bss           0x00000000        0x0 /opt/paparazzi/arm-multilib/lib/gcc/arm-none-eabi/4.6.2/../../../../arm-none-eabi/lib/libstm32.a(stm32_exti.o)
 .text.EXTI_DeInit
                0x00000000       0x1c /opt/paparazzi/arm-multilib/lib/gcc/arm-none-eabi/4.6.2/../../../../arm-none-eabi/lib/libstm32.a(stm32_exti.o)
 .text.EXTI_Init
                0x00000000       0x78 /opt/paparazzi/arm-multilib/lib/gcc/arm-none-eabi/4.6.2/../../../../arm-none-eabi/lib/libstm32.a(stm32_exti.o)
 .text.EXTI_StructInit
                0x00000000        0xe /opt/paparazzi/arm-multilib/lib/gcc/arm-none-eabi/4.6.2/../../../../arm-none-eabi/lib/libstm32.a(stm32_exti.o)
 .text.EXTI_GenerateSWInterrupt
                0x00000000       0x10 /opt/paparazzi/arm-multilib/lib/gcc/arm-none-eabi/4.6.2/../../../../arm-none-eabi/lib/libstm32.a(stm32_exti.o)
 .text.EXTI_GetFlagStatus
                0x00000000       0x14 /opt/paparazzi/arm-multilib/lib/gcc/arm-none-eabi/4.6.2/../../../../arm-none-eabi/lib/libstm32.a(stm32_exti.o)
 .text.EXTI_ClearFlag
                0x00000000        0xc /opt/paparazzi/arm-multilib/lib/gcc/arm-none-eabi/4.6.2/../../../../arm-none-eabi/lib/libstm32.a(stm32_exti.o)
 .text.EXTI_GetITStatus
                0x00000000       0x1c /opt/paparazzi/arm-multilib/lib/gcc/arm-none-eabi/4.6.2/../../../../arm-none-eabi/lib/libstm32.a(stm32_exti.o)
 .text.EXTI_ClearITPendingBit
                0x00000000        0xc /opt/paparazzi/arm-multilib/lib/gcc/arm-none-eabi/4.6.2/../../../../arm-none-eabi/lib/libstm32.a(stm32_exti.o)
 .text          0x00000000        0x0 /opt/paparazzi/arm-multilib/lib/gcc/arm-none-eabi/4.6.2/../../../../arm-none-eabi/lib/libstm32.a(stm32_i2c.o)
 .data          0x00000000        0x0 /opt/paparazzi/arm-multilib/lib/gcc/arm-none-eabi/4.6.2/../../../../arm-none-eabi/lib/libstm32.a(stm32_i2c.o)
 .bss           0x00000000        0x0 /opt/paparazzi/arm-multilib/lib/gcc/arm-none-eabi/4.6.2/../../../../arm-none-eabi/lib/libstm32.a(stm32_i2c.o)
 .text.I2C_DeInit
                0x00000000       0x40 /opt/paparazzi/arm-multilib/lib/gcc/arm-none-eabi/4.6.2/../../../../arm-none-eabi/lib/libstm32.a(stm32_i2c.o)
 .text.I2C_Init
                0x00000000       0xd0 /opt/paparazzi/arm-multilib/lib/gcc/arm-none-eabi/4.6.2/../../../../arm-none-eabi/lib/libstm32.a(stm32_i2c.o)
 .text.I2C_StructInit
                0x00000000       0x1c /opt/paparazzi/arm-multilib/lib/gcc/arm-none-eabi/4.6.2/../../../../arm-none-eabi/lib/libstm32.a(stm32_i2c.o)
 .text.I2C_Cmd  0x00000000       0x18 /opt/paparazzi/arm-multilib/lib/gcc/arm-none-eabi/4.6.2/../../../../arm-none-eabi/lib/libstm32.a(stm32_i2c.o)
 .text.I2C_DMACmd
                0x00000000       0x18 /opt/paparazzi/arm-multilib/lib/gcc/arm-none-eabi/4.6.2/../../../../arm-none-eabi/lib/libstm32.a(stm32_i2c.o)
 .text.I2C_DMALastTransferCmd
                0x00000000       0x18 /opt/paparazzi/arm-multilib/lib/gcc/arm-none-eabi/4.6.2/../../../../arm-none-eabi/lib/libstm32.a(stm32_i2c.o)
 .text.I2C_GenerateSTART
                0x00000000       0x18 /opt/paparazzi/arm-multilib/lib/gcc/arm-none-eabi/4.6.2/../../../../arm-none-eabi/lib/libstm32.a(stm32_i2c.o)
 .text.I2C_GenerateSTOP
                0x00000000       0x18 /opt/paparazzi/arm-multilib/lib/gcc/arm-none-eabi/4.6.2/../../../../arm-none-eabi/lib/libstm32.a(stm32_i2c.o)
 .text.I2C_AcknowledgeConfig
                0x00000000       0x18 /opt/paparazzi/arm-multilib/lib/gcc/arm-none-eabi/4.6.2/../../../../arm-none-eabi/lib/libstm32.a(stm32_i2c.o)
 .text.I2C_OwnAddress2Config
                0x00000000       0x12 /opt/paparazzi/arm-multilib/lib/gcc/arm-none-eabi/4.6.2/../../../../arm-none-eabi/lib/libstm32.a(stm32_i2c.o)
 .text.I2C_DualAddressCmd
                0x00000000       0x18 /opt/paparazzi/arm-multilib/lib/gcc/arm-none-eabi/4.6.2/../../../../arm-none-eabi/lib/libstm32.a(stm32_i2c.o)
 .text.I2C_GeneralCallCmd
                0x00000000       0x18 /opt/paparazzi/arm-multilib/lib/gcc/arm-none-eabi/4.6.2/../../../../arm-none-eabi/lib/libstm32.a(stm32_i2c.o)
 .text.I2C_ITConfig
                0x00000000       0x12 /opt/paparazzi/arm-multilib/lib/gcc/arm-none-eabi/4.6.2/../../../../arm-none-eabi/lib/libstm32.a(stm32_i2c.o)
 .text.I2C_SendData
                0x00000000        0x4 /opt/paparazzi/arm-multilib/lib/gcc/arm-none-eabi/4.6.2/../../../../arm-none-eabi/lib/libstm32.a(stm32_i2c.o)
 .text.I2C_ReceiveData
                0x00000000        0x6 /opt/paparazzi/arm-multilib/lib/gcc/arm-none-eabi/4.6.2/../../../../arm-none-eabi/lib/libstm32.a(stm32_i2c.o)
 .text.I2C_Send7bitAddress
                0x00000000       0x10 /opt/paparazzi/arm-multilib/lib/gcc/arm-none-eabi/4.6.2/../../../../arm-none-eabi/lib/libstm32.a(stm32_i2c.o)
 .text.I2C_ReadRegister
                0x00000000        0xe /opt/paparazzi/arm-multilib/lib/gcc/arm-none-eabi/4.6.2/../../../../arm-none-eabi/lib/libstm32.a(stm32_i2c.o)
 .text.I2C_SoftwareResetCmd
                0x00000000       0x18 /opt/paparazzi/arm-multilib/lib/gcc/arm-none-eabi/4.6.2/../../../../arm-none-eabi/lib/libstm32.a(stm32_i2c.o)
 .text.I2C_SMBusAlertConfig
                0x00000000       0x1c /opt/paparazzi/arm-multilib/lib/gcc/arm-none-eabi/4.6.2/../../../../arm-none-eabi/lib/libstm32.a(stm32_i2c.o)
 .text.I2C_TransmitPEC
                0x00000000       0x18 /opt/paparazzi/arm-multilib/lib/gcc/arm-none-eabi/4.6.2/../../../../arm-none-eabi/lib/libstm32.a(stm32_i2c.o)
 .text.I2C_PECPositionConfig
                0x00000000       0x1c /opt/paparazzi/arm-multilib/lib/gcc/arm-none-eabi/4.6.2/../../../../arm-none-eabi/lib/libstm32.a(stm32_i2c.o)
 .text.I2C_CalculatePEC
                0x00000000       0x18 /opt/paparazzi/arm-multilib/lib/gcc/arm-none-eabi/4.6.2/../../../../arm-none-eabi/lib/libstm32.a(stm32_i2c.o)
 .text.I2C_GetPEC
                0x00000000        0x8 /opt/paparazzi/arm-multilib/lib/gcc/arm-none-eabi/4.6.2/../../../../arm-none-eabi/lib/libstm32.a(stm32_i2c.o)
 .text.I2C_ARPCmd
                0x00000000       0x18 /opt/paparazzi/arm-multilib/lib/gcc/arm-none-eabi/4.6.2/../../../../arm-none-eabi/lib/libstm32.a(stm32_i2c.o)
 .text.I2C_StretchClockCmd
                0x00000000       0x18 /opt/paparazzi/arm-multilib/lib/gcc/arm-none-eabi/4.6.2/../../../../arm-none-eabi/lib/libstm32.a(stm32_i2c.o)
 .text.I2C_FastModeDutyCycleConfig
                0x00000000       0x1c /opt/paparazzi/arm-multilib/lib/gcc/arm-none-eabi/4.6.2/../../../../arm-none-eabi/lib/libstm32.a(stm32_i2c.o)
 .text.I2C_GetLastEvent
                0x00000000       0x10 /opt/paparazzi/arm-multilib/lib/gcc/arm-none-eabi/4.6.2/../../../../arm-none-eabi/lib/libstm32.a(stm32_i2c.o)
 .text.I2C_CheckEvent
                0x00000000       0x18 /opt/paparazzi/arm-multilib/lib/gcc/arm-none-eabi/4.6.2/../../../../arm-none-eabi/lib/libstm32.a(stm32_i2c.o)
 .text.I2C_GetFlagStatus
                0x00000000       0x34 /opt/paparazzi/arm-multilib/lib/gcc/arm-none-eabi/4.6.2/../../../../arm-none-eabi/lib/libstm32.a(stm32_i2c.o)
 .text.I2C_ClearFlag
                0x00000000        0x8 /opt/paparazzi/arm-multilib/lib/gcc/arm-none-eabi/4.6.2/../../../../arm-none-eabi/lib/libstm32.a(stm32_i2c.o)
 .text.I2C_GetITStatus
                0x00000000       0x1c /opt/paparazzi/arm-multilib/lib/gcc/arm-none-eabi/4.6.2/../../../../arm-none-eabi/lib/libstm32.a(stm32_i2c.o)
 .text.I2C_ClearITPendingBit
                0x00000000        0x8 /opt/paparazzi/arm-multilib/lib/gcc/arm-none-eabi/4.6.2/../../../../arm-none-eabi/lib/libstm32.a(stm32_i2c.o)
 .text          0x00000000        0x0 /opt/paparazzi/arm-multilib/lib/gcc/arm-none-eabi/4.6.2/../../../../arm-none-eabi/lib/libstm32.a(stm32_spi.o)
 .data          0x00000000        0x0 /opt/paparazzi/arm-multilib/lib/gcc/arm-none-eabi/4.6.2/../../../../arm-none-eabi/lib/libstm32.a(stm32_spi.o)
 .bss           0x00000000        0x0 /opt/paparazzi/arm-multilib/lib/gcc/arm-none-eabi/4.6.2/../../../../arm-none-eabi/lib/libstm32.a(stm32_spi.o)
 .text.SPI_I2S_DeInit
                0x00000000       0x60 /opt/paparazzi/arm-multilib/lib/gcc/arm-none-eabi/4.6.2/../../../../arm-none-eabi/lib/libstm32.a(stm32_spi.o)
 .text.I2S_Init
                0x00000000       0xaa /opt/paparazzi/arm-multilib/lib/gcc/arm-none-eabi/4.6.2/../../../../arm-none-eabi/lib/libstm32.a(stm32_spi.o)
 .text.SPI_StructInit
                0x00000000       0x18 /opt/paparazzi/arm-multilib/lib/gcc/arm-none-eabi/4.6.2/../../../../arm-none-eabi/lib/libstm32.a(stm32_spi.o)
 .text.I2S_StructInit
                0x00000000       0x12 /opt/paparazzi/arm-multilib/lib/gcc/arm-none-eabi/4.6.2/../../../../arm-none-eabi/lib/libstm32.a(stm32_spi.o)
 .text.I2S_Cmd  0x00000000       0x18 /opt/paparazzi/arm-multilib/lib/gcc/arm-none-eabi/4.6.2/../../../../arm-none-eabi/lib/libstm32.a(stm32_spi.o)
 .text.SPI_I2S_ITConfig
                0x00000000       0x1e /opt/paparazzi/arm-multilib/lib/gcc/arm-none-eabi/4.6.2/../../../../arm-none-eabi/lib/libstm32.a(stm32_spi.o)
 .text.SPI_I2S_SendData
                0x00000000        0x4 /opt/paparazzi/arm-multilib/lib/gcc/arm-none-eabi/4.6.2/../../../../arm-none-eabi/lib/libstm32.a(stm32_spi.o)
 .text.SPI_I2S_ReceiveData
                0x00000000        0x6 /opt/paparazzi/arm-multilib/lib/gcc/arm-none-eabi/4.6.2/../../../../arm-none-eabi/lib/libstm32.a(stm32_spi.o)
 .text.SPI_NSSInternalSoftwareConfig
                0x00000000       0x1e /opt/paparazzi/arm-multilib/lib/gcc/arm-none-eabi/4.6.2/../../../../arm-none-eabi/lib/libstm32.a(stm32_spi.o)
 .text.SPI_SSOutputCmd
                0x00000000       0x18 /opt/paparazzi/arm-multilib/lib/gcc/arm-none-eabi/4.6.2/../../../../arm-none-eabi/lib/libstm32.a(stm32_spi.o)
 .text.SPI_DataSizeConfig
                0x00000000       0x16 /opt/paparazzi/arm-multilib/lib/gcc/arm-none-eabi/4.6.2/../../../../arm-none-eabi/lib/libstm32.a(stm32_spi.o)
 .text.SPI_TransmitCRC
                0x00000000        0xc /opt/paparazzi/arm-multilib/lib/gcc/arm-none-eabi/4.6.2/../../../../arm-none-eabi/lib/libstm32.a(stm32_spi.o)
 .text.SPI_CalculateCRC
                0x00000000       0x18 /opt/paparazzi/arm-multilib/lib/gcc/arm-none-eabi/4.6.2/../../../../arm-none-eabi/lib/libstm32.a(stm32_spi.o)
 .text.SPI_GetCRC
                0x00000000       0x10 /opt/paparazzi/arm-multilib/lib/gcc/arm-none-eabi/4.6.2/../../../../arm-none-eabi/lib/libstm32.a(stm32_spi.o)
 .text.SPI_GetCRCPolynomial
                0x00000000        0x6 /opt/paparazzi/arm-multilib/lib/gcc/arm-none-eabi/4.6.2/../../../../arm-none-eabi/lib/libstm32.a(stm32_spi.o)
 .text.SPI_BiDirectionalLineConfig
                0x00000000       0x1c /opt/paparazzi/arm-multilib/lib/gcc/arm-none-eabi/4.6.2/../../../../arm-none-eabi/lib/libstm32.a(stm32_spi.o)
 .text.SPI_I2S_GetFlagStatus
                0x00000000        0xc /opt/paparazzi/arm-multilib/lib/gcc/arm-none-eabi/4.6.2/../../../../arm-none-eabi/lib/libstm32.a(stm32_spi.o)
 .text.SPI_I2S_ClearFlag
                0x00000000        0x8 /opt/paparazzi/arm-multilib/lib/gcc/arm-none-eabi/4.6.2/../../../../arm-none-eabi/lib/libstm32.a(stm32_spi.o)
 .text.SPI_I2S_GetITStatus
                0x00000000       0x26 /opt/paparazzi/arm-multilib/lib/gcc/arm-none-eabi/4.6.2/../../../../arm-none-eabi/lib/libstm32.a(stm32_spi.o)
 .text.SPI_I2S_ClearITPendingBit
                0x00000000       0x10 /opt/paparazzi/arm-multilib/lib/gcc/arm-none-eabi/4.6.2/../../../../arm-none-eabi/lib/libstm32.a(stm32_spi.o)
 .text          0x00000000        0x0 /opt/paparazzi/arm-multilib/lib/gcc/arm-none-eabi/4.6.2/../../../../arm-none-eabi/lib/libstm32.a(stm32_rcc.o)
 .data          0x00000000        0x0 /opt/paparazzi/arm-multilib/lib/gcc/arm-none-eabi/4.6.2/../../../../arm-none-eabi/lib/libstm32.a(stm32_rcc.o)
 .bss           0x00000000        0x0 /opt/paparazzi/arm-multilib/lib/gcc/arm-none-eabi/4.6.2/../../../../arm-none-eabi/lib/libstm32.a(stm32_rcc.o)
 .text.RCC_DeInit
                0x00000000       0x3c /opt/paparazzi/arm-multilib/lib/gcc/arm-none-eabi/4.6.2/../../../../arm-none-eabi/lib/libstm32.a(stm32_rcc.o)
 .text.RCC_HSEConfig
                0x00000000       0x38 /opt/paparazzi/arm-multilib/lib/gcc/arm-none-eabi/4.6.2/../../../../arm-none-eabi/lib/libstm32.a(stm32_rcc.o)
 .text.RCC_AdjustHSICalibrationValue
                0x00000000       0x14 /opt/paparazzi/arm-multilib/lib/gcc/arm-none-eabi/4.6.2/../../../../arm-none-eabi/lib/libstm32.a(stm32_rcc.o)
 .text.RCC_HSICmd
                0x00000000        0xc /opt/paparazzi/arm-multilib/lib/gcc/arm-none-eabi/4.6.2/../../../../arm-none-eabi/lib/libstm32.a(stm32_rcc.o)
 .text.RCC_PLLConfig
                0x00000000       0x14 /opt/paparazzi/arm-multilib/lib/gcc/arm-none-eabi/4.6.2/../../../../arm-none-eabi/lib/libstm32.a(stm32_rcc.o)
 .text.RCC_PLLCmd
                0x00000000        0xc /opt/paparazzi/arm-multilib/lib/gcc/arm-none-eabi/4.6.2/../../../../arm-none-eabi/lib/libstm32.a(stm32_rcc.o)
 .text.RCC_SYSCLKConfig
                0x00000000       0x14 /opt/paparazzi/arm-multilib/lib/gcc/arm-none-eabi/4.6.2/../../../../arm-none-eabi/lib/libstm32.a(stm32_rcc.o)
 .text.RCC_GetSYSCLKSource
                0x00000000       0x10 /opt/paparazzi/arm-multilib/lib/gcc/arm-none-eabi/4.6.2/../../../../arm-none-eabi/lib/libstm32.a(stm32_rcc.o)
 .text.RCC_HCLKConfig
                0x00000000       0x14 /opt/paparazzi/arm-multilib/lib/gcc/arm-none-eabi/4.6.2/../../../../arm-none-eabi/lib/libstm32.a(stm32_rcc.o)
 .text.RCC_PCLK1Config
                0x00000000       0x14 /opt/paparazzi/arm-multilib/lib/gcc/arm-none-eabi/4.6.2/../../../../arm-none-eabi/lib/libstm32.a(stm32_rcc.o)
 .text.RCC_PCLK2Config
                0x00000000       0x14 /opt/paparazzi/arm-multilib/lib/gcc/arm-none-eabi/4.6.2/../../../../arm-none-eabi/lib/libstm32.a(stm32_rcc.o)
 .text.RCC_ITConfig
                0x00000000       0x18 /opt/paparazzi/arm-multilib/lib/gcc/arm-none-eabi/4.6.2/../../../../arm-none-eabi/lib/libstm32.a(stm32_rcc.o)
 .text.RCC_USBCLKConfig
                0x00000000        0xc /opt/paparazzi/arm-multilib/lib/gcc/arm-none-eabi/4.6.2/../../../../arm-none-eabi/lib/libstm32.a(stm32_rcc.o)
 .text.RCC_LSEConfig
                0x00000000       0x20 /opt/paparazzi/arm-multilib/lib/gcc/arm-none-eabi/4.6.2/../../../../arm-none-eabi/lib/libstm32.a(stm32_rcc.o)
 .text.RCC_LSICmd
                0x00000000        0xc /opt/paparazzi/arm-multilib/lib/gcc/arm-none-eabi/4.6.2/../../../../arm-none-eabi/lib/libstm32.a(stm32_rcc.o)
 .text.RCC_RTCCLKConfig
                0x00000000       0x10 /opt/paparazzi/arm-multilib/lib/gcc/arm-none-eabi/4.6.2/../../../../arm-none-eabi/lib/libstm32.a(stm32_rcc.o)
 .text.RCC_RTCCLKCmd
                0x00000000        0xc /opt/paparazzi/arm-multilib/lib/gcc/arm-none-eabi/4.6.2/../../../../arm-none-eabi/lib/libstm32.a(stm32_rcc.o)
 .text.RCC_APB2PeriphResetCmd
                0x00000000       0x18 /opt/paparazzi/arm-multilib/lib/gcc/arm-none-eabi/4.6.2/../../../../arm-none-eabi/lib/libstm32.a(stm32_rcc.o)
 .text.RCC_APB1PeriphResetCmd
                0x00000000       0x18 /opt/paparazzi/arm-multilib/lib/gcc/arm-none-eabi/4.6.2/../../../../arm-none-eabi/lib/libstm32.a(stm32_rcc.o)
 .text.RCC_BackupResetCmd
                0x00000000        0xc /opt/paparazzi/arm-multilib/lib/gcc/arm-none-eabi/4.6.2/../../../../arm-none-eabi/lib/libstm32.a(stm32_rcc.o)
 .text.RCC_ClockSecuritySystemCmd
                0x00000000        0xc /opt/paparazzi/arm-multilib/lib/gcc/arm-none-eabi/4.6.2/../../../../arm-none-eabi/lib/libstm32.a(stm32_rcc.o)
 .text.RCC_MCOConfig
                0x00000000        0xc /opt/paparazzi/arm-multilib/lib/gcc/arm-none-eabi/4.6.2/../../../../arm-none-eabi/lib/libstm32.a(stm32_rcc.o)
 .text.RCC_GetFlagStatus
                0x00000000       0x28 /opt/paparazzi/arm-multilib/lib/gcc/arm-none-eabi/4.6.2/../../../../arm-none-eabi/lib/libstm32.a(stm32_rcc.o)
 .text.RCC_WaitForHSEStartUp
                0x00000000       0x2a /opt/paparazzi/arm-multilib/lib/gcc/arm-none-eabi/4.6.2/../../../../arm-none-eabi/lib/libstm32.a(stm32_rcc.o)
 .text.RCC_ClearFlag
                0x00000000       0x10 /opt/paparazzi/arm-multilib/lib/gcc/arm-none-eabi/4.6.2/../../../../arm-none-eabi/lib/libstm32.a(stm32_rcc.o)
 .text.RCC_GetITStatus
                0x00000000       0x14 /opt/paparazzi/arm-multilib/lib/gcc/arm-none-eabi/4.6.2/../../../../arm-none-eabi/lib/libstm32.a(stm32_rcc.o)
 .text.RCC_ClearITPendingBit
                0x00000000        0xc /opt/paparazzi/arm-multilib/lib/gcc/arm-none-eabi/4.6.2/../../../../arm-none-eabi/lib/libstm32.a(stm32_rcc.o)
 .text          0x00000000        0x0 /opt/paparazzi/arm-multilib/lib/gcc/arm-none-eabi/4.6.2/../../../../arm-none-eabi/lib/libstm32.a(stm32_misc.o)
 .data          0x00000000        0x0 /opt/paparazzi/arm-multilib/lib/gcc/arm-none-eabi/4.6.2/../../../../arm-none-eabi/lib/libstm32.a(stm32_misc.o)
 .bss           0x00000000        0x0 /opt/paparazzi/arm-multilib/lib/gcc/arm-none-eabi/4.6.2/../../../../arm-none-eabi/lib/libstm32.a(stm32_misc.o)
 .text.NVIC_PriorityGroupConfig
                0x00000000       0x14 /opt/paparazzi/arm-multilib/lib/gcc/arm-none-eabi/4.6.2/../../../../arm-none-eabi/lib/libstm32.a(stm32_misc.o)
 .text.NVIC_SetVectorTable
                0x00000000       0x14 /opt/paparazzi/arm-multilib/lib/gcc/arm-none-eabi/4.6.2/../../../../arm-none-eabi/lib/libstm32.a(stm32_misc.o)
 .text.NVIC_SystemLPConfig
                0x00000000       0x18 /opt/paparazzi/arm-multilib/lib/gcc/arm-none-eabi/4.6.2/../../../../arm-none-eabi/lib/libstm32.a(stm32_misc.o)
 .text.SysTick_CLKSourceConfig
                0x00000000       0x18 /opt/paparazzi/arm-multilib/lib/gcc/arm-none-eabi/4.6.2/../../../../arm-none-eabi/lib/libstm32.a(stm32_misc.o)
 .text          0x00000000        0x0 /opt/paparazzi/arm-multilib/lib/gcc/arm-none-eabi/4.6.2/../../../../arm-none-eabi/lib/libopencm3_stm32.a(rcc.o)
 .data          0x00000000        0x0 /opt/paparazzi/arm-multilib/lib/gcc/arm-none-eabi/4.6.2/../../../../arm-none-eabi/lib/libopencm3_stm32.a(rcc.o)
 .bss           0x00000000        0x0 /opt/paparazzi/arm-multilib/lib/gcc/arm-none-eabi/4.6.2/../../../../arm-none-eabi/lib/libopencm3_stm32.a(rcc.o)
 .text.rcc_osc_ready_int_clear
                0x00000000       0x48 /opt/paparazzi/arm-multilib/lib/gcc/arm-none-eabi/4.6.2/../../../../arm-none-eabi/lib/libopencm3_stm32.a(rcc.o)
 .text.rcc_osc_ready_int_enable
                0x00000000       0x48 /opt/paparazzi/arm-multilib/lib/gcc/arm-none-eabi/4.6.2/../../../../arm-none-eabi/lib/libopencm3_stm32.a(rcc.o)
 .text.rcc_osc_ready_int_disable
                0x00000000       0x48 /opt/paparazzi/arm-multilib/lib/gcc/arm-none-eabi/4.6.2/../../../../arm-none-eabi/lib/libopencm3_stm32.a(rcc.o)
 .text.rcc_osc_ready_int_flag
                0x00000000       0x4c /opt/paparazzi/arm-multilib/lib/gcc/arm-none-eabi/4.6.2/../../../../arm-none-eabi/lib/libopencm3_stm32.a(rcc.o)
 .text.rcc_css_int_clear
                0x00000000       0x10 /opt/paparazzi/arm-multilib/lib/gcc/arm-none-eabi/4.6.2/../../../../arm-none-eabi/lib/libopencm3_stm32.a(rcc.o)
 .text.rcc_css_int_flag
                0x00000000       0x10 /opt/paparazzi/arm-multilib/lib/gcc/arm-none-eabi/4.6.2/../../../../arm-none-eabi/lib/libopencm3_stm32.a(rcc.o)
 .text.rcc_osc_off
                0x00000000       0x4c /opt/paparazzi/arm-multilib/lib/gcc/arm-none-eabi/4.6.2/../../../../arm-none-eabi/lib/libopencm3_stm32.a(rcc.o)
 .text.rcc_css_enable
                0x00000000       0x10 /opt/paparazzi/arm-multilib/lib/gcc/arm-none-eabi/4.6.2/../../../../arm-none-eabi/lib/libopencm3_stm32.a(rcc.o)
 .text.rcc_css_disable
                0x00000000       0x10 /opt/paparazzi/arm-multilib/lib/gcc/arm-none-eabi/4.6.2/../../../../arm-none-eabi/lib/libopencm3_stm32.a(rcc.o)
 .text.rcc_osc_bypass_enable
                0x00000000       0x2c /opt/paparazzi/arm-multilib/lib/gcc/arm-none-eabi/4.6.2/../../../../arm-none-eabi/lib/libopencm3_stm32.a(rcc.o)
 .text.rcc_osc_bypass_disable
                0x00000000       0x2c /opt/paparazzi/arm-multilib/lib/gcc/arm-none-eabi/4.6.2/../../../../arm-none-eabi/lib/libopencm3_stm32.a(rcc.o)
 .text.rcc_peripheral_enable_clock
                0x00000000        0x8 /opt/paparazzi/arm-multilib/lib/gcc/arm-none-eabi/4.6.2/../../../../arm-none-eabi/lib/libopencm3_stm32.a(rcc.o)
 .text.rcc_peripheral_disable_clock
                0x00000000        0xa /opt/paparazzi/arm-multilib/lib/gcc/arm-none-eabi/4.6.2/../../../../arm-none-eabi/lib/libopencm3_stm32.a(rcc.o)
 .text.rcc_peripheral_reset
                0x00000000        0x8 /opt/paparazzi/arm-multilib/lib/gcc/arm-none-eabi/4.6.2/../../../../arm-none-eabi/lib/libopencm3_stm32.a(rcc.o)
 .text.rcc_peripheral_clear_reset
                0x00000000        0xa /opt/paparazzi/arm-multilib/lib/gcc/arm-none-eabi/4.6.2/../../../../arm-none-eabi/lib/libopencm3_stm32.a(rcc.o)
 .text.rcc_set_usbpre
                0x00000000       0x14 /opt/paparazzi/arm-multilib/lib/gcc/arm-none-eabi/4.6.2/../../../../arm-none-eabi/lib/libopencm3_stm32.a(rcc.o)
 .text.rcc_system_clock_source
                0x00000000       0x10 /opt/paparazzi/arm-multilib/lib/gcc/arm-none-eabi/4.6.2/../../../../arm-none-eabi/lib/libopencm3_stm32.a(rcc.o)
 .text.rcc_clock_setup_in_hsi_out_64mhz
                0x00000000       0x70 /opt/paparazzi/arm-multilib/lib/gcc/arm-none-eabi/4.6.2/../../../../arm-none-eabi/lib/libopencm3_stm32.a(rcc.o)
 .text.rcc_clock_setup_in_hsi_out_48mhz
                0x00000000       0x74 /opt/paparazzi/arm-multilib/lib/gcc/arm-none-eabi/4.6.2/../../../../arm-none-eabi/lib/libopencm3_stm32.a(rcc.o)
 .text.rcc_clock_setup_in_hse_8mhz_out_24mhz
                0x00000000       0x80 /opt/paparazzi/arm-multilib/lib/gcc/arm-none-eabi/4.6.2/../../../../arm-none-eabi/lib/libopencm3_stm32.a(rcc.o)
 .text.rcc_clock_setup_in_hse_8mhz_out_72mhz
                0x00000000       0x88 /opt/paparazzi/arm-multilib/lib/gcc/arm-none-eabi/4.6.2/../../../../arm-none-eabi/lib/libopencm3_stm32.a(rcc.o)
 .text.rcc_clock_setup_in_hse_16mhz_out_72mhz
                0x00000000       0x88 /opt/paparazzi/arm-multilib/lib/gcc/arm-none-eabi/4.6.2/../../../../arm-none-eabi/lib/libopencm3_stm32.a(rcc.o)
 .text.rcc_backupdomain_reset
                0x00000000       0x18 /opt/paparazzi/arm-multilib/lib/gcc/arm-none-eabi/4.6.2/../../../../arm-none-eabi/lib/libopencm3_stm32.a(rcc.o)
 .text          0x00000000        0x0 /opt/paparazzi/arm-multilib/lib/gcc/arm-none-eabi/4.6.2/../../../../arm-none-eabi/lib/libopencm3_stm32.a(usart.o)
 .data          0x00000000        0x0 /opt/paparazzi/arm-multilib/lib/gcc/arm-none-eabi/4.6.2/../../../../arm-none-eabi/lib/libopencm3_stm32.a(usart.o)
 .bss           0x00000000        0x0 /opt/paparazzi/arm-multilib/lib/gcc/arm-none-eabi/4.6.2/../../../../arm-none-eabi/lib/libopencm3_stm32.a(usart.o)
 .text.usart_set_databits
                0x00000000       0x12 /opt/paparazzi/arm-multilib/lib/gcc/arm-none-eabi/4.6.2/../../../../arm-none-eabi/lib/libopencm3_stm32.a(usart.o)
 .text.usart_set_stopbits
                0x00000000        0xc /opt/paparazzi/arm-multilib/lib/gcc/arm-none-eabi/4.6.2/../../../../arm-none-eabi/lib/libopencm3_stm32.a(usart.o)
 .text.usart_set_parity
                0x00000000        0xc /opt/paparazzi/arm-multilib/lib/gcc/arm-none-eabi/4.6.2/../../../../arm-none-eabi/lib/libopencm3_stm32.a(usart.o)
 .text.usart_set_mode
                0x00000000        0xc /opt/paparazzi/arm-multilib/lib/gcc/arm-none-eabi/4.6.2/../../../../arm-none-eabi/lib/libopencm3_stm32.a(usart.o)
 .text.usart_set_flow_control
                0x00000000        0xc /opt/paparazzi/arm-multilib/lib/gcc/arm-none-eabi/4.6.2/../../../../arm-none-eabi/lib/libopencm3_stm32.a(usart.o)
 .text.usart_enable
                0x00000000        0xa /opt/paparazzi/arm-multilib/lib/gcc/arm-none-eabi/4.6.2/../../../../arm-none-eabi/lib/libopencm3_stm32.a(usart.o)
 .text.usart_disable
                0x00000000        0xa /opt/paparazzi/arm-multilib/lib/gcc/arm-none-eabi/4.6.2/../../../../arm-none-eabi/lib/libopencm3_stm32.a(usart.o)
 .text.usart_send
                0x00000000        0x8 /opt/paparazzi/arm-multilib/lib/gcc/arm-none-eabi/4.6.2/../../../../arm-none-eabi/lib/libopencm3_stm32.a(usart.o)
 .text.usart_recv
                0x00000000        0x8 /opt/paparazzi/arm-multilib/lib/gcc/arm-none-eabi/4.6.2/../../../../arm-none-eabi/lib/libopencm3_stm32.a(usart.o)
 .text.usart_wait_send_ready
                0x00000000        0x8 /opt/paparazzi/arm-multilib/lib/gcc/arm-none-eabi/4.6.2/../../../../arm-none-eabi/lib/libopencm3_stm32.a(usart.o)
 .text.usart_wait_recv_ready
                0x00000000        0x8 /opt/paparazzi/arm-multilib/lib/gcc/arm-none-eabi/4.6.2/../../../../arm-none-eabi/lib/libopencm3_stm32.a(usart.o)
 .text.usart_send_blocking
                0x00000000        0xa /opt/paparazzi/arm-multilib/lib/gcc/arm-none-eabi/4.6.2/../../../../arm-none-eabi/lib/libopencm3_stm32.a(usart.o)
 .text.usart_recv_blocking
                0x00000000       0x10 /opt/paparazzi/arm-multilib/lib/gcc/arm-none-eabi/4.6.2/../../../../arm-none-eabi/lib/libopencm3_stm32.a(usart.o)
 .text          0x00000000        0x0 /opt/paparazzi/arm-multilib/lib/gcc/arm-none-eabi/4.6.2/../../../../arm-none-eabi/lib/libopencm3_stm32.a(flash.o)
 .data          0x00000000        0x0 /opt/paparazzi/arm-multilib/lib/gcc/arm-none-eabi/4.6.2/../../../../arm-none-eabi/lib/libopencm3_stm32.a(flash.o)
 .bss           0x00000000        0x0 /opt/paparazzi/arm-multilib/lib/gcc/arm-none-eabi/4.6.2/../../../../arm-none-eabi/lib/libopencm3_stm32.a(flash.o)
 .text.flash_prefetch_buffer_enable
                0x00000000       0x10 /opt/paparazzi/arm-multilib/lib/gcc/arm-none-eabi/4.6.2/../../../../arm-none-eabi/lib/libopencm3_stm32.a(flash.o)
 .text.flash_prefetch_buffer_disable
                0x00000000       0x10 /opt/paparazzi/arm-multilib/lib/gcc/arm-none-eabi/4.6.2/../../../../arm-none-eabi/lib/libopencm3_stm32.a(flash.o)
 .text.flash_halfcycle_enable
                0x00000000       0x10 /opt/paparazzi/arm-multilib/lib/gcc/arm-none-eabi/4.6.2/../../../../arm-none-eabi/lib/libopencm3_stm32.a(flash.o)
 .text.flash_halfcycle_disable
                0x00000000       0x10 /opt/paparazzi/arm-multilib/lib/gcc/arm-none-eabi/4.6.2/../../../../arm-none-eabi/lib/libopencm3_stm32.a(flash.o)
 .text.flash_unlock
                0x00000000       0x18 /opt/paparazzi/arm-multilib/lib/gcc/arm-none-eabi/4.6.2/../../../../arm-none-eabi/lib/libopencm3_stm32.a(flash.o)
 .text.flash_lock
                0x00000000       0x10 /opt/paparazzi/arm-multilib/lib/gcc/arm-none-eabi/4.6.2/../../../../arm-none-eabi/lib/libopencm3_stm32.a(flash.o)
 .text.flash_clear_pgerr_flag
                0x00000000       0x10 /opt/paparazzi/arm-multilib/lib/gcc/arm-none-eabi/4.6.2/../../../../arm-none-eabi/lib/libopencm3_stm32.a(flash.o)
 .text.flash_clear_eop_flag
                0x00000000       0x10 /opt/paparazzi/arm-multilib/lib/gcc/arm-none-eabi/4.6.2/../../../../arm-none-eabi/lib/libopencm3_stm32.a(flash.o)
 .text.flash_clear_wrprterr_flag
                0x00000000       0x10 /opt/paparazzi/arm-multilib/lib/gcc/arm-none-eabi/4.6.2/../../../../arm-none-eabi/lib/libopencm3_stm32.a(flash.o)
 .text.flash_clear_bsy_flag
                0x00000000       0x10 /opt/paparazzi/arm-multilib/lib/gcc/arm-none-eabi/4.6.2/../../../../arm-none-eabi/lib/libopencm3_stm32.a(flash.o)
 .text.flash_clear_status_flags
                0x00000000       0x16 /opt/paparazzi/arm-multilib/lib/gcc/arm-none-eabi/4.6.2/../../../../arm-none-eabi/lib/libopencm3_stm32.a(flash.o)
 .text.flash_unlock_option_bytes
                0x00000000       0x18 /opt/paparazzi/arm-multilib/lib/gcc/arm-none-eabi/4.6.2/../../../../arm-none-eabi/lib/libopencm3_stm32.a(flash.o)
 .text.flash_wait_for_last_operation
                0x00000000       0x10 /opt/paparazzi/arm-multilib/lib/gcc/arm-none-eabi/4.6.2/../../../../arm-none-eabi/lib/libopencm3_stm32.a(flash.o)
 .text.flash_program_word
                0x00000000       0x34 /opt/paparazzi/arm-multilib/lib/gcc/arm-none-eabi/4.6.2/../../../../arm-none-eabi/lib/libopencm3_stm32.a(flash.o)
 .text.flash_program_half_word
                0x00000000       0x28 /opt/paparazzi/arm-multilib/lib/gcc/arm-none-eabi/4.6.2/../../../../arm-none-eabi/lib/libopencm3_stm32.a(flash.o)
 .text.flash_erase_page
                0x00000000       0x34 /opt/paparazzi/arm-multilib/lib/gcc/arm-none-eabi/4.6.2/../../../../arm-none-eabi/lib/libopencm3_stm32.a(flash.o)
 .text.flash_erase_all_pages
                0x00000000       0x2c /opt/paparazzi/arm-multilib/lib/gcc/arm-none-eabi/4.6.2/../../../../arm-none-eabi/lib/libopencm3_stm32.a(flash.o)
 .text.flash_erase_option_bytes
                0x00000000       0x34 /opt/paparazzi/arm-multilib/lib/gcc/arm-none-eabi/4.6.2/../../../../arm-none-eabi/lib/libopencm3_stm32.a(flash.o)
 .text.flash_program_option_bytes
                0x00000000       0x34 /opt/paparazzi/arm-multilib/lib/gcc/arm-none-eabi/4.6.2/../../../../arm-none-eabi/lib/libopencm3_stm32.a(flash.o)
 .data          0x00000000        0x0 /opt/paparazzi/arm-multilib/lib/gcc/arm-none-eabi/4.6.2/../../../../arm-none-eabi/lib/thumb2/libc.a(lib_a-errno.o)
 .bss           0x00000000        0x0 /opt/paparazzi/arm-multilib/lib/gcc/arm-none-eabi/4.6.2/../../../../arm-none-eabi/lib/thumb2/libc.a(lib_a-errno.o)
 .text          0x00000000        0x0 /opt/paparazzi/arm-multilib/lib/gcc/arm-none-eabi/4.6.2/../../../../arm-none-eabi/lib/thumb2/libc.a(lib_a-impure.o)
 .bss           0x00000000        0x0 /opt/paparazzi/arm-multilib/lib/gcc/arm-none-eabi/4.6.2/../../../../arm-none-eabi/lib/thumb2/libc.a(lib_a-impure.o)
 .rodata        0x00000000        0x4 /opt/paparazzi/arm-multilib/lib/gcc/arm-none-eabi/4.6.2/../../../../arm-none-eabi/lib/thumb2/libc.a(lib_a-impure.o)

Memory Configuration

Name             Origin             Length             Attributes
RAM              0x20000000         0x00010000         xrw
FLASH            0x08000000         0x0007f800         xr
FLASHB1          0x00000000         0x00000000         xr
*default*        0x00000000         0xffffffff

Linker script and memory map

LOAD /home/mav/paparazzi/var/Radian/ap/mcu.o
LOAD /home/mav/paparazzi/var/Radian/ap/arch/stm32/mcu_arch.o
LOAD /home/mav/paparazzi/var/Radian/ap/arch/stm32/led_hw.o
LOAD /home/mav/paparazzi/var/Radian/ap/mcu_periph/sys_time.o
LOAD /home/mav/paparazzi/var/Radian/ap/arch/stm32/mcu_periph/sys_time_arch.o
LOAD /home/mav/paparazzi/var/Radian/ap/./inter_mcu.o
LOAD /home/mav/paparazzi/var/Radian/ap/math/pprz_geodetic_int.o
LOAD /home/mav/paparazzi/var/Radian/ap/math/pprz_geodetic_float.o
LOAD /home/mav/paparazzi/var/Radian/ap/math/pprz_geodetic_double.o
LOAD /home/mav/paparazzi/var/Radian/ap/math/pprz_trig_int.o
LOAD /home/mav/paparazzi/var/Radian/ap/mcu_periph/i2c.o
LOAD /home/mav/paparazzi/var/Radian/ap/arch/stm32/mcu_periph/i2c_arch.o
LOAD /home/mav/paparazzi/var/Radian/ap/firmwares/fixedwing/main_fbw.o
LOAD /home/mav/paparazzi/var/Radian/ap/subsystems/electrical.o
LOAD /home/mav/paparazzi/var/Radian/ap/./commands.o
LOAD /home/mav/paparazzi/var/Radian/ap/firmwares/fixedwing/fbw_downlink.o
LOAD /home/mav/paparazzi/var/Radian/ap/firmwares/fixedwing/main_ap.o
LOAD /home/mav/paparazzi/var/Radian/ap/./estimator.o
LOAD /home/mav/paparazzi/var/Radian/ap/firmwares/fixedwing/ap_downlink.o
LOAD /home/mav/paparazzi/var/Radian/ap/arch/stm32/stm32_exceptions.o
LOAD /home/mav/paparazzi/var/Radian/ap/arch/stm32/stm32_vector_table.o
LOAD /home/mav/paparazzi/var/Radian/ap/lisa/plug_sys.o
LOAD /home/mav/paparazzi/var/Radian/ap/firmwares/fixedwing/main.o
LOAD /home/mav/paparazzi/var/Radian/ap/mcu_periph/uart.o
LOAD /home/mav/paparazzi/var/Radian/ap/arch/stm32/mcu_periph/uart_arch.o
LOAD /home/mav/paparazzi/var/Radian/ap/subsystems/settings.o
LOAD /home/mav/paparazzi/var/Radian/ap/arch/stm32/subsystems/settings_arch.o
LOAD /home/mav/paparazzi/var/Radian/ap/arch/stm32/mcu_periph/adc_arch.o
LOAD /home/mav/paparazzi/var/Radian/ap/arch/stm32/servos_direct_hw.o
LOAD /home/mav/paparazzi/var/Radian/ap/actuators.o
LOAD /home/mav/paparazzi/var/Radian/ap/firmwares/rotorcraft/actuators/arch/stm32/actuators_pwm_arch.o
LOAD /home/mav/paparazzi/var/Radian/ap/subsystems/radio_control.o
LOAD /home/mav/paparazzi/var/Radian/ap/subsystems/radio_control/spektrum.o
LOAD /home/mav/paparazzi/var/Radian/ap/arch/stm32/subsystems/radio_control/spektrum_arch.o
LOAD /home/mav/paparazzi/var/Radian/ap/subsystems/datalink/downlink.o
LOAD /home/mav/paparazzi/var/Radian/ap/subsystems/datalink/pprz_transport.o
LOAD /home/mav/paparazzi/var/Radian/ap/firmwares/fixedwing/datalink.o
LOAD /home/mav/paparazzi/var/Radian/ap/firmwares/fixedwing/stabilization/stabilization_attitude.o
LOAD /home/mav/paparazzi/var/Radian/ap/firmwares/fixedwing/guidance/guidance_v.o
LOAD /home/mav/paparazzi/var/Radian/ap/subsystems/ahrs.o
LOAD /home/mav/paparazzi/var/Radian/ap/subsystems/ahrs/ahrs_int_cmpl_quat.o
LOAD /home/mav/paparazzi/var/Radian/ap/subsystems/ahrs/ahrs_aligner.o
LOAD /home/mav/paparazzi/var/Radian/ap/subsystems/gps/gps_ubx.o
LOAD /home/mav/paparazzi/var/Radian/ap/subsystems/gps.o
LOAD /home/mav/paparazzi/var/Radian/ap/subsystems/imu.o
LOAD /home/mav/paparazzi/var/Radian/ap/subsystems/imu/imu_aspirin2.o
LOAD /home/mav/paparazzi/var/Radian/ap/arch/stm32/subsystems/imu/imu_aspirin2_arch.o
LOAD /home/mav/paparazzi/var/Radian/ap/arch/stm32/mcu_periph/spi_arch.o
LOAD /home/mav/paparazzi/var/Radian/ap/mcu_periph/spi.o
LOAD /home/mav/paparazzi/var/Radian/ap/subsystems/nav.o
LOAD /home/mav/paparazzi/var/Radian/ap/subsystems/navigation/common_flight_plan.o
LOAD /home/mav/paparazzi/var/Radian/ap/subsystems/navigation/traffic_info.o
LOAD /home/mav/paparazzi/var/Radian/ap/subsystems/navigation/nav_survey_rectangle.o
LOAD /home/mav/paparazzi/var/Radian/ap/subsystems/navigation/nav_line.o
LOAD /opt/paparazzi/arm-multilib/lib/gcc/arm-none-eabi/4.6.2/../../../../arm-none-eabi/lib/thumb2/libc.a
LOAD /opt/paparazzi/arm-multilib/lib/gcc/arm-none-eabi/4.6.2/../../../../arm-none-eabi/lib/thumb2/libm.a
LOAD /opt/paparazzi/arm-multilib/lib/gcc/arm-none-eabi/4.6.2/thumb2/libgcc.a
LOAD /opt/paparazzi/arm-multilib/lib/gcc/arm-none-eabi/4.6.2/../../../../arm-none-eabi/lib/libcmsis.a
LOAD /opt/paparazzi/arm-multilib/lib/gcc/arm-none-eabi/4.6.2/../../../../arm-none-eabi/lib/libstm32.a
LOAD /opt/paparazzi/arm-multilib/lib/gcc/arm-none-eabi/4.6.2/../../../../arm-none-eabi/lib/libopencm3_stm32.a
START GROUP
LOAD /opt/paparazzi/arm-multilib/lib/gcc/arm-none-eabi/4.6.2/thumb2/libgcc.a
LOAD /opt/paparazzi/arm-multilib/lib/gcc/arm-none-eabi/4.6.2/../../../../arm-none-eabi/lib/thumb2/libc.a
END GROUP
                0x20010000                _estack = 0x20010000
                0x00001000                __Stack_Size = 0x1000
                0x00001000                PROVIDE (_Stack_Size, __Stack_Size)
                0x2000f000                __Stack_Init = (_estack - __Stack_Size)
                0x2000f000                PROVIDE (_Stack_Init, __Stack_Init)
                0x00000800                _Minimum_Stack_Size = 0x800
                0x00000001                ASSERT ((ORIGIN (FLASH) == ALIGN (ORIGIN (FLASH), 0x80)), Start of memory region flash not aligned for startup vector table)

.isr_vector     0x08000000      0x130
                0x08000000                . = ALIGN (0x4)
 *(.isr_vector)
 .isr_vector    0x08000000      0x130 /home/mav/paparazzi/var/Radian/ap/arch/stm32/stm32_vector_table.o
                0x08000000                vector_table
                0x08000130                . = ALIGN (0x4)

.flashtext      0x08000130        0x0
                0x08000130                . = ALIGN (0x4)
 *(.flashtext)
                0x08000130                . = ALIGN (0x4)

.text           0x08000130    0x18220
                0x08000130                . = ALIGN (0x4)
 *(.text)
 .text          0x08000130       0x38 /opt/paparazzi/arm-multilib/lib/gcc/arm-none-eabi/4.6.2/../../../../arm-none-eabi/lib/thumb2/libc.a(lib_a-ldiv.o)
                0x08000130                ldiv
 .text          0x08000168       0x12 /opt/paparazzi/arm-multilib/lib/gcc/arm-none-eabi/4.6.2/../../../../arm-none-eabi/lib/thumb2/libc.a(lib_a-memcpy.o)
                0x08000168                memcpy
 *fill*         0x0800017a        0x6 00
 .text          0x08000180      0x340 /opt/paparazzi/arm-multilib/lib/gcc/arm-none-eabi/4.6.2/../../../../arm-none-eabi/lib/thumb2/libm.a(lib_a-s_atan.o)
                0x08000180                atan
 .text          0x080004c0       0x70 /opt/paparazzi/arm-multilib/lib/gcc/arm-none-eabi/4.6.2/../../../../arm-none-eabi/lib/thumb2/libm.a(lib_a-s_cos.o)
                0x080004c0                cos
 .text          0x08000530        0x6 /opt/paparazzi/arm-multilib/lib/gcc/arm-none-eabi/4.6.2/../../../../arm-none-eabi/lib/thumb2/libm.a(lib_a-s_fabs.o)
                0x08000530                fabs
 *fill*         0x08000536        0x2 00
 .text          0x08000538       0x78 /opt/paparazzi/arm-multilib/lib/gcc/arm-none-eabi/4.6.2/../../../../arm-none-eabi/lib/thumb2/libm.a(lib_a-s_sin.o)
                0x08000538                sin
 .text          0x080005b0       0x58 /opt/paparazzi/arm-multilib/lib/gcc/arm-none-eabi/4.6.2/../../../../arm-none-eabi/lib/thumb2/libm.a(lib_a-s_tan.o)
                0x080005b0                tan
 .text          0x08000608      0x234 /opt/paparazzi/arm-multilib/lib/gcc/arm-none-eabi/4.6.2/../../../../arm-none-eabi/lib/thumb2/libm.a(lib_a-sf_atan.o)
                0x08000608                atanf
 .text          0x0800083c        0x6 /opt/paparazzi/arm-multilib/lib/gcc/arm-none-eabi/4.6.2/../../../../arm-none-eabi/lib/thumb2/libm.a(lib_a-sf_fabs.o)
                0x0800083c                fabsf
 *fill*         0x08000842        0x2 00
 .text          0x08000844       0x9c /opt/paparazzi/arm-multilib/lib/gcc/arm-none-eabi/4.6.2/../../../../arm-none-eabi/lib/thumb2/libm.a(lib_a-w_asin.o)
                0x08000844                asin
 .text          0x080008e0        0x4 /opt/paparazzi/arm-multilib/lib/gcc/arm-none-eabi/4.6.2/../../../../arm-none-eabi/lib/thumb2/libm.a(lib_a-w_atan2.o)
                0x080008e0                atan2
 *fill*         0x080008e4        0x4 00
 .text          0x080008e8       0xb0 /opt/paparazzi/arm-multilib/lib/gcc/arm-none-eabi/4.6.2/../../../../arm-none-eabi/lib/thumb2/libm.a(lib_a-w_cosh.o)
                0x080008e8                cosh
 .text          0x08000998       0xe8 /opt/paparazzi/arm-multilib/lib/gcc/arm-none-eabi/4.6.2/../../../../arm-none-eabi/lib/thumb2/libm.a(lib_a-w_exp.o)
                0x08000998                exp
 .text          0x08000a80       0xd8 /opt/paparazzi/arm-multilib/lib/gcc/arm-none-eabi/4.6.2/../../../../arm-none-eabi/lib/thumb2/libm.a(lib_a-w_log.o)
                0x08000a80                log
 .text          0x08000b58       0xc0 /opt/paparazzi/arm-multilib/lib/gcc/arm-none-eabi/4.6.2/../../../../arm-none-eabi/lib/thumb2/libm.a(lib_a-w_sinh.o)
                0x08000b58                sinh
 .text          0x08000c18       0xa4 /opt/paparazzi/arm-multilib/lib/gcc/arm-none-eabi/4.6.2/../../../../arm-none-eabi/lib/thumb2/libm.a(lib_a-w_sqrt.o)
                0x08000c18                sqrt
 .text          0x08000cbc       0x94 /opt/paparazzi/arm-multilib/lib/gcc/arm-none-eabi/4.6.2/../../../../arm-none-eabi/lib/thumb2/libm.a(lib_a-wf_asin.o)
                0x08000cbc                asinf
 .text          0x08000d50        0x4 /opt/paparazzi/arm-multilib/lib/gcc/arm-none-eabi/4.6.2/../../../../arm-none-eabi/lib/thumb2/libm.a(lib_a-wf_atan2.o)
                0x08000d50                atan2f
 .text          0x08000d54       0x9c /opt/paparazzi/arm-multilib/lib/gcc/arm-none-eabi/4.6.2/../../../../arm-none-eabi/lib/thumb2/libm.a(lib_a-wf_sqrt.o)
                0x08000d54                sqrtf
 .text          0x08000df0      0x4a0 /opt/paparazzi/arm-multilib/lib/gcc/arm-none-eabi/4.6.2/../../../../arm-none-eabi/lib/thumb2/libm.a(lib_a-e_asin.o)
                0x08000df0                __ieee754_asin
 .text          0x08001290      0x1e0 /opt/paparazzi/arm-multilib/lib/gcc/arm-none-eabi/4.6.2/../../../../arm-none-eabi/lib/thumb2/libm.a(lib_a-e_atan2.o)
                0x08001290                __ieee754_atan2
 .text          0x08001470      0x130 /opt/paparazzi/arm-multilib/lib/gcc/arm-none-eabi/4.6.2/../../../../arm-none-eabi/lib/thumb2/libm.a(lib_a-e_cosh.o)
                0x08001470                __ieee754_cosh
 .text          0x080015a0      0x2e0 /opt/paparazzi/arm-multilib/lib/gcc/arm-none-eabi/4.6.2/../../../../arm-none-eabi/lib/thumb2/libm.a(lib_a-e_exp.o)
                0x080015a0                __ieee754_exp
 .text          0x08001880      0x408 /opt/paparazzi/arm-multilib/lib/gcc/arm-none-eabi/4.6.2/../../../../arm-none-eabi/lib/thumb2/libm.a(lib_a-e_log.o)
                0x08001880                __ieee754_log
 .text          0x08001c88      0x3c8 /opt/paparazzi/arm-multilib/lib/gcc/arm-none-eabi/4.6.2/../../../../arm-none-eabi/lib/thumb2/libm.a(lib_a-e_rem_pio2.o)
                0x08001c88                __ieee754_rem_pio2
 .text          0x08002050      0x168 /opt/paparazzi/arm-multilib/lib/gcc/arm-none-eabi/4.6.2/../../../../arm-none-eabi/lib/thumb2/libm.a(lib_a-e_sinh.o)
                0x08002050                __ieee754_sinh
 .text          0x080021b8      0x15c /opt/paparazzi/arm-multilib/lib/gcc/arm-none-eabi/4.6.2/../../../../arm-none-eabi/lib/thumb2/libm.a(lib_a-e_sqrt.o)
                0x080021b8                __ieee754_sqrt
 .text          0x08002314      0x2ac /opt/paparazzi/arm-multilib/lib/gcc/arm-none-eabi/4.6.2/../../../../arm-none-eabi/lib/thumb2/libm.a(lib_a-ef_asin.o)
                0x08002314                __ieee754_asinf
 .text          0x080025c0      0x120 /opt/paparazzi/arm-multilib/lib/gcc/arm-none-eabi/4.6.2/../../../../arm-none-eabi/lib/thumb2/libm.a(lib_a-ef_atan2.o)
                0x080025c0                __ieee754_atan2f
 .text          0x080026e0       0x9e /opt/paparazzi/arm-multilib/lib/gcc/arm-none-eabi/4.6.2/../../../../arm-none-eabi/lib/thumb2/libm.a(lib_a-ef_sqrt.o)
                0x080026e0                __ieee754_sqrtf
 *fill*         0x0800277e        0x2 00
 .text          0x08002780      0x1d8 /opt/paparazzi/arm-multilib/lib/gcc/arm-none-eabi/4.6.2/../../../../arm-none-eabi/lib/thumb2/libm.a(lib_a-k_cos.o)
                0x08002780                __kernel_cos
 .text          0x08002958      0x6d8 /opt/paparazzi/arm-multilib/lib/gcc/arm-none-eabi/4.6.2/../../../../arm-none-eabi/lib/thumb2/libm.a(lib_a-k_rem_pio2.o)
                0x08002958                __kernel_rem_pio2
 .text          0x08003030      0x180 /opt/paparazzi/arm-multilib/lib/gcc/arm-none-eabi/4.6.2/../../../../arm-none-eabi/lib/thumb2/libm.a(lib_a-k_sin.o)
                0x08003030                __kernel_sin
 .text          0x080031b0      0x3e0 /opt/paparazzi/arm-multilib/lib/gcc/arm-none-eabi/4.6.2/../../../../arm-none-eabi/lib/thumb2/libm.a(lib_a-k_tan.o)
                0x080031b0                __kernel_tan
 .text          0x08003590      0x420 /opt/paparazzi/arm-multilib/lib/gcc/arm-none-eabi/4.6.2/../../../../arm-none-eabi/lib/thumb2/libm.a(lib_a-s_expm1.o)
                0x08003590                expm1
 .text          0x080039b0       0x10 /opt/paparazzi/arm-multilib/lib/gcc/arm-none-eabi/4.6.2/../../../../arm-none-eabi/lib/thumb2/libm.a(lib_a-s_finite.o)
                0x080039b0                finite
 .text          0x080039c0      0x110 /opt/paparazzi/arm-multilib/lib/gcc/arm-none-eabi/4.6.2/../../../../arm-none-eabi/lib/thumb2/libm.a(lib_a-s_floor.o)
                0x080039c0                floor
 .text          0x08003ad0       0x64 /opt/paparazzi/arm-multilib/lib/gcc/arm-none-eabi/4.6.2/../../../../arm-none-eabi/lib/thumb2/libm.a(lib_a-s_fpclassify.o)
                0x08003ad0                __fpclassifyd
 .text          0x08003b34        0x4 /opt/paparazzi/arm-multilib/lib/gcc/arm-none-eabi/4.6.2/../../../../arm-none-eabi/lib/thumb2/libm.a(lib_a-s_matherr.o)
                0x08003b34                matherr
 .text          0x08003b38        0xc /opt/paparazzi/arm-multilib/lib/gcc/arm-none-eabi/4.6.2/../../../../arm-none-eabi/lib/thumb2/libm.a(lib_a-s_nan.o)
                0x08003b38                nan
 *fill*         0x08003b44        0x4 00
 .text          0x08003b48       0xe8 /opt/paparazzi/arm-multilib/lib/gcc/arm-none-eabi/4.6.2/../../../../arm-none-eabi/lib/thumb2/libm.a(lib_a-s_scalbn.o)
                0x08003b48                scalbn
 .text          0x08003c30       0x54 /opt/paparazzi/arm-multilib/lib/gcc/arm-none-eabi/4.6.2/../../../../arm-none-eabi/lib/thumb2/libm.a(lib_a-sf_fpclassify.o)
                0x08003c30                __fpclassifyf
 .text          0x08003c84       0x14 /opt/paparazzi/arm-multilib/lib/gcc/arm-none-eabi/4.6.2/../../../../arm-none-eabi/lib/thumb2/libm.a(lib_a-s_copysign.o)
                0x08003c84                copysign
 .text          0x08003c98       0xe0 /opt/paparazzi/arm-multilib/lib/gcc/arm-none-eabi/4.6.2/thumb2/libgcc.a(_divsi3.o)
                0x08003c98                __aeabi_idiv
                0x08003c98                __divsi3
                0x08003d5c                __aeabi_idivmod
 .text          0x08003d78        0x4 /opt/paparazzi/arm-multilib/lib/gcc/arm-none-eabi/4.6.2/thumb2/libgcc.a(_dvmd_tls.o)
                0x08003d78                __aeabi_ldiv0
                0x08003d78                __aeabi_idiv0
 .text          0x08003d7c      0x370 /opt/paparazzi/arm-multilib/lib/gcc/arm-none-eabi/4.6.2/thumb2/libgcc.a(_arm_addsubdf3.o)
                0x08003d7c                __aeabi_drsub
                0x08003d84                __aeabi_dsub
                0x08003d84                __subdf3
                0x08003d88                __adddf3
                0x08003d88                __aeabi_dadd
                0x08004000                __aeabi_ui2d
                0x08004000                __floatunsidf
                0x08004020                __floatsidf
                0x08004020                __aeabi_i2d
                0x08004044                __extendsfdf2
                0x08004044                __aeabi_f2d
                0x08004080                __aeabi_ul2d
                0x08004080                __floatundidf
                0x08004090                __floatdidf
                0x08004090                __aeabi_l2d
 .text          0x080040ec      0x424 /opt/paparazzi/arm-multilib/lib/gcc/arm-none-eabi/4.6.2/thumb2/libgcc.a(_arm_muldivdf3.o)
                0x080040ec                __aeabi_dmul
                0x080040ec                __muldf3
                0x08004340                __aeabi_ddiv
                0x08004340                __divdf3
 .text          0x08004510      0x110 /opt/paparazzi/arm-multilib/lib/gcc/arm-none-eabi/4.6.2/thumb2/libgcc.a(_arm_cmpdf2.o)
                0x08004510                __gtdf2
                0x08004510                __gedf2
                0x08004518                __ltdf2
                0x08004518                __ledf2
                0x08004520                __cmpdf2
                0x08004520                __eqdf2
                0x08004520                __nedf2
                0x0800459c                __aeabi_cdrcmple
                0x080045ac                __aeabi_cdcmple
                0x080045ac                __aeabi_cdcmpeq
                0x080045bc                __aeabi_dcmpeq
                0x080045d0                __aeabi_dcmplt
                0x080045e4                __aeabi_dcmple
                0x080045f8                __aeabi_dcmpge
                0x0800460c                __aeabi_dcmpgt
 .text          0x08004620       0x50 /opt/paparazzi/arm-multilib/lib/gcc/arm-none-eabi/4.6.2/thumb2/libgcc.a(_arm_fixdfsi.o)
                0x08004620                __fixdfsi
                0x08004620                __aeabi_d2iz
 .text          0x08004670       0x40 /opt/paparazzi/arm-multilib/lib/gcc/arm-none-eabi/4.6.2/thumb2/libgcc.a(_arm_fixunsdfsi.o)
                0x08004670                __fixunsdfsi
                0x08004670                __aeabi_d2uiz
 .text          0x080046b0       0xa0 /opt/paparazzi/arm-multilib/lib/gcc/arm-none-eabi/4.6.2/thumb2/libgcc.a(_arm_truncdfsf2.o)
                0x080046b0                __aeabi_d2f
                0x080046b0                __truncdfsf2
 .text          0x08004750      0x21c /opt/paparazzi/arm-multilib/lib/gcc/arm-none-eabi/4.6.2/thumb2/libgcc.a(_arm_addsubsf3.o)
                0x08004750                __aeabi_frsub
                0x08004758                __subsf3
                0x08004758                __aeabi_fsub
                0x0800475c                __aeabi_fadd
                0x0800475c                __addsf3
                0x080048bc                __aeabi_ui2f
                0x080048bc                __floatunsisf
                0x080048c4                __aeabi_i2f
                0x080048c4                __floatsisf
                0x080048e0                __floatundisf
                0x080048e0                __aeabi_ul2f
                0x080048f0                __floatdisf
                0x080048f0                __aeabi_l2f
 .text          0x0800496c      0x2a0 /opt/paparazzi/arm-multilib/lib/gcc/arm-none-eabi/4.6.2/thumb2/libgcc.a(_arm_muldivsf3.o)
                0x0800496c                __mulsf3
                0x0800496c                __aeabi_fmul
                0x08004ad4                __divsf3
                0x08004ad4                __aeabi_fdiv
 .text          0x08004c0c       0xec /opt/paparazzi/arm-multilib/lib/gcc/arm-none-eabi/4.6.2/thumb2/libgcc.a(_arm_cmpsf2.o)
                0x08004c0c                __gtsf2
                0x08004c0c                __gesf2
                0x08004c14                __lesf2
                0x08004c14                __ltsf2
                0x08004c1c                __nesf2
                0x08004c1c                __eqsf2
                0x08004c1c                __cmpsf2
                0x08004c7c                __aeabi_cfrcmple
                0x08004c84                __aeabi_cfcmple
                0x08004c84                __aeabi_cfcmpeq
                0x08004c94                __aeabi_fcmpeq
                0x08004ca8                __aeabi_fcmplt
                0x08004cbc                __aeabi_fcmple
                0x08004cd0                __aeabi_fcmpge
                0x08004ce4                __aeabi_fcmpgt
 .text          0x08004cf8       0x4c /opt/paparazzi/arm-multilib/lib/gcc/arm-none-eabi/4.6.2/thumb2/libgcc.a(_arm_fixsfsi.o)
                0x08004cf8                __fixsfsi
                0x08004cf8                __aeabi_f2iz
 .text          0x08004d44       0x40 /opt/paparazzi/arm-multilib/lib/gcc/arm-none-eabi/4.6.2/thumb2/libgcc.a(_arm_fixunssfsi.o)
                0x08004d44                __aeabi_f2uiz
                0x08004d44                __fixunssfsi
 .text          0x08004d84        0xc /opt/paparazzi/arm-multilib/lib/gcc/arm-none-eabi/4.6.2/../../../../arm-none-eabi/lib/thumb2/libc.a(lib_a-errno.o)
                0x08004d84                __errno
 *(.text.*)
 .text.mcu_init
                0x08004d90       0xf0 /home/mav/paparazzi/var/Radian/ap/mcu.o
                0x08004d90                mcu_init
 .text.mcu_arch_init
                0x08004e80        0x4 /home/mav/paparazzi/var/Radian/ap/arch/stm32/mcu_arch.o
                0x08004e80                mcu_arch_init
 .text.sys_time_register_timer
                0x08004e84       0x5c /home/mav/paparazzi/var/Radian/ap/mcu_periph/sys_time.o
                0x08004e84                sys_time_register_timer
 .text.sys_time_init
                0x08004ee0       0x34 /home/mav/paparazzi/var/Radian/ap/mcu_periph/sys_time.o
                0x08004ee0                sys_time_init
 .text.sys_time_arch_init
                0x08004f14       0x28 /home/mav/paparazzi/var/Radian/ap/arch/stm32/mcu_periph/sys_time_arch.o
                0x08004f14                sys_time_arch_init
 .text.sys_tick_irq_handler
                0x08004f3c       0x80 /home/mav/paparazzi/var/Radian/ap/arch/stm32/mcu_periph/sys_time_arch.o
                0x08004f3c                sys_tick_irq_handler
 *fill*         0x08004fbc        0x4 00
 .text.isometric_latitude_fast_f
                0x08004fc0       0x38 /home/mav/paparazzi/var/Radian/ap/math/pprz_geodetic_float.o
 .text.utm_of_lla_f
                0x08004ff8      0x280 /home/mav/paparazzi/var/Radian/ap/math/pprz_geodetic_float.o
                0x08004ff8                utm_of_lla_f
 .text.i2c_event
                0x08005278        0x2 /home/mav/paparazzi/var/Radian/ap/arch/stm32/mcu_periph/i2c_arch.o
                0x08005278                i2c_event
 *fill*         0x0800527a        0x2 00
 .text.inter_mcu_fill_fbw_state
                0x0800527c       0x78 /home/mav/paparazzi/var/Radian/ap/firmwares/fixedwing/main_fbw.o
 .text.handle_rc_frame
                0x080052f4       0x3c /home/mav/paparazzi/var/Radian/ap/firmwares/fixedwing/main_fbw.o
 .text.init_fbw
                0x08005330       0xa4 /home/mav/paparazzi/var/Radian/ap/firmwares/fixedwing/main_fbw.o
                0x08005330                init_fbw
 *fill*         0x080053d4        0x4 00
 .text.event_task_fbw
                0x080053d8      0x1d0 /home/mav/paparazzi/var/Radian/ap/firmwares/fixedwing/main_fbw.o
                0x080053d8                event_task_fbw
 .text.periodic_task_fbw
                0x080055a8      0x804 /home/mav/paparazzi/var/Radian/ap/firmwares/fixedwing/main_fbw.o
                0x080055a8                periodic_task_fbw
 .text.handle_periodic_tasks_fbw
                0x08005dac       0x48 /home/mav/paparazzi/var/Radian/ap/firmwares/fixedwing/main_fbw.o
                0x08005dac                handle_periodic_tasks_fbw
 .text.electrical_init
                0x08005df4       0x1c /home/mav/paparazzi/var/Radian/ap/subsystems/electrical.o
                0x08005df4                electrical_init
 .text.electrical_periodic
                0x08005e10       0x40 /home/mav/paparazzi/var/Radian/ap/subsystems/electrical.o
                0x08005e10                electrical_periodic
 .text.init_ap  0x08005e50       0xb0 /home/mav/paparazzi/var/Radian/ap/firmwares/fixedwing/main_ap.o
                0x08005e50                init_ap
 .text.reporting_task
                0x08005f00     0x9150 /home/mav/paparazzi/var/Radian/ap/firmwares/fixedwing/main_ap.o
                0x08005f00                reporting_task
 .text.navigation_task
                0x0800f050      0x670 /home/mav/paparazzi/var/Radian/ap/firmwares/fixedwing/main_ap.o
                0x0800f050                navigation_task
 .text.attitude_loop
                0x0800f6c0       0x40 /home/mav/paparazzi/var/Radian/ap/firmwares/fixedwing/main_ap.o
                0x0800f6c0                attitude_loop
 .text.sensors_task
                0x0800f700       0x1c /home/mav/paparazzi/var/Radian/ap/firmwares/fixedwing/main_ap.o
                0x0800f700                sensors_task
 *fill*         0x0800f71c        0x4 00
 .text.monitor_task
                0x0800f720      0x180 /home/mav/paparazzi/var/Radian/ap/firmwares/fixedwing/main_ap.o
                0x0800f720                monitor_task
 .text.handle_periodic_tasks_ap
                0x0800f8a0      0x104 /home/mav/paparazzi/var/Radian/ap/firmwares/fixedwing/main_ap.o
                0x0800f8a0                handle_periodic_tasks_ap
 *fill*         0x0800f9a4        0x4 00
 .text.event_task_ap
                0x0800f9a8      0x6f8 /home/mav/paparazzi/var/Radian/ap/firmwares/fixedwing/main_ap.o
                0x0800f9a8                event_task_ap
 .text.estimator_init
                0x080100a0       0x7c /home/mav/paparazzi/var/Radian/ap/./estimator.o
                0x080100a0                estimator_init
 *fill*         0x0801011c        0x4 00
 .text.estimator_update_state_gps
                0x08010120       0xf8 /home/mav/paparazzi/var/Radian/ap/./estimator.o
                0x08010120                estimator_update_state_gps
 .text.nmi_exception
                0x08010218        0x2 /home/mav/paparazzi/var/Radian/ap/arch/stm32/stm32_exceptions.o
                0x08010218                nmi_exception
 .text.hard_fault_exception
                0x0801021a        0x2 /home/mav/paparazzi/var/Radian/ap/arch/stm32/stm32_exceptions.o
                0x0801021a                hard_fault_exception
 .text.mem_manage_exception
                0x0801021c        0x2 /home/mav/paparazzi/var/Radian/ap/arch/stm32/stm32_exceptions.o
                0x0801021c                mem_manage_exception
 .text.bus_fault_exception
                0x0801021e        0x2 /home/mav/paparazzi/var/Radian/ap/arch/stm32/stm32_exceptions.o
                0x0801021e                bus_fault_exception
 .text.usage_fault_exception
                0x08010220        0x2 /home/mav/paparazzi/var/Radian/ap/arch/stm32/stm32_exceptions.o
                0x08010220                usage_fault_exception
 .text.null_handler
                0x08010222        0x2 /home/mav/paparazzi/var/Radian/ap/arch/stm32/stm32_vector_table.o
                0x08010222                null_handler
 .text.reset_handler_stage2
                0x08010224       0x3c /home/mav/paparazzi/var/Radian/ap/arch/stm32/stm32_vector_table.o
                0x08010224                reset_handler_stage2
 .text.reset_handler_stage1
                0x08010260       0x24 /home/mav/paparazzi/var/Radian/ap/arch/stm32/stm32_vector_table.o
                0x08010260                reset_handler_stage1
 .text.startup.main
                0x08010284       0x1c /home/mav/paparazzi/var/Radian/ap/firmwares/fixedwing/main.o
                0x08010284                main
 .text.uart_periph_init
                0x080102a0       0x18 /home/mav/paparazzi/var/Radian/ap/mcu_periph/uart.o
                0x080102a0                uart_periph_init
 .text.uart_check_free_space
                0x080102b8       0x28 /home/mav/paparazzi/var/Radian/ap/mcu_periph/uart.o
                0x080102b8                uart_check_free_space
 .text.usart_irq_handler
                0x080102e0       0x7e /home/mav/paparazzi/var/Radian/ap/arch/stm32/mcu_periph/uart_arch.o
 .text.uart_periph_set_baudrate
                0x0801035e       0x52 /home/mav/paparazzi/var/Radian/ap/arch/stm32/mcu_periph/uart_arch.o
                0x0801035e                uart_periph_set_baudrate
 .text.uart_transmit
                0x080103b0       0x60 /home/mav/paparazzi/var/Radian/ap/arch/stm32/mcu_periph/uart_arch.o
                0x080103b0                uart_transmit
 .text.uart2_init
                0x08010410       0x88 /home/mav/paparazzi/var/Radian/ap/arch/stm32/mcu_periph/uart_arch.o
                0x08010410                uart2_init
 .text.usart2_irq_handler
                0x08010498        0xc /home/mav/paparazzi/var/Radian/ap/arch/stm32/mcu_periph/uart_arch.o
                0x08010498                usart2_irq_handler
 .text.uart3_init
                0x080104a4       0xa0 /home/mav/paparazzi/var/Radian/ap/arch/stm32/mcu_periph/uart_arch.o
                0x080104a4                uart3_init
 .text.usart3_irq_handler
                0x08010544        0xc /home/mav/paparazzi/var/Radian/ap/arch/stm32/mcu_periph/uart_arch.o
                0x08010544                usart3_irq_handler
 .text.settings_init
                0x08010550        0x2 /home/mav/paparazzi/var/Radian/ap/subsystems/settings.o
                0x08010550                settings_init
 *fill*         0x08010552        0x2 00
 .text.adc_buf_channel
                0x08010554       0x10 /home/mav/paparazzi/var/Radian/ap/arch/stm32/mcu_periph/adc_arch.o
                0x08010554                adc_buf_channel
 .text.adc_init
                0x08010564      0x180 /home/mav/paparazzi/var/Radian/ap/arch/stm32/mcu_periph/adc_arch.o
                0x08010564                adc_init
 .text.adc1_2_irq_handler
                0x080106e4       0x68 /home/mav/paparazzi/var/Radian/ap/arch/stm32/mcu_periph/adc_arch.o
                0x080106e4                adc1_2_irq_handler
 .text.actuators_init
                0x0801074c        0x4 /home/mav/paparazzi/var/Radian/ap/arch/stm32/servos_direct_hw.o
                0x0801074c                actuators_init
 .text.actuators_pwm_arch_init
                0x08010750      0x134 /home/mav/paparazzi/var/Radian/ap/firmwares/rotorcraft/actuators/arch/stm32/actuators_pwm_arch.o
                0x08010750                actuators_pwm_arch_init
 .text.actuators_pwm_commit
                0x08010884       0x48 /home/mav/paparazzi/var/Radian/ap/firmwares/rotorcraft/actuators/arch/stm32/actuators_pwm_arch.o
                0x08010884                actuators_pwm_commit
 .text.DelayUs  0x080108cc       0x18 /home/mav/paparazzi/var/Radian/ap/arch/stm32/subsystems/radio_control/spektrum_arch.o
 .text.RadioControlEventImp
                0x080108e4       0xf4 /home/mav/paparazzi/var/Radian/ap/arch/stm32/subsystems/radio_control/spektrum_arch.o
                0x080108e4                RadioControlEventImp
 .text.SpektrumTimerInit
                0x080109d8       0x74 /home/mav/paparazzi/var/Radian/ap/arch/stm32/subsystems/radio_control/spektrum_arch.o
                0x080109d8                SpektrumTimerInit
 .text.tim6_irq_handler
                0x08010a4c       0x20 /home/mav/paparazzi/var/Radian/ap/arch/stm32/subsystems/radio_control/spektrum_arch.o
                0x08010a4c                tim6_irq_handler
 .text.SpektrumUartInit
                0x08010a6c       0x94 /home/mav/paparazzi/var/Radian/ap/arch/stm32/subsystems/radio_control/spektrum_arch.o
                0x08010a6c                SpektrumUartInit
 .text.radio_control_impl_init
                0x08010b00        0xe /home/mav/paparazzi/var/Radian/ap/arch/stm32/subsystems/radio_control/spektrum_arch.o
                0x08010b00                radio_control_impl_init
 *fill*         0x08010b0e        0x2 00
 .text.usart1_irq_handler
                0x08010b10      0x11c /home/mav/paparazzi/var/Radian/ap/arch/stm32/subsystems/radio_control/spektrum_arch.o
                0x08010b10                usart1_irq_handler
 .text.radio_control_spektrum_try_bind
                0x08010c2c       0xdc /home/mav/paparazzi/var/Radian/ap/arch/stm32/subsystems/radio_control/spektrum_arch.o
                0x08010c2c                radio_control_spektrum_try_bind
 .text.dl_parse_msg
                0x08010d08      0xb00 /home/mav/paparazzi/var/Radian/ap/firmwares/fixedwing/datalink.o
                0x08010d08                dl_parse_msg
 .text.h_ctl_init
                0x08011808       0xb8 /home/mav/paparazzi/var/Radian/ap/firmwares/fixedwing/stabilization/stabilization_attitude.o
                0x08011808                h_ctl_init
 .text.h_ctl_course_loop
                0x080118c0      0x1c0 /home/mav/paparazzi/var/Radian/ap/firmwares/fixedwing/stabilization/stabilization_attitude.o
                0x080118c0                h_ctl_course_loop
 .text.h_ctl_attitude_loop
                0x08011a80      0x16c /home/mav/paparazzi/var/Radian/ap/firmwares/fixedwing/stabilization/stabilization_attitude.o
                0x08011a80                h_ctl_attitude_loop
 .text.v_ctl_init
                0x08011bec      0x108 /home/mav/paparazzi/var/Radian/ap/firmwares/fixedwing/guidance/guidance_v.o
                0x08011bec                v_ctl_init
 .text.v_ctl_altitude_loop
                0x08011cf4       0x78 /home/mav/paparazzi/var/Radian/ap/firmwares/fixedwing/guidance/guidance_v.o
                0x08011cf4                v_ctl_altitude_loop
 *fill*         0x08011d6c        0x4 00
 .text.v_ctl_climb_loop
                0x08011d70      0x208 /home/mav/paparazzi/var/Radian/ap/firmwares/fixedwing/guidance/guidance_v.o
                0x08011d70                v_ctl_climb_loop
 .text.v_ctl_throttle_slew
                0x08011f78       0x58 /home/mav/paparazzi/var/Radian/ap/firmwares/fixedwing/guidance/guidance_v.o
                0x08011f78                v_ctl_throttle_slew
 .text.ahrs_init
                0x08011fd0      0x15c /home/mav/paparazzi/var/Radian/ap/subsystems/ahrs/ahrs_int_cmpl_quat.o
                0x08011fd0                ahrs_init
 *fill*         0x0801212c        0x4 00
 .text.ahrs_align
                0x08012130      0xa60 /home/mav/paparazzi/var/Radian/ap/subsystems/ahrs/ahrs_int_cmpl_quat.o
                0x08012130                ahrs_align
 .text.ahrs_propagate
                0x08012b90      0x558 /home/mav/paparazzi/var/Radian/ap/subsystems/ahrs/ahrs_int_cmpl_quat.o
                0x08012b90                ahrs_propagate
 .text.ahrs_update_accel
                0x080130e8      0x1f8 /home/mav/paparazzi/var/Radian/ap/subsystems/ahrs/ahrs_int_cmpl_quat.o
                0x080130e8                ahrs_update_accel
 .text.ahrs_update_mag
                0x080132e0       0xd4 /home/mav/paparazzi/var/Radian/ap/subsystems/ahrs/ahrs_int_cmpl_quat.o
                0x080132e0                ahrs_update_mag
 .text.ahrs_update_gps
                0x080133b4       0x48 /home/mav/paparazzi/var/Radian/ap/subsystems/ahrs/ahrs_int_cmpl_quat.o
                0x080133b4                ahrs_update_gps
 .text.ahrs_update_fw_estimator
                0x080133fc       0xb8 /home/mav/paparazzi/var/Radian/ap/subsystems/ahrs/ahrs_int_cmpl_quat.o
                0x080133fc                ahrs_update_fw_estimator
 .text.ahrs_aligner_init
                0x080134b4       0x40 /home/mav/paparazzi/var/Radian/ap/subsystems/ahrs/ahrs_aligner.o
                0x080134b4                ahrs_aligner_init
 .text.ahrs_aligner_run
                0x080134f4      0x168 /home/mav/paparazzi/var/Radian/ap/subsystems/ahrs/ahrs_aligner.o
                0x080134f4                ahrs_aligner_run
 .text.gps_ubx_ucenter_enable_msg.constprop.0
                0x0801365c      0x150 /home/mav/paparazzi/var/Radian/ap/subsystems/gps/gps_ubx.o
 .text.gps_impl_init
                0x080137ac       0x1c /home/mav/paparazzi/var/Radian/ap/subsystems/gps/gps_ubx.o
                0x080137ac                gps_impl_init
 .text.gps_ubx_read_message
                0x080137c8      0x398 /home/mav/paparazzi/var/Radian/ap/subsystems/gps/gps_ubx.o
                0x080137c8                gps_ubx_read_message
 .text.gps_ubx_parse
                0x08013b60      0x104 /home/mav/paparazzi/var/Radian/ap/subsystems/gps/gps_ubx.o
                0x08013b60                gps_ubx_parse
 .text.gps_ubx_ucenter_init
                0x08013c64       0x2c /home/mav/paparazzi/var/Radian/ap/subsystems/gps/gps_ubx.o
                0x08013c64                gps_ubx_ucenter_init
 .text.gps_ubx_ucenter_periodic
                0x08013c90     0x1518 /home/mav/paparazzi/var/Radian/ap/subsystems/gps/gps_ubx.o
                0x08013c90                gps_ubx_ucenter_periodic
 .text.gps_ubx_ucenter_event
                0x080151a8       0x70 /home/mav/paparazzi/var/Radian/ap/subsystems/gps/gps_ubx.o
                0x080151a8                gps_ubx_ucenter_event
 .text.gps_init
                0x08015218       0x14 /home/mav/paparazzi/var/Radian/ap/subsystems/gps.o
                0x08015218                gps_init
 .text.imu_init
                0x0801522c      0x1ac /home/mav/paparazzi/var/Radian/ap/subsystems/imu.o
                0x0801522c                imu_init
 .text.mpu_wait_slave4_ready
                0x080153d8       0x34 /home/mav/paparazzi/var/Radian/ap/subsystems/imu/imu_aspirin2.o
 .text.mpu_set  0x0801540c       0x20 /home/mav/paparazzi/var/Radian/ap/subsystems/imu/imu_aspirin2.o
 .text.imu_impl_init
                0x0801542c       0x28 /home/mav/paparazzi/var/Radian/ap/subsystems/imu/imu_aspirin2.o
                0x0801542c                imu_impl_init
 .text.imu_periodic
                0x08015454       0xf8 /home/mav/paparazzi/var/Radian/ap/subsystems/imu/imu_aspirin2.o
                0x08015454                imu_periodic
 .text.spi_arch_int_enable
                0x0801554c       0x18 /home/mav/paparazzi/var/Radian/ap/arch/stm32/mcu_periph/spi_arch.o
                0x0801554c                spi_arch_int_enable
 .text.spi_init
                0x08015564       0xb8 /home/mav/paparazzi/var/Radian/ap/arch/stm32/mcu_periph/spi_arch.o
                0x08015564                spi_init
 .text.spi_rw   0x0801561c       0xe0 /home/mav/paparazzi/var/Radian/ap/arch/stm32/mcu_periph/spi_arch.o
                0x0801561c                spi_rw
 .text.dma1_c4_irq_handler
                0x080156fc       0x78 /home/mav/paparazzi/var/Radian/ap/arch/stm32/mcu_periph/spi_arch.o
                0x080156fc                dma1_c4_irq_handler
 .text.nav_set_altitude
                0x08015774       0x3c /home/mav/paparazzi/var/Radian/ap/subsystems/nav.o
 .text.nav_init_stage
                0x080157b0       0x58 /home/mav/paparazzi/var/Radian/ap/subsystems/nav.o
                0x080157b0                nav_init_stage
 .text.nav_approaching_xy
                0x08015808       0xac /home/mav/paparazzi/var/Radian/ap/subsystems/nav.o
                0x08015808                nav_approaching_xy
 *fill*         0x080158b4        0x4 00
 .text.fly_to_xy
                0x080158b8      0x208 /home/mav/paparazzi/var/Radian/ap/subsystems/nav.o
                0x080158b8                fly_to_xy
 .text.nav_circle_XY
                0x08015ac0      0x340 /home/mav/paparazzi/var/Radian/ap/subsystems/nav.o
                0x08015ac0                nav_circle_XY
 .text.nav_route_xy
                0x08015e00      0x180 /home/mav/paparazzi/var/Radian/ap/subsystems/nav.o
                0x08015e00                nav_route_xy
 .text.compute_dist2_to_home
                0x08015f80       0x64 /home/mav/paparazzi/var/Radian/ap/subsystems/nav.o
                0x08015f80                compute_dist2_to_home
 *fill*         0x08015fe4        0x4 00
 .text.nav_reset_reference
                0x08015fe8       0xe0 /home/mav/paparazzi/var/Radian/ap/subsystems/nav.o
                0x08015fe8                nav_reset_reference
 .text.nav_update_waypoints_alt
                0x080160c8       0x38 /home/mav/paparazzi/var/Radian/ap/subsystems/nav.o
                0x080160c8                nav_update_waypoints_alt
 .text.common_nav_periodic_task_4Hz
                0x08016100       0x30 /home/mav/paparazzi/var/Radian/ap/subsystems/nav.o
                0x08016100                common_nav_periodic_task_4Hz
 .text.nav_move_waypoint
                0x08016130       0xc8 /home/mav/paparazzi/var/Radian/ap/subsystems/nav.o
                0x08016130                nav_move_waypoint
 .text.nav_home
                0x080161f8       0x6c /home/mav/paparazzi/var/Radian/ap/subsystems/nav.o
                0x080161f8                nav_home
 *fill*         0x08016264        0x4 00
 .text.nav_periodic_task
                0x08016268      0x708 /home/mav/paparazzi/var/Radian/ap/subsystems/nav.o
                0x08016268                nav_periodic_task
 .text.nav_init
                0x08016970       0x54 /home/mav/paparazzi/var/Radian/ap/subsystems/nav.o
                0x08016970                nav_init
 .text.nav_without_gps
                0x080169c4       0x3c /home/mav/paparazzi/var/Radian/ap/subsystems/nav.o
                0x080169c4                nav_without_gps
 .text.nav_init_block
                0x08016a00       0x28 /home/mav/paparazzi/var/Radian/ap/subsystems/navigation/common_flight_plan.o
                0x08016a00                nav_init_block
 .text.nav_goto_block
                0x08016a28       0x2c /home/mav/paparazzi/var/Radian/ap/subsystems/navigation/common_flight_plan.o
                0x08016a28                nav_goto_block
 .text.traffic_info_init
                0x08016a54       0x24 /home/mav/paparazzi/var/Radian/ap/subsystems/navigation/traffic_info.o
                0x08016a54                traffic_info_init
 .text.nav_line_init
                0x08016a78        0xc /home/mav/paparazzi/var/Radian/ap/subsystems/navigation/nav_line.o
                0x08016a78                nav_line_init
 *fill*         0x08016a84        0x4 00
 .text.nav_line
                0x08016a88      0xa68 /home/mav/paparazzi/var/Radian/ap/subsystems/navigation/nav_line.o
                0x08016a88                nav_line
 .text.ADC_Init
                0x080174f0       0x48 /opt/paparazzi/arm-multilib/lib/gcc/arm-none-eabi/4.6.2/../../../../arm-none-eabi/lib/libstm32.a(stm32_adc.o)
                0x080174f0                ADC_Init
 .text.ADC_Cmd  0x08017538       0x12 /opt/paparazzi/arm-multilib/lib/gcc/arm-none-eabi/4.6.2/../../../../arm-none-eabi/lib/libstm32.a(stm32_adc.o)
                0x08017538                ADC_Cmd
 .text.ADC_ITConfig
                0x0801754a       0x12 /opt/paparazzi/arm-multilib/lib/gcc/arm-none-eabi/4.6.2/../../../../arm-none-eabi/lib/libstm32.a(stm32_adc.o)
                0x0801754a                ADC_ITConfig
 .text.ADC_ResetCalibration
                0x0801755c        0xa /opt/paparazzi/arm-multilib/lib/gcc/arm-none-eabi/4.6.2/../../../../arm-none-eabi/lib/libstm32.a(stm32_adc.o)
                0x0801755c                ADC_ResetCalibration
 .text.ADC_GetResetCalibrationStatus
                0x08017566        0x8 /opt/paparazzi/arm-multilib/lib/gcc/arm-none-eabi/4.6.2/../../../../arm-none-eabi/lib/libstm32.a(stm32_adc.o)
                0x08017566                ADC_GetResetCalibrationStatus
 .text.ADC_StartCalibration
                0x0801756e        0xa /opt/paparazzi/arm-multilib/lib/gcc/arm-none-eabi/4.6.2/../../../../arm-none-eabi/lib/libstm32.a(stm32_adc.o)
                0x0801756e                ADC_StartCalibration
 .text.ADC_GetCalibrationStatus
                0x08017578        0x8 /opt/paparazzi/arm-multilib/lib/gcc/arm-none-eabi/4.6.2/../../../../arm-none-eabi/lib/libstm32.a(stm32_adc.o)
                0x08017578                ADC_GetCalibrationStatus
 .text.ADC_ExternalTrigInjectedConvConfig
                0x08017580        0xc /opt/paparazzi/arm-multilib/lib/gcc/arm-none-eabi/4.6.2/../../../../arm-none-eabi/lib/libstm32.a(stm32_adc.o)
                0x08017580                ADC_ExternalTrigInjectedConvConfig
 .text.ADC_ExternalTrigInjectedConvCmd
                0x0801758c       0x12 /opt/paparazzi/arm-multilib/lib/gcc/arm-none-eabi/4.6.2/../../../../arm-none-eabi/lib/libstm32.a(stm32_adc.o)
                0x0801758c                ADC_ExternalTrigInjectedConvCmd
 .text.ADC_InjectedChannelConfig
                0x0801759e       0x58 /opt/paparazzi/arm-multilib/lib/gcc/arm-none-eabi/4.6.2/../../../../arm-none-eabi/lib/libstm32.a(stm32_adc.o)
                0x0801759e                ADC_InjectedChannelConfig
 .text.ADC_InjectedSequencerLengthConfig
                0x080175f6       0x10 /opt/paparazzi/arm-multilib/lib/gcc/arm-none-eabi/4.6.2/../../../../arm-none-eabi/lib/libstm32.a(stm32_adc.o)
                0x080175f6                ADC_InjectedSequencerLengthConfig
 .text.ADC_GetInjectedConversionValue
                0x08017606        0x8 /opt/paparazzi/arm-multilib/lib/gcc/arm-none-eabi/4.6.2/../../../../arm-none-eabi/lib/libstm32.a(stm32_adc.o)
                0x08017606                ADC_GetInjectedConversionValue
 .text.ADC_ClearITPendingBit
                0x0801760e        0x8 /opt/paparazzi/arm-multilib/lib/gcc/arm-none-eabi/4.6.2/../../../../arm-none-eabi/lib/libstm32.a(stm32_adc.o)
                0x0801760e                ADC_ClearITPendingBit
 *fill*         0x08017616        0x2 00
 .text.TIM_TimeBaseInit
                0x08017618       0x3c /opt/paparazzi/arm-multilib/lib/gcc/arm-none-eabi/4.6.2/../../../../arm-none-eabi/lib/libstm32.a(stm32_tim.o)
                0x08017618                TIM_TimeBaseInit
 .text.TIM_OC1Init
                0x08017654       0x74 /opt/paparazzi/arm-multilib/lib/gcc/arm-none-eabi/4.6.2/../../../../arm-none-eabi/lib/libstm32.a(stm32_tim.o)
                0x08017654                TIM_OC1Init
 .text.TIM_OC2Init
                0x080176c8       0x88 /opt/paparazzi/arm-multilib/lib/gcc/arm-none-eabi/4.6.2/../../../../arm-none-eabi/lib/libstm32.a(stm32_tim.o)
                0x080176c8                TIM_OC2Init
 .text.TIM_OC3Init
                0x08017750       0x84 /opt/paparazzi/arm-multilib/lib/gcc/arm-none-eabi/4.6.2/../../../../arm-none-eabi/lib/libstm32.a(stm32_tim.o)
                0x08017750                TIM_OC3Init
 .text.TIM_OC4Init
                0x080177d4       0x68 /opt/paparazzi/arm-multilib/lib/gcc/arm-none-eabi/4.6.2/../../../../arm-none-eabi/lib/libstm32.a(stm32_tim.o)
                0x080177d4                TIM_OC4Init
 .text.TIM_TimeBaseStructInit
                0x0801783c       0x12 /opt/paparazzi/arm-multilib/lib/gcc/arm-none-eabi/4.6.2/../../../../arm-none-eabi/lib/libstm32.a(stm32_tim.o)
                0x0801783c                TIM_TimeBaseStructInit
 .text.TIM_Cmd  0x0801784e       0x18 /opt/paparazzi/arm-multilib/lib/gcc/arm-none-eabi/4.6.2/../../../../arm-none-eabi/lib/libstm32.a(stm32_tim.o)
                0x0801784e                TIM_Cmd
 .text.TIM_CtrlPWMOutputs
                0x08017866       0x1c /opt/paparazzi/arm-multilib/lib/gcc/arm-none-eabi/4.6.2/../../../../arm-none-eabi/lib/libstm32.a(stm32_tim.o)
                0x08017866                TIM_CtrlPWMOutputs
 .text.TIM_ITConfig
                0x08017882       0x12 /opt/paparazzi/arm-multilib/lib/gcc/arm-none-eabi/4.6.2/../../../../arm-none-eabi/lib/libstm32.a(stm32_tim.o)
                0x08017882                TIM_ITConfig
 .text.TIM_ARRPreloadConfig
                0x08017894       0x18 /opt/paparazzi/arm-multilib/lib/gcc/arm-none-eabi/4.6.2/../../../../arm-none-eabi/lib/libstm32.a(stm32_tim.o)
                0x08017894                TIM_ARRPreloadConfig
 .text.TIM_OC1PreloadConfig
                0x080178ac       0x10 /opt/paparazzi/arm-multilib/lib/gcc/arm-none-eabi/4.6.2/../../../../arm-none-eabi/lib/libstm32.a(stm32_tim.o)
                0x080178ac                TIM_OC1PreloadConfig
 .text.TIM_OC2PreloadConfig
                0x080178bc       0x14 /opt/paparazzi/arm-multilib/lib/gcc/arm-none-eabi/4.6.2/../../../../arm-none-eabi/lib/libstm32.a(stm32_tim.o)
                0x080178bc                TIM_OC2PreloadConfig
 .text.TIM_OC3PreloadConfig
                0x080178d0       0x10 /opt/paparazzi/arm-multilib/lib/gcc/arm-none-eabi/4.6.2/../../../../arm-none-eabi/lib/libstm32.a(stm32_tim.o)
                0x080178d0                TIM_OC3PreloadConfig
 .text.TIM_OC4PreloadConfig
                0x080178e0       0x14 /opt/paparazzi/arm-multilib/lib/gcc/arm-none-eabi/4.6.2/../../../../arm-none-eabi/lib/libstm32.a(stm32_tim.o)
                0x080178e0                TIM_OC4PreloadConfig
 .text.TIM_SelectOutputTrigger
                0x080178f4       0x16 /opt/paparazzi/arm-multilib/lib/gcc/arm-none-eabi/4.6.2/../../../../arm-none-eabi/lib/libstm32.a(stm32_tim.o)
                0x080178f4                TIM_SelectOutputTrigger
 .text.TIM_SetCompare1
                0x0801790a        0x4 /opt/paparazzi/arm-multilib/lib/gcc/arm-none-eabi/4.6.2/../../../../arm-none-eabi/lib/libstm32.a(stm32_tim.o)
                0x0801790a                TIM_SetCompare1
 .text.TIM_SetCompare2
                0x0801790e        0x4 /opt/paparazzi/arm-multilib/lib/gcc/arm-none-eabi/4.6.2/../../../../arm-none-eabi/lib/libstm32.a(stm32_tim.o)
                0x0801790e                TIM_SetCompare2
 .text.TIM_SetCompare3
                0x08017912        0x4 /opt/paparazzi/arm-multilib/lib/gcc/arm-none-eabi/4.6.2/../../../../arm-none-eabi/lib/libstm32.a(stm32_tim.o)
                0x08017912                TIM_SetCompare3
 .text.TIM_SetCompare4
                0x08017916        0x6 /opt/paparazzi/arm-multilib/lib/gcc/arm-none-eabi/4.6.2/../../../../arm-none-eabi/lib/libstm32.a(stm32_tim.o)
                0x08017916                TIM_SetCompare4
 .text.TIM_ClearFlag
                0x0801791c        0x8 /opt/paparazzi/arm-multilib/lib/gcc/arm-none-eabi/4.6.2/../../../../arm-none-eabi/lib/libstm32.a(stm32_tim.o)
                0x0801791c                TIM_ClearFlag
 .text.TIM_ClearITPendingBit
                0x08017924        0x8 /opt/paparazzi/arm-multilib/lib/gcc/arm-none-eabi/4.6.2/../../../../arm-none-eabi/lib/libstm32.a(stm32_tim.o)
                0x08017924                TIM_ClearITPendingBit
 .text.DMA_DeInit
                0x0801792c       0xe8 /opt/paparazzi/arm-multilib/lib/gcc/arm-none-eabi/4.6.2/../../../../arm-none-eabi/lib/libstm32.a(stm32_dma.o)
                0x0801792c                DMA_DeInit
 .text.DMA_Init
                0x08017a14       0x3c /opt/paparazzi/arm-multilib/lib/gcc/arm-none-eabi/4.6.2/../../../../arm-none-eabi/lib/libstm32.a(stm32_dma.o)
                0x08017a14                DMA_Init
 .text.DMA_Cmd  0x08017a50       0x12 /opt/paparazzi/arm-multilib/lib/gcc/arm-none-eabi/4.6.2/../../../../arm-none-eabi/lib/libstm32.a(stm32_dma.o)
                0x08017a50                DMA_Cmd
 .text.DMA_ITConfig
                0x08017a62       0x10 /opt/paparazzi/arm-multilib/lib/gcc/arm-none-eabi/4.6.2/../../../../arm-none-eabi/lib/libstm32.a(stm32_dma.o)
                0x08017a62                DMA_ITConfig
 *fill*         0x08017a72        0x2 00
 .text.DMA_GetITStatus
                0x08017a74       0x1c /opt/paparazzi/arm-multilib/lib/gcc/arm-none-eabi/4.6.2/../../../../arm-none-eabi/lib/libstm32.a(stm32_dma.o)
                0x08017a74                DMA_GetITStatus
 .text.DMA_ClearITPendingBit
                0x08017a90       0x14 /opt/paparazzi/arm-multilib/lib/gcc/arm-none-eabi/4.6.2/../../../../arm-none-eabi/lib/libstm32.a(stm32_dma.o)
                0x08017a90                DMA_ClearITPendingBit
 .text.GPIO_Init
                0x08017aa4       0xaa /opt/paparazzi/arm-multilib/lib/gcc/arm-none-eabi/4.6.2/../../../../arm-none-eabi/lib/libstm32.a(stm32_gpio.o)
                0x08017aa4                GPIO_Init
 .text.GPIO_ReadInputDataBit
                0x08017b4e        0xc /opt/paparazzi/arm-multilib/lib/gcc/arm-none-eabi/4.6.2/../../../../arm-none-eabi/lib/libstm32.a(stm32_gpio.o)
                0x08017b4e                GPIO_ReadInputDataBit
 .text.GPIO_WriteBit
                0x08017b5a        0xa /opt/paparazzi/arm-multilib/lib/gcc/arm-none-eabi/4.6.2/../../../../arm-none-eabi/lib/libstm32.a(stm32_gpio.o)
                0x08017b5a                GPIO_WriteBit
 .text.GPIO_PinRemapConfig
                0x08017b64       0x54 /opt/paparazzi/arm-multilib/lib/gcc/arm-none-eabi/4.6.2/../../../../arm-none-eabi/lib/libstm32.a(stm32_gpio.o)
                0x08017b64                GPIO_PinRemapConfig
 .text.USART_Init
                0x08017bb8       0x8c /opt/paparazzi/arm-multilib/lib/gcc/arm-none-eabi/4.6.2/../../../../arm-none-eabi/lib/libstm32.a(stm32_usart.o)
                0x08017bb8                USART_Init
 .text.USART_Cmd
                0x08017c44       0x18 /opt/paparazzi/arm-multilib/lib/gcc/arm-none-eabi/4.6.2/../../../../arm-none-eabi/lib/libstm32.a(stm32_usart.o)
                0x08017c44                USART_Cmd
 .text.USART_ITConfig
                0x08017c5c       0x32 /opt/paparazzi/arm-multilib/lib/gcc/arm-none-eabi/4.6.2/../../../../arm-none-eabi/lib/libstm32.a(stm32_usart.o)
                0x08017c5c                USART_ITConfig
 .text.USART_SendData
                0x08017c8e        0x8 /opt/paparazzi/arm-multilib/lib/gcc/arm-none-eabi/4.6.2/../../../../arm-none-eabi/lib/libstm32.a(stm32_usart.o)
                0x08017c8e                USART_SendData
 .text.USART_ReceiveData
                0x08017c96        0x8 /opt/paparazzi/arm-multilib/lib/gcc/arm-none-eabi/4.6.2/../../../../arm-none-eabi/lib/libstm32.a(stm32_usart.o)
                0x08017c96                USART_ReceiveData
 .text.USART_GetITStatus
                0x08017c9e       0x3e /opt/paparazzi/arm-multilib/lib/gcc/arm-none-eabi/4.6.2/../../../../arm-none-eabi/lib/libstm32.a(stm32_usart.o)
                0x08017c9e                USART_GetITStatus
 .text.SPI_Init
                0x08017cdc       0x3e /opt/paparazzi/arm-multilib/lib/gcc/arm-none-eabi/4.6.2/../../../../arm-none-eabi/lib/libstm32.a(stm32_spi.o)
                0x08017cdc                SPI_Init
 .text.SPI_Cmd  0x08017d1a       0x18 /opt/paparazzi/arm-multilib/lib/gcc/arm-none-eabi/4.6.2/../../../../arm-none-eabi/lib/libstm32.a(stm32_spi.o)
                0x08017d1a                SPI_Cmd
 .text.SPI_I2S_DMACmd
                0x08017d32       0x12 /opt/paparazzi/arm-multilib/lib/gcc/arm-none-eabi/4.6.2/../../../../arm-none-eabi/lib/libstm32.a(stm32_spi.o)
                0x08017d32                SPI_I2S_DMACmd
 .text.RCC_ADCCLKConfig
                0x08017d44       0x14 /opt/paparazzi/arm-multilib/lib/gcc/arm-none-eabi/4.6.2/../../../../arm-none-eabi/lib/libstm32.a(stm32_rcc.o)
                0x08017d44                RCC_ADCCLKConfig
 .text.RCC_GetClocksFreq
                0x08017d58       0x8c /opt/paparazzi/arm-multilib/lib/gcc/arm-none-eabi/4.6.2/../../../../arm-none-eabi/lib/libstm32.a(stm32_rcc.o)
                0x08017d58                RCC_GetClocksFreq
 .text.RCC_AHBPeriphClockCmd
                0x08017de4       0x18 /opt/paparazzi/arm-multilib/lib/gcc/arm-none-eabi/4.6.2/../../../../arm-none-eabi/lib/libstm32.a(stm32_rcc.o)
                0x08017de4                RCC_AHBPeriphClockCmd
 .text.RCC_APB2PeriphClockCmd
                0x08017dfc       0x18 /opt/paparazzi/arm-multilib/lib/gcc/arm-none-eabi/4.6.2/../../../../arm-none-eabi/lib/libstm32.a(stm32_rcc.o)
                0x08017dfc                RCC_APB2PeriphClockCmd
 .text.RCC_APB1PeriphClockCmd
                0x08017e14       0x18 /opt/paparazzi/arm-multilib/lib/gcc/arm-none-eabi/4.6.2/../../../../arm-none-eabi/lib/libstm32.a(stm32_rcc.o)
                0x08017e14                RCC_APB1PeriphClockCmd
 .text.NVIC_Init
                0x08017e2c       0x64 /opt/paparazzi/arm-multilib/lib/gcc/arm-none-eabi/4.6.2/../../../../arm-none-eabi/lib/libstm32.a(stm32_misc.o)
                0x08017e2c                NVIC_Init
 .text.rcc_wait_for_osc_ready
                0x08017e90       0x4c /opt/paparazzi/arm-multilib/lib/gcc/arm-none-eabi/4.6.2/../../../../arm-none-eabi/lib/libopencm3_stm32.a(rcc.o)
                0x08017e90                rcc_wait_for_osc_ready
 .text.rcc_osc_on
                0x08017edc       0x4c /opt/paparazzi/arm-multilib/lib/gcc/arm-none-eabi/4.6.2/../../../../arm-none-eabi/lib/libopencm3_stm32.a(rcc.o)
                0x08017edc                rcc_osc_on
 .text.rcc_set_sysclk_source
                0x08017f28       0x14 /opt/paparazzi/arm-multilib/lib/gcc/arm-none-eabi/4.6.2/../../../../arm-none-eabi/lib/libopencm3_stm32.a(rcc.o)
                0x08017f28                rcc_set_sysclk_source
 .text.rcc_set_pll_multiplication_factor
                0x08017f3c       0x14 /opt/paparazzi/arm-multilib/lib/gcc/arm-none-eabi/4.6.2/../../../../arm-none-eabi/lib/libopencm3_stm32.a(rcc.o)
                0x08017f3c                rcc_set_pll_multiplication_factor
 .text.rcc_set_pll_source
                0x08017f50       0x14 /opt/paparazzi/arm-multilib/lib/gcc/arm-none-eabi/4.6.2/../../../../arm-none-eabi/lib/libopencm3_stm32.a(rcc.o)
                0x08017f50                rcc_set_pll_source
 .text.rcc_set_pllxtpre
                0x08017f64       0x14 /opt/paparazzi/arm-multilib/lib/gcc/arm-none-eabi/4.6.2/../../../../arm-none-eabi/lib/libopencm3_stm32.a(rcc.o)
                0x08017f64                rcc_set_pllxtpre
 .text.rcc_set_adcpre
                0x08017f78       0x14 /opt/paparazzi/arm-multilib/lib/gcc/arm-none-eabi/4.6.2/../../../../arm-none-eabi/lib/libopencm3_stm32.a(rcc.o)
                0x08017f78                rcc_set_adcpre
 .text.rcc_set_ppre2
                0x08017f8c       0x14 /opt/paparazzi/arm-multilib/lib/gcc/arm-none-eabi/4.6.2/../../../../arm-none-eabi/lib/libopencm3_stm32.a(rcc.o)
                0x08017f8c                rcc_set_ppre2
 .text.rcc_set_ppre1
                0x08017fa0       0x14 /opt/paparazzi/arm-multilib/lib/gcc/arm-none-eabi/4.6.2/../../../../arm-none-eabi/lib/libopencm3_stm32.a(rcc.o)
                0x08017fa0                rcc_set_ppre1
 .text.rcc_set_hpre
                0x08017fb4       0x14 /opt/paparazzi/arm-multilib/lib/gcc/arm-none-eabi/4.6.2/../../../../arm-none-eabi/lib/libopencm3_stm32.a(rcc.o)
                0x08017fb4                rcc_set_hpre
 .text.rcc_clock_setup_in_hse_12mhz_out_72mhz
                0x08017fc8       0x88 /opt/paparazzi/arm-multilib/lib/gcc/arm-none-eabi/4.6.2/../../../../arm-none-eabi/lib/libopencm3_stm32.a(rcc.o)
                0x08017fc8                rcc_clock_setup_in_hse_12mhz_out_72mhz
 .text.usart_set_baudrate
                0x08018050       0x24 /opt/paparazzi/arm-multilib/lib/gcc/arm-none-eabi/4.6.2/../../../../arm-none-eabi/lib/libopencm3_stm32.a(usart.o)
                0x08018050                usart_set_baudrate
 .text.flash_set_ws
                0x08018074       0x14 /opt/paparazzi/arm-multilib/lib/gcc/arm-none-eabi/4.6.2/../../../../arm-none-eabi/lib/libopencm3_stm32.a(flash.o)
                0x08018074                flash_set_ws
 *(.rodata)
 .rodata        0x08018088       0x11 /home/mav/paparazzi/var/Radian/ap/firmwares/fixedwing/main_ap.o
 .rodata        0x08018099        0x4 /home/mav/paparazzi/var/Radian/ap/arch/stm32/mcu_periph/spi_arch.o
 *fill*         0x0801809d        0x3 00
 .rodata        0x080180a0       0x40 /opt/paparazzi/arm-multilib/lib/gcc/arm-none-eabi/4.6.2/../../../../arm-none-eabi/lib/thumb2/libm.a(lib_a-s_atan.o)
 .rodata        0x080180e0       0x20 /opt/paparazzi/arm-multilib/lib/gcc/arm-none-eabi/4.6.2/../../../../arm-none-eabi/lib/thumb2/libm.a(lib_a-sf_atan.o)
 .rodata        0x08018100       0x30 /opt/paparazzi/arm-multilib/lib/gcc/arm-none-eabi/4.6.2/../../../../arm-none-eabi/lib/thumb2/libm.a(lib_a-e_exp.o)
 .rodata        0x08018130      0x188 /opt/paparazzi/arm-multilib/lib/gcc/arm-none-eabi/4.6.2/../../../../arm-none-eabi/lib/thumb2/libm.a(lib_a-e_rem_pio2.o)
 .rodata        0x080182b8       0x50 /opt/paparazzi/arm-multilib/lib/gcc/arm-none-eabi/4.6.2/../../../../arm-none-eabi/lib/thumb2/libm.a(lib_a-k_rem_pio2.o)
 *(.rodata*)
 .rodata.serie_coeff_proj_mercator
                0x08018308       0x14 /home/mav/paparazzi/var/Radian/ap/math/pprz_geodetic_float.o
 .rodata.commands_failsafe
                0x0801831c        0x6 /home/mav/paparazzi/var/Radian/ap/./commands.o
                0x0801831c                commands_failsafe
 .rodata.version
                0x08018322        0x2 /home/mav/paparazzi/var/Radian/ap/firmwares/fixedwing/main_ap.o
 .rodata.nb_waypoint
                0x08018324        0x1 /home/mav/paparazzi/var/Radian/ap/subsystems/nav.o
                0x08018324                nb_waypoint
 .rodata.str1.1
                0x08018325        0x5 /opt/paparazzi/arm-multilib/lib/gcc/arm-none-eabi/4.6.2/../../../../arm-none-eabi/lib/thumb2/libm.a(lib_a-w_asin.o)
                                  0x6 (size before relaxing)
 .rodata.str1.1
                0x0801832a        0x5 /opt/paparazzi/arm-multilib/lib/gcc/arm-none-eabi/4.6.2/../../../../arm-none-eabi/lib/thumb2/libm.a(lib_a-w_cosh.o)
 .rodata.str1.1
                0x0801832f        0x4 /opt/paparazzi/arm-multilib/lib/gcc/arm-none-eabi/4.6.2/../../../../arm-none-eabi/lib/thumb2/libm.a(lib_a-w_exp.o)
 .rodata.str1.1
                0x08018333        0x4 /opt/paparazzi/arm-multilib/lib/gcc/arm-none-eabi/4.6.2/../../../../arm-none-eabi/lib/thumb2/libm.a(lib_a-w_log.o)
                                  0x5 (size before relaxing)
 .rodata.str1.1
                0x08018337        0x5 /opt/paparazzi/arm-multilib/lib/gcc/arm-none-eabi/4.6.2/../../../../arm-none-eabi/lib/thumb2/libm.a(lib_a-w_sinh.o)
 .rodata.str1.1
                0x0801833c        0x5 /opt/paparazzi/arm-multilib/lib/gcc/arm-none-eabi/4.6.2/../../../../arm-none-eabi/lib/thumb2/libm.a(lib_a-w_sqrt.o)
 .rodata.str1.1
                0x08018341        0x6 /opt/paparazzi/arm-multilib/lib/gcc/arm-none-eabi/4.6.2/../../../../arm-none-eabi/lib/thumb2/libm.a(lib_a-wf_asin.o)
                                  0x7 (size before relaxing)
 .rodata.str1.1
                0x08018347        0x6 /opt/paparazzi/arm-multilib/lib/gcc/arm-none-eabi/4.6.2/../../../../arm-none-eabi/lib/thumb2/libm.a(lib_a-wf_sqrt.o)
 .rodata.str1.1
                0x0801834d        0x2 /opt/paparazzi/arm-multilib/lib/gcc/arm-none-eabi/4.6.2/../../../../arm-none-eabi/lib/thumb2/libc.a(lib_a-impure.o)
 *(.glue_7)
 .glue_7        0x00000000        0x0 linker stubs
 *(.glue_7t)
 .glue_7t       0x00000000        0x0 linker stubs
                0x08018350                . = ALIGN (0x4)
 *fill*         0x0801834f        0x1 00
                0x08018350                _etext = .
                0x08018350                _sidata = _etext

.vfp11_veneer   0x08018350        0x0
 .vfp11_veneer  0x00000000        0x0 linker stubs

.v4_bx          0x08018350        0x0
 .v4_bx         0x00000000        0x0 linker stubs

.data           0x20000000     0x3770 load address 0x08018350
                0x20000000                . = ALIGN (0x4)
                0x20000000                _sdata = .
 *(.data)
 .data          0x20000000        0x1 /opt/paparazzi/arm-multilib/lib/gcc/arm-none-eabi/4.6.2/../../../../arm-none-eabi/lib/thumb2/libm.a(lib_a-s_lib_ver.o)
                0x20000000                __fdlib_version
 *fill*         0x20000001        0x7 00
 .data          0x20000008      0x430 /opt/paparazzi/arm-multilib/lib/gcc/arm-none-eabi/4.6.2/../../../../arm-none-eabi/lib/thumb2/libc.a(lib_a-impure.o)
                0x20000008                _impure_ptr
 *(.data.*)
 .data.fbw_state
                0x20000438        0x4 /home/mav/paparazzi/var/Radian/ap/./inter_mcu.o
                0x20000438                fbw_state
 .data.ap_state
                0x2000043c        0x4 /home/mav/paparazzi/var/Radian/ap/./inter_mcu.o
                0x2000043c                ap_state
 .data.pprz_trig_int
                0x20000440     0x3244 /home/mav/paparazzi/var/Radian/ap/math/pprz_trig_int.o
                0x20000440                pprz_trig_int
 .data.boot.4482
                0x20003684        0x1 /home/mav/paparazzi/var/Radian/ap/firmwares/fixedwing/main_ap.o
 .data.pprz_mode
                0x20003685        0x1 /home/mav/paparazzi/var/Radian/ap/firmwares/fixedwing/main_ap.o
                0x20003685                pprz_mode
 .data.SpektrumSigns
                0x20003686        0xc /home/mav/paparazzi/var/Radian/ap/arch/stm32/subsystems/radio_control/spektrum_arch.o
                0x20003686                SpektrumSigns
 .data.PrimarySpektrumState
                0x20003692       0x28 /home/mav/paparazzi/var/Radian/ap/arch/stm32/subsystems/radio_control/spektrum_arch.o
                0x20003692                PrimarySpektrumState
 *fill*         0x200036ba        0x2 00
 .data.max_dist_from_home
                0x200036bc        0x4 /home/mav/paparazzi/var/Radian/ap/subsystems/nav.o
                0x200036bc                max_dist_from_home
 .data.nav_altitude
                0x200036c0        0x4 /home/mav/paparazzi/var/Radian/ap/subsystems/nav.o
                0x200036c0                nav_altitude
 .data.nav_utm_zone0
                0x200036c4        0x1 /home/mav/paparazzi/var/Radian/ap/subsystems/nav.o
                0x200036c4                nav_utm_zone0
 *fill*         0x200036c5        0x3 00
 .data.nav_utm_north0
                0x200036c8        0x4 /home/mav/paparazzi/var/Radian/ap/subsystems/nav.o
                0x200036c8                nav_utm_north0
 .data.waypoints
                0x200036cc       0x84 /home/mav/paparazzi/var/Radian/ap/subsystems/nav.o
                0x200036cc                waypoints
 .data.nav_utm_east0
                0x20003750        0x4 /home/mav/paparazzi/var/Radian/ap/subsystems/nav.o
                0x20003750                nav_utm_east0
 .data.ADCPrescTable
                0x20003754        0x4 /opt/paparazzi/arm-multilib/lib/gcc/arm-none-eabi/4.6.2/../../../../arm-none-eabi/lib/libstm32.a(stm32_rcc.o)
 .data.APBAHBPrescTable
                0x20003758       0x10 /opt/paparazzi/arm-multilib/lib/gcc/arm-none-eabi/4.6.2/../../../../arm-none-eabi/lib/libstm32.a(stm32_rcc.o)
 .data.rcc_ppre1_frequency
                0x20003768        0x4 /opt/paparazzi/arm-multilib/lib/gcc/arm-none-eabi/4.6.2/../../../../arm-none-eabi/lib/libopencm3_stm32.a(rcc.o)
                0x20003768                rcc_ppre1_frequency
 .data.rcc_ppre2_frequency
                0x2000376c        0x4 /opt/paparazzi/arm-multilib/lib/gcc/arm-none-eabi/4.6.2/../../../../arm-none-eabi/lib/libopencm3_stm32.a(rcc.o)
                0x2000376c                rcc_ppre2_frequency
                0x20003770                . = ALIGN (0x4)
                0x20003770                _edata = .

.bss            0x20003770     0x1188 load address 0x0801bac0
                0x20003770                . = ALIGN (0x4)
                0x20003770                _sbss = .
 *(.dynbss)
 *(.bss .bss.* .gnu.linkonce.b.*)
 .bss.sys_time  0x20003770       0xac /home/mav/paparazzi/var/Radian/ap/mcu_periph/sys_time.o
                0x20003770                sys_time
 .bss.inter_mcu_received_ap
                0x2000381c        0x1 /home/mav/paparazzi/var/Radian/ap/./inter_mcu.o
                0x2000381c                inter_mcu_received_ap
 *fill*         0x2000381d        0x1 00
 .bss._ap_state
                0x2000381e        0x6 /home/mav/paparazzi/var/Radian/ap/./inter_mcu.o
 .bss.ap_ok     0x20003824        0x1 /home/mav/paparazzi/var/Radian/ap/./inter_mcu.o
                0x20003824                ap_ok
 .bss.time_since_last_ap
                0x20003825        0x1 /home/mav/paparazzi/var/Radian/ap/./inter_mcu.o
                0x20003825                time_since_last_ap
 .bss.inter_mcu_received_fbw
                0x20003826        0x1 /home/mav/paparazzi/var/Radian/ap/./inter_mcu.o
                0x20003826                inter_mcu_received_fbw
 *fill*         0x20003827        0x1 00
 .bss._fbw_state
                0x20003828       0x20 /home/mav/paparazzi/var/Radian/ap/./inter_mcu.o
 .bss.i300.3605
                0x20003848        0x2 /home/mav/paparazzi/var/Radian/ap/firmwares/fixedwing/main_fbw.o
 .bss.i60.3604  0x2000384a        0x1 /home/mav/paparazzi/var/Radian/ap/firmwares/fixedwing/main_fbw.o
 .bss.i120.3578
                0x2000384b        0x1 /home/mav/paparazzi/var/Radian/ap/firmwares/fixedwing/main_fbw.o
 .bss.fbw_mode  0x2000384c        0x1 /home/mav/paparazzi/var/Radian/ap/firmwares/fixedwing/main_fbw.o
                0x2000384c                fbw_mode
 .bss.fbw_periodic_tid
                0x2000384d        0x1 /home/mav/paparazzi/var/Radian/ap/firmwares/fixedwing/main_fbw.o
                0x2000384d                fbw_periodic_tid
 .bss._1Hz.3375
                0x2000384e        0x1 /home/mav/paparazzi/var/Radian/ap/firmwares/fixedwing/main_fbw.o
 .bss.fbw_new_actuators
                0x2000384f        0x1 /home/mav/paparazzi/var/Radian/ap/firmwares/fixedwing/main_fbw.o
                0x2000384f                fbw_new_actuators
 .bss.i300.3579
                0x20003850        0x2 /home/mav/paparazzi/var/Radian/ap/firmwares/fixedwing/main_fbw.o
 .bss.i30.3603  0x20003852        0x1 /home/mav/paparazzi/var/Radian/ap/firmwares/fixedwing/main_fbw.o
 .bss.electrical_tid
                0x20003853        0x1 /home/mav/paparazzi/var/Radian/ap/firmwares/fixedwing/main_fbw.o
                0x20003853                electrical_tid
 .bss.electrical_priv
                0x20003854       0x48 /home/mav/paparazzi/var/Radian/ap/subsystems/electrical.o
 .bss.electrical
                0x2000389c        0x8 /home/mav/paparazzi/var/Radian/ap/subsystems/electrical.o
                0x2000389c                electrical
 .bss.commands  0x200038a4        0x6 /home/mav/paparazzi/var/Radian/ap/./commands.o
                0x200038a4                commands
 .bss.command_roll_trim
                0x200038aa        0x2 /home/mav/paparazzi/var/Radian/ap/./commands.o
                0x200038aa                command_roll_trim
 .bss.command_pitch_trim
                0x200038ac        0x2 /home/mav/paparazzi/var/Radian/ap/./commands.o
                0x200038ac                command_pitch_trim
 .bss.telemetry_mode_Fbw
                0x200038ae        0x1 /home/mav/paparazzi/var/Radian/ap/firmwares/fixedwing/fbw_downlink.o
                0x200038ae                telemetry_mode_Fbw
 *fill*         0x200038af        0x1 00
 .bss.i606.5433
                0x200038b0        0x2 /home/mav/paparazzi/var/Radian/ap/firmwares/fixedwing/main_ap.o
 *fill*         0x200038b2        0x2 00
 .bss.energy    0x200038b4        0x4 /home/mav/paparazzi/var/Radian/ap/firmwares/fixedwing/main_ap.o
                0x200038b4                energy
 .bss.last_pprz_mode.5677
                0x200038b8        0x1 /home/mav/paparazzi/var/Radian/ap/firmwares/fixedwing/main_ap.o
 .bss.i6.5425   0x200038b9        0x1 /home/mav/paparazzi/var/Radian/ap/firmwares/fixedwing/main_ap.o
 .bss.i480.5133
                0x200038ba        0x2 /home/mav/paparazzi/var/Radian/ap/firmwares/fixedwing/main_ap.o
 .bss.i15.4488  0x200038bc        0x1 /home/mav/paparazzi/var/Radian/ap/firmwares/fixedwing/main_ap.o
 *fill*         0x200038bd        0x1 00
 .bss.i612.5434
                0x200038be        0x2 /home/mav/paparazzi/var/Radian/ap/firmwares/fixedwing/main_ap.o
 .bss.current   0x200038c0        0x4 /home/mav/paparazzi/var/Radian/ap/firmwares/fixedwing/main_ap.o
 .bss.kill_throttle
                0x200038c4        0x1 /home/mav/paparazzi/var/Radian/ap/firmwares/fixedwing/main_ap.o
                0x200038c4                kill_throttle
 *fill*         0x200038c5        0x1 00
 .bss.i300.5127
                0x200038c6        0x2 /home/mav/paparazzi/var/Radian/ap/firmwares/fixedwing/main_ap.o
 .bss.monitor_tid
                0x200038c8        0x1 /home/mav/paparazzi/var/Radian/ap/firmwares/fixedwing/main_ap.o
                0x200038c8                monitor_tid
 .bss.mcu1_ppm_cpt
                0x200038c9        0x1 /home/mav/paparazzi/var/Radian/ap/firmwares/fixedwing/main_ap.o
 .bss.i342.5432
                0x200038ca        0x2 /home/mav/paparazzi/var/Radian/ap/firmwares/fixedwing/main_ap.o
 .bss.vsupply   0x200038cc        0x1 /home/mav/paparazzi/var/Radian/ap/firmwares/fixedwing/main_ap.o
                0x200038cc                vsupply
 .bss.i30.5282  0x200038cd        0x1 /home/mav/paparazzi/var/Radian/ap/firmwares/fixedwing/main_ap.o
 .bss.i183.4846
                0x200038ce        0x1 /home/mav/paparazzi/var/Radian/ap/firmwares/fixedwing/main_ap.o
 *fill*         0x200038cf        0x1 00
 .bss.i306.5428
                0x200038d0        0x2 /home/mav/paparazzi/var/Radian/ap/firmwares/fixedwing/main_ap.o
 .bss.i306.4851
                0x200038d2        0x2 /home/mav/paparazzi/var/Radian/ap/firmwares/fixedwing/main_ap.o
 .bss.i126.4499
                0x200038d4        0x1 /home/mav/paparazzi/var/Radian/ap/firmwares/fixedwing/main_ap.o
 *fill*         0x200038d5        0x1 00
 .bss.i300.5427
                0x200038d6        0x2 /home/mav/paparazzi/var/Radian/ap/firmwares/fixedwing/main_ap.o
 .bss.i318.5429
                0x200038d8        0x2 /home/mav/paparazzi/var/Radian/ap/firmwares/fixedwing/main_ap.o
 .bss.i120.4498
                0x200038da        0x1 /home/mav/paparazzi/var/Radian/ap/firmwares/fixedwing/main_ap.o
 .bss.i30.5353  0x200038db        0x1 /home/mav/paparazzi/var/Radian/ap/firmwares/fixedwing/main_ap.o
 .bss.i180.4845
                0x200038dc        0x1 /home/mav/paparazzi/var/Radian/ap/firmwares/fixedwing/main_ap.o
 .bss.i48.4491  0x200038dd        0x1 /home/mav/paparazzi/var/Radian/ap/firmwares/fixedwing/main_ap.o
 .bss.i306.4503
                0x200038de        0x2 /home/mav/paparazzi/var/Radian/ap/firmwares/fixedwing/main_ap.o
 .bss.i15.4269  0x200038e0        0x1 /home/mav/paparazzi/var/Radian/ap/firmwares/fixedwing/main_ap.o
 *fill*         0x200038e1        0x1 00
 .bss.last.4821
                0x200038e2        0x2 /home/mav/paparazzi/var/Radian/ap/firmwares/fixedwing/main_ap.o
 .bss.i84.4842  0x200038e4        0x1 /home/mav/paparazzi/var/Radian/ap/firmwares/fixedwing/main_ap.o
 *fill*         0x200038e5        0x1 00
 .bss.i312.4852
                0x200038e6        0x2 /home/mav/paparazzi/var/Radian/ap/firmwares/fixedwing/main_ap.o
 .bss.i.5397    0x200038e8        0x1 /home/mav/paparazzi/var/Radian/ap/firmwares/fixedwing/main_ap.o
 .bss.i30.5426  0x200038e9        0x1 /home/mav/paparazzi/var/Radian/ap/firmwares/fixedwing/main_ap.o
 .bss.launch    0x200038ea        0x1 /home/mav/paparazzi/var/Radian/ap/firmwares/fixedwing/main_ap.o
                0x200038ea                launch
 .bss.i6.4486   0x200038eb        0x1 /home/mav/paparazzi/var/Radian/ap/firmwares/fixedwing/main_ap.o
 .bss.i243.4849
                0x200038ec        0x1 /home/mav/paparazzi/var/Radian/ap/firmwares/fixedwing/main_ap.o
 .bss.lateral_mode
                0x200038ed        0x1 /home/mav/paparazzi/var/Radian/ap/firmwares/fixedwing/main_ap.o
                0x200038ed                lateral_mode
 .bss.gps_ubx_gps_ubx_ucenter_periodic_status
                0x200038ee        0x1 /home/mav/paparazzi/var/Radian/ap/firmwares/fixedwing/main_ap.o
                0x200038ee                gps_ubx_gps_ubx_ucenter_periodic_status
 .bss.i240.4848
                0x200038ef        0x1 /home/mav/paparazzi/var/Radian/ap/firmwares/fixedwing/main_ap.o
 .bss.i450.5132
                0x200038f0        0x2 /home/mav/paparazzi/var/Radian/ap/firmwares/fixedwing/main_ap.o
 .bss.i126.4844
                0x200038f2        0x1 /home/mav/paparazzi/var/Radian/ap/firmwares/fixedwing/main_ap.o
 .bss.i90.4843  0x200038f3        0x1 /home/mav/paparazzi/var/Radian/ap/firmwares/fixedwing/main_ap.o
 .bss.i612.5135
                0x200038f4        0x2 /home/mav/paparazzi/var/Radian/ap/firmwares/fixedwing/main_ap.o
 .bss.i.4854    0x200038f6        0x1 /home/mav/paparazzi/var/Radian/ap/firmwares/fixedwing/main_ap.o
 .bss.i4.5351   0x200038f7        0x1 /home/mav/paparazzi/var/Radian/ap/firmwares/fixedwing/main_ap.o
 .bss.i126.5283
                0x200038f8        0x1 /home/mav/paparazzi/var/Radian/ap/firmwares/fixedwing/main_ap.o
 .bss.i.5323    0x200038f9        0x1 /home/mav/paparazzi/var/Radian/ap/firmwares/fixedwing/main_ap.o
 .bss.i342.5131
                0x200038fa        0x2 /home/mav/paparazzi/var/Radian/ap/firmwares/fixedwing/main_ap.o
 .bss.i.4920    0x200038fc        0x1 /home/mav/paparazzi/var/Radian/ap/firmwares/fixedwing/main_ap.o
 .bss.gps_lost  0x200038fd        0x1 /home/mav/paparazzi/var/Radian/ap/firmwares/fixedwing/main_ap.o
                0x200038fd                gps_lost
 .bss.attitude_tid
                0x200038fe        0x1 /home/mav/paparazzi/var/Radian/ap/firmwares/fixedwing/main_ap.o
                0x200038fe                attitude_tid
 .bss.i.4547    0x200038ff        0x1 /home/mav/paparazzi/var/Radian/ap/firmwares/fixedwing/main_ap.o
 .bss.i66.4494  0x20003900        0x1 /home/mav/paparazzi/var/Radian/ap/firmwares/fixedwing/main_ap.o
 *fill*         0x20003901        0x1 00
 .bss.i324.5430
                0x20003902        0x2 /home/mav/paparazzi/var/Radian/ap/firmwares/fixedwing/main_ap.o
 .bss.i.5142    0x20003904        0x1 /home/mav/paparazzi/var/Radian/ap/firmwares/fixedwing/main_ap.o
 *fill*         0x20003905        0x1 00
 .bss.i306.5128
                0x20003906        0x2 /home/mav/paparazzi/var/Radian/ap/firmwares/fixedwing/main_ap.o
 .bss.i63.4493  0x20003908        0x1 /home/mav/paparazzi/var/Radian/ap/firmwares/fixedwing/main_ap.o
 .bss.i132.4500
                0x20003909        0x1 /home/mav/paparazzi/var/Radian/ap/firmwares/fixedwing/main_ap.o
 .bss.sensors_tid
                0x2000390a        0x1 /home/mav/paparazzi/var/Radian/ap/firmwares/fixedwing/main_ap.o
                0x2000390a                sensors_tid
 .bss.i60.4492  0x2000390b        0x1 /home/mav/paparazzi/var/Radian/ap/firmwares/fixedwing/main_ap.o
 .bss.i78.4496  0x2000390c        0x1 /home/mav/paparazzi/var/Radian/ap/firmwares/fixedwing/main_ap.o
 *fill*         0x2000390d        0x1 00
 .bss.i318.5129
                0x2000390e        0x2 /home/mav/paparazzi/var/Radian/ap/firmwares/fixedwing/main_ap.o
 .bss.i12.4487  0x20003910        0x1 /home/mav/paparazzi/var/Radian/ap/firmwares/fixedwing/main_ap.o
 .bss.i72.4495  0x20003911        0x1 /home/mav/paparazzi/var/Radian/ap/firmwares/fixedwing/main_ap.o
 .bss.i330.5431
                0x20003912        0x2 /home/mav/paparazzi/var/Radian/ap/firmwares/fixedwing/main_ap.o
 .bss.power_switch
                0x20003914        0x1 /home/mav/paparazzi/var/Radian/ap/firmwares/fixedwing/main_ap.o
                0x20003914                power_switch
 .bss.telemetry_tid
                0x20003915        0x1 /home/mav/paparazzi/var/Radian/ap/firmwares/fixedwing/main_ap.o
                0x20003915                telemetry_tid
 .bss.i540.4853
                0x20003916        0x2 /home/mav/paparazzi/var/Radian/ap/firmwares/fixedwing/main_ap.o
 .bss.i540.4504
                0x20003918        0x2 /home/mav/paparazzi/var/Radian/ap/firmwares/fixedwing/main_ap.o
 .bss.i606.5134
                0x2000391a        0x2 /home/mav/paparazzi/var/Radian/ap/firmwares/fixedwing/main_ap.o
 .bss.i30.4489  0x2000391c        0x1 /home/mav/paparazzi/var/Radian/ap/firmwares/fixedwing/main_ap.o
 .bss.ahrs_timeout_counter
                0x2000391d        0x1 /home/mav/paparazzi/var/Radian/ap/firmwares/fixedwing/main_ap.o
                0x2000391d                ahrs_timeout_counter
 .bss.i66.4840  0x2000391e        0x1 /home/mav/paparazzi/var/Radian/ap/firmwares/fixedwing/main_ap.o
 .bss.i192.4847
                0x2000391f        0x1 /home/mav/paparazzi/var/Radian/ap/firmwares/fixedwing/main_ap.o
 .bss.i.4725    0x20003920        0x1 /home/mav/paparazzi/var/Radian/ap/firmwares/fixedwing/main_ap.o
 .bss.i90.4497  0x20003921        0x1 /home/mav/paparazzi/var/Radian/ap/firmwares/fixedwing/main_ap.o
 .bss.i.5541    0x20003922        0x1 /home/mav/paparazzi/var/Radian/ap/firmwares/fixedwing/main_ap.o
 .bss.i78.4841  0x20003923        0x1 /home/mav/paparazzi/var/Radian/ap/firmwares/fixedwing/main_ap.o
 .bss.i.4938    0x20003924        0x1 /home/mav/paparazzi/var/Radian/ap/firmwares/fixedwing/main_ap.o
 *fill*         0x20003925        0x1 00
 .bss.last.5620
                0x20003926        0x2 /home/mav/paparazzi/var/Radian/ap/firmwares/fixedwing/main_ap.o
 .bss.i300.4850
                0x20003928        0x2 /home/mav/paparazzi/var/Radian/ap/firmwares/fixedwing/main_ap.o
 .bss.i63.4839  0x2000392a        0x1 /home/mav/paparazzi/var/Radian/ap/firmwares/fixedwing/main_ap.o
 *fill*         0x2000392b        0x1 00
 .bss.i300.4502
                0x2000392c        0x2 /home/mav/paparazzi/var/Radian/ap/firmwares/fixedwing/main_ap.o
 .bss.i150.4501
                0x2000392e        0x1 /home/mav/paparazzi/var/Radian/ap/firmwares/fixedwing/main_ap.o
 .bss.i.4596    0x2000392f        0x1 /home/mav/paparazzi/var/Radian/ap/firmwares/fixedwing/main_ap.o
 .bss.mcu1_status
                0x20003930        0x1 /home/mav/paparazzi/var/Radian/ap/firmwares/fixedwing/main_ap.o
 .bss.i3.5281   0x20003931        0x1 /home/mav/paparazzi/var/Radian/ap/firmwares/fixedwing/main_ap.o
 .bss.t.5725    0x20003932        0x1 /home/mav/paparazzi/var/Radian/ap/firmwares/fixedwing/main_ap.o
 *fill*         0x20003933        0x1 00
 .bss.last.5109
                0x20003934        0x2 /home/mav/paparazzi/var/Radian/ap/firmwares/fixedwing/main_ap.o
 .bss.i324.5130
                0x20003936        0x2 /home/mav/paparazzi/var/Radian/ap/firmwares/fixedwing/main_ap.o
 .bss.i36.4490  0x20003938        0x1 /home/mav/paparazzi/var/Radian/ap/firmwares/fixedwing/main_ap.o
 *fill*         0x20003939        0x1 00
 .bss.last.5213
                0x2000393a        0x2 /home/mav/paparazzi/var/Radian/ap/firmwares/fixedwing/main_ap.o
 .bss.i6.5352   0x2000393c        0x1 /home/mav/paparazzi/var/Radian/ap/firmwares/fixedwing/main_ap.o
 .bss.modules_tid
                0x2000393d        0x1 /home/mav/paparazzi/var/Radian/ap/firmwares/fixedwing/main_ap.o
                0x2000393d                modules_tid
 .bss.i126.5354
                0x2000393e        0x1 /home/mav/paparazzi/var/Radian/ap/firmwares/fixedwing/main_ap.o
 .bss.navigation_tid
                0x2000393f        0x1 /home/mav/paparazzi/var/Radian/ap/firmwares/fixedwing/main_ap.o
                0x2000393f                navigation_tid
 .bss.estimator_hspeed_dir
                0x20003940        0x4 /home/mav/paparazzi/var/Radian/ap/./estimator.o
                0x20003940                estimator_hspeed_dir
 .bss.estimator_airspeed
                0x20003944        0x4 /home/mav/paparazzi/var/Radian/ap/./estimator.o
                0x20003944                estimator_airspeed
 .bss.estimator_z_dot
                0x20003948        0x4 /home/mav/paparazzi/var/Radian/ap/./estimator.o
                0x20003948                estimator_z_dot
 .bss.estimator_flight_time
                0x2000394c        0x2 /home/mav/paparazzi/var/Radian/ap/./estimator.o
                0x2000394c                estimator_flight_time
 *fill*         0x2000394e        0x2 00
 .bss.wind_east
                0x20003950        0x4 /home/mav/paparazzi/var/Radian/ap/./estimator.o
                0x20003950                wind_east
 .bss.estimator_p
                0x20003954        0x4 /home/mav/paparazzi/var/Radian/ap/./estimator.o
                0x20003954                estimator_p
 .bss.estimator_psi
                0x20003958        0x4 /home/mav/paparazzi/var/Radian/ap/./estimator.o
                0x20003958                estimator_psi
 .bss.estimator_r
                0x2000395c        0x4 /home/mav/paparazzi/var/Radian/ap/./estimator.o
                0x2000395c                estimator_r
 .bss.wind_north
                0x20003960        0x4 /home/mav/paparazzi/var/Radian/ap/./estimator.o
                0x20003960                wind_north
 .bss.estimator_theta
                0x20003964        0x4 /home/mav/paparazzi/var/Radian/ap/./estimator.o
                0x20003964                estimator_theta
 .bss.estimator_q
                0x20003968        0x4 /home/mav/paparazzi/var/Radian/ap/./estimator.o
                0x20003968                estimator_q
 .bss.estimator_x
                0x2000396c        0x4 /home/mav/paparazzi/var/Radian/ap/./estimator.o
                0x2000396c                estimator_x
 .bss.estimator_y
                0x20003970        0x4 /home/mav/paparazzi/var/Radian/ap/./estimator.o
                0x20003970                estimator_y
 .bss.estimator_z
                0x20003974        0x4 /home/mav/paparazzi/var/Radian/ap/./estimator.o
                0x20003974                estimator_z
 .bss.estimator_hspeed_mod
                0x20003978        0x4 /home/mav/paparazzi/var/Radian/ap/./estimator.o
                0x20003978                estimator_hspeed_mod
 .bss.estimator_phi
                0x2000397c        0x4 /home/mav/paparazzi/var/Radian/ap/./estimator.o
                0x2000397c                estimator_phi
 .bss.telemetry_mode_Ap
                0x20003980        0x1 /home/mav/paparazzi/var/Radian/ap/firmwares/fixedwing/ap_downlink.o
                0x20003980                telemetry_mode_Ap
 *fill*         0x20003981        0x3 00
 .bss.uart2     0x20003984      0x120 /home/mav/paparazzi/var/Radian/ap/mcu_periph/uart.o
                0x20003984                uart2
 .bss.uart3     0x20003aa4      0x120 /home/mav/paparazzi/var/Radian/ap/mcu_periph/uart.o
                0x20003aa4                uart3
 .bss.adc_new_data_trigger
                0x20003bc4        0x1 /home/mav/paparazzi/var/Radian/ap/arch/stm32/mcu_periph/adc_arch.o
                0x20003bc4                adc_new_data_trigger
 *fill*         0x20003bc5        0x3 00
 .bss.adc1_buffers
                0x20003bc8       0x10 /home/mav/paparazzi/var/Radian/ap/arch/stm32/mcu_periph/adc_arch.o
 .bss.adc_channel_map
                0x20003bd8        0x4 /home/mav/paparazzi/var/Radian/ap/arch/stm32/mcu_periph/adc_arch.o
 .bss.adc_injected_channels
                0x20003bdc        0x4 /home/mav/paparazzi/var/Radian/ap/arch/stm32/mcu_periph/adc_arch.o
 .bss.actuators_pwm_values
                0x20003be0       0x18 /home/mav/paparazzi/var/Radian/ap/arch/stm32/servos_direct_hw.o
                0x20003be0                actuators_pwm_values
 .bss.actuators
                0x20003bf8        0x6 /home/mav/paparazzi/var/Radian/ap/actuators.o
                0x20003bf8                actuators
 .bss.radio_control
                0x20003bfe       0x1e /home/mav/paparazzi/var/Radian/ap/subsystems/radio_control.o
                0x20003bfe                radio_control
 .bss.TmpEncType.3420
                0x20003c1c        0x1 /home/mav/paparazzi/var/Radian/ap/arch/stm32/subsystems/radio_control/spektrum_arch.o
 .bss.ExpectedFrames
                0x20003c1d        0x1 /home/mav/paparazzi/var/Radian/ap/arch/stm32/subsystems/radio_control/spektrum_arch.o
 .bss.SpektrumBuf
                0x20003c1e       0x1c /home/mav/paparazzi/var/Radian/ap/arch/stm32/subsystems/radio_control/spektrum_arch.o
                0x20003c1e                SpektrumBuf
 .bss.EncodingType
                0x20003c3a        0x1 /home/mav/paparazzi/var/Radian/ap/arch/stm32/subsystems/radio_control/spektrum_arch.o
 .bss.TmpExpFrames.3421
                0x20003c3b        0x1 /home/mav/paparazzi/var/Radian/ap/arch/stm32/subsystems/radio_control/spektrum_arch.o
 .bss.downlink_nb_msgs
                0x20003c3c        0x2 /home/mav/paparazzi/var/Radian/ap/subsystems/datalink/downlink.o
                0x20003c3c                downlink_nb_msgs
 .bss.downlink_nb_ovrn
                0x20003c3e        0x1 /home/mav/paparazzi/var/Radian/ap/subsystems/datalink/downlink.o
                0x20003c3e                downlink_nb_ovrn
 *fill*         0x20003c3f        0x1 00
 .bss.downlink_nb_bytes
                0x20003c40        0x2 /home/mav/paparazzi/var/Radian/ap/subsystems/datalink/downlink.o
                0x20003c40                downlink_nb_bytes
 .bss.pprz_tp   0x20003c42      0x108 /home/mav/paparazzi/var/Radian/ap/subsystems/datalink/pprz_transport.o
                0x20003c42                pprz_tp
 .bss.ck_a      0x20003d4a        0x1 /home/mav/paparazzi/var/Radian/ap/subsystems/datalink/pprz_transport.o
                0x20003d4a                ck_a
 .bss.ck_b      0x20003d4b        0x1 /home/mav/paparazzi/var/Radian/ap/subsystems/datalink/pprz_transport.o
                0x20003d4b                ck_b
 .bss.dl_msg_available
                0x20003d4c        0x1 /home/mav/paparazzi/var/Radian/ap/firmwares/fixedwing/datalink.o
                0x20003d4c                dl_msg_available
 *fill*         0x20003d4d        0x3 00
 .bss.dl_buffer
                0x20003d50       0x80 /home/mav/paparazzi/var/Radian/ap/firmwares/fixedwing/datalink.o
                0x20003d50                dl_buffer
 .bss.datalink_time
                0x20003dd0        0x2 /home/mav/paparazzi/var/Radian/ap/firmwares/fixedwing/datalink.o
                0x20003dd0                datalink_time
 *fill*         0x20003dd2        0x2 00
 .bss.last_err.3605
                0x20003dd4        0x4 /home/mav/paparazzi/var/Radian/ap/firmwares/fixedwing/stabilization/stabilization_attitude.o
 .bss.h_ctl_elevator_setpoint
                0x20003dd8        0x2 /home/mav/paparazzi/var/Radian/ap/firmwares/fixedwing/stabilization/stabilization_attitude.o
                0x20003dd8                h_ctl_elevator_setpoint
 *fill*         0x20003dda        0x2 00
 .bss.h_ctl_pitch_pgain
                0x20003ddc        0x4 /home/mav/paparazzi/var/Radian/ap/firmwares/fixedwing/stabilization/stabilization_attitude.o
                0x20003ddc                h_ctl_pitch_pgain
 .bss.h_ctl_roll_max_setpoint
                0x20003de0        0x4 /home/mav/paparazzi/var/Radian/ap/firmwares/fixedwing/stabilization/stabilization_attitude.o
                0x20003de0                h_ctl_roll_max_setpoint
 .bss.last_err.3634
                0x20003de4        0x4 /home/mav/paparazzi/var/Radian/ap/firmwares/fixedwing/stabilization/stabilization_attitude.o
 .bss.h_ctl_roll_setpoint
                0x20003de8        0x4 /home/mav/paparazzi/var/Radian/ap/firmwares/fixedwing/stabilization/stabilization_attitude.o
                0x20003de8                h_ctl_roll_setpoint
 .bss.h_ctl_course_setpoint
                0x20003dec        0x4 /home/mav/paparazzi/var/Radian/ap/firmwares/fixedwing/stabilization/stabilization_attitude.o
                0x20003dec                h_ctl_course_setpoint
 .bss.h_ctl_aileron_setpoint
                0x20003df0        0x2 /home/mav/paparazzi/var/Radian/ap/firmwares/fixedwing/stabilization/stabilization_attitude.o
                0x20003df0                h_ctl_aileron_setpoint
 *fill*         0x20003df2        0x2 00
 .bss.h_ctl_pitch_setpoint
                0x20003df4        0x4 /home/mav/paparazzi/var/Radian/ap/firmwares/fixedwing/stabilization/stabilization_attitude.o
                0x20003df4                h_ctl_pitch_setpoint
 .bss.h_ctl_aileron_of_throttle
                0x20003df8        0x4 /home/mav/paparazzi/var/Radian/ap/firmwares/fixedwing/stabilization/stabilization_attitude.o
                0x20003df8                h_ctl_aileron_of_throttle
 .bss.h_ctl_disabled
                0x20003dfc        0x1 /home/mav/paparazzi/var/Radian/ap/firmwares/fixedwing/stabilization/stabilization_attitude.o
                0x20003dfc                h_ctl_disabled
 *fill*         0x20003dfd        0x3 00
 .bss.h_ctl_pitch_loop_setpoint
                0x20003e00        0x4 /home/mav/paparazzi/var/Radian/ap/firmwares/fixedwing/stabilization/stabilization_attitude.o
                0x20003e00                h_ctl_pitch_loop_setpoint
 .bss.h_ctl_course_pgain
                0x20003e04        0x4 /home/mav/paparazzi/var/Radian/ap/firmwares/fixedwing/stabilization/stabilization_attitude.o
                0x20003e04                h_ctl_course_pgain
 .bss.h_ctl_roll_pgain
                0x20003e08        0x4 /home/mav/paparazzi/var/Radian/ap/firmwares/fixedwing/stabilization/stabilization_attitude.o
                0x20003e08                h_ctl_roll_pgain
 .bss.h_ctl_course_dgain
                0x20003e0c        0x4 /home/mav/paparazzi/var/Radian/ap/firmwares/fixedwing/stabilization/stabilization_attitude.o
                0x20003e0c                h_ctl_course_dgain
 .bss.h_ctl_course_pre_bank_correction
                0x20003e10        0x4 /home/mav/paparazzi/var/Radian/ap/firmwares/fixedwing/stabilization/stabilization_attitude.o
                0x20003e10                h_ctl_course_pre_bank_correction
 .bss.h_ctl_elevator_of_roll
                0x20003e14        0x4 /home/mav/paparazzi/var/Radian/ap/firmwares/fixedwing/stabilization/stabilization_attitude.o
                0x20003e14                h_ctl_elevator_of_roll
 .bss.h_ctl_course_pre_bank
                0x20003e18        0x4 /home/mav/paparazzi/var/Radian/ap/firmwares/fixedwing/stabilization/stabilization_attitude.o
                0x20003e18                h_ctl_course_pre_bank
 .bss.h_ctl_pitch_dgain
                0x20003e1c        0x4 /home/mav/paparazzi/var/Radian/ap/firmwares/fixedwing/stabilization/stabilization_attitude.o
                0x20003e1c                h_ctl_pitch_dgain
 .bss.v_ctl_auto_throttle_nominal_cruise_throttle
                0x20003e20        0x4 /home/mav/paparazzi/var/Radian/ap/firmwares/fixedwing/guidance/guidance_v.o
                0x20003e20                v_ctl_auto_throttle_nominal_cruise_throttle
 .bss.v_ctl_auto_throttle_igain
                0x20003e24        0x4 /home/mav/paparazzi/var/Radian/ap/firmwares/fixedwing/guidance/guidance_v.o
                0x20003e24                v_ctl_auto_throttle_igain
 .bss.v_ctl_auto_throttle_max_cruise_throttle
                0x20003e28        0x4 /home/mav/paparazzi/var/Radian/ap/firmwares/fixedwing/guidance/guidance_v.o
                0x20003e28                v_ctl_auto_throttle_max_cruise_throttle
 .bss.v_ctl_throttle_setpoint
                0x20003e2c        0x2 /home/mav/paparazzi/var/Radian/ap/firmwares/fixedwing/guidance/guidance_v.o
                0x20003e2c                v_ctl_throttle_setpoint
 *fill*         0x20003e2e        0x2 00
 .bss.v_ctl_altitude_pre_climb_correction
                0x20003e30        0x4 /home/mav/paparazzi/var/Radian/ap/firmwares/fixedwing/guidance/guidance_v.o
                0x20003e30                v_ctl_altitude_pre_climb_correction
 .bss.v_ctl_altitude_setpoint
                0x20003e34        0x4 /home/mav/paparazzi/var/Radian/ap/firmwares/fixedwing/guidance/guidance_v.o
                0x20003e34                v_ctl_altitude_setpoint
 .bss.v_ctl_auto_throttle_dgain
                0x20003e38        0x4 /home/mav/paparazzi/var/Radian/ap/firmwares/fixedwing/guidance/guidance_v.o
                0x20003e38                v_ctl_auto_throttle_dgain
 .bss.v_ctl_mode
                0x20003e3c        0x1 /home/mav/paparazzi/var/Radian/ap/firmwares/fixedwing/guidance/guidance_v.o
                0x20003e3c                v_ctl_mode
 *fill*         0x20003e3d        0x3 00
 .bss.v_ctl_auto_throttle_pitch_of_vz_pgain
                0x20003e40        0x4 /home/mav/paparazzi/var/Radian/ap/firmwares/fixedwing/guidance/guidance_v.o
                0x20003e40                v_ctl_auto_throttle_pitch_of_vz_pgain
 .bss.v_ctl_auto_throttle_pitch_of_vz_dgain
                0x20003e44        0x4 /home/mav/paparazzi/var/Radian/ap/firmwares/fixedwing/guidance/guidance_v.o
                0x20003e44                v_ctl_auto_throttle_pitch_of_vz_dgain
 .bss.v_ctl_auto_pitch_pgain
                0x20003e48        0x4 /home/mav/paparazzi/var/Radian/ap/firmwares/fixedwing/guidance/guidance_v.o
                0x20003e48                v_ctl_auto_pitch_pgain
 .bss.last_err.3594
                0x20003e4c        0x4 /home/mav/paparazzi/var/Radian/ap/firmwares/fixedwing/guidance/guidance_v.o
 .bss.v_ctl_auto_throttle_climb_throttle_increment
                0x20003e50        0x4 /home/mav/paparazzi/var/Radian/ap/firmwares/fixedwing/guidance/guidance_v.o
                0x20003e50                v_ctl_auto_throttle_climb_throttle_increment
 .bss.v_ctl_altitude_pre_climb
                0x20003e54        0x4 /home/mav/paparazzi/var/Radian/ap/firmwares/fixedwing/guidance/guidance_v.o
                0x20003e54                v_ctl_altitude_pre_climb
 .bss.v_ctl_auto_throttle_sum_err
                0x20003e58        0x4 /home/mav/paparazzi/var/Radian/ap/firmwares/fixedwing/guidance/guidance_v.o
                0x20003e58                v_ctl_auto_throttle_sum_err
 .bss.v_ctl_climb_setpoint
                0x20003e5c        0x4 /home/mav/paparazzi/var/Radian/ap/firmwares/fixedwing/guidance/guidance_v.o
                0x20003e5c                v_ctl_climb_setpoint
 .bss.v_ctl_auto_pitch_sum_err
                0x20003e60        0x4 /home/mav/paparazzi/var/Radian/ap/firmwares/fixedwing/guidance/guidance_v.o
                0x20003e60                v_ctl_auto_pitch_sum_err
 .bss.v_ctl_throttle_slewed
                0x20003e64        0x2 /home/mav/paparazzi/var/Radian/ap/firmwares/fixedwing/guidance/guidance_v.o
                0x20003e64                v_ctl_throttle_slewed
 .bss.v_ctl_auto_throttle_submode
                0x20003e66        0x1 /home/mav/paparazzi/var/Radian/ap/firmwares/fixedwing/guidance/guidance_v.o
                0x20003e66                v_ctl_auto_throttle_submode
 *fill*         0x20003e67        0x1 00
 .bss.v_ctl_auto_throttle_pgain
                0x20003e68        0x4 /home/mav/paparazzi/var/Radian/ap/firmwares/fixedwing/guidance/guidance_v.o
                0x20003e68                v_ctl_auto_throttle_pgain
 .bss.v_ctl_auto_pitch_igain
                0x20003e6c        0x4 /home/mav/paparazzi/var/Radian/ap/firmwares/fixedwing/guidance/guidance_v.o
                0x20003e6c                v_ctl_auto_pitch_igain
 .bss.v_ctl_climb_mode
                0x20003e70        0x1 /home/mav/paparazzi/var/Radian/ap/firmwares/fixedwing/guidance/guidance_v.o
                0x20003e70                v_ctl_climb_mode
 *fill*         0x20003e71        0x3 00
 .bss.v_ctl_altitude_error
                0x20003e74        0x4 /home/mav/paparazzi/var/Radian/ap/firmwares/fixedwing/guidance/guidance_v.o
                0x20003e74                v_ctl_altitude_error
 .bss.v_ctl_auto_throttle_cruise_throttle
                0x20003e78        0x4 /home/mav/paparazzi/var/Radian/ap/firmwares/fixedwing/guidance/guidance_v.o
                0x20003e78                v_ctl_auto_throttle_cruise_throttle
 .bss.v_ctl_auto_throttle_min_cruise_throttle
                0x20003e7c        0x4 /home/mav/paparazzi/var/Radian/ap/firmwares/fixedwing/guidance/guidance_v.o
                0x20003e7c                v_ctl_auto_throttle_min_cruise_throttle
 .bss.v_ctl_altitude_pgain
                0x20003e80        0x4 /home/mav/paparazzi/var/Radian/ap/firmwares/fixedwing/guidance/guidance_v.o
                0x20003e80                v_ctl_altitude_pgain
 .bss.v_ctl_altitude_max_climb
                0x20003e84        0x4 /home/mav/paparazzi/var/Radian/ap/firmwares/fixedwing/guidance/guidance_v.o
                0x20003e84                v_ctl_altitude_max_climb
 .bss.ahrs      0x20003e88       0x9c /home/mav/paparazzi/var/Radian/ap/subsystems/ahrs.o
                0x20003e88                ahrs
 *fill*         0x20003f24        0x4 00
 .bss.ahrs_impl
                0x20003f28       0x48 /home/mav/paparazzi/var/Radian/ap/subsystems/ahrs/ahrs_int_cmpl_quat.o
                0x20003f28                ahrs_impl
 .bss.ins_pitch_neutral
                0x20003f70        0x4 /home/mav/paparazzi/var/Radian/ap/subsystems/ahrs/ahrs_int_cmpl_quat.o
                0x20003f70                ins_pitch_neutral
 .bss.ins_roll_neutral
                0x20003f74        0x4 /home/mav/paparazzi/var/Radian/ap/subsystems/ahrs/ahrs_int_cmpl_quat.o
                0x20003f74                ins_roll_neutral
 .bss.gyro_sum  0x20003f78        0xc /home/mav/paparazzi/var/Radian/ap/subsystems/ahrs/ahrs_aligner.o
 .bss.mag_sum   0x20003f84        0xc /home/mav/paparazzi/var/Radian/ap/subsystems/ahrs/ahrs_aligner.o
 .bss.samples_idx
                0x20003f90        0x4 /home/mav/paparazzi/var/Radian/ap/subsystems/ahrs/ahrs_aligner.o
 .bss.ahrs_aligner
                0x20003f94       0x30 /home/mav/paparazzi/var/Radian/ap/subsystems/ahrs/ahrs_aligner.o
                0x20003f94                ahrs_aligner
 .bss.ref_sensor_samples
                0x20003fc4       0xf0 /home/mav/paparazzi/var/Radian/ap/subsystems/ahrs/ahrs_aligner.o
 .bss.accel_sum
                0x200040b4        0xc /home/mav/paparazzi/var/Radian/ap/subsystems/ahrs/ahrs_aligner.o
 .bss.gps_ubx_ucenter
                0x200040c0       0x20 /home/mav/paparazzi/var/Radian/ap/subsystems/gps/gps_ubx.o
                0x200040c0                gps_ubx_ucenter
 .bss.gps_ubx   0x200040e0      0x118 /home/mav/paparazzi/var/Radian/ap/subsystems/gps/gps_ubx.o
                0x200040e0                gps_ubx
 .bss.gps       0x200041f8       0xf4 /home/mav/paparazzi/var/Radian/ap/subsystems/gps.o
                0x200041f8                gps
 .bss.imu       0x200042ec       0xb8 /home/mav/paparazzi/var/Radian/ap/subsystems/imu.o
                0x200042ec                imu
 .bss.imu_aspirin2
                0x200043a4       0x88 /home/mav/paparazzi/var/Radian/ap/subsystems/imu/imu_aspirin2.o
                0x200043a4                imu_aspirin2
 .bss.aspirin2_mpu60x0
                0x2000442c       0x10 /home/mav/paparazzi/var/Radian/ap/subsystems/imu/imu_aspirin2.o
                0x2000442c                aspirin2_mpu60x0
 .bss.slave0    0x2000443c        0x4 /home/mav/paparazzi/var/Radian/ap/arch/stm32/mcu_periph/spi_arch.o
                0x2000443c                slave0
 .bss.spi_message_received
                0x20004440        0x1 /home/mav/paparazzi/var/Radian/ap/mcu_periph/spi.o
                0x20004440                spi_message_received
 *fill*         0x20004441        0x3 00
 .bss.ground_alt
                0x20004444        0x4 /home/mav/paparazzi/var/Radian/ap/subsystems/nav.o
                0x20004444                ground_alt
 .bss.nav_survey_east
                0x20004448        0x4 /home/mav/paparazzi/var/Radian/ap/subsystems/nav.o
                0x20004448                nav_survey_east
 .bss.nav_mode  0x2000444c        0x4 /home/mav/paparazzi/var/Radian/ap/subsystems/nav.o
                0x2000444c                nav_mode
 .bss.desired_x
                0x20004450        0x4 /home/mav/paparazzi/var/Radian/ap/subsystems/nav.o
                0x20004450                desired_x
 .bss.desired_y
                0x20004454        0x4 /home/mav/paparazzi/var/Radian/ap/subsystems/nav.o
                0x20004454                desired_y
 .bss.previous_ground_alt
                0x20004458        0x4 /home/mav/paparazzi/var/Radian/ap/subsystems/nav.o
 .bss.nav_shift
                0x2000445c        0x4 /home/mav/paparazzi/var/Radian/ap/subsystems/nav.o
                0x2000445c                nav_shift
 .bss.nav_throttle_setpoint
                0x20004460        0x2 /home/mav/paparazzi/var/Radian/ap/subsystems/nav.o
                0x20004460                nav_throttle_setpoint
 *fill*         0x20004462        0x2 00
 .bss.flight_altitude
                0x20004464        0x4 /home/mav/paparazzi/var/Radian/ap/subsystems/nav.o
                0x20004464                flight_altitude
 .bss.nav_survey_active
                0x20004468        0x1 /home/mav/paparazzi/var/Radian/ap/subsystems/nav.o
                0x20004468                nav_survey_active
 *fill*         0x20004469        0x3 00
 .bss.nav_survey_west
                0x2000446c        0x4 /home/mav/paparazzi/var/Radian/ap/subsystems/nav.o
                0x2000446c                nav_survey_west
 .bss.nav_radius
                0x20004470        0x4 /home/mav/paparazzi/var/Radian/ap/subsystems/nav.o
                0x20004470                nav_radius
 .bss.nav_segment_y_1
                0x20004474        0x4 /home/mav/paparazzi/var/Radian/ap/subsystems/nav.o
                0x20004474                nav_segment_y_1
 .bss.nav_segment_y_2
                0x20004478        0x4 /home/mav/paparazzi/var/Radian/ap/subsystems/nav.o
                0x20004478                nav_segment_y_2
 .bss.nav_in_segment
                0x2000447c        0x1 /home/mav/paparazzi/var/Radian/ap/subsystems/nav.o
                0x2000447c                nav_in_segment
 *fill*         0x2000447d        0x3 00
 .bss.nav_circle_radians
                0x20004480        0x4 /home/mav/paparazzi/var/Radian/ap/subsystems/nav.o
                0x20004480                nav_circle_radians
 .bss.nav_leg_progress
                0x20004484        0x4 /home/mav/paparazzi/var/Radian/ap/subsystems/nav.o
 .bss.dist2_to_wp
                0x20004488        0x4 /home/mav/paparazzi/var/Radian/ap/subsystems/nav.o
                0x20004488                dist2_to_wp
 .bss.nav_circle_radius
                0x2000448c        0x4 /home/mav/paparazzi/var/Radian/ap/subsystems/nav.o
                0x2000448c                nav_circle_radius
 .bss.nav_in_circle
                0x20004490        0x1 /home/mav/paparazzi/var/Radian/ap/subsystems/nav.o
                0x20004490                nav_in_circle
 *fill*         0x20004491        0x3 00
 .bss.nav_course
                0x20004494        0x4 /home/mav/paparazzi/var/Radian/ap/subsystems/nav.o
                0x20004494                nav_course
 .bss.nav_survey_north
                0x20004498        0x4 /home/mav/paparazzi/var/Radian/ap/subsystems/nav.o
                0x20004498                nav_survey_north
 .bss.nav_glide_pitch_trim
                0x2000449c        0x4 /home/mav/paparazzi/var/Radian/ap/subsystems/nav.o
                0x2000449c                nav_glide_pitch_trim
 .bss.dist2_to_home
                0x200044a0        0x4 /home/mav/paparazzi/var/Radian/ap/subsystems/nav.o
                0x200044a0                dist2_to_home
 .bss.last_wp   0x200044a4        0x1 /home/mav/paparazzi/var/Radian/ap/subsystems/nav.o
 .bss.nav_oval_count
                0x200044a5        0x1 /home/mav/paparazzi/var/Radian/ap/subsystems/nav.o
                0x200044a5                nav_oval_count
 .bss.too_far_from_home
                0x200044a6        0x1 /home/mav/paparazzi/var/Radian/ap/subsystems/nav.o
                0x200044a6                too_far_from_home
 *fill*         0x200044a7        0x1 00
 .bss.circle_bank
                0x200044a8        0x4 /home/mav/paparazzi/var/Radian/ap/subsystems/nav.o
                0x200044a8                circle_bank
 .bss.nav_pitch
                0x200044ac        0x4 /home/mav/paparazzi/var/Radian/ap/subsystems/nav.o
                0x200044ac                nav_pitch
 .bss.horizontal_mode
                0x200044b0        0x1 /home/mav/paparazzi/var/Radian/ap/subsystems/nav.o
                0x200044b0                horizontal_mode
 *fill*         0x200044b1        0x3 00
 .bss.last_nav_altitude.4464
                0x200044b4        0x4 /home/mav/paparazzi/var/Radian/ap/subsystems/nav.o
 .bss.nav_circle_trigo_qdr
                0x200044b8        0x4 /home/mav/paparazzi/var/Radian/ap/subsystems/nav.o
                0x200044b8                nav_circle_trigo_qdr
 .bss.nav_survey_south
                0x200044bc        0x4 /home/mav/paparazzi/var/Radian/ap/subsystems/nav.o
                0x200044bc                nav_survey_south
 .bss.last_x    0x200044c0        0x4 /home/mav/paparazzi/var/Radian/ap/subsystems/nav.o
                0x200044c0                last_x
 .bss.nav_circle_x
                0x200044c4        0x4 /home/mav/paparazzi/var/Radian/ap/subsystems/nav.o
                0x200044c4                nav_circle_x
 .bss.nav_circle_y
                0x200044c8        0x4 /home/mav/paparazzi/var/Radian/ap/subsystems/nav.o
                0x200044c8                nav_circle_y
 .bss.nav_leg_length
                0x200044cc        0x4 /home/mav/paparazzi/var/Radian/ap/subsystems/nav.o
 .bss.nav_survey_shift
                0x200044d0        0x4 /home/mav/paparazzi/var/Radian/ap/subsystems/nav.o
                0x200044d0                nav_survey_shift
 .bss.baseleg_out_qdr
                0x200044d4        0x4 /home/mav/paparazzi/var/Radian/ap/subsystems/nav.o
 .bss.last_y    0x200044d8        0x4 /home/mav/paparazzi/var/Radian/ap/subsystems/nav.o
                0x200044d8                last_y
 .bss.prescaler.4452
                0x200044dc        0x2 /home/mav/paparazzi/var/Radian/ap/subsystems/nav.o
 *fill*         0x200044de        0x2 00
 .bss.nav_segment_x_1
                0x200044e0        0x4 /home/mav/paparazzi/var/Radian/ap/subsystems/nav.o
                0x200044e0                nav_segment_x_1
 .bss.nav_segment_x_2
                0x200044e4        0x4 /home/mav/paparazzi/var/Radian/ap/subsystems/nav.o
                0x200044e4                nav_segment_x_2
 .bss.stage_time
                0x200044e8        0x2 /home/mav/paparazzi/var/Radian/ap/subsystems/navigation/common_flight_plan.o
                0x200044e8                stage_time
 .bss.last_block
                0x200044ea        0x1 /home/mav/paparazzi/var/Radian/ap/subsystems/navigation/common_flight_plan.o
                0x200044ea                last_block
 *fill*         0x200044eb        0x1 00
 .bss.block_time
                0x200044ec        0x2 /home/mav/paparazzi/var/Radian/ap/subsystems/navigation/common_flight_plan.o
                0x200044ec                block_time
 .bss.nav_block
                0x200044ee        0x1 /home/mav/paparazzi/var/Radian/ap/subsystems/navigation/common_flight_plan.o
                0x200044ee                nav_block
 .bss.last_stage
                0x200044ef        0x1 /home/mav/paparazzi/var/Radian/ap/subsystems/navigation/common_flight_plan.o
                0x200044ef                last_stage
 .bss.nav_stage
                0x200044f0        0x1 /home/mav/paparazzi/var/Radian/ap/subsystems/navigation/common_flight_plan.o
                0x200044f0                nav_stage
 *fill*         0x200044f1        0x3 00
 .bss.the_acs   0x200044f4      0x300 /home/mav/paparazzi/var/Radian/ap/subsystems/navigation/traffic_info.o
                0x200044f4                the_acs
 .bss.acs_idx   0x200047f4        0x1 /home/mav/paparazzi/var/Radian/ap/subsystems/navigation/traffic_info.o
                0x200047f4                acs_idx
 .bss.the_acs_id
                0x200047f5      0x100 /home/mav/paparazzi/var/Radian/ap/subsystems/navigation/traffic_info.o
                0x200047f5                the_acs_id
 .bss.line_status
                0x200048f5        0x1 /home/mav/paparazzi/var/Radian/ap/subsystems/navigation/nav_line.o
 *(COMMON)
                0x200048f8                . = ALIGN (0x4)
 *fill*         0x200048f6        0x2 00
                0x200048f8                _ebss = .
                0x200048f8                PROVIDE (end, _ebss)
                0x200048f8                PROVIDE (_end, _ebss)

._usrstack      0x200048f8      0x800 load address 0x0801cc48
                0x200048f8                . = ALIGN (0x4)
                0x200048f8                _susrstack = .
                0x200050f8                . = (. + _Minimum_Stack_Size)
 *fill*         0x200048f8      0x800 00
                0x200050f8                . = ALIGN (0x4)
                0x200050f8                _eusrstack = .

.b1text
 *(.b1text)
 *(.b1rodata)
 *(.b1rodata*)
                0x200050f8                __exidx_start = .

.ARM.exidx
 *(.ARM.exidx* .gnu.linkonce.armexidx.*)
                0x200050f8                __exidx_end = .

/DISCARD/
 libc.a(*)
 libm.a(*)
 libgcc.a(*)

.stab
 *(.stab)

.stabstr
 *(.stabstr)

.stab.excl
 *(.stab.excl)

.stab.exclstr
 *(.stab.exclstr)

.stab.index
 *(.stab.index)

.stab.indexstr
 *(.stab.indexstr)

.comment        0x00000000       0x3c
 *(.comment)
 .comment       0x00000000       0x3c /home/mav/paparazzi/var/Radian/ap/mcu.o
                                 0x3d (size before relaxing)
 .comment       0x00000000       0x3d /home/mav/paparazzi/var/Radian/ap/arch/stm32/mcu_arch.o
 .comment       0x00000000       0x3d /home/mav/paparazzi/var/Radian/ap/arch/stm32/led_hw.o
 .comment       0x00000000       0x3d /home/mav/paparazzi/var/Radian/ap/mcu_periph/sys_time.o
 .comment       0x00000000       0x3d /home/mav/paparazzi/var/Radian/ap/arch/stm32/mcu_periph/sys_time_arch.o
 .comment       0x00000000       0x3d /home/mav/paparazzi/var/Radian/ap/./inter_mcu.o
 .comment       0x00000000       0x3d /home/mav/paparazzi/var/Radian/ap/math/pprz_geodetic_int.o
 .comment       0x00000000       0x3d /home/mav/paparazzi/var/Radian/ap/math/pprz_geodetic_float.o
 .comment       0x00000000       0x3d /home/mav/paparazzi/var/Radian/ap/math/pprz_geodetic_double.o
 .comment       0x00000000       0x3d /home/mav/paparazzi/var/Radian/ap/math/pprz_trig_int.o
 .comment       0x00000000       0x3d /home/mav/paparazzi/var/Radian/ap/mcu_periph/i2c.o
 .comment       0x00000000       0x3d /home/mav/paparazzi/var/Radian/ap/arch/stm32/mcu_periph/i2c_arch.o
 .comment       0x00000000       0x3d /home/mav/paparazzi/var/Radian/ap/firmwares/fixedwing/main_fbw.o
 .comment       0x00000000       0x3d /home/mav/paparazzi/var/Radian/ap/subsystems/electrical.o
 .comment       0x00000000       0x3d /home/mav/paparazzi/var/Radian/ap/./commands.o
 .comment       0x00000000       0x3d /home/mav/paparazzi/var/Radian/ap/firmwares/fixedwing/fbw_downlink.o
 .comment       0x00000000       0x3d /home/mav/paparazzi/var/Radian/ap/firmwares/fixedwing/main_ap.o
 .comment       0x00000000       0x3d /home/mav/paparazzi/var/Radian/ap/./estimator.o
 .comment       0x00000000       0x3d /home/mav/paparazzi/var/Radian/ap/firmwares/fixedwing/ap_downlink.o
 .comment       0x00000000       0x3d /home/mav/paparazzi/var/Radian/ap/arch/stm32/stm32_exceptions.o
 .comment       0x00000000       0x3d /home/mav/paparazzi/var/Radian/ap/arch/stm32/stm32_vector_table.o
 .comment       0x00000000       0x3d /home/mav/paparazzi/var/Radian/ap/lisa/plug_sys.o
 .comment       0x00000000       0x3d /home/mav/paparazzi/var/Radian/ap/firmwares/fixedwing/main.o
 .comment       0x00000000       0x3d /home/mav/paparazzi/var/Radian/ap/mcu_periph/uart.o
 .comment       0x00000000       0x3d /home/mav/paparazzi/var/Radian/ap/arch/stm32/mcu_periph/uart_arch.o
 .comment       0x00000000       0x3d /home/mav/paparazzi/var/Radian/ap/subsystems/settings.o
 .comment       0x00000000       0x3d /home/mav/paparazzi/var/Radian/ap/arch/stm32/subsystems/settings_arch.o
 .comment       0x00000000       0x3d /home/mav/paparazzi/var/Radian/ap/arch/stm32/mcu_periph/adc_arch.o
 .comment       0x00000000       0x3d /home/mav/paparazzi/var/Radian/ap/arch/stm32/servos_direct_hw.o
 .comment       0x00000000       0x3d /home/mav/paparazzi/var/Radian/ap/actuators.o
 .comment       0x00000000       0x3d /home/mav/paparazzi/var/Radian/ap/firmwares/rotorcraft/actuators/arch/stm32/actuators_pwm_arch.o
 .comment       0x00000000       0x3d /home/mav/paparazzi/var/Radian/ap/subsystems/radio_control.o
 .comment       0x00000000       0x3d /home/mav/paparazzi/var/Radian/ap/subsystems/radio_control/spektrum.o
 .comment       0x00000000       0x3d /home/mav/paparazzi/var/Radian/ap/arch/stm32/subsystems/radio_control/spektrum_arch.o
 .comment       0x00000000       0x3d /home/mav/paparazzi/var/Radian/ap/subsystems/datalink/downlink.o
 .comment       0x00000000       0x3d /home/mav/paparazzi/var/Radian/ap/subsystems/datalink/pprz_transport.o
 .comment       0x00000000       0x3d /home/mav/paparazzi/var/Radian/ap/firmwares/fixedwing/datalink.o
 .comment       0x00000000       0x3d /home/mav/paparazzi/var/Radian/ap/firmwares/fixedwing/stabilization/stabilization_attitude.o
 .comment       0x00000000       0x3d /home/mav/paparazzi/var/Radian/ap/firmwares/fixedwing/guidance/guidance_v.o
 .comment       0x00000000       0x3d /home/mav/paparazzi/var/Radian/ap/subsystems/ahrs.o
 .comment       0x00000000       0x3d /home/mav/paparazzi/var/Radian/ap/subsystems/ahrs/ahrs_int_cmpl_quat.o
 .comment       0x00000000       0x3d /home/mav/paparazzi/var/Radian/ap/subsystems/ahrs/ahrs_aligner.o
 .comment       0x00000000       0x3d /home/mav/paparazzi/var/Radian/ap/subsystems/gps/gps_ubx.o
 .comment       0x00000000       0x3d /home/mav/paparazzi/var/Radian/ap/subsystems/gps.o
 .comment       0x00000000       0x3d /home/mav/paparazzi/var/Radian/ap/subsystems/imu.o
 .comment       0x00000000       0x3d /home/mav/paparazzi/var/Radian/ap/subsystems/imu/imu_aspirin2.o
 .comment       0x00000000       0x3d /home/mav/paparazzi/var/Radian/ap/arch/stm32/subsystems/imu/imu_aspirin2_arch.o
 .comment       0x00000000       0x3d /home/mav/paparazzi/var/Radian/ap/arch/stm32/mcu_periph/spi_arch.o
 .comment       0x00000000       0x3d /home/mav/paparazzi/var/Radian/ap/mcu_periph/spi.o
 .comment       0x00000000       0x3d /home/mav/paparazzi/var/Radian/ap/subsystems/nav.o
 .comment       0x00000000       0x3d /home/mav/paparazzi/var/Radian/ap/subsystems/navigation/common_flight_plan.o
 .comment       0x00000000       0x3d /home/mav/paparazzi/var/Radian/ap/subsystems/navigation/traffic_info.o
 .comment       0x00000000       0x3d /home/mav/paparazzi/var/Radian/ap/subsystems/navigation/nav_survey_rectangle.o
 .comment       0x00000000       0x3d /home/mav/paparazzi/var/Radian/ap/subsystems/navigation/nav_line.o
 .comment       0x00000000       0x3d /opt/paparazzi/arm-multilib/lib/gcc/arm-none-eabi/4.6.2/../../../../arm-none-eabi/lib/thumb2/libc.a(lib_a-ldiv.o)
 .comment       0x00000000       0x3d /opt/paparazzi/arm-multilib/lib/gcc/arm-none-eabi/4.6.2/../../../../arm-none-eabi/lib/thumb2/libc.a(lib_a-memcpy.o)
 .comment       0x00000000       0x3d /opt/paparazzi/arm-multilib/lib/gcc/arm-none-eabi/4.6.2/../../../../arm-none-eabi/lib/thumb2/libm.a(lib_a-s_atan.o)
 .comment       0x00000000       0x3d /opt/paparazzi/arm-multilib/lib/gcc/arm-none-eabi/4.6.2/../../../../arm-none-eabi/lib/thumb2/libm.a(lib_a-s_cos.o)
 .comment       0x00000000       0x3d /opt/paparazzi/arm-multilib/lib/gcc/arm-none-eabi/4.6.2/../../../../arm-none-eabi/lib/thumb2/libm.a(lib_a-s_fabs.o)
 .comment       0x00000000       0x3d /opt/paparazzi/arm-multilib/lib/gcc/arm-none-eabi/4.6.2/../../../../arm-none-eabi/lib/thumb2/libm.a(lib_a-s_rint.o)
 .comment       0x00000000       0x3d /opt/paparazzi/arm-multilib/lib/gcc/arm-none-eabi/4.6.2/../../../../arm-none-eabi/lib/thumb2/libm.a(lib_a-s_sin.o)
 .comment       0x00000000       0x3d /opt/paparazzi/arm-multilib/lib/gcc/arm-none-eabi/4.6.2/../../../../arm-none-eabi/lib/thumb2/libm.a(lib_a-s_tan.o)
 .comment       0x00000000       0x3d /opt/paparazzi/arm-multilib/lib/gcc/arm-none-eabi/4.6.2/../../../../arm-none-eabi/lib/thumb2/libm.a(lib_a-sf_atan.o)
 .comment       0x00000000       0x3d /opt/paparazzi/arm-multilib/lib/gcc/arm-none-eabi/4.6.2/../../../../arm-none-eabi/lib/thumb2/libm.a(lib_a-sf_cos.o)
 .comment       0x00000000       0x3d /opt/paparazzi/arm-multilib/lib/gcc/arm-none-eabi/4.6.2/../../../../arm-none-eabi/lib/thumb2/libm.a(lib_a-sf_fabs.o)
 .comment       0x00000000       0x3d /opt/paparazzi/arm-multilib/lib/gcc/arm-none-eabi/4.6.2/../../../../arm-none-eabi/lib/thumb2/libm.a(lib_a-sf_sin.o)
 .comment       0x00000000       0x3d /opt/paparazzi/arm-multilib/lib/gcc/arm-none-eabi/4.6.2/../../../../arm-none-eabi/lib/thumb2/libm.a(lib_a-w_asin.o)
 .comment       0x00000000       0x3d /opt/paparazzi/arm-multilib/lib/gcc/arm-none-eabi/4.6.2/../../../../arm-none-eabi/lib/thumb2/libm.a(lib_a-w_atan2.o)
 .comment       0x00000000       0x3d /opt/paparazzi/arm-multilib/lib/gcc/arm-none-eabi/4.6.2/../../../../arm-none-eabi/lib/thumb2/libm.a(lib_a-w_cosh.o)
 .comment       0x00000000       0x3d /opt/paparazzi/arm-multilib/lib/gcc/arm-none-eabi/4.6.2/../../../../arm-none-eabi/lib/thumb2/libm.a(lib_a-w_exp.o)
 .comment       0x00000000       0x3d /opt/paparazzi/arm-multilib/lib/gcc/arm-none-eabi/4.6.2/../../../../arm-none-eabi/lib/thumb2/libm.a(lib_a-w_log.o)
 .comment       0x00000000       0x3d /opt/paparazzi/arm-multilib/lib/gcc/arm-none-eabi/4.6.2/../../../../arm-none-eabi/lib/thumb2/libm.a(lib_a-w_pow.o)
 .comment       0x00000000       0x3d /opt/paparazzi/arm-multilib/lib/gcc/arm-none-eabi/4.6.2/../../../../arm-none-eabi/lib/thumb2/libm.a(lib_a-w_sinh.o)
 .comment       0x00000000       0x3d /opt/paparazzi/arm-multilib/lib/gcc/arm-none-eabi/4.6.2/../../../../arm-none-eabi/lib/thumb2/libm.a(lib_a-w_sqrt.o)
 .comment       0x00000000       0x3d /opt/paparazzi/arm-multilib/lib/gcc/arm-none-eabi/4.6.2/../../../../arm-none-eabi/lib/thumb2/libm.a(lib_a-wf_asin.o)
 .comment       0x00000000       0x3d /opt/paparazzi/arm-multilib/lib/gcc/arm-none-eabi/4.6.2/../../../../arm-none-eabi/lib/thumb2/libm.a(lib_a-wf_atan2.o)
 .comment       0x00000000       0x3d /opt/paparazzi/arm-multilib/lib/gcc/arm-none-eabi/4.6.2/../../../../arm-none-eabi/lib/thumb2/libm.a(lib_a-wf_pow.o)
 .comment       0x00000000       0x3d /opt/paparazzi/arm-multilib/lib/gcc/arm-none-eabi/4.6.2/../../../../arm-none-eabi/lib/thumb2/libm.a(lib_a-wf_sqrt.o)
 .comment       0x00000000       0x3d /opt/paparazzi/arm-multilib/lib/gcc/arm-none-eabi/4.6.2/../../../../arm-none-eabi/lib/thumb2/libm.a(lib_a-e_asin.o)
 .comment       0x00000000       0x3d /opt/paparazzi/arm-multilib/lib/gcc/arm-none-eabi/4.6.2/../../../../arm-none-eabi/lib/thumb2/libm.a(lib_a-e_atan2.o)
 .comment       0x00000000       0x3d /opt/paparazzi/arm-multilib/lib/gcc/arm-none-eabi/4.6.2/../../../../arm-none-eabi/lib/thumb2/libm.a(lib_a-e_cosh.o)
 .comment       0x00000000       0x3d /opt/paparazzi/arm-multilib/lib/gcc/arm-none-eabi/4.6.2/../../../../arm-none-eabi/lib/thumb2/libm.a(lib_a-e_exp.o)
 .comment       0x00000000       0x3d /opt/paparazzi/arm-multilib/lib/gcc/arm-none-eabi/4.6.2/../../../../arm-none-eabi/lib/thumb2/libm.a(lib_a-e_log.o)
 .comment       0x00000000       0x3d /opt/paparazzi/arm-multilib/lib/gcc/arm-none-eabi/4.6.2/../../../../arm-none-eabi/lib/thumb2/libm.a(lib_a-e_pow.o)
 .comment       0x00000000       0x3d /opt/paparazzi/arm-multilib/lib/gcc/arm-none-eabi/4.6.2/../../../../arm-none-eabi/lib/thumb2/libm.a(lib_a-e_rem_pio2.o)
 .comment       0x00000000       0x3d /opt/paparazzi/arm-multilib/lib/gcc/arm-none-eabi/4.6.2/../../../../arm-none-eabi/lib/thumb2/libm.a(lib_a-e_sinh.o)
 .comment       0x00000000       0x3d /opt/paparazzi/arm-multilib/lib/gcc/arm-none-eabi/4.6.2/../../../../arm-none-eabi/lib/thumb2/libm.a(lib_a-e_sqrt.o)
 .comment       0x00000000       0x3d /opt/paparazzi/arm-multilib/lib/gcc/arm-none-eabi/4.6.2/../../../../arm-none-eabi/lib/thumb2/libm.a(lib_a-ef_asin.o)
 .comment       0x00000000       0x3d /opt/paparazzi/arm-multilib/lib/gcc/arm-none-eabi/4.6.2/../../../../arm-none-eabi/lib/thumb2/libm.a(lib_a-ef_atan2.o)
 .comment       0x00000000       0x3d /opt/paparazzi/arm-multilib/lib/gcc/arm-none-eabi/4.6.2/../../../../arm-none-eabi/lib/thumb2/libm.a(lib_a-ef_pow.o)
 .comment       0x00000000       0x3d /opt/paparazzi/arm-multilib/lib/gcc/arm-none-eabi/4.6.2/../../../../arm-none-eabi/lib/thumb2/libm.a(lib_a-ef_rem_pio2.o)
 .comment       0x00000000       0x3d /opt/paparazzi/arm-multilib/lib/gcc/arm-none-eabi/4.6.2/../../../../arm-none-eabi/lib/thumb2/libm.a(lib_a-ef_sqrt.o)
 .comment       0x00000000       0x3d /opt/paparazzi/arm-multilib/lib/gcc/arm-none-eabi/4.6.2/../../../../arm-none-eabi/lib/thumb2/libm.a(lib_a-k_cos.o)
 .comment       0x00000000       0x3d /opt/paparazzi/arm-multilib/lib/gcc/arm-none-eabi/4.6.2/../../../../arm-none-eabi/lib/thumb2/libm.a(lib_a-k_rem_pio2.o)
 .comment       0x00000000       0x3d /opt/paparazzi/arm-multilib/lib/gcc/arm-none-eabi/4.6.2/../../../../arm-none-eabi/lib/thumb2/libm.a(lib_a-k_sin.o)
 .comment       0x00000000       0x3d /opt/paparazzi/arm-multilib/lib/gcc/arm-none-eabi/4.6.2/../../../../arm-none-eabi/lib/thumb2/libm.a(lib_a-k_tan.o)
 .comment       0x00000000       0x3d /opt/paparazzi/arm-multilib/lib/gcc/arm-none-eabi/4.6.2/../../../../arm-none-eabi/lib/thumb2/libm.a(lib_a-kf_cos.o)
 .comment       0x00000000       0x3d /opt/paparazzi/arm-multilib/lib/gcc/arm-none-eabi/4.6.2/../../../../arm-none-eabi/lib/thumb2/libm.a(lib_a-kf_rem_pio2.o)
 .comment       0x00000000       0x3d /opt/paparazzi/arm-multilib/lib/gcc/arm-none-eabi/4.6.2/../../../../arm-none-eabi/lib/thumb2/libm.a(lib_a-kf_sin.o)
 .comment       0x00000000       0x3d /opt/paparazzi/arm-multilib/lib/gcc/arm-none-eabi/4.6.2/../../../../arm-none-eabi/lib/thumb2/libm.a(lib_a-s_expm1.o)
 .comment       0x00000000       0x3d /opt/paparazzi/arm-multilib/lib/gcc/arm-none-eabi/4.6.2/../../../../arm-none-eabi/lib/thumb2/libm.a(lib_a-s_finite.o)
 .comment       0x00000000       0x3d /opt/paparazzi/arm-multilib/lib/gcc/arm-none-eabi/4.6.2/../../../../arm-none-eabi/lib/thumb2/libm.a(lib_a-s_floor.o)
 .comment       0x00000000       0x3d /opt/paparazzi/arm-multilib/lib/gcc/arm-none-eabi/4.6.2/../../../../arm-none-eabi/lib/thumb2/libm.a(lib_a-s_fpclassify.o)
 .comment       0x00000000       0x3d /opt/paparazzi/arm-multilib/lib/gcc/arm-none-eabi/4.6.2/../../../../arm-none-eabi/lib/thumb2/libm.a(lib_a-s_lib_ver.o)
 .comment       0x00000000       0x3d /opt/paparazzi/arm-multilib/lib/gcc/arm-none-eabi/4.6.2/../../../../arm-none-eabi/lib/thumb2/libm.a(lib_a-s_matherr.o)
 .comment       0x00000000       0x3d /opt/paparazzi/arm-multilib/lib/gcc/arm-none-eabi/4.6.2/../../../../arm-none-eabi/lib/thumb2/libm.a(lib_a-s_nan.o)
 .comment       0x00000000       0x3d /opt/paparazzi/arm-multilib/lib/gcc/arm-none-eabi/4.6.2/../../../../arm-none-eabi/lib/thumb2/libm.a(lib_a-s_scalbn.o)
 .comment       0x00000000       0x3d /opt/paparazzi/arm-multilib/lib/gcc/arm-none-eabi/4.6.2/../../../../arm-none-eabi/lib/thumb2/libm.a(lib_a-sf_finite.o)
 .comment       0x00000000       0x3d /opt/paparazzi/arm-multilib/lib/gcc/arm-none-eabi/4.6.2/../../../../arm-none-eabi/lib/thumb2/libm.a(lib_a-sf_floor.o)
 .comment       0x00000000       0x3d /opt/paparazzi/arm-multilib/lib/gcc/arm-none-eabi/4.6.2/../../../../arm-none-eabi/lib/thumb2/libm.a(lib_a-sf_fpclassify.o)
 .comment       0x00000000       0x3d /opt/paparazzi/arm-multilib/lib/gcc/arm-none-eabi/4.6.2/../../../../arm-none-eabi/lib/thumb2/libm.a(lib_a-sf_nan.o)
 .comment       0x00000000       0x3d /opt/paparazzi/arm-multilib/lib/gcc/arm-none-eabi/4.6.2/../../../../arm-none-eabi/lib/thumb2/libm.a(lib_a-sf_scalbn.o)
 .comment       0x00000000       0x3d /opt/paparazzi/arm-multilib/lib/gcc/arm-none-eabi/4.6.2/../../../../arm-none-eabi/lib/thumb2/libm.a(lib_a-s_copysign.o)
 .comment       0x00000000       0x3d /opt/paparazzi/arm-multilib/lib/gcc/arm-none-eabi/4.6.2/../../../../arm-none-eabi/lib/thumb2/libm.a(lib_a-sf_copysign.o)
 .comment       0x00000000       0x3d /opt/paparazzi/arm-multilib/lib/gcc/arm-none-eabi/4.6.2/../../../../arm-none-eabi/lib/libstm32.a(stm32_adc.o)
 .comment       0x00000000       0x3d /opt/paparazzi/arm-multilib/lib/gcc/arm-none-eabi/4.6.2/../../../../arm-none-eabi/lib/libstm32.a(stm32_tim.o)
 .comment       0x00000000       0x3d /opt/paparazzi/arm-multilib/lib/gcc/arm-none-eabi/4.6.2/../../../../arm-none-eabi/lib/libstm32.a(stm32_dma.o)
 .comment       0x00000000       0x3d /opt/paparazzi/arm-multilib/lib/gcc/arm-none-eabi/4.6.2/../../../../arm-none-eabi/lib/libstm32.a(stm32_gpio.o)
 .comment       0x00000000       0x3d /opt/paparazzi/arm-multilib/lib/gcc/arm-none-eabi/4.6.2/../../../../arm-none-eabi/lib/libstm32.a(stm32_usart.o)
 .comment       0x00000000       0x3d /opt/paparazzi/arm-multilib/lib/gcc/arm-none-eabi/4.6.2/../../../../arm-none-eabi/lib/libstm32.a(stm32_exti.o)
 .comment       0x00000000       0x3d /opt/paparazzi/arm-multilib/lib/gcc/arm-none-eabi/4.6.2/../../../../arm-none-eabi/lib/libstm32.a(stm32_i2c.o)
 .comment       0x00000000       0x3d /opt/paparazzi/arm-multilib/lib/gcc/arm-none-eabi/4.6.2/../../../../arm-none-eabi/lib/libstm32.a(stm32_spi.o)
 .comment       0x00000000       0x3d /opt/paparazzi/arm-multilib/lib/gcc/arm-none-eabi/4.6.2/../../../../arm-none-eabi/lib/libstm32.a(stm32_rcc.o)
 .comment       0x00000000       0x3d /opt/paparazzi/arm-multilib/lib/gcc/arm-none-eabi/4.6.2/../../../../arm-none-eabi/lib/libstm32.a(stm32_misc.o)
 .comment       0x00000000       0x3d /opt/paparazzi/arm-multilib/lib/gcc/arm-none-eabi/4.6.2/../../../../arm-none-eabi/lib/libopencm3_stm32.a(rcc.o)
 .comment       0x00000000       0x3d /opt/paparazzi/arm-multilib/lib/gcc/arm-none-eabi/4.6.2/../../../../arm-none-eabi/lib/libopencm3_stm32.a(usart.o)
 .comment       0x00000000       0x3d /opt/paparazzi/arm-multilib/lib/gcc/arm-none-eabi/4.6.2/../../../../arm-none-eabi/lib/libopencm3_stm32.a(flash.o)
 .comment       0x00000000       0x3d /opt/paparazzi/arm-multilib/lib/gcc/arm-none-eabi/4.6.2/../../../../arm-none-eabi/lib/thumb2/libc.a(lib_a-errno.o)
 .comment       0x00000000       0x3d /opt/paparazzi/arm-multilib/lib/gcc/arm-none-eabi/4.6.2/../../../../arm-none-eabi/lib/thumb2/libc.a(lib_a-impure.o)

.ARM.attributes
                0x00000000       0x31
 .ARM.attributes
                0x00000000       0x31 /home/mav/paparazzi/var/Radian/ap/mcu.o
 .ARM.attributes
                0x00000031       0x31 /home/mav/paparazzi/var/Radian/ap/arch/stm32/mcu_arch.o
 .ARM.attributes
                0x00000062       0x31 /home/mav/paparazzi/var/Radian/ap/arch/stm32/led_hw.o
 .ARM.attributes
                0x00000093       0x31 /home/mav/paparazzi/var/Radian/ap/mcu_periph/sys_time.o
 .ARM.attributes
                0x000000c4       0x31 /home/mav/paparazzi/var/Radian/ap/arch/stm32/mcu_periph/sys_time_arch.o
 .ARM.attributes
                0x000000f5       0x31 /home/mav/paparazzi/var/Radian/ap/./inter_mcu.o
 .ARM.attributes
                0x00000126       0x31 /home/mav/paparazzi/var/Radian/ap/math/pprz_geodetic_int.o
 .ARM.attributes
                0x00000157       0x31 /home/mav/paparazzi/var/Radian/ap/math/pprz_geodetic_float.o
 .ARM.attributes
                0x00000188       0x31 /home/mav/paparazzi/var/Radian/ap/math/pprz_geodetic_double.o
 .ARM.attributes
                0x000001b9       0x31 /home/mav/paparazzi/var/Radian/ap/math/pprz_trig_int.o
 .ARM.attributes
                0x000001ea       0x31 /home/mav/paparazzi/var/Radian/ap/mcu_periph/i2c.o
 .ARM.attributes
                0x0000021b       0x31 /home/mav/paparazzi/var/Radian/ap/arch/stm32/mcu_periph/i2c_arch.o
 .ARM.attributes
                0x0000024c       0x31 /home/mav/paparazzi/var/Radian/ap/firmwares/fixedwing/main_fbw.o
 .ARM.attributes
                0x0000027d       0x31 /home/mav/paparazzi/var/Radian/ap/subsystems/electrical.o
 .ARM.attributes
                0x000002ae       0x31 /home/mav/paparazzi/var/Radian/ap/./commands.o
 .ARM.attributes
                0x000002df       0x31 /home/mav/paparazzi/var/Radian/ap/firmwares/fixedwing/fbw_downlink.o
 .ARM.attributes
                0x00000310       0x31 /home/mav/paparazzi/var/Radian/ap/firmwares/fixedwing/main_ap.o
 .ARM.attributes
                0x00000341       0x31 /home/mav/paparazzi/var/Radian/ap/./estimator.o
 .ARM.attributes
                0x00000372       0x31 /home/mav/paparazzi/var/Radian/ap/firmwares/fixedwing/ap_downlink.o
 .ARM.attributes
                0x000003a3       0x31 /home/mav/paparazzi/var/Radian/ap/arch/stm32/stm32_exceptions.o
 .ARM.attributes
                0x000003d4       0x31 /home/mav/paparazzi/var/Radian/ap/arch/stm32/stm32_vector_table.o
 .ARM.attributes
                0x00000405       0x31 /home/mav/paparazzi/var/Radian/ap/lisa/plug_sys.o
 .ARM.attributes
                0x00000436       0x31 /home/mav/paparazzi/var/Radian/ap/firmwares/fixedwing/main.o
 .ARM.attributes
                0x00000467       0x31 /home/mav/paparazzi/var/Radian/ap/mcu_periph/uart.o
 .ARM.attributes
                0x00000498       0x31 /home/mav/paparazzi/var/Radian/ap/arch/stm32/mcu_periph/uart_arch.o
 .ARM.attributes
                0x000004c9       0x31 /home/mav/paparazzi/var/Radian/ap/subsystems/settings.o
 .ARM.attributes
                0x000004fa       0x31 /home/mav/paparazzi/var/Radian/ap/arch/stm32/subsystems/settings_arch.o
 .ARM.attributes
                0x0000052b       0x31 /home/mav/paparazzi/var/Radian/ap/arch/stm32/mcu_periph/adc_arch.o
 .ARM.attributes
                0x0000055c       0x31 /home/mav/paparazzi/var/Radian/ap/arch/stm32/servos_direct_hw.o
 .ARM.attributes
                0x0000058d       0x31 /home/mav/paparazzi/var/Radian/ap/actuators.o
 .ARM.attributes
                0x000005be       0x31 /home/mav/paparazzi/var/Radian/ap/firmwares/rotorcraft/actuators/arch/stm32/actuators_pwm_arch.o
 .ARM.attributes
                0x000005ef       0x31 /home/mav/paparazzi/var/Radian/ap/subsystems/radio_control.o
 .ARM.attributes
                0x00000620       0x31 /home/mav/paparazzi/var/Radian/ap/subsystems/radio_control/spektrum.o
 .ARM.attributes
                0x00000651       0x31 /home/mav/paparazzi/var/Radian/ap/arch/stm32/subsystems/radio_control/spektrum_arch.o
 .ARM.attributes
                0x00000682       0x31 /home/mav/paparazzi/var/Radian/ap/subsystems/datalink/downlink.o
 .ARM.attributes
                0x000006b3       0x31 /home/mav/paparazzi/var/Radian/ap/subsystems/datalink/pprz_transport.o
 .ARM.attributes
                0x000006e4       0x31 /home/mav/paparazzi/var/Radian/ap/firmwares/fixedwing/datalink.o
 .ARM.attributes
                0x00000715       0x31 /home/mav/paparazzi/var/Radian/ap/firmwares/fixedwing/stabilization/stabilization_attitude.o
 .ARM.attributes
                0x00000746       0x31 /home/mav/paparazzi/var/Radian/ap/firmwares/fixedwing/guidance/guidance_v.o
 .ARM.attributes
                0x00000777       0x31 /home/mav/paparazzi/var/Radian/ap/subsystems/ahrs.o
 .ARM.attributes
                0x000007a8       0x31 /home/mav/paparazzi/var/Radian/ap/subsystems/ahrs/ahrs_int_cmpl_quat.o
 .ARM.attributes
                0x000007d9       0x31 /home/mav/paparazzi/var/Radian/ap/subsystems/ahrs/ahrs_aligner.o
 .ARM.attributes
                0x0000080a       0x31 /home/mav/paparazzi/var/Radian/ap/subsystems/gps/gps_ubx.o
 .ARM.attributes
                0x0000083b       0x31 /home/mav/paparazzi/var/Radian/ap/subsystems/gps.o
 .ARM.attributes
                0x0000086c       0x31 /home/mav/paparazzi/var/Radian/ap/subsystems/imu.o
 .ARM.attributes
                0x0000089d       0x31 /home/mav/paparazzi/var/Radian/ap/subsystems/imu/imu_aspirin2.o
 .ARM.attributes
                0x000008ce       0x31 /home/mav/paparazzi/var/Radian/ap/arch/stm32/subsystems/imu/imu_aspirin2_arch.o
 .ARM.attributes
                0x000008ff       0x31 /home/mav/paparazzi/var/Radian/ap/arch/stm32/mcu_periph/spi_arch.o
 .ARM.attributes
                0x00000930       0x31 /home/mav/paparazzi/var/Radian/ap/mcu_periph/spi.o
 .ARM.attributes
                0x00000961       0x31 /home/mav/paparazzi/var/Radian/ap/subsystems/nav.o
 .ARM.attributes
                0x00000992       0x31 /home/mav/paparazzi/var/Radian/ap/subsystems/navigation/common_flight_plan.o
 .ARM.attributes
                0x000009c3       0x31 /home/mav/paparazzi/var/Radian/ap/subsystems/navigation/traffic_info.o
 .ARM.attributes
                0x000009f4       0x31 /home/mav/paparazzi/var/Radian/ap/subsystems/navigation/nav_survey_rectangle.o
 .ARM.attributes
                0x00000a25       0x31 /home/mav/paparazzi/var/Radian/ap/subsystems/navigation/nav_line.o
 .ARM.attributes
                0x00000a56       0x2b /opt/paparazzi/arm-multilib/lib/gcc/arm-none-eabi/4.6.2/../../../../arm-none-eabi/lib/thumb2/libc.a(lib_a-ldiv.o)
 .ARM.attributes
                0x00000a81       0x2b /opt/paparazzi/arm-multilib/lib/gcc/arm-none-eabi/4.6.2/../../../../arm-none-eabi/lib/thumb2/libc.a(lib_a-memcpy.o)
 .ARM.attributes
                0x00000aac       0x2b /opt/paparazzi/arm-multilib/lib/gcc/arm-none-eabi/4.6.2/../../../../arm-none-eabi/lib/thumb2/libm.a(lib_a-s_atan.o)
 .ARM.attributes
                0x00000ad7       0x2b /opt/paparazzi/arm-multilib/lib/gcc/arm-none-eabi/4.6.2/../../../../arm-none-eabi/lib/thumb2/libm.a(lib_a-s_cos.o)
 .ARM.attributes
                0x00000b02       0x2b /opt/paparazzi/arm-multilib/lib/gcc/arm-none-eabi/4.6.2/../../../../arm-none-eabi/lib/thumb2/libm.a(lib_a-s_fabs.o)
 .ARM.attributes
                0x00000b2d       0x2b /opt/paparazzi/arm-multilib/lib/gcc/arm-none-eabi/4.6.2/../../../../arm-none-eabi/lib/thumb2/libm.a(lib_a-s_rint.o)
 .ARM.attributes
                0x00000b58       0x2b /opt/paparazzi/arm-multilib/lib/gcc/arm-none-eabi/4.6.2/../../../../arm-none-eabi/lib/thumb2/libm.a(lib_a-s_sin.o)
 .ARM.attributes
                0x00000b83       0x2b /opt/paparazzi/arm-multilib/lib/gcc/arm-none-eabi/4.6.2/../../../../arm-none-eabi/lib/thumb2/libm.a(lib_a-s_tan.o)
 .ARM.attributes
                0x00000bae       0x2b /opt/paparazzi/arm-multilib/lib/gcc/arm-none-eabi/4.6.2/../../../../arm-none-eabi/lib/thumb2/libm.a(lib_a-sf_atan.o)
 .ARM.attributes
                0x00000bd9       0x2b /opt/paparazzi/arm-multilib/lib/gcc/arm-none-eabi/4.6.2/../../../../arm-none-eabi/lib/thumb2/libm.a(lib_a-sf_cos.o)
 .ARM.attributes
                0x00000c04       0x2b /opt/paparazzi/arm-multilib/lib/gcc/arm-none-eabi/4.6.2/../../../../arm-none-eabi/lib/thumb2/libm.a(lib_a-sf_fabs.o)
 .ARM.attributes
                0x00000c2f       0x2b /opt/paparazzi/arm-multilib/lib/gcc/arm-none-eabi/4.6.2/../../../../arm-none-eabi/lib/thumb2/libm.a(lib_a-sf_sin.o)
 .ARM.attributes
                0x00000c5a       0x2b /opt/paparazzi/arm-multilib/lib/gcc/arm-none-eabi/4.6.2/../../../../arm-none-eabi/lib/thumb2/libm.a(lib_a-w_asin.o)
 .ARM.attributes
                0x00000c85       0x2b /opt/paparazzi/arm-multilib/lib/gcc/arm-none-eabi/4.6.2/../../../../arm-none-eabi/lib/thumb2/libm.a(lib_a-w_atan2.o)
 .ARM.attributes
                0x00000cb0       0x2b /opt/paparazzi/arm-multilib/lib/gcc/arm-none-eabi/4.6.2/../../../../arm-none-eabi/lib/thumb2/libm.a(lib_a-w_cosh.o)
 .ARM.attributes
                0x00000cdb       0x2b /opt/paparazzi/arm-multilib/lib/gcc/arm-none-eabi/4.6.2/../../../../arm-none-eabi/lib/thumb2/libm.a(lib_a-w_exp.o)
 .ARM.attributes
                0x00000d06       0x2b /opt/paparazzi/arm-multilib/lib/gcc/arm-none-eabi/4.6.2/../../../../arm-none-eabi/lib/thumb2/libm.a(lib_a-w_log.o)
 .ARM.attributes
                0x00000d31       0x2b /opt/paparazzi/arm-multilib/lib/gcc/arm-none-eabi/4.6.2/../../../../arm-none-eabi/lib/thumb2/libm.a(lib_a-w_pow.o)
 .ARM.attributes
                0x00000d5c       0x2b /opt/paparazzi/arm-multilib/lib/gcc/arm-none-eabi/4.6.2/../../../../arm-none-eabi/lib/thumb2/libm.a(lib_a-w_sinh.o)
 .ARM.attributes
                0x00000d87       0x2b /opt/paparazzi/arm-multilib/lib/gcc/arm-none-eabi/4.6.2/../../../../arm-none-eabi/lib/thumb2/libm.a(lib_a-w_sqrt.o)
 .ARM.attributes
                0x00000db2       0x2b /opt/paparazzi/arm-multilib/lib/gcc/arm-none-eabi/4.6.2/../../../../arm-none-eabi/lib/thumb2/libm.a(lib_a-wf_asin.o)
 .ARM.attributes
                0x00000ddd       0x2b /opt/paparazzi/arm-multilib/lib/gcc/arm-none-eabi/4.6.2/../../../../arm-none-eabi/lib/thumb2/libm.a(lib_a-wf_atan2.o)
 .ARM.attributes
                0x00000e08       0x2b /opt/paparazzi/arm-multilib/lib/gcc/arm-none-eabi/4.6.2/../../../../arm-none-eabi/lib/thumb2/libm.a(lib_a-wf_pow.o)
 .ARM.attributes
                0x00000e33       0x2b /opt/paparazzi/arm-multilib/lib/gcc/arm-none-eabi/4.6.2/../../../../arm-none-eabi/lib/thumb2/libm.a(lib_a-wf_sqrt.o)
 .ARM.attributes
                0x00000e5e       0x2b /opt/paparazzi/arm-multilib/lib/gcc/arm-none-eabi/4.6.2/../../../../arm-none-eabi/lib/thumb2/libm.a(lib_a-e_asin.o)
 .ARM.attributes
                0x00000e89       0x2b /opt/paparazzi/arm-multilib/lib/gcc/arm-none-eabi/4.6.2/../../../../arm-none-eabi/lib/thumb2/libm.a(lib_a-e_atan2.o)
 .ARM.attributes
                0x00000eb4       0x2b /opt/paparazzi/arm-multilib/lib/gcc/arm-none-eabi/4.6.2/../../../../arm-none-eabi/lib/thumb2/libm.a(lib_a-e_cosh.o)
 .ARM.attributes
                0x00000edf       0x2b /opt/paparazzi/arm-multilib/lib/gcc/arm-none-eabi/4.6.2/../../../../arm-none-eabi/lib/thumb2/libm.a(lib_a-e_exp.o)
 .ARM.attributes
                0x00000f0a       0x2b /opt/paparazzi/arm-multilib/lib/gcc/arm-none-eabi/4.6.2/../../../../arm-none-eabi/lib/thumb2/libm.a(lib_a-e_log.o)
 .ARM.attributes
                0x00000f35       0x2b /opt/paparazzi/arm-multilib/lib/gcc/arm-none-eabi/4.6.2/../../../../arm-none-eabi/lib/thumb2/libm.a(lib_a-e_pow.o)
 .ARM.attributes
                0x00000f60       0x2b /opt/paparazzi/arm-multilib/lib/gcc/arm-none-eabi/4.6.2/../../../../arm-none-eabi/lib/thumb2/libm.a(lib_a-e_rem_pio2.o)
 .ARM.attributes
                0x00000f8b       0x2b /opt/paparazzi/arm-multilib/lib/gcc/arm-none-eabi/4.6.2/../../../../arm-none-eabi/lib/thumb2/libm.a(lib_a-e_sinh.o)
 .ARM.attributes
                0x00000fb6       0x2b /opt/paparazzi/arm-multilib/lib/gcc/arm-none-eabi/4.6.2/../../../../arm-none-eabi/lib/thumb2/libm.a(lib_a-e_sqrt.o)
 .ARM.attributes
                0x00000fe1       0x2b /opt/paparazzi/arm-multilib/lib/gcc/arm-none-eabi/4.6.2/../../../../arm-none-eabi/lib/thumb2/libm.a(lib_a-ef_asin.o)
 .ARM.attributes
                0x0000100c       0x2b /opt/paparazzi/arm-multilib/lib/gcc/arm-none-eabi/4.6.2/../../../../arm-none-eabi/lib/thumb2/libm.a(lib_a-ef_atan2.o)
 .ARM.attributes
                0x00001037       0x2b /opt/paparazzi/arm-multilib/lib/gcc/arm-none-eabi/4.6.2/../../../../arm-none-eabi/lib/thumb2/libm.a(lib_a-ef_pow.o)
 .ARM.attributes
                0x00001062       0x2b /opt/paparazzi/arm-multilib/lib/gcc/arm-none-eabi/4.6.2/../../../../arm-none-eabi/lib/thumb2/libm.a(lib_a-ef_rem_pio2.o)
 .ARM.attributes
                0x0000108d       0x2b /opt/paparazzi/arm-multilib/lib/gcc/arm-none-eabi/4.6.2/../../../../arm-none-eabi/lib/thumb2/libm.a(lib_a-ef_sqrt.o)
 .ARM.attributes
                0x000010b8       0x2b /opt/paparazzi/arm-multilib/lib/gcc/arm-none-eabi/4.6.2/../../../../arm-none-eabi/lib/thumb2/libm.a(lib_a-k_cos.o)
 .ARM.attributes
                0x000010e3       0x2b /opt/paparazzi/arm-multilib/lib/gcc/arm-none-eabi/4.6.2/../../../../arm-none-eabi/lib/thumb2/libm.a(lib_a-k_rem_pio2.o)
 .ARM.attributes
                0x0000110e       0x2b /opt/paparazzi/arm-multilib/lib/gcc/arm-none-eabi/4.6.2/../../../../arm-none-eabi/lib/thumb2/libm.a(lib_a-k_sin.o)
 .ARM.attributes
                0x00001139       0x2b /opt/paparazzi/arm-multilib/lib/gcc/arm-none-eabi/4.6.2/../../../../arm-none-eabi/lib/thumb2/libm.a(lib_a-k_tan.o)
 .ARM.attributes
                0x00001164       0x2b /opt/paparazzi/arm-multilib/lib/gcc/arm-none-eabi/4.6.2/../../../../arm-none-eabi/lib/thumb2/libm.a(lib_a-kf_cos.o)
 .ARM.attributes
                0x0000118f       0x2b /opt/paparazzi/arm-multilib/lib/gcc/arm-none-eabi/4.6.2/../../../../arm-none-eabi/lib/thumb2/libm.a(lib_a-kf_rem_pio2.o)
 .ARM.attributes
                0x000011ba       0x2b /opt/paparazzi/arm-multilib/lib/gcc/arm-none-eabi/4.6.2/../../../../arm-none-eabi/lib/thumb2/libm.a(lib_a-kf_sin.o)
 .ARM.attributes
                0x000011e5       0x2b /opt/paparazzi/arm-multilib/lib/gcc/arm-none-eabi/4.6.2/../../../../arm-none-eabi/lib/thumb2/libm.a(lib_a-s_expm1.o)
 .ARM.attributes
                0x00001210       0x2b /opt/paparazzi/arm-multilib/lib/gcc/arm-none-eabi/4.6.2/../../../../arm-none-eabi/lib/thumb2/libm.a(lib_a-s_finite.o)
 .ARM.attributes
                0x0000123b       0x2b /opt/paparazzi/arm-multilib/lib/gcc/arm-none-eabi/4.6.2/../../../../arm-none-eabi/lib/thumb2/libm.a(lib_a-s_floor.o)
 .ARM.attributes
                0x00001266       0x2b /opt/paparazzi/arm-multilib/lib/gcc/arm-none-eabi/4.6.2/../../../../arm-none-eabi/lib/thumb2/libm.a(lib_a-s_fpclassify.o)
 .ARM.attributes
                0x00001291       0x2b /opt/paparazzi/arm-multilib/lib/gcc/arm-none-eabi/4.6.2/../../../../arm-none-eabi/lib/thumb2/libm.a(lib_a-s_lib_ver.o)
 .ARM.attributes
                0x000012bc       0x2b /opt/paparazzi/arm-multilib/lib/gcc/arm-none-eabi/4.6.2/../../../../arm-none-eabi/lib/thumb2/libm.a(lib_a-s_matherr.o)
 .ARM.attributes
                0x000012e7       0x2b /opt/paparazzi/arm-multilib/lib/gcc/arm-none-eabi/4.6.2/../../../../arm-none-eabi/lib/thumb2/libm.a(lib_a-s_nan.o)
 .ARM.attributes
                0x00001312       0x2b /opt/paparazzi/arm-multilib/lib/gcc/arm-none-eabi/4.6.2/../../../../arm-none-eabi/lib/thumb2/libm.a(lib_a-s_scalbn.o)
 .ARM.attributes
                0x0000133d       0x2b /opt/paparazzi/arm-multilib/lib/gcc/arm-none-eabi/4.6.2/../../../../arm-none-eabi/lib/thumb2/libm.a(lib_a-sf_finite.o)
 .ARM.attributes
                0x00001368       0x2b /opt/paparazzi/arm-multilib/lib/gcc/arm-none-eabi/4.6.2/../../../../arm-none-eabi/lib/thumb2/libm.a(lib_a-sf_floor.o)
 .ARM.attributes
                0x00001393       0x2b /opt/paparazzi/arm-multilib/lib/gcc/arm-none-eabi/4.6.2/../../../../arm-none-eabi/lib/thumb2/libm.a(lib_a-sf_fpclassify.o)
 .ARM.attributes
                0x000013be       0x2b /opt/paparazzi/arm-multilib/lib/gcc/arm-none-eabi/4.6.2/../../../../arm-none-eabi/lib/thumb2/libm.a(lib_a-sf_nan.o)
 .ARM.attributes
                0x000013e9       0x2b /opt/paparazzi/arm-multilib/lib/gcc/arm-none-eabi/4.6.2/../../../../arm-none-eabi/lib/thumb2/libm.a(lib_a-sf_scalbn.o)
 .ARM.attributes
                0x00001414       0x2b /opt/paparazzi/arm-multilib/lib/gcc/arm-none-eabi/4.6.2/../../../../arm-none-eabi/lib/thumb2/libm.a(lib_a-s_copysign.o)
 .ARM.attributes
                0x0000143f       0x2b /opt/paparazzi/arm-multilib/lib/gcc/arm-none-eabi/4.6.2/../../../../arm-none-eabi/lib/thumb2/libm.a(lib_a-sf_copysign.o)
 .ARM.attributes
                0x0000146a       0x1d /opt/paparazzi/arm-multilib/lib/gcc/arm-none-eabi/4.6.2/thumb2/libgcc.a(_divsi3.o)
 .ARM.attributes
                0x00001487       0x1d /opt/paparazzi/arm-multilib/lib/gcc/arm-none-eabi/4.6.2/thumb2/libgcc.a(_dvmd_tls.o)
 .ARM.attributes
                0x000014a4       0x1d /opt/paparazzi/arm-multilib/lib/gcc/arm-none-eabi/4.6.2/thumb2/libgcc.a(_arm_addsubdf3.o)
 .ARM.attributes
                0x000014c1       0x1d /opt/paparazzi/arm-multilib/lib/gcc/arm-none-eabi/4.6.2/thumb2/libgcc.a(_arm_muldivdf3.o)
 .ARM.attributes
                0x000014de       0x1d /opt/paparazzi/arm-multilib/lib/gcc/arm-none-eabi/4.6.2/thumb2/libgcc.a(_arm_cmpdf2.o)
 .ARM.attributes
                0x000014fb       0x1d /opt/paparazzi/arm-multilib/lib/gcc/arm-none-eabi/4.6.2/thumb2/libgcc.a(_arm_fixdfsi.o)
 .ARM.attributes
                0x00001518       0x1d /opt/paparazzi/arm-multilib/lib/gcc/arm-none-eabi/4.6.2/thumb2/libgcc.a(_arm_fixunsdfsi.o)
 .ARM.attributes
                0x00001535       0x1d /opt/paparazzi/arm-multilib/lib/gcc/arm-none-eabi/4.6.2/thumb2/libgcc.a(_arm_truncdfsf2.o)
 .ARM.attributes
                0x00001552       0x1d /opt/paparazzi/arm-multilib/lib/gcc/arm-none-eabi/4.6.2/thumb2/libgcc.a(_arm_addsubsf3.o)
 .ARM.attributes
                0x0000156f       0x1d /opt/paparazzi/arm-multilib/lib/gcc/arm-none-eabi/4.6.2/thumb2/libgcc.a(_arm_muldivsf3.o)
 .ARM.attributes
                0x0000158c       0x1d /opt/paparazzi/arm-multilib/lib/gcc/arm-none-eabi/4.6.2/thumb2/libgcc.a(_arm_cmpsf2.o)
 .ARM.attributes
                0x000015a9       0x1d /opt/paparazzi/arm-multilib/lib/gcc/arm-none-eabi/4.6.2/thumb2/libgcc.a(_arm_fixsfsi.o)
 .ARM.attributes
                0x000015c6       0x1d /opt/paparazzi/arm-multilib/lib/gcc/arm-none-eabi/4.6.2/thumb2/libgcc.a(_arm_fixunssfsi.o)
 .ARM.attributes
                0x000015e3       0x31 /opt/paparazzi/arm-multilib/lib/gcc/arm-none-eabi/4.6.2/../../../../arm-none-eabi/lib/libstm32.a(stm32_adc.o)
 .ARM.attributes
                0x00001614       0x31 /opt/paparazzi/arm-multilib/lib/gcc/arm-none-eabi/4.6.2/../../../../arm-none-eabi/lib/libstm32.a(stm32_tim.o)
 .ARM.attributes
                0x00001645       0x31 /opt/paparazzi/arm-multilib/lib/gcc/arm-none-eabi/4.6.2/../../../../arm-none-eabi/lib/libstm32.a(stm32_dma.o)
 .ARM.attributes
                0x00001676       0x31 /opt/paparazzi/arm-multilib/lib/gcc/arm-none-eabi/4.6.2/../../../../arm-none-eabi/lib/libstm32.a(stm32_gpio.o)
 .ARM.attributes
                0x000016a7       0x31 /opt/paparazzi/arm-multilib/lib/gcc/arm-none-eabi/4.6.2/../../../../arm-none-eabi/lib/libstm32.a(stm32_usart.o)
 .ARM.attributes
                0x000016d8       0x31 /opt/paparazzi/arm-multilib/lib/gcc/arm-none-eabi/4.6.2/../../../../arm-none-eabi/lib/libstm32.a(stm32_exti.o)
 .ARM.attributes
                0x00001709       0x31 /opt/paparazzi/arm-multilib/lib/gcc/arm-none-eabi/4.6.2/../../../../arm-none-eabi/lib/libstm32.a(stm32_i2c.o)
 .ARM.attributes
                0x0000173a       0x31 /opt/paparazzi/arm-multilib/lib/gcc/arm-none-eabi/4.6.2/../../../../arm-none-eabi/lib/libstm32.a(stm32_spi.o)
 .ARM.attributes
                0x0000176b       0x31 /opt/paparazzi/arm-multilib/lib/gcc/arm-none-eabi/4.6.2/../../../../arm-none-eabi/lib/libstm32.a(stm32_rcc.o)
 .ARM.attributes
                0x0000179c       0x31 /opt/paparazzi/arm-multilib/lib/gcc/arm-none-eabi/4.6.2/../../../../arm-none-eabi/lib/libstm32.a(stm32_misc.o)
 .ARM.attributes
                0x000017cd       0x31 /opt/paparazzi/arm-multilib/lib/gcc/arm-none-eabi/4.6.2/../../../../arm-none-eabi/lib/libopencm3_stm32.a(rcc.o)
 .ARM.attributes
                0x000017fe       0x31 /opt/paparazzi/arm-multilib/lib/gcc/arm-none-eabi/4.6.2/../../../../arm-none-eabi/lib/libopencm3_stm32.a(usart.o)
 .ARM.attributes
                0x0000182f       0x31 /opt/paparazzi/arm-multilib/lib/gcc/arm-none-eabi/4.6.2/../../../../arm-none-eabi/lib/libopencm3_stm32.a(flash.o)
 .ARM.attributes
                0x00001860       0x2b /opt/paparazzi/arm-multilib/lib/gcc/arm-none-eabi/4.6.2/../../../../arm-none-eabi/lib/thumb2/libc.a(lib_a-errno.o)
 .ARM.attributes
                0x0000188b       0x2b /opt/paparazzi/arm-multilib/lib/gcc/arm-none-eabi/4.6.2/../../../../arm-none-eabi/lib/thumb2/libc.a(lib_a-impure.o)

.debug
 *(.debug)

.line
 *(.line)

.debug_srcinfo
 *(.debug_srcinfo)

.debug_sfnames
 *(.debug_sfnames)

.debug_aranges  0x00000000     0x1f18
 *(.debug_aranges)
 .debug_aranges
                0x00000000       0x20 /home/mav/paparazzi/var/Radian/ap/mcu.o
 .debug_aranges
                0x00000020       0x20 /home/mav/paparazzi/var/Radian/ap/arch/stm32/mcu_arch.o
 .debug_aranges
                0x00000040       0x38 /home/mav/paparazzi/var/Radian/ap/mcu_periph/sys_time.o
 .debug_aranges
                0x00000078       0x28 /home/mav/paparazzi/var/Radian/ap/arch/stm32/mcu_periph/sys_time_arch.o
 .debug_aranges
                0x000000a0       0x98 /home/mav/paparazzi/var/Radian/ap/math/pprz_geodetic_int.o
 .debug_aranges
                0x00000138       0xa0 /home/mav/paparazzi/var/Radian/ap/math/pprz_geodetic_float.o
 .debug_aranges
                0x000001d8       0x80 /home/mav/paparazzi/var/Radian/ap/math/pprz_geodetic_double.o
 .debug_aranges
                0x00000258       0x20 /home/mav/paparazzi/var/Radian/ap/mcu_periph/i2c.o
 .debug_aranges
                0x00000278       0x30 /home/mav/paparazzi/var/Radian/ap/arch/stm32/mcu_periph/i2c_arch.o
 .debug_aranges
                0x000002a8       0x48 /home/mav/paparazzi/var/Radian/ap/firmwares/fixedwing/main_fbw.o
 .debug_aranges
                0x000002f0       0x28 /home/mav/paparazzi/var/Radian/ap/subsystems/electrical.o
 .debug_aranges
                0x00000318       0x58 /home/mav/paparazzi/var/Radian/ap/firmwares/fixedwing/main_ap.o
 .debug_aranges
                0x00000370       0x28 /home/mav/paparazzi/var/Radian/ap/./estimator.o
 .debug_aranges
                0x00000398       0x40 /home/mav/paparazzi/var/Radian/ap/arch/stm32/stm32_exceptions.o
 .debug_aranges
                0x000003d8       0x38 /home/mav/paparazzi/var/Radian/ap/arch/stm32/stm32_vector_table.o
 .debug_aranges
                0x00000410       0x58 /home/mav/paparazzi/var/Radian/ap/lisa/plug_sys.o
 .debug_aranges
                0x00000468       0x20 /home/mav/paparazzi/var/Radian/ap/firmwares/fixedwing/main.o
 .debug_aranges
                0x00000488       0x28 /home/mav/paparazzi/var/Radian/ap/mcu_periph/uart.o
 .debug_aranges
                0x000004b0       0x50 /home/mav/paparazzi/var/Radian/ap/arch/stm32/mcu_periph/uart_arch.o
 .debug_aranges
                0x00000500       0x28 /home/mav/paparazzi/var/Radian/ap/subsystems/settings.o
 .debug_aranges
                0x00000528       0x38 /home/mav/paparazzi/var/Radian/ap/arch/stm32/subsystems/settings_arch.o
 .debug_aranges
                0x00000560       0x30 /home/mav/paparazzi/var/Radian/ap/arch/stm32/mcu_periph/adc_arch.o
 .debug_aranges
                0x00000590       0x20 /home/mav/paparazzi/var/Radian/ap/arch/stm32/servos_direct_hw.o
 .debug_aranges
                0x000005b0       0x28 /home/mav/paparazzi/var/Radian/ap/firmwares/rotorcraft/actuators/arch/stm32/actuators_pwm_arch.o
 .debug_aranges
                0x000005d8       0x60 /home/mav/paparazzi/var/Radian/ap/arch/stm32/subsystems/radio_control/spektrum_arch.o
 .debug_aranges
                0x00000638       0x20 /home/mav/paparazzi/var/Radian/ap/firmwares/fixedwing/datalink.o
 .debug_aranges
                0x00000658       0x30 /home/mav/paparazzi/var/Radian/ap/firmwares/fixedwing/stabilization/stabilization_attitude.o
 .debug_aranges
                0x00000688       0x38 /home/mav/paparazzi/var/Radian/ap/firmwares/fixedwing/guidance/guidance_v.o
 .debug_aranges
                0x000006c0       0x60 /home/mav/paparazzi/var/Radian/ap/subsystems/ahrs/ahrs_int_cmpl_quat.o
 .debug_aranges
                0x00000720       0x28 /home/mav/paparazzi/var/Radian/ap/subsystems/ahrs/ahrs_aligner.o
 .debug_aranges
                0x00000748       0x58 /home/mav/paparazzi/var/Radian/ap/subsystems/gps/gps_ubx.o
 .debug_aranges
                0x000007a0       0x20 /home/mav/paparazzi/var/Radian/ap/subsystems/gps.o
 .debug_aranges
                0x000007c0       0x28 /home/mav/paparazzi/var/Radian/ap/subsystems/imu.o
 .debug_aranges
                0x000007e8       0x38 /home/mav/paparazzi/var/Radian/ap/subsystems/imu/imu_aspirin2.o
 .debug_aranges
                0x00000820       0x38 /home/mav/paparazzi/var/Radian/ap/arch/stm32/subsystems/imu/imu_aspirin2_arch.o
 .debug_aranges
                0x00000858       0x40 /home/mav/paparazzi/var/Radian/ap/arch/stm32/mcu_periph/spi_arch.o
 .debug_aranges
                0x00000898       0xb0 /home/mav/paparazzi/var/Radian/ap/subsystems/nav.o
 .debug_aranges
                0x00000948       0x28 /home/mav/paparazzi/var/Radian/ap/subsystems/navigation/common_flight_plan.o
 .debug_aranges
                0x00000970       0x28 /home/mav/paparazzi/var/Radian/ap/subsystems/navigation/traffic_info.o
 .debug_aranges
                0x00000998       0x28 /home/mav/paparazzi/var/Radian/ap/subsystems/navigation/nav_survey_rectangle.o
 .debug_aranges
                0x000009c0       0x28 /home/mav/paparazzi/var/Radian/ap/subsystems/navigation/nav_line.o
 .debug_aranges
                0x000009e8       0x20 /opt/paparazzi/arm-multilib/lib/gcc/arm-none-eabi/4.6.2/../../../../arm-none-eabi/lib/thumb2/libc.a(lib_a-ldiv.o)
 .debug_aranges
                0x00000a08       0x20 /opt/paparazzi/arm-multilib/lib/gcc/arm-none-eabi/4.6.2/../../../../arm-none-eabi/lib/thumb2/libc.a(lib_a-memcpy.o)
 .debug_aranges
                0x00000a28       0x20 /opt/paparazzi/arm-multilib/lib/gcc/arm-none-eabi/4.6.2/../../../../arm-none-eabi/lib/thumb2/libm.a(lib_a-s_atan.o)
 .debug_aranges
                0x00000a48       0x20 /opt/paparazzi/arm-multilib/lib/gcc/arm-none-eabi/4.6.2/../../../../arm-none-eabi/lib/thumb2/libm.a(lib_a-s_cos.o)
 .debug_aranges
                0x00000a68       0x20 /opt/paparazzi/arm-multilib/lib/gcc/arm-none-eabi/4.6.2/../../../../arm-none-eabi/lib/thumb2/libm.a(lib_a-s_fabs.o)
 .debug_aranges
                0x00000a88       0x20 /opt/paparazzi/arm-multilib/lib/gcc/arm-none-eabi/4.6.2/../../../../arm-none-eabi/lib/thumb2/libm.a(lib_a-s_rint.o)
 .debug_aranges
                0x00000aa8       0x20 /opt/paparazzi/arm-multilib/lib/gcc/arm-none-eabi/4.6.2/../../../../arm-none-eabi/lib/thumb2/libm.a(lib_a-s_sin.o)
 .debug_aranges
                0x00000ac8       0x20 /opt/paparazzi/arm-multilib/lib/gcc/arm-none-eabi/4.6.2/../../../../arm-none-eabi/lib/thumb2/libm.a(lib_a-s_tan.o)
 .debug_aranges
                0x00000ae8       0x20 /opt/paparazzi/arm-multilib/lib/gcc/arm-none-eabi/4.6.2/../../../../arm-none-eabi/lib/thumb2/libm.a(lib_a-sf_atan.o)
 .debug_aranges
                0x00000b08       0x20 /opt/paparazzi/arm-multilib/lib/gcc/arm-none-eabi/4.6.2/../../../../arm-none-eabi/lib/thumb2/libm.a(lib_a-sf_cos.o)
 .debug_aranges
                0x00000b28       0x20 /opt/paparazzi/arm-multilib/lib/gcc/arm-none-eabi/4.6.2/../../../../arm-none-eabi/lib/thumb2/libm.a(lib_a-sf_fabs.o)
 .debug_aranges
                0x00000b48       0x20 /opt/paparazzi/arm-multilib/lib/gcc/arm-none-eabi/4.6.2/../../../../arm-none-eabi/lib/thumb2/libm.a(lib_a-sf_sin.o)
 .debug_aranges
                0x00000b68       0x20 /opt/paparazzi/arm-multilib/lib/gcc/arm-none-eabi/4.6.2/../../../../arm-none-eabi/lib/thumb2/libm.a(lib_a-w_asin.o)
 .debug_aranges
                0x00000b88       0x20 /opt/paparazzi/arm-multilib/lib/gcc/arm-none-eabi/4.6.2/../../../../arm-none-eabi/lib/thumb2/libm.a(lib_a-w_atan2.o)
 .debug_aranges
                0x00000ba8       0x20 /opt/paparazzi/arm-multilib/lib/gcc/arm-none-eabi/4.6.2/../../../../arm-none-eabi/lib/thumb2/libm.a(lib_a-w_cosh.o)
 .debug_aranges
                0x00000bc8       0x20 /opt/paparazzi/arm-multilib/lib/gcc/arm-none-eabi/4.6.2/../../../../arm-none-eabi/lib/thumb2/libm.a(lib_a-w_exp.o)
 .debug_aranges
                0x00000be8       0x20 /opt/paparazzi/arm-multilib/lib/gcc/arm-none-eabi/4.6.2/../../../../arm-none-eabi/lib/thumb2/libm.a(lib_a-w_log.o)
 .debug_aranges
                0x00000c08       0x20 /opt/paparazzi/arm-multilib/lib/gcc/arm-none-eabi/4.6.2/../../../../arm-none-eabi/lib/thumb2/libm.a(lib_a-w_pow.o)
 .debug_aranges
                0x00000c28       0x20 /opt/paparazzi/arm-multilib/lib/gcc/arm-none-eabi/4.6.2/../../../../arm-none-eabi/lib/thumb2/libm.a(lib_a-w_sinh.o)
 .debug_aranges
                0x00000c48       0x20 /opt/paparazzi/arm-multilib/lib/gcc/arm-none-eabi/4.6.2/../../../../arm-none-eabi/lib/thumb2/libm.a(lib_a-w_sqrt.o)
 .debug_aranges
                0x00000c68       0x20 /opt/paparazzi/arm-multilib/lib/gcc/arm-none-eabi/4.6.2/../../../../arm-none-eabi/lib/thumb2/libm.a(lib_a-wf_asin.o)
 .debug_aranges
                0x00000c88       0x20 /opt/paparazzi/arm-multilib/lib/gcc/arm-none-eabi/4.6.2/../../../../arm-none-eabi/lib/thumb2/libm.a(lib_a-wf_atan2.o)
 .debug_aranges
                0x00000ca8       0x20 /opt/paparazzi/arm-multilib/lib/gcc/arm-none-eabi/4.6.2/../../../../arm-none-eabi/lib/thumb2/libm.a(lib_a-wf_pow.o)
 .debug_aranges
                0x00000cc8       0x20 /opt/paparazzi/arm-multilib/lib/gcc/arm-none-eabi/4.6.2/../../../../arm-none-eabi/lib/thumb2/libm.a(lib_a-wf_sqrt.o)
 .debug_aranges
                0x00000ce8       0x20 /opt/paparazzi/arm-multilib/lib/gcc/arm-none-eabi/4.6.2/../../../../arm-none-eabi/lib/thumb2/libm.a(lib_a-e_asin.o)
 .debug_aranges
                0x00000d08       0x20 /opt/paparazzi/arm-multilib/lib/gcc/arm-none-eabi/4.6.2/../../../../arm-none-eabi/lib/thumb2/libm.a(lib_a-e_atan2.o)
 .debug_aranges
                0x00000d28       0x20 /opt/paparazzi/arm-multilib/lib/gcc/arm-none-eabi/4.6.2/../../../../arm-none-eabi/lib/thumb2/libm.a(lib_a-e_cosh.o)
 .debug_aranges
                0x00000d48       0x20 /opt/paparazzi/arm-multilib/lib/gcc/arm-none-eabi/4.6.2/../../../../arm-none-eabi/lib/thumb2/libm.a(lib_a-e_exp.o)
 .debug_aranges
                0x00000d68       0x20 /opt/paparazzi/arm-multilib/lib/gcc/arm-none-eabi/4.6.2/../../../../arm-none-eabi/lib/thumb2/libm.a(lib_a-e_log.o)
 .debug_aranges
                0x00000d88       0x20 /opt/paparazzi/arm-multilib/lib/gcc/arm-none-eabi/4.6.2/../../../../arm-none-eabi/lib/thumb2/libm.a(lib_a-e_pow.o)
 .debug_aranges
                0x00000da8       0x20 /opt/paparazzi/arm-multilib/lib/gcc/arm-none-eabi/4.6.2/../../../../arm-none-eabi/lib/thumb2/libm.a(lib_a-e_rem_pio2.o)
 .debug_aranges
                0x00000dc8       0x20 /opt/paparazzi/arm-multilib/lib/gcc/arm-none-eabi/4.6.2/../../../../arm-none-eabi/lib/thumb2/libm.a(lib_a-e_sinh.o)
 .debug_aranges
                0x00000de8       0x20 /opt/paparazzi/arm-multilib/lib/gcc/arm-none-eabi/4.6.2/../../../../arm-none-eabi/lib/thumb2/libm.a(lib_a-e_sqrt.o)
 .debug_aranges
                0x00000e08       0x20 /opt/paparazzi/arm-multilib/lib/gcc/arm-none-eabi/4.6.2/../../../../arm-none-eabi/lib/thumb2/libm.a(lib_a-ef_asin.o)
 .debug_aranges
                0x00000e28       0x20 /opt/paparazzi/arm-multilib/lib/gcc/arm-none-eabi/4.6.2/../../../../arm-none-eabi/lib/thumb2/libm.a(lib_a-ef_atan2.o)
 .debug_aranges
                0x00000e48       0x20 /opt/paparazzi/arm-multilib/lib/gcc/arm-none-eabi/4.6.2/../../../../arm-none-eabi/lib/thumb2/libm.a(lib_a-ef_pow.o)
 .debug_aranges
                0x00000e68       0x20 /opt/paparazzi/arm-multilib/lib/gcc/arm-none-eabi/4.6.2/../../../../arm-none-eabi/lib/thumb2/libm.a(lib_a-ef_rem_pio2.o)
 .debug_aranges
                0x00000e88       0x20 /opt/paparazzi/arm-multilib/lib/gcc/arm-none-eabi/4.6.2/../../../../arm-none-eabi/lib/thumb2/libm.a(lib_a-ef_sqrt.o)
 .debug_aranges
                0x00000ea8       0x20 /opt/paparazzi/arm-multilib/lib/gcc/arm-none-eabi/4.6.2/../../../../arm-none-eabi/lib/thumb2/libm.a(lib_a-k_cos.o)
 .debug_aranges
                0x00000ec8       0x20 /opt/paparazzi/arm-multilib/lib/gcc/arm-none-eabi/4.6.2/../../../../arm-none-eabi/lib/thumb2/libm.a(lib_a-k_rem_pio2.o)
 .debug_aranges
                0x00000ee8       0x20 /opt/paparazzi/arm-multilib/lib/gcc/arm-none-eabi/4.6.2/../../../../arm-none-eabi/lib/thumb2/libm.a(lib_a-k_sin.o)
 .debug_aranges
                0x00000f08       0x20 /opt/paparazzi/arm-multilib/lib/gcc/arm-none-eabi/4.6.2/../../../../arm-none-eabi/lib/thumb2/libm.a(lib_a-k_tan.o)
 .debug_aranges
                0x00000f28       0x20 /opt/paparazzi/arm-multilib/lib/gcc/arm-none-eabi/4.6.2/../../../../arm-none-eabi/lib/thumb2/libm.a(lib_a-kf_cos.o)
 .debug_aranges
                0x00000f48       0x20 /opt/paparazzi/arm-multilib/lib/gcc/arm-none-eabi/4.6.2/../../../../arm-none-eabi/lib/thumb2/libm.a(lib_a-kf_rem_pio2.o)
 .debug_aranges
                0x00000f68       0x20 /opt/paparazzi/arm-multilib/lib/gcc/arm-none-eabi/4.6.2/../../../../arm-none-eabi/lib/thumb2/libm.a(lib_a-kf_sin.o)
 .debug_aranges
                0x00000f88       0x20 /opt/paparazzi/arm-multilib/lib/gcc/arm-none-eabi/4.6.2/../../../../arm-none-eabi/lib/thumb2/libm.a(lib_a-s_expm1.o)
 .debug_aranges
                0x00000fa8       0x20 /opt/paparazzi/arm-multilib/lib/gcc/arm-none-eabi/4.6.2/../../../../arm-none-eabi/lib/thumb2/libm.a(lib_a-s_finite.o)
 .debug_aranges
                0x00000fc8       0x20 /opt/paparazzi/arm-multilib/lib/gcc/arm-none-eabi/4.6.2/../../../../arm-none-eabi/lib/thumb2/libm.a(lib_a-s_floor.o)
 .debug_aranges
                0x00000fe8       0x20 /opt/paparazzi/arm-multilib/lib/gcc/arm-none-eabi/4.6.2/../../../../arm-none-eabi/lib/thumb2/libm.a(lib_a-s_fpclassify.o)
 .debug_aranges
                0x00001008       0x20 /opt/paparazzi/arm-multilib/lib/gcc/arm-none-eabi/4.6.2/../../../../arm-none-eabi/lib/thumb2/libm.a(lib_a-s_matherr.o)
 .debug_aranges
                0x00001028       0x20 /opt/paparazzi/arm-multilib/lib/gcc/arm-none-eabi/4.6.2/../../../../arm-none-eabi/lib/thumb2/libm.a(lib_a-s_nan.o)
 .debug_aranges
                0x00001048       0x20 /opt/paparazzi/arm-multilib/lib/gcc/arm-none-eabi/4.6.2/../../../../arm-none-eabi/lib/thumb2/libm.a(lib_a-s_scalbn.o)
 .debug_aranges
                0x00001068       0x20 /opt/paparazzi/arm-multilib/lib/gcc/arm-none-eabi/4.6.2/../../../../arm-none-eabi/lib/thumb2/libm.a(lib_a-sf_finite.o)
 .debug_aranges
                0x00001088       0x20 /opt/paparazzi/arm-multilib/lib/gcc/arm-none-eabi/4.6.2/../../../../arm-none-eabi/lib/thumb2/libm.a(lib_a-sf_floor.o)
 .debug_aranges
                0x000010a8       0x20 /opt/paparazzi/arm-multilib/lib/gcc/arm-none-eabi/4.6.2/../../../../arm-none-eabi/lib/thumb2/libm.a(lib_a-sf_fpclassify.o)
 .debug_aranges
                0x000010c8       0x20 /opt/paparazzi/arm-multilib/lib/gcc/arm-none-eabi/4.6.2/../../../../arm-none-eabi/lib/thumb2/libm.a(lib_a-sf_nan.o)
 .debug_aranges
                0x000010e8       0x20 /opt/paparazzi/arm-multilib/lib/gcc/arm-none-eabi/4.6.2/../../../../arm-none-eabi/lib/thumb2/libm.a(lib_a-sf_scalbn.o)
 .debug_aranges
                0x00001108       0x20 /opt/paparazzi/arm-multilib/lib/gcc/arm-none-eabi/4.6.2/../../../../arm-none-eabi/lib/thumb2/libm.a(lib_a-s_copysign.o)
 .debug_aranges
                0x00001128       0x20 /opt/paparazzi/arm-multilib/lib/gcc/arm-none-eabi/4.6.2/../../../../arm-none-eabi/lib/thumb2/libm.a(lib_a-sf_copysign.o)
 .debug_aranges
                0x00001148       0x20 /opt/paparazzi/arm-multilib/lib/gcc/arm-none-eabi/4.6.2/thumb2/libgcc.a(_divsi3.o)
 .debug_aranges
                0x00001168       0x20 /opt/paparazzi/arm-multilib/lib/gcc/arm-none-eabi/4.6.2/thumb2/libgcc.a(_dvmd_tls.o)
 .debug_aranges
                0x00001188       0x20 /opt/paparazzi/arm-multilib/lib/gcc/arm-none-eabi/4.6.2/thumb2/libgcc.a(_arm_addsubdf3.o)
 .debug_aranges
                0x000011a8       0x20 /opt/paparazzi/arm-multilib/lib/gcc/arm-none-eabi/4.6.2/thumb2/libgcc.a(_arm_muldivdf3.o)
 .debug_aranges
                0x000011c8       0x20 /opt/paparazzi/arm-multilib/lib/gcc/arm-none-eabi/4.6.2/thumb2/libgcc.a(_arm_cmpdf2.o)
 .debug_aranges
                0x000011e8       0x20 /opt/paparazzi/arm-multilib/lib/gcc/arm-none-eabi/4.6.2/thumb2/libgcc.a(_arm_fixdfsi.o)
 .debug_aranges
                0x00001208       0x20 /opt/paparazzi/arm-multilib/lib/gcc/arm-none-eabi/4.6.2/thumb2/libgcc.a(_arm_fixunsdfsi.o)
 .debug_aranges
                0x00001228       0x20 /opt/paparazzi/arm-multilib/lib/gcc/arm-none-eabi/4.6.2/thumb2/libgcc.a(_arm_truncdfsf2.o)
 .debug_aranges
                0x00001248       0x20 /opt/paparazzi/arm-multilib/lib/gcc/arm-none-eabi/4.6.2/thumb2/libgcc.a(_arm_addsubsf3.o)
 .debug_aranges
                0x00001268       0x20 /opt/paparazzi/arm-multilib/lib/gcc/arm-none-eabi/4.6.2/thumb2/libgcc.a(_arm_muldivsf3.o)
 .debug_aranges
                0x00001288       0x20 /opt/paparazzi/arm-multilib/lib/gcc/arm-none-eabi/4.6.2/thumb2/libgcc.a(_arm_cmpsf2.o)
 .debug_aranges
                0x000012a8       0x20 /opt/paparazzi/arm-multilib/lib/gcc/arm-none-eabi/4.6.2/thumb2/libgcc.a(_arm_fixsfsi.o)
 .debug_aranges
                0x000012c8       0x20 /opt/paparazzi/arm-multilib/lib/gcc/arm-none-eabi/4.6.2/thumb2/libgcc.a(_arm_fixunssfsi.o)
 .debug_aranges
                0x000012e8      0x138 /opt/paparazzi/arm-multilib/lib/gcc/arm-none-eabi/4.6.2/../../../../arm-none-eabi/lib/libstm32.a(stm32_adc.o)
 .debug_aranges
                0x00001420      0x2e0 /opt/paparazzi/arm-multilib/lib/gcc/arm-none-eabi/4.6.2/../../../../arm-none-eabi/lib/libstm32.a(stm32_tim.o)
 .debug_aranges
                0x00001700       0x68 /opt/paparazzi/arm-multilib/lib/gcc/arm-none-eabi/4.6.2/../../../../arm-none-eabi/lib/libstm32.a(stm32_dma.o)
 .debug_aranges
                0x00001768       0xa0 /opt/paparazzi/arm-multilib/lib/gcc/arm-none-eabi/4.6.2/../../../../arm-none-eabi/lib/libstm32.a(stm32_gpio.o)
 .debug_aranges
                0x00001808       0xf0 /opt/paparazzi/arm-multilib/lib/gcc/arm-none-eabi/4.6.2/../../../../arm-none-eabi/lib/libstm32.a(stm32_usart.o)
 .debug_aranges
                0x000018f8       0x58 /opt/paparazzi/arm-multilib/lib/gcc/arm-none-eabi/4.6.2/../../../../arm-none-eabi/lib/libstm32.a(stm32_exti.o)
 .debug_aranges
                0x00001950      0x118 /opt/paparazzi/arm-multilib/lib/gcc/arm-none-eabi/4.6.2/../../../../arm-none-eabi/lib/libstm32.a(stm32_i2c.o)
 .debug_aranges
                0x00001a68       0xd0 /opt/paparazzi/arm-multilib/lib/gcc/arm-none-eabi/4.6.2/../../../../arm-none-eabi/lib/libstm32.a(stm32_spi.o)
 .debug_aranges
                0x00001b38      0x118 /opt/paparazzi/arm-multilib/lib/gcc/arm-none-eabi/4.6.2/../../../../arm-none-eabi/lib/libstm32.a(stm32_rcc.o)
 .debug_aranges
                0x00001c50       0x40 /opt/paparazzi/arm-multilib/lib/gcc/arm-none-eabi/4.6.2/../../../../arm-none-eabi/lib/libstm32.a(stm32_misc.o)
 .debug_aranges
                0x00001c90      0x128 /opt/paparazzi/arm-multilib/lib/gcc/arm-none-eabi/4.6.2/../../../../arm-none-eabi/lib/libopencm3_stm32.a(rcc.o)
 .debug_aranges
                0x00001db8       0x88 /opt/paparazzi/arm-multilib/lib/gcc/arm-none-eabi/4.6.2/../../../../arm-none-eabi/lib/libopencm3_stm32.a(usart.o)
 .debug_aranges
                0x00001e40       0xb8 /opt/paparazzi/arm-multilib/lib/gcc/arm-none-eabi/4.6.2/../../../../arm-none-eabi/lib/libopencm3_stm32.a(flash.o)
 .debug_aranges
                0x00001ef8       0x20 /opt/paparazzi/arm-multilib/lib/gcc/arm-none-eabi/4.6.2/../../../../arm-none-eabi/lib/thumb2/libc.a(lib_a-errno.o)

.debug_pubnames
 *(.debug_pubnames)

.debug_info     0x00000000    0x2e679
 *(.debug_info .gnu.linkonce.wi.*)
 .debug_info    0x00000000      0x469 /home/mav/paparazzi/var/Radian/ap/mcu.o
 .debug_info    0x00000469       0x84 /home/mav/paparazzi/var/Radian/ap/arch/stm32/mcu_arch.o
 .debug_info    0x000004ed       0x88 /home/mav/paparazzi/var/Radian/ap/arch/stm32/led_hw.o
 .debug_info    0x00000575      0x28f /home/mav/paparazzi/var/Radian/ap/mcu_periph/sys_time.o
 .debug_info    0x00000804      0x7d6 /home/mav/paparazzi/var/Radian/ap/arch/stm32/mcu_periph/sys_time_arch.o
 .debug_info    0x00000fda      0x306 /home/mav/paparazzi/var/Radian/ap/./inter_mcu.o
 .debug_info    0x000012e0      0x7fc /home/mav/paparazzi/var/Radian/ap/math/pprz_geodetic_int.o
 .debug_info    0x00001adc      0xd14 /home/mav/paparazzi/var/Radian/ap/math/pprz_geodetic_float.o
 .debug_info    0x000027f0      0xa2d /home/mav/paparazzi/var/Radian/ap/math/pprz_geodetic_double.o
 .debug_info    0x0000321d       0xb6 /home/mav/paparazzi/var/Radian/ap/math/pprz_trig_int.o
 .debug_info    0x000032d3      0x3a3 /home/mav/paparazzi/var/Radian/ap/mcu_periph/i2c.o
 .debug_info    0x00003676      0x491 /home/mav/paparazzi/var/Radian/ap/arch/stm32/mcu_periph/i2c_arch.o
 .debug_info    0x00003b07      0xf90 /home/mav/paparazzi/var/Radian/ap/firmwares/fixedwing/main_fbw.o
 .debug_info    0x00004a97      0x1a6 /home/mav/paparazzi/var/Radian/ap/subsystems/electrical.o
 .debug_info    0x00004c3d       0xdf /home/mav/paparazzi/var/Radian/ap/./commands.o
 .debug_info    0x00004d1c       0xa6 /home/mav/paparazzi/var/Radian/ap/firmwares/fixedwing/fbw_downlink.o
 .debug_info    0x00004dc2     0x973e /home/mav/paparazzi/var/Radian/ap/firmwares/fixedwing/main_ap.o
 .debug_info    0x0000e500      0x8ff /home/mav/paparazzi/var/Radian/ap/./estimator.o
 .debug_info    0x0000edff       0xa5 /home/mav/paparazzi/var/Radian/ap/firmwares/fixedwing/ap_downlink.o
 .debug_info    0x0000eea4       0x8e /home/mav/paparazzi/var/Radian/ap/arch/stm32/stm32_exceptions.o
 .debug_info    0x0000ef32      0x465 /home/mav/paparazzi/var/Radian/ap/arch/stm32/stm32_vector_table.o
 .debug_info    0x0000f397      0x233 /home/mav/paparazzi/var/Radian/ap/lisa/plug_sys.o
 .debug_info    0x0000f5ca       0xa5 /home/mav/paparazzi/var/Radian/ap/firmwares/fixedwing/main.o
 .debug_info    0x0000f66f      0x202 /home/mav/paparazzi/var/Radian/ap/mcu_periph/uart.o
 .debug_info    0x0000f871      0x82c /home/mav/paparazzi/var/Radian/ap/arch/stm32/mcu_periph/uart_arch.o
 .debug_info    0x0001009d      0x677 /home/mav/paparazzi/var/Radian/ap/subsystems/settings.o
 .debug_info    0x00010714      0x850 /home/mav/paparazzi/var/Radian/ap/arch/stm32/subsystems/settings_arch.o
 .debug_info    0x00010f64      0xbf5 /home/mav/paparazzi/var/Radian/ap/arch/stm32/mcu_periph/adc_arch.o
 .debug_info    0x00011b59       0xcd /home/mav/paparazzi/var/Radian/ap/arch/stm32/servos_direct_hw.o
 .debug_info    0x00011c26       0xb5 /home/mav/paparazzi/var/Radian/ap/actuators.o
 .debug_info    0x00011cdb      0x5cd /home/mav/paparazzi/var/Radian/ap/firmwares/rotorcraft/actuators/arch/stm32/actuators_pwm_arch.o
 .debug_info    0x000122a8      0x139 /home/mav/paparazzi/var/Radian/ap/subsystems/radio_control.o
 .debug_info    0x000123e1      0xd1d /home/mav/paparazzi/var/Radian/ap/arch/stm32/subsystems/radio_control/spektrum_arch.o
 .debug_info    0x000130fe       0xd4 /home/mav/paparazzi/var/Radian/ap/subsystems/datalink/downlink.o
 .debug_info    0x000131d2      0x1e2 /home/mav/paparazzi/var/Radian/ap/subsystems/datalink/pprz_transport.o
 .debug_info    0x000133b4     0x1434 /home/mav/paparazzi/var/Radian/ap/firmwares/fixedwing/datalink.o
 .debug_info    0x000147e8      0x695 /home/mav/paparazzi/var/Radian/ap/firmwares/fixedwing/stabilization/stabilization_attitude.o
 .debug_info    0x00014e7d      0x74a /home/mav/paparazzi/var/Radian/ap/firmwares/fixedwing/guidance/guidance_v.o
 .debug_info    0x000155c7      0x3af /home/mav/paparazzi/var/Radian/ap/subsystems/ahrs.o
 .debug_info    0x00015976     0x1b2d /home/mav/paparazzi/var/Radian/ap/subsystems/ahrs/ahrs_int_cmpl_quat.o
 .debug_info    0x000174a3      0x457 /home/mav/paparazzi/var/Radian/ap/subsystems/ahrs/ahrs_aligner.o
 .debug_info    0x000178fa     0x2b5a /home/mav/paparazzi/var/Radian/ap/subsystems/gps/gps_ubx.o
 .debug_info    0x0001a454      0x393 /home/mav/paparazzi/var/Radian/ap/subsystems/gps.o
 .debug_info    0x0001a7e7      0x996 /home/mav/paparazzi/var/Radian/ap/subsystems/imu.o
 .debug_info    0x0001b17d      0x46c /home/mav/paparazzi/var/Radian/ap/subsystems/imu/imu_aspirin2.o
 .debug_info    0x0001b5e9      0x36f /home/mav/paparazzi/var/Radian/ap/arch/stm32/subsystems/imu/imu_aspirin2_arch.o
 .debug_info    0x0001b958      0xabf /home/mav/paparazzi/var/Radian/ap/arch/stm32/mcu_periph/spi_arch.o
 .debug_info    0x0001c417       0xf1 /home/mav/paparazzi/var/Radian/ap/mcu_periph/spi.o
 .debug_info    0x0001c508     0x1a5a /home/mav/paparazzi/var/Radian/ap/subsystems/nav.o
 .debug_info    0x0001df62      0x189 /home/mav/paparazzi/var/Radian/ap/subsystems/navigation/common_flight_plan.o
 .debug_info    0x0001e0eb      0x1cc /home/mav/paparazzi/var/Radian/ap/subsystems/navigation/traffic_info.o
 .debug_info    0x0001e2b7      0x4b3 /home/mav/paparazzi/var/Radian/ap/subsystems/navigation/nav_survey_rectangle.o
 .debug_info    0x0001e76a      0x542 /home/mav/paparazzi/var/Radian/ap/subsystems/navigation/nav_line.o
 .debug_info    0x0001ecac       0xe8 /opt/paparazzi/arm-multilib/lib/gcc/arm-none-eabi/4.6.2/../../../../arm-none-eabi/lib/thumb2/libc.a(lib_a-ldiv.o)
 .debug_info    0x0001ed94       0xff /opt/paparazzi/arm-multilib/lib/gcc/arm-none-eabi/4.6.2/../../../../arm-none-eabi/lib/thumb2/libc.a(lib_a-memcpy.o)
 .debug_info    0x0001ee93      0x239 /opt/paparazzi/arm-multilib/lib/gcc/arm-none-eabi/4.6.2/../../../../arm-none-eabi/lib/thumb2/libm.a(lib_a-s_atan.o)
 .debug_info    0x0001f0cc      0x103 /opt/paparazzi/arm-multilib/lib/gcc/arm-none-eabi/4.6.2/../../../../arm-none-eabi/lib/thumb2/libm.a(lib_a-s_cos.o)
 .debug_info    0x0001f1cf      0x136 /opt/paparazzi/arm-multilib/lib/gcc/arm-none-eabi/4.6.2/../../../../arm-none-eabi/lib/thumb2/libm.a(lib_a-s_fabs.o)
 .debug_info    0x0001f305      0x20b /opt/paparazzi/arm-multilib/lib/gcc/arm-none-eabi/4.6.2/../../../../arm-none-eabi/lib/thumb2/libm.a(lib_a-s_rint.o)
 .debug_info    0x0001f510      0x103 /opt/paparazzi/arm-multilib/lib/gcc/arm-none-eabi/4.6.2/../../../../arm-none-eabi/lib/thumb2/libm.a(lib_a-s_sin.o)
 .debug_info    0x0001f613      0x103 /opt/paparazzi/arm-multilib/lib/gcc/arm-none-eabi/4.6.2/../../../../arm-none-eabi/lib/thumb2/libm.a(lib_a-s_tan.o)
 .debug_info    0x0001f716      0x1f1 /opt/paparazzi/arm-multilib/lib/gcc/arm-none-eabi/4.6.2/../../../../arm-none-eabi/lib/thumb2/libm.a(lib_a-sf_atan.o)
 .debug_info    0x0001f907      0x119 /opt/paparazzi/arm-multilib/lib/gcc/arm-none-eabi/4.6.2/../../../../arm-none-eabi/lib/thumb2/libm.a(lib_a-sf_cos.o)
 .debug_info    0x0001fa20       0xc4 /opt/paparazzi/arm-multilib/lib/gcc/arm-none-eabi/4.6.2/../../../../arm-none-eabi/lib/thumb2/libm.a(lib_a-sf_fabs.o)
 .debug_info    0x0001fae4      0x100 /opt/paparazzi/arm-multilib/lib/gcc/arm-none-eabi/4.6.2/../../../../arm-none-eabi/lib/thumb2/libm.a(lib_a-sf_sin.o)
 .debug_info    0x0001fbe4      0x17e /opt/paparazzi/arm-multilib/lib/gcc/arm-none-eabi/4.6.2/../../../../arm-none-eabi/lib/thumb2/libm.a(lib_a-w_asin.o)
 .debug_info    0x0001fd62       0xbb /opt/paparazzi/arm-multilib/lib/gcc/arm-none-eabi/4.6.2/../../../../arm-none-eabi/lib/thumb2/libm.a(lib_a-w_atan2.o)
 .debug_info    0x0001fe1d      0x17e /opt/paparazzi/arm-multilib/lib/gcc/arm-none-eabi/4.6.2/../../../../arm-none-eabi/lib/thumb2/libm.a(lib_a-w_cosh.o)
 .debug_info    0x0001ff9b      0x1ab /opt/paparazzi/arm-multilib/lib/gcc/arm-none-eabi/4.6.2/../../../../arm-none-eabi/lib/thumb2/libm.a(lib_a-w_exp.o)
 .debug_info    0x00020146      0x17e /opt/paparazzi/arm-multilib/lib/gcc/arm-none-eabi/4.6.2/../../../../arm-none-eabi/lib/thumb2/libm.a(lib_a-w_log.o)
 .debug_info    0x000202c4      0x18c /opt/paparazzi/arm-multilib/lib/gcc/arm-none-eabi/4.6.2/../../../../arm-none-eabi/lib/thumb2/libm.a(lib_a-w_pow.o)
 .debug_info    0x00020450      0x17f /opt/paparazzi/arm-multilib/lib/gcc/arm-none-eabi/4.6.2/../../../../arm-none-eabi/lib/thumb2/libm.a(lib_a-w_sinh.o)
 .debug_info    0x000205cf      0x17f /opt/paparazzi/arm-multilib/lib/gcc/arm-none-eabi/4.6.2/../../../../arm-none-eabi/lib/thumb2/libm.a(lib_a-w_sqrt.o)
 .debug_info    0x0002074e      0x17f /opt/paparazzi/arm-multilib/lib/gcc/arm-none-eabi/4.6.2/../../../../arm-none-eabi/lib/thumb2/libm.a(lib_a-wf_asin.o)
 .debug_info    0x000208cd       0xbc /opt/paparazzi/arm-multilib/lib/gcc/arm-none-eabi/4.6.2/../../../../arm-none-eabi/lib/thumb2/libm.a(lib_a-wf_atan2.o)
 .debug_info    0x00020989      0x18c /opt/paparazzi/arm-multilib/lib/gcc/arm-none-eabi/4.6.2/../../../../arm-none-eabi/lib/thumb2/libm.a(lib_a-wf_pow.o)
 .debug_info    0x00020b15      0x17f /opt/paparazzi/arm-multilib/lib/gcc/arm-none-eabi/4.6.2/../../../../arm-none-eabi/lib/thumb2/libm.a(lib_a-wf_sqrt.o)
 .debug_info    0x00020c94      0x31a /opt/paparazzi/arm-multilib/lib/gcc/arm-none-eabi/4.6.2/../../../../arm-none-eabi/lib/thumb2/libm.a(lib_a-e_asin.o)
 .debug_info    0x00020fae      0x27c /opt/paparazzi/arm-multilib/lib/gcc/arm-none-eabi/4.6.2/../../../../arm-none-eabi/lib/thumb2/libm.a(lib_a-e_atan2.o)
 .debug_info    0x0002122a      0x140 /opt/paparazzi/arm-multilib/lib/gcc/arm-none-eabi/4.6.2/../../../../arm-none-eabi/lib/thumb2/libm.a(lib_a-e_cosh.o)
 .debug_info    0x0002136a      0x35a /opt/paparazzi/arm-multilib/lib/gcc/arm-none-eabi/4.6.2/../../../../arm-none-eabi/lib/thumb2/libm.a(lib_a-e_exp.o)
 .debug_info    0x000216c4      0x2f4 /opt/paparazzi/arm-multilib/lib/gcc/arm-none-eabi/4.6.2/../../../../arm-none-eabi/lib/thumb2/libm.a(lib_a-e_log.o)
 .debug_info    0x000219b8      0x6ab /opt/paparazzi/arm-multilib/lib/gcc/arm-none-eabi/4.6.2/../../../../arm-none-eabi/lib/thumb2/libm.a(lib_a-e_pow.o)
 .debug_info    0x00022063      0x35b /opt/paparazzi/arm-multilib/lib/gcc/arm-none-eabi/4.6.2/../../../../arm-none-eabi/lib/thumb2/libm.a(lib_a-e_rem_pio2.o)
 .debug_info    0x000223be      0x147 /opt/paparazzi/arm-multilib/lib/gcc/arm-none-eabi/4.6.2/../../../../arm-none-eabi/lib/thumb2/libm.a(lib_a-e_sinh.o)
 .debug_info    0x00022505      0x22a /opt/paparazzi/arm-multilib/lib/gcc/arm-none-eabi/4.6.2/../../../../arm-none-eabi/lib/thumb2/libm.a(lib_a-e_sqrt.o)
 .debug_info    0x0002272f      0x28c /opt/paparazzi/arm-multilib/lib/gcc/arm-none-eabi/4.6.2/../../../../arm-none-eabi/lib/thumb2/libm.a(lib_a-ef_asin.o)
 .debug_info    0x000229bb      0x1fb /opt/paparazzi/arm-multilib/lib/gcc/arm-none-eabi/4.6.2/../../../../arm-none-eabi/lib/thumb2/libm.a(lib_a-ef_atan2.o)
 .debug_info    0x00022bb6      0x57a /opt/paparazzi/arm-multilib/lib/gcc/arm-none-eabi/4.6.2/../../../../arm-none-eabi/lib/thumb2/libm.a(lib_a-ef_pow.o)
 .debug_info    0x00023130      0x30c /opt/paparazzi/arm-multilib/lib/gcc/arm-none-eabi/4.6.2/../../../../arm-none-eabi/lib/thumb2/libm.a(lib_a-ef_rem_pio2.o)
 .debug_info    0x0002343c      0x1ac /opt/paparazzi/arm-multilib/lib/gcc/arm-none-eabi/4.6.2/../../../../arm-none-eabi/lib/thumb2/libm.a(lib_a-ef_sqrt.o)
 .debug_info    0x000235e8      0x219 /opt/paparazzi/arm-multilib/lib/gcc/arm-none-eabi/4.6.2/../../../../arm-none-eabi/lib/thumb2/libm.a(lib_a-k_cos.o)
 .debug_info    0x00023801      0x2f3 /opt/paparazzi/arm-multilib/lib/gcc/arm-none-eabi/4.6.2/../../../../arm-none-eabi/lib/thumb2/libm.a(lib_a-k_rem_pio2.o)
 .debug_info    0x00023af4      0x198 /opt/paparazzi/arm-multilib/lib/gcc/arm-none-eabi/4.6.2/../../../../arm-none-eabi/lib/thumb2/libm.a(lib_a-k_sin.o)
 .debug_info    0x00023c8c      0x279 /opt/paparazzi/arm-multilib/lib/gcc/arm-none-eabi/4.6.2/../../../../arm-none-eabi/lib/thumb2/libm.a(lib_a-k_tan.o)
 .debug_info    0x00023f05      0x183 /opt/paparazzi/arm-multilib/lib/gcc/arm-none-eabi/4.6.2/../../../../arm-none-eabi/lib/thumb2/libm.a(lib_a-kf_cos.o)
 .debug_info    0x00024088      0x2d3 /opt/paparazzi/arm-multilib/lib/gcc/arm-none-eabi/4.6.2/../../../../arm-none-eabi/lib/thumb2/libm.a(lib_a-kf_rem_pio2.o)
 .debug_info    0x0002435b      0x17d /opt/paparazzi/arm-multilib/lib/gcc/arm-none-eabi/4.6.2/../../../../arm-none-eabi/lib/thumb2/libm.a(lib_a-kf_sin.o)
 .debug_info    0x000244d8      0x393 /opt/paparazzi/arm-multilib/lib/gcc/arm-none-eabi/4.6.2/../../../../arm-none-eabi/lib/thumb2/libm.a(lib_a-s_expm1.o)
 .debug_info    0x0002486b       0xd0 /opt/paparazzi/arm-multilib/lib/gcc/arm-none-eabi/4.6.2/../../../../arm-none-eabi/lib/thumb2/libm.a(lib_a-s_finite.o)
 .debug_info    0x0002493b      0x1ae /opt/paparazzi/arm-multilib/lib/gcc/arm-none-eabi/4.6.2/../../../../arm-none-eabi/lib/thumb2/libm.a(lib_a-s_floor.o)
 .debug_info    0x00024ae9       0xd7 /opt/paparazzi/arm-multilib/lib/gcc/arm-none-eabi/4.6.2/../../../../arm-none-eabi/lib/thumb2/libm.a(lib_a-s_fpclassify.o)
 .debug_info    0x00024bc0       0xc1 /opt/paparazzi/arm-multilib/lib/gcc/arm-none-eabi/4.6.2/../../../../arm-none-eabi/lib/thumb2/libm.a(lib_a-s_lib_ver.o)
 .debug_info    0x00024c81      0x131 /opt/paparazzi/arm-multilib/lib/gcc/arm-none-eabi/4.6.2/../../../../arm-none-eabi/lib/thumb2/libm.a(lib_a-s_matherr.o)
 .debug_info    0x00024db2       0xcd /opt/paparazzi/arm-multilib/lib/gcc/arm-none-eabi/4.6.2/../../../../arm-none-eabi/lib/thumb2/libm.a(lib_a-s_nan.o)
 .debug_info    0x00024e7f      0x206 /opt/paparazzi/arm-multilib/lib/gcc/arm-none-eabi/4.6.2/../../../../arm-none-eabi/lib/thumb2/libm.a(lib_a-s_scalbn.o)
 .debug_info    0x00025085       0xc8 /opt/paparazzi/arm-multilib/lib/gcc/arm-none-eabi/4.6.2/../../../../arm-none-eabi/lib/thumb2/libm.a(lib_a-sf_finite.o)
 .debug_info    0x0002514d      0x15d /opt/paparazzi/arm-multilib/lib/gcc/arm-none-eabi/4.6.2/../../../../arm-none-eabi/lib/thumb2/libm.a(lib_a-sf_floor.o)
 .debug_info    0x000252aa       0xc6 /opt/paparazzi/arm-multilib/lib/gcc/arm-none-eabi/4.6.2/../../../../arm-none-eabi/lib/thumb2/libm.a(lib_a-sf_fpclassify.o)
 .debug_info    0x00025370       0xca /opt/paparazzi/arm-multilib/lib/gcc/arm-none-eabi/4.6.2/../../../../arm-none-eabi/lib/thumb2/libm.a(lib_a-sf_nan.o)
 .debug_info    0x0002543a      0x1df /opt/paparazzi/arm-multilib/lib/gcc/arm-none-eabi/4.6.2/../../../../arm-none-eabi/lib/thumb2/libm.a(lib_a-sf_scalbn.o)
 .debug_info    0x00025619      0x168 /opt/paparazzi/arm-multilib/lib/gcc/arm-none-eabi/4.6.2/../../../../arm-none-eabi/lib/thumb2/libm.a(lib_a-s_copysign.o)
 .debug_info    0x00025781      0x122 /opt/paparazzi/arm-multilib/lib/gcc/arm-none-eabi/4.6.2/../../../../arm-none-eabi/lib/thumb2/libm.a(lib_a-sf_copysign.o)
 .debug_info    0x000258a3       0xcc /opt/paparazzi/arm-multilib/lib/gcc/arm-none-eabi/4.6.2/thumb2/libgcc.a(_divsi3.o)
 .debug_info    0x0002596f       0xcc /opt/paparazzi/arm-multilib/lib/gcc/arm-none-eabi/4.6.2/thumb2/libgcc.a(_dvmd_tls.o)
 .debug_info    0x00025a3b       0xcb /opt/paparazzi/arm-multilib/lib/gcc/arm-none-eabi/4.6.2/thumb2/libgcc.a(_arm_addsubdf3.o)
 .debug_info    0x00025b06       0xcb /opt/paparazzi/arm-multilib/lib/gcc/arm-none-eabi/4.6.2/thumb2/libgcc.a(_arm_muldivdf3.o)
 .debug_info    0x00025bd1       0xcb /opt/paparazzi/arm-multilib/lib/gcc/arm-none-eabi/4.6.2/thumb2/libgcc.a(_arm_cmpdf2.o)
 .debug_info    0x00025c9c       0xcb /opt/paparazzi/arm-multilib/lib/gcc/arm-none-eabi/4.6.2/thumb2/libgcc.a(_arm_fixdfsi.o)
 .debug_info    0x00025d67       0xcb /opt/paparazzi/arm-multilib/lib/gcc/arm-none-eabi/4.6.2/thumb2/libgcc.a(_arm_fixunsdfsi.o)
 .debug_info    0x00025e32       0xcb /opt/paparazzi/arm-multilib/lib/gcc/arm-none-eabi/4.6.2/thumb2/libgcc.a(_arm_truncdfsf2.o)
 .debug_info    0x00025efd       0xcb /opt/paparazzi/arm-multilib/lib/gcc/arm-none-eabi/4.6.2/thumb2/libgcc.a(_arm_addsubsf3.o)
 .debug_info    0x00025fc8       0xcb /opt/paparazzi/arm-multilib/lib/gcc/arm-none-eabi/4.6.2/thumb2/libgcc.a(_arm_muldivsf3.o)
 .debug_info    0x00026093       0xcb /opt/paparazzi/arm-multilib/lib/gcc/arm-none-eabi/4.6.2/thumb2/libgcc.a(_arm_cmpsf2.o)
 .debug_info    0x0002615e       0xcb /opt/paparazzi/arm-multilib/lib/gcc/arm-none-eabi/4.6.2/thumb2/libgcc.a(_arm_fixsfsi.o)
 .debug_info    0x00026229       0xcb /opt/paparazzi/arm-multilib/lib/gcc/arm-none-eabi/4.6.2/thumb2/libgcc.a(_arm_fixunssfsi.o)
 .debug_info    0x000262f4      0xba5 /opt/paparazzi/arm-multilib/lib/gcc/arm-none-eabi/4.6.2/../../../../arm-none-eabi/lib/libstm32.a(stm32_adc.o)
 .debug_info    0x00026e99     0x1e1a /opt/paparazzi/arm-multilib/lib/gcc/arm-none-eabi/4.6.2/../../../../arm-none-eabi/lib/libstm32.a(stm32_tim.o)
 .debug_info    0x00028cb3      0x437 /opt/paparazzi/arm-multilib/lib/gcc/arm-none-eabi/4.6.2/../../../../arm-none-eabi/lib/libstm32.a(stm32_dma.o)
 .debug_info    0x000290ea      0x6a5 /opt/paparazzi/arm-multilib/lib/gcc/arm-none-eabi/4.6.2/../../../../arm-none-eabi/lib/libstm32.a(stm32_gpio.o)
 .debug_info    0x0002978f      0x9a8 /opt/paparazzi/arm-multilib/lib/gcc/arm-none-eabi/4.6.2/../../../../arm-none-eabi/lib/libstm32.a(stm32_usart.o)
 .debug_info    0x0002a137      0x326 /opt/paparazzi/arm-multilib/lib/gcc/arm-none-eabi/4.6.2/../../../../arm-none-eabi/lib/libstm32.a(stm32_exti.o)
 .debug_info    0x0002a45d      0xafc /opt/paparazzi/arm-multilib/lib/gcc/arm-none-eabi/4.6.2/../../../../arm-none-eabi/lib/libstm32.a(stm32_i2c.o)
 .debug_info    0x0002af59      0x927 /opt/paparazzi/arm-multilib/lib/gcc/arm-none-eabi/4.6.2/../../../../arm-none-eabi/lib/libstm32.a(stm32_spi.o)
 .debug_info    0x0002b880      0x8b8 /opt/paparazzi/arm-multilib/lib/gcc/arm-none-eabi/4.6.2/../../../../arm-none-eabi/lib/libstm32.a(stm32_rcc.o)
 .debug_info    0x0002c138      0x51b /opt/paparazzi/arm-multilib/lib/gcc/arm-none-eabi/4.6.2/../../../../arm-none-eabi/lib/libstm32.a(stm32_misc.o)
 .debug_info    0x0002c653      0x686 /opt/paparazzi/arm-multilib/lib/gcc/arm-none-eabi/4.6.2/../../../../arm-none-eabi/lib/libopencm3_stm32.a(rcc.o)
 .debug_info    0x0002ccd9      0x40c /opt/paparazzi/arm-multilib/lib/gcc/arm-none-eabi/4.6.2/../../../../arm-none-eabi/lib/libopencm3_stm32.a(usart.o)
 .debug_info    0x0002d0e5      0x2ca /opt/paparazzi/arm-multilib/lib/gcc/arm-none-eabi/4.6.2/../../../../arm-none-eabi/lib/libopencm3_stm32.a(flash.o)
 .debug_info    0x0002d3af      0x964 /opt/paparazzi/arm-multilib/lib/gcc/arm-none-eabi/4.6.2/../../../../arm-none-eabi/lib/thumb2/libc.a(lib_a-errno.o)
 .debug_info    0x0002dd13      0x966 /opt/paparazzi/arm-multilib/lib/gcc/arm-none-eabi/4.6.2/../../../../arm-none-eabi/lib/thumb2/libc.a(lib_a-impure.o)

.debug_abbrev   0x00000000     0x89d1
 *(.debug_abbrev)
 .debug_abbrev  0x00000000      0x178 /home/mav/paparazzi/var/Radian/ap/mcu.o
 .debug_abbrev  0x00000178       0x41 /home/mav/paparazzi/var/Radian/ap/arch/stm32/mcu_arch.o
 .debug_abbrev  0x000001b9       0x2a /home/mav/paparazzi/var/Radian/ap/arch/stm32/led_hw.o
 .debug_abbrev  0x000001e3      0x15c /home/mav/paparazzi/var/Radian/ap/mcu_periph/sys_time.o
 .debug_abbrev  0x0000033f      0x1e4 /home/mav/paparazzi/var/Radian/ap/arch/stm32/mcu_periph/sys_time_arch.o
 .debug_abbrev  0x00000523       0xa8 /home/mav/paparazzi/var/Radian/ap/./inter_mcu.o
 .debug_abbrev  0x000005cb      0x12a /home/mav/paparazzi/var/Radian/ap/math/pprz_geodetic_int.o
 .debug_abbrev  0x000006f5      0x24e /home/mav/paparazzi/var/Radian/ap/math/pprz_geodetic_float.o
 .debug_abbrev  0x00000943      0x1ce /home/mav/paparazzi/var/Radian/ap/math/pprz_geodetic_double.o
 .debug_abbrev  0x00000b11       0x5a /home/mav/paparazzi/var/Radian/ap/math/pprz_trig_int.o
 .debug_abbrev  0x00000b6b       0xcd /home/mav/paparazzi/var/Radian/ap/mcu_periph/i2c.o
 .debug_abbrev  0x00000c38      0x16b /home/mav/paparazzi/var/Radian/ap/arch/stm32/mcu_periph/i2c_arch.o
 .debug_abbrev  0x00000da3      0x244 /home/mav/paparazzi/var/Radian/ap/firmwares/fixedwing/main_fbw.o
 .debug_abbrev  0x00000fe7       0xe0 /home/mav/paparazzi/var/Radian/ap/subsystems/electrical.o
 .debug_abbrev  0x000010c7       0x61 /home/mav/paparazzi/var/Radian/ap/./commands.o
 .debug_abbrev  0x00001128       0x48 /home/mav/paparazzi/var/Radian/ap/firmwares/fixedwing/fbw_downlink.o
 .debug_abbrev  0x00001170      0x34e /home/mav/paparazzi/var/Radian/ap/firmwares/fixedwing/main_ap.o
 .debug_abbrev  0x000014be      0x121 /home/mav/paparazzi/var/Radian/ap/./estimator.o
 .debug_abbrev  0x000015df       0x48 /home/mav/paparazzi/var/Radian/ap/firmwares/fixedwing/ap_downlink.o
 .debug_abbrev  0x00001627       0x2b /home/mav/paparazzi/var/Radian/ap/arch/stm32/stm32_exceptions.o
 .debug_abbrev  0x00001652      0x141 /home/mav/paparazzi/var/Radian/ap/arch/stm32/stm32_vector_table.o
 .debug_abbrev  0x00001793       0xc8 /home/mav/paparazzi/var/Radian/ap/lisa/plug_sys.o
 .debug_abbrev  0x0000185b       0x43 /home/mav/paparazzi/var/Radian/ap/firmwares/fixedwing/main.o
 .debug_abbrev  0x0000189e       0xf6 /home/mav/paparazzi/var/Radian/ap/mcu_periph/uart.o
 .debug_abbrev  0x00001994      0x20a /home/mav/paparazzi/var/Radian/ap/arch/stm32/mcu_periph/uart_arch.o
 .debug_abbrev  0x00001b9e       0xfe /home/mav/paparazzi/var/Radian/ap/subsystems/settings.o
 .debug_abbrev  0x00001c9c      0x1c6 /home/mav/paparazzi/var/Radian/ap/arch/stm32/subsystems/settings_arch.o
 .debug_abbrev  0x00001e62      0x27f /home/mav/paparazzi/var/Radian/ap/arch/stm32/mcu_periph/adc_arch.o
 .debug_abbrev  0x000020e1       0x71 /home/mav/paparazzi/var/Radian/ap/arch/stm32/servos_direct_hw.o
 .debug_abbrev  0x00002152       0x5a /home/mav/paparazzi/var/Radian/ap/actuators.o
 .debug_abbrev  0x000021ac      0x108 /home/mav/paparazzi/var/Radian/ap/firmwares/rotorcraft/actuators/arch/stm32/actuators_pwm_arch.o
 .debug_abbrev  0x000022b4       0x89 /home/mav/paparazzi/var/Radian/ap/subsystems/radio_control.o
 .debug_abbrev  0x0000233d        0x1 /home/mav/paparazzi/var/Radian/ap/subsystems/radio_control/spektrum.o
 .debug_abbrev  0x0000233e      0x247 /home/mav/paparazzi/var/Radian/ap/arch/stm32/subsystems/radio_control/spektrum_arch.o
 .debug_abbrev  0x00002585       0x48 /home/mav/paparazzi/var/Radian/ap/subsystems/datalink/downlink.o
 .debug_abbrev  0x000025cd       0x90 /home/mav/paparazzi/var/Radian/ap/subsystems/datalink/pprz_transport.o
 .debug_abbrev  0x0000265d      0x212 /home/mav/paparazzi/var/Radian/ap/firmwares/fixedwing/datalink.o
 .debug_abbrev  0x0000286f      0x1a4 /home/mav/paparazzi/var/Radian/ap/firmwares/fixedwing/stabilization/stabilization_attitude.o
 .debug_abbrev  0x00002a13      0x19f /home/mav/paparazzi/var/Radian/ap/firmwares/fixedwing/guidance/guidance_v.o
 .debug_abbrev  0x00002bb2       0x87 /home/mav/paparazzi/var/Radian/ap/subsystems/ahrs.o
 .debug_abbrev  0x00002c39      0x2c1 /home/mav/paparazzi/var/Radian/ap/subsystems/ahrs/ahrs_int_cmpl_quat.o
 .debug_abbrev  0x00002efa      0x142 /home/mav/paparazzi/var/Radian/ap/subsystems/ahrs/ahrs_aligner.o
 .debug_abbrev  0x0000303c      0x318 /home/mav/paparazzi/var/Radian/ap/subsystems/gps/gps_ubx.o
 .debug_abbrev  0x00003354       0xaf /home/mav/paparazzi/var/Radian/ap/subsystems/gps.o
 .debug_abbrev  0x00003403      0x1e3 /home/mav/paparazzi/var/Radian/ap/subsystems/imu.o
 .debug_abbrev  0x000035e6      0x168 /home/mav/paparazzi/var/Radian/ap/subsystems/imu/imu_aspirin2.o
 .debug_abbrev  0x0000374e      0x108 /home/mav/paparazzi/var/Radian/ap/arch/stm32/subsystems/imu/imu_aspirin2_arch.o
 .debug_abbrev  0x00003856      0x17e /home/mav/paparazzi/var/Radian/ap/arch/stm32/mcu_periph/spi_arch.o
 .debug_abbrev  0x000039d4       0x58 /home/mav/paparazzi/var/Radian/ap/mcu_periph/spi.o
 .debug_abbrev  0x00003a2c      0x3aa /home/mav/paparazzi/var/Radian/ap/subsystems/nav.o
 .debug_abbrev  0x00003dd6       0x96 /home/mav/paparazzi/var/Radian/ap/subsystems/navigation/common_flight_plan.o
 .debug_abbrev  0x00003e6c       0xe0 /home/mav/paparazzi/var/Radian/ap/subsystems/navigation/traffic_info.o
 .debug_abbrev  0x00003f4c      0x109 /home/mav/paparazzi/var/Radian/ap/subsystems/navigation/nav_survey_rectangle.o
 .debug_abbrev  0x00004055      0x131 /home/mav/paparazzi/var/Radian/ap/subsystems/navigation/nav_line.o
 .debug_abbrev  0x00004186       0xa6 /opt/paparazzi/arm-multilib/lib/gcc/arm-none-eabi/4.6.2/../../../../arm-none-eabi/lib/thumb2/libc.a(lib_a-ldiv.o)
 .debug_abbrev  0x0000422c       0xa1 /opt/paparazzi/arm-multilib/lib/gcc/arm-none-eabi/4.6.2/../../../../arm-none-eabi/lib/thumb2/libc.a(lib_a-memcpy.o)
 .debug_abbrev  0x000042cd      0x125 /opt/paparazzi/arm-multilib/lib/gcc/arm-none-eabi/4.6.2/../../../../arm-none-eabi/lib/thumb2/libm.a(lib_a-s_atan.o)
 .debug_abbrev  0x000043f2       0x9c /opt/paparazzi/arm-multilib/lib/gcc/arm-none-eabi/4.6.2/../../../../arm-none-eabi/lib/thumb2/libm.a(lib_a-s_cos.o)
 .debug_abbrev  0x0000448e       0xc5 /opt/paparazzi/arm-multilib/lib/gcc/arm-none-eabi/4.6.2/../../../../arm-none-eabi/lib/thumb2/libm.a(lib_a-s_fabs.o)
 .debug_abbrev  0x00004553      0x11d /opt/paparazzi/arm-multilib/lib/gcc/arm-none-eabi/4.6.2/../../../../arm-none-eabi/lib/thumb2/libm.a(lib_a-s_rint.o)
 .debug_abbrev  0x00004670       0x9c /opt/paparazzi/arm-multilib/lib/gcc/arm-none-eabi/4.6.2/../../../../arm-none-eabi/lib/thumb2/libm.a(lib_a-s_sin.o)
 .debug_abbrev  0x0000470c       0x9c /opt/paparazzi/arm-multilib/lib/gcc/arm-none-eabi/4.6.2/../../../../arm-none-eabi/lib/thumb2/libm.a(lib_a-s_tan.o)
 .debug_abbrev  0x000047a8      0x100 /opt/paparazzi/arm-multilib/lib/gcc/arm-none-eabi/4.6.2/../../../../arm-none-eabi/lib/thumb2/libm.a(lib_a-sf_atan.o)
 .debug_abbrev  0x000048a8       0xa5 /opt/paparazzi/arm-multilib/lib/gcc/arm-none-eabi/4.6.2/../../../../arm-none-eabi/lib/thumb2/libm.a(lib_a-sf_cos.o)
 .debug_abbrev  0x0000494d       0x6a /opt/paparazzi/arm-multilib/lib/gcc/arm-none-eabi/4.6.2/../../../../arm-none-eabi/lib/thumb2/libm.a(lib_a-sf_fabs.o)
 .debug_abbrev  0x000049b7       0x9c /opt/paparazzi/arm-multilib/lib/gcc/arm-none-eabi/4.6.2/../../../../arm-none-eabi/lib/thumb2/libm.a(lib_a-sf_sin.o)
 .debug_abbrev  0x00004a53       0xcf /opt/paparazzi/arm-multilib/lib/gcc/arm-none-eabi/4.6.2/../../../../arm-none-eabi/lib/thumb2/libm.a(lib_a-w_asin.o)
 .debug_abbrev  0x00004b22       0x50 /opt/paparazzi/arm-multilib/lib/gcc/arm-none-eabi/4.6.2/../../../../arm-none-eabi/lib/thumb2/libm.a(lib_a-w_atan2.o)
 .debug_abbrev  0x00004b72       0xcf /opt/paparazzi/arm-multilib/lib/gcc/arm-none-eabi/4.6.2/../../../../arm-none-eabi/lib/thumb2/libm.a(lib_a-w_cosh.o)
 .debug_abbrev  0x00004c41       0xe5 /opt/paparazzi/arm-multilib/lib/gcc/arm-none-eabi/4.6.2/../../../../arm-none-eabi/lib/thumb2/libm.a(lib_a-w_exp.o)
 .debug_abbrev  0x00004d26       0xcf /opt/paparazzi/arm-multilib/lib/gcc/arm-none-eabi/4.6.2/../../../../arm-none-eabi/lib/thumb2/libm.a(lib_a-w_log.o)
 .debug_abbrev  0x00004df5       0xcf /opt/paparazzi/arm-multilib/lib/gcc/arm-none-eabi/4.6.2/../../../../arm-none-eabi/lib/thumb2/libm.a(lib_a-w_pow.o)
 .debug_abbrev  0x00004ec4       0xcf /opt/paparazzi/arm-multilib/lib/gcc/arm-none-eabi/4.6.2/../../../../arm-none-eabi/lib/thumb2/libm.a(lib_a-w_sinh.o)
 .debug_abbrev  0x00004f93       0xcf /opt/paparazzi/arm-multilib/lib/gcc/arm-none-eabi/4.6.2/../../../../arm-none-eabi/lib/thumb2/libm.a(lib_a-w_sqrt.o)
 .debug_abbrev  0x00005062       0xcf /opt/paparazzi/arm-multilib/lib/gcc/arm-none-eabi/4.6.2/../../../../arm-none-eabi/lib/thumb2/libm.a(lib_a-wf_asin.o)
 .debug_abbrev  0x00005131       0x50 /opt/paparazzi/arm-multilib/lib/gcc/arm-none-eabi/4.6.2/../../../../arm-none-eabi/lib/thumb2/libm.a(lib_a-wf_atan2.o)
 .debug_abbrev  0x00005181       0xcf /opt/paparazzi/arm-multilib/lib/gcc/arm-none-eabi/4.6.2/../../../../arm-none-eabi/lib/thumb2/libm.a(lib_a-wf_pow.o)
 .debug_abbrev  0x00005250       0xcf /opt/paparazzi/arm-multilib/lib/gcc/arm-none-eabi/4.6.2/../../../../arm-none-eabi/lib/thumb2/libm.a(lib_a-wf_sqrt.o)
 .debug_abbrev  0x0000531f      0x10b /opt/paparazzi/arm-multilib/lib/gcc/arm-none-eabi/4.6.2/../../../../arm-none-eabi/lib/thumb2/libm.a(lib_a-e_asin.o)
 .debug_abbrev  0x0000542a      0x120 /opt/paparazzi/arm-multilib/lib/gcc/arm-none-eabi/4.6.2/../../../../arm-none-eabi/lib/thumb2/libm.a(lib_a-e_atan2.o)
 .debug_abbrev  0x0000554a       0x93 /opt/paparazzi/arm-multilib/lib/gcc/arm-none-eabi/4.6.2/../../../../arm-none-eabi/lib/thumb2/libm.a(lib_a-e_cosh.o)
 .debug_abbrev  0x000055dd      0x13b /opt/paparazzi/arm-multilib/lib/gcc/arm-none-eabi/4.6.2/../../../../arm-none-eabi/lib/thumb2/libm.a(lib_a-e_exp.o)
 .debug_abbrev  0x00005718      0x11a /opt/paparazzi/arm-multilib/lib/gcc/arm-none-eabi/4.6.2/../../../../arm-none-eabi/lib/thumb2/libm.a(lib_a-e_log.o)
 .debug_abbrev  0x00005832      0x16f /opt/paparazzi/arm-multilib/lib/gcc/arm-none-eabi/4.6.2/../../../../arm-none-eabi/lib/thumb2/libm.a(lib_a-e_pow.o)
 .debug_abbrev  0x000059a1      0x13b /opt/paparazzi/arm-multilib/lib/gcc/arm-none-eabi/4.6.2/../../../../arm-none-eabi/lib/thumb2/libm.a(lib_a-e_rem_pio2.o)
 .debug_abbrev  0x00005adc       0x93 /opt/paparazzi/arm-multilib/lib/gcc/arm-none-eabi/4.6.2/../../../../arm-none-eabi/lib/thumb2/libm.a(lib_a-e_sinh.o)
 .debug_abbrev  0x00005b6f      0x104 /opt/paparazzi/arm-multilib/lib/gcc/arm-none-eabi/4.6.2/../../../../arm-none-eabi/lib/thumb2/libm.a(lib_a-e_sqrt.o)
 .debug_abbrev  0x00005c73       0xe8 /opt/paparazzi/arm-multilib/lib/gcc/arm-none-eabi/4.6.2/../../../../arm-none-eabi/lib/thumb2/libm.a(lib_a-ef_asin.o)
 .debug_abbrev  0x00005d5b       0xec /opt/paparazzi/arm-multilib/lib/gcc/arm-none-eabi/4.6.2/../../../../arm-none-eabi/lib/thumb2/libm.a(lib_a-ef_atan2.o)
 .debug_abbrev  0x00005e47      0x137 /opt/paparazzi/arm-multilib/lib/gcc/arm-none-eabi/4.6.2/../../../../arm-none-eabi/lib/thumb2/libm.a(lib_a-ef_pow.o)
 .debug_abbrev  0x00005f7e      0x107 /opt/paparazzi/arm-multilib/lib/gcc/arm-none-eabi/4.6.2/../../../../arm-none-eabi/lib/thumb2/libm.a(lib_a-ef_rem_pio2.o)
 .debug_abbrev  0x00006085       0xd2 /opt/paparazzi/arm-multilib/lib/gcc/arm-none-eabi/4.6.2/../../../../arm-none-eabi/lib/thumb2/libm.a(lib_a-ef_sqrt.o)
 .debug_abbrev  0x00006157       0xec /opt/paparazzi/arm-multilib/lib/gcc/arm-none-eabi/4.6.2/../../../../arm-none-eabi/lib/thumb2/libm.a(lib_a-k_cos.o)
 .debug_abbrev  0x00006243       0xf7 /opt/paparazzi/arm-multilib/lib/gcc/arm-none-eabi/4.6.2/../../../../arm-none-eabi/lib/thumb2/libm.a(lib_a-k_rem_pio2.o)
 .debug_abbrev  0x0000633a       0xa2 /opt/paparazzi/arm-multilib/lib/gcc/arm-none-eabi/4.6.2/../../../../arm-none-eabi/lib/thumb2/libm.a(lib_a-k_sin.o)
 .debug_abbrev  0x000063dc      0x144 /opt/paparazzi/arm-multilib/lib/gcc/arm-none-eabi/4.6.2/../../../../arm-none-eabi/lib/thumb2/libm.a(lib_a-k_tan.o)
 .debug_abbrev  0x00006520       0x91 /opt/paparazzi/arm-multilib/lib/gcc/arm-none-eabi/4.6.2/../../../../arm-none-eabi/lib/thumb2/libm.a(lib_a-kf_cos.o)
 .debug_abbrev  0x000065b1       0xf7 /opt/paparazzi/arm-multilib/lib/gcc/arm-none-eabi/4.6.2/../../../../arm-none-eabi/lib/thumb2/libm.a(lib_a-kf_rem_pio2.o)
 .debug_abbrev  0x000066a8       0x93 /opt/paparazzi/arm-multilib/lib/gcc/arm-none-eabi/4.6.2/../../../../arm-none-eabi/lib/thumb2/libm.a(lib_a-kf_sin.o)
 .debug_abbrev  0x0000673b      0x129 /opt/paparazzi/arm-multilib/lib/gcc/arm-none-eabi/4.6.2/../../../../arm-none-eabi/lib/thumb2/libm.a(lib_a-s_expm1.o)
 .debug_abbrev  0x00006864       0x6c /opt/paparazzi/arm-multilib/lib/gcc/arm-none-eabi/4.6.2/../../../../arm-none-eabi/lib/thumb2/libm.a(lib_a-s_finite.o)
 .debug_abbrev  0x000068d0       0xf7 /opt/paparazzi/arm-multilib/lib/gcc/arm-none-eabi/4.6.2/../../../../arm-none-eabi/lib/thumb2/libm.a(lib_a-s_floor.o)
 .debug_abbrev  0x000069c7       0x6c /opt/paparazzi/arm-multilib/lib/gcc/arm-none-eabi/4.6.2/../../../../arm-none-eabi/lib/thumb2/libm.a(lib_a-s_fpclassify.o)
 .debug_abbrev  0x00006a33       0x53 /opt/paparazzi/arm-multilib/lib/gcc/arm-none-eabi/4.6.2/../../../../arm-none-eabi/lib/thumb2/libm.a(lib_a-s_lib_ver.o)
 .debug_abbrev  0x00006a86       0x97 /opt/paparazzi/arm-multilib/lib/gcc/arm-none-eabi/4.6.2/../../../../arm-none-eabi/lib/thumb2/libm.a(lib_a-s_matherr.o)
 .debug_abbrev  0x00006b1d       0x6f /opt/paparazzi/arm-multilib/lib/gcc/arm-none-eabi/4.6.2/../../../../arm-none-eabi/lib/thumb2/libm.a(lib_a-s_nan.o)
 .debug_abbrev  0x00006b8c       0xfe /opt/paparazzi/arm-multilib/lib/gcc/arm-none-eabi/4.6.2/../../../../arm-none-eabi/lib/thumb2/libm.a(lib_a-s_scalbn.o)
 .debug_abbrev  0x00006c8a       0x6c /opt/paparazzi/arm-multilib/lib/gcc/arm-none-eabi/4.6.2/../../../../arm-none-eabi/lib/thumb2/libm.a(lib_a-sf_finite.o)
 .debug_abbrev  0x00006cf6       0xc3 /opt/paparazzi/arm-multilib/lib/gcc/arm-none-eabi/4.6.2/../../../../arm-none-eabi/lib/thumb2/libm.a(lib_a-sf_floor.o)
 .debug_abbrev  0x00006db9       0x6c /opt/paparazzi/arm-multilib/lib/gcc/arm-none-eabi/4.6.2/../../../../arm-none-eabi/lib/thumb2/libm.a(lib_a-sf_fpclassify.o)
 .debug_abbrev  0x00006e25       0x6f /opt/paparazzi/arm-multilib/lib/gcc/arm-none-eabi/4.6.2/../../../../arm-none-eabi/lib/thumb2/libm.a(lib_a-sf_nan.o)
 .debug_abbrev  0x00006e94       0xdb /opt/paparazzi/arm-multilib/lib/gcc/arm-none-eabi/4.6.2/../../../../arm-none-eabi/lib/thumb2/libm.a(lib_a-sf_scalbn.o)
 .debug_abbrev  0x00006f6f       0xec /opt/paparazzi/arm-multilib/lib/gcc/arm-none-eabi/4.6.2/../../../../arm-none-eabi/lib/thumb2/libm.a(lib_a-s_copysign.o)
 .debug_abbrev  0x0000705b       0xb6 /opt/paparazzi/arm-multilib/lib/gcc/arm-none-eabi/4.6.2/../../../../arm-none-eabi/lib/thumb2/libm.a(lib_a-sf_copysign.o)
 .debug_abbrev  0x00007111       0x14 /opt/paparazzi/arm-multilib/lib/gcc/arm-none-eabi/4.6.2/thumb2/libgcc.a(_divsi3.o)
 .debug_abbrev  0x00007125       0x14 /opt/paparazzi/arm-multilib/lib/gcc/arm-none-eabi/4.6.2/thumb2/libgcc.a(_dvmd_tls.o)
 .debug_abbrev  0x00007139       0x14 /opt/paparazzi/arm-multilib/lib/gcc/arm-none-eabi/4.6.2/thumb2/libgcc.a(_arm_addsubdf3.o)
 .debug_abbrev  0x0000714d       0x14 /opt/paparazzi/arm-multilib/lib/gcc/arm-none-eabi/4.6.2/thumb2/libgcc.a(_arm_muldivdf3.o)
 .debug_abbrev  0x00007161       0x14 /opt/paparazzi/arm-multilib/lib/gcc/arm-none-eabi/4.6.2/thumb2/libgcc.a(_arm_cmpdf2.o)
 .debug_abbrev  0x00007175       0x14 /opt/paparazzi/arm-multilib/lib/gcc/arm-none-eabi/4.6.2/thumb2/libgcc.a(_arm_fixdfsi.o)
 .debug_abbrev  0x00007189       0x14 /opt/paparazzi/arm-multilib/lib/gcc/arm-none-eabi/4.6.2/thumb2/libgcc.a(_arm_fixunsdfsi.o)
 .debug_abbrev  0x0000719d       0x14 /opt/paparazzi/arm-multilib/lib/gcc/arm-none-eabi/4.6.2/thumb2/libgcc.a(_arm_truncdfsf2.o)
 .debug_abbrev  0x000071b1       0x14 /opt/paparazzi/arm-multilib/lib/gcc/arm-none-eabi/4.6.2/thumb2/libgcc.a(_arm_addsubsf3.o)
 .debug_abbrev  0x000071c5       0x14 /opt/paparazzi/arm-multilib/lib/gcc/arm-none-eabi/4.6.2/thumb2/libgcc.a(_arm_muldivsf3.o)
 .debug_abbrev  0x000071d9       0x14 /opt/paparazzi/arm-multilib/lib/gcc/arm-none-eabi/4.6.2/thumb2/libgcc.a(_arm_cmpsf2.o)
 .debug_abbrev  0x000071ed       0x14 /opt/paparazzi/arm-multilib/lib/gcc/arm-none-eabi/4.6.2/thumb2/libgcc.a(_arm_fixsfsi.o)
 .debug_abbrev  0x00007201       0x14 /opt/paparazzi/arm-multilib/lib/gcc/arm-none-eabi/4.6.2/thumb2/libgcc.a(_arm_fixunssfsi.o)
 .debug_abbrev  0x00007215      0x1ad /opt/paparazzi/arm-multilib/lib/gcc/arm-none-eabi/4.6.2/../../../../arm-none-eabi/lib/libstm32.a(stm32_adc.o)
 .debug_abbrev  0x000073c2      0x25a /opt/paparazzi/arm-multilib/lib/gcc/arm-none-eabi/4.6.2/../../../../arm-none-eabi/lib/libstm32.a(stm32_tim.o)
 .debug_abbrev  0x0000761c      0x17a /opt/paparazzi/arm-multilib/lib/gcc/arm-none-eabi/4.6.2/../../../../arm-none-eabi/lib/libstm32.a(stm32_dma.o)
 .debug_abbrev  0x00007796      0x1c5 /opt/paparazzi/arm-multilib/lib/gcc/arm-none-eabi/4.6.2/../../../../arm-none-eabi/lib/libstm32.a(stm32_gpio.o)
 .debug_abbrev  0x0000795b      0x1d7 /opt/paparazzi/arm-multilib/lib/gcc/arm-none-eabi/4.6.2/../../../../arm-none-eabi/lib/libstm32.a(stm32_usart.o)
 .debug_abbrev  0x00007b32      0x15a /opt/paparazzi/arm-multilib/lib/gcc/arm-none-eabi/4.6.2/../../../../arm-none-eabi/lib/libstm32.a(stm32_exti.o)
 .debug_abbrev  0x00007c8c      0x18b /opt/paparazzi/arm-multilib/lib/gcc/arm-none-eabi/4.6.2/../../../../arm-none-eabi/lib/libstm32.a(stm32_i2c.o)
 .debug_abbrev  0x00007e17      0x1b6 /opt/paparazzi/arm-multilib/lib/gcc/arm-none-eabi/4.6.2/../../../../arm-none-eabi/lib/libstm32.a(stm32_spi.o)
 .debug_abbrev  0x00007fcd      0x1f6 /opt/paparazzi/arm-multilib/lib/gcc/arm-none-eabi/4.6.2/../../../../arm-none-eabi/lib/libstm32.a(stm32_rcc.o)
 .debug_abbrev  0x000081c3      0x129 /opt/paparazzi/arm-multilib/lib/gcc/arm-none-eabi/4.6.2/../../../../arm-none-eabi/lib/libstm32.a(stm32_misc.o)
 .debug_abbrev  0x000082ec      0x218 /opt/paparazzi/arm-multilib/lib/gcc/arm-none-eabi/4.6.2/../../../../arm-none-eabi/lib/libopencm3_stm32.a(rcc.o)
 .debug_abbrev  0x00008504      0x119 /opt/paparazzi/arm-multilib/lib/gcc/arm-none-eabi/4.6.2/../../../../arm-none-eabi/lib/libopencm3_stm32.a(usart.o)
 .debug_abbrev  0x0000861d       0xe0 /opt/paparazzi/arm-multilib/lib/gcc/arm-none-eabi/4.6.2/../../../../arm-none-eabi/lib/libopencm3_stm32.a(flash.o)
 .debug_abbrev  0x000086fd      0x16e /opt/paparazzi/arm-multilib/lib/gcc/arm-none-eabi/4.6.2/../../../../arm-none-eabi/lib/thumb2/libc.a(lib_a-errno.o)
 .debug_abbrev  0x0000886b      0x166 /opt/paparazzi/arm-multilib/lib/gcc/arm-none-eabi/4.6.2/../../../../arm-none-eabi/lib/thumb2/libc.a(lib_a-impure.o)

.debug_line     0x00000000    0x1205e
 *(.debug_line)
 .debug_line    0x00000000      0x218 /home/mav/paparazzi/var/Radian/ap/mcu.o
 .debug_line    0x00000218       0x4b /home/mav/paparazzi/var/Radian/ap/arch/stm32/mcu_arch.o
 .debug_line    0x00000263       0x1d /home/mav/paparazzi/var/Radian/ap/arch/stm32/led_hw.o
 .debug_line    0x00000280      0x16b /home/mav/paparazzi/var/Radian/ap/mcu_periph/sys_time.o
 .debug_line    0x000003eb      0x1e1 /home/mav/paparazzi/var/Radian/ap/arch/stm32/mcu_periph/sys_time_arch.o
 .debug_line    0x000005cc      0x128 /home/mav/paparazzi/var/Radian/ap/./inter_mcu.o
 .debug_line    0x000006f4      0x2a5 /home/mav/paparazzi/var/Radian/ap/math/pprz_geodetic_int.o
 .debug_line    0x00000999      0x484 /home/mav/paparazzi/var/Radian/ap/math/pprz_geodetic_float.o
 .debug_line    0x00000e1d      0x2a6 /home/mav/paparazzi/var/Radian/ap/math/pprz_geodetic_double.o
 .debug_line    0x000010c3       0x9b /home/mav/paparazzi/var/Radian/ap/math/pprz_trig_int.o
 .debug_line    0x0000115e       0xc0 /home/mav/paparazzi/var/Radian/ap/mcu_periph/i2c.o
 .debug_line    0x0000121e      0x1be /home/mav/paparazzi/var/Radian/ap/arch/stm32/mcu_periph/i2c_arch.o
 .debug_line    0x000013dc      0x462 /home/mav/paparazzi/var/Radian/ap/firmwares/fixedwing/main_fbw.o
 .debug_line    0x0000183e       0xfd /home/mav/paparazzi/var/Radian/ap/subsystems/electrical.o
 .debug_line    0x0000193b       0xa0 /home/mav/paparazzi/var/Radian/ap/./commands.o
 .debug_line    0x000019db       0xc4 /home/mav/paparazzi/var/Radian/ap/firmwares/fixedwing/fbw_downlink.o
 .debug_line    0x00001a9f     0x1474 /home/mav/paparazzi/var/Radian/ap/firmwares/fixedwing/main_ap.o
 .debug_line    0x00002f13      0x1d9 /home/mav/paparazzi/var/Radian/ap/./estimator.o
 .debug_line    0x000030ec       0xc4 /home/mav/paparazzi/var/Radian/ap/firmwares/fixedwing/ap_downlink.o
 .debug_line    0x000031b0       0x8a /home/mav/paparazzi/var/Radian/ap/arch/stm32/stm32_exceptions.o
 .debug_line    0x0000323a      0x1b5 /home/mav/paparazzi/var/Radian/ap/arch/stm32/stm32_vector_table.o
 .debug_line    0x000033ef      0x17c /home/mav/paparazzi/var/Radian/ap/lisa/plug_sys.o
 .debug_line    0x0000356b       0x60 /home/mav/paparazzi/var/Radian/ap/firmwares/fixedwing/main.o
 .debug_line    0x000035cb      0x100 /home/mav/paparazzi/var/Radian/ap/mcu_periph/uart.o
 .debug_line    0x000036cb      0x29d /home/mav/paparazzi/var/Radian/ap/arch/stm32/mcu_periph/uart_arch.o
 .debug_line    0x00003968      0x1ec /home/mav/paparazzi/var/Radian/ap/subsystems/settings.o
 .debug_line    0x00003b54      0x34e /home/mav/paparazzi/var/Radian/ap/arch/stm32/subsystems/settings_arch.o
 .debug_line    0x00003ea2      0x2a7 /home/mav/paparazzi/var/Radian/ap/arch/stm32/mcu_periph/adc_arch.o
 .debug_line    0x00004149       0xb3 /home/mav/paparazzi/var/Radian/ap/arch/stm32/servos_direct_hw.o
 .debug_line    0x000041fc       0x92 /home/mav/paparazzi/var/Radian/ap/actuators.o
 .debug_line    0x0000428e      0x247 /home/mav/paparazzi/var/Radian/ap/firmwares/rotorcraft/actuators/arch/stm32/actuators_pwm_arch.o
 .debug_line    0x000044d5       0xd2 /home/mav/paparazzi/var/Radian/ap/subsystems/radio_control.o
 .debug_line    0x000045a7        0x0 /home/mav/paparazzi/var/Radian/ap/subsystems/radio_control/spektrum.o
 .debug_line    0x000045a7      0x3e7 /home/mav/paparazzi/var/Radian/ap/arch/stm32/subsystems/radio_control/spektrum_arch.o
 .debug_line    0x0000498e       0xa5 /home/mav/paparazzi/var/Radian/ap/subsystems/datalink/downlink.o
 .debug_line    0x00004a33      0x11a /home/mav/paparazzi/var/Radian/ap/subsystems/datalink/pprz_transport.o
 .debug_line    0x00004b4d      0x4ce /home/mav/paparazzi/var/Radian/ap/firmwares/fixedwing/datalink.o
 .debug_line    0x0000501b      0x2b6 /home/mav/paparazzi/var/Radian/ap/firmwares/fixedwing/stabilization/stabilization_attitude.o
 .debug_line    0x000052d1      0x273 /home/mav/paparazzi/var/Radian/ap/firmwares/fixedwing/guidance/guidance_v.o
 .debug_line    0x00005544       0xe4 /home/mav/paparazzi/var/Radian/ap/subsystems/ahrs.o
 .debug_line    0x00005628      0x854 /home/mav/paparazzi/var/Radian/ap/subsystems/ahrs/ahrs_int_cmpl_quat.o
 .debug_line    0x00005e7c      0x1ac /home/mav/paparazzi/var/Radian/ap/subsystems/ahrs/ahrs_aligner.o
 .debug_line    0x00006028      0x432 /home/mav/paparazzi/var/Radian/ap/subsystems/gps/gps_ubx.o
 .debug_line    0x0000645a       0xde /home/mav/paparazzi/var/Radian/ap/subsystems/gps.o
 .debug_line    0x00006538      0x188 /home/mav/paparazzi/var/Radian/ap/subsystems/imu.o
 .debug_line    0x000066c0      0x1c6 /home/mav/paparazzi/var/Radian/ap/subsystems/imu/imu_aspirin2.o
 .debug_line    0x00006886      0x1c1 /home/mav/paparazzi/var/Radian/ap/arch/stm32/subsystems/imu/imu_aspirin2_arch.o
 .debug_line    0x00006a47      0x304 /home/mav/paparazzi/var/Radian/ap/arch/stm32/mcu_periph/spi_arch.o
 .debug_line    0x00006d4b       0xbf /home/mav/paparazzi/var/Radian/ap/mcu_periph/spi.o
 .debug_line    0x00006e0a      0x8e4 /home/mav/paparazzi/var/Radian/ap/subsystems/nav.o
 .debug_line    0x000076ee      0x10b /home/mav/paparazzi/var/Radian/ap/subsystems/navigation/common_flight_plan.o
 .debug_line    0x000077f9       0xfa /home/mav/paparazzi/var/Radian/ap/subsystems/navigation/traffic_info.o
 .debug_line    0x000078f3      0x458 /home/mav/paparazzi/var/Radian/ap/subsystems/navigation/nav_survey_rectangle.o
 .debug_line    0x00007d4b      0x40b /home/mav/paparazzi/var/Radian/ap/subsystems/navigation/nav_line.o
 .debug_line    0x00008156      0x100 /opt/paparazzi/arm-multilib/lib/gcc/arm-none-eabi/4.6.2/../../../../arm-none-eabi/lib/thumb2/libc.a(lib_a-ldiv.o)
 .debug_line    0x00008256      0x13e /opt/paparazzi/arm-multilib/lib/gcc/arm-none-eabi/4.6.2/../../../../arm-none-eabi/lib/thumb2/libc.a(lib_a-memcpy.o)
 .debug_line    0x00008394      0x1ff /opt/paparazzi/arm-multilib/lib/gcc/arm-none-eabi/4.6.2/../../../../arm-none-eabi/lib/thumb2/libm.a(lib_a-s_atan.o)
 .debug_line    0x00008593      0x17f /opt/paparazzi/arm-multilib/lib/gcc/arm-none-eabi/4.6.2/../../../../arm-none-eabi/lib/thumb2/libm.a(lib_a-s_cos.o)
 .debug_line    0x00008712      0x1b5 /opt/paparazzi/arm-multilib/lib/gcc/arm-none-eabi/4.6.2/../../../../arm-none-eabi/lib/thumb2/libm.a(lib_a-s_fabs.o)
 .debug_line    0x000088c7      0x1a4 /opt/paparazzi/arm-multilib/lib/gcc/arm-none-eabi/4.6.2/../../../../arm-none-eabi/lib/thumb2/libm.a(lib_a-s_rint.o)
 .debug_line    0x00008a6b      0x180 /opt/paparazzi/arm-multilib/lib/gcc/arm-none-eabi/4.6.2/../../../../arm-none-eabi/lib/thumb2/libm.a(lib_a-s_sin.o)
 .debug_line    0x00008beb      0x17c /opt/paparazzi/arm-multilib/lib/gcc/arm-none-eabi/4.6.2/../../../../arm-none-eabi/lib/thumb2/libm.a(lib_a-s_tan.o)
 .debug_line    0x00008d67      0x1fb /opt/paparazzi/arm-multilib/lib/gcc/arm-none-eabi/4.6.2/../../../../arm-none-eabi/lib/thumb2/libm.a(lib_a-sf_atan.o)
 .debug_line    0x00008f62      0x178 /opt/paparazzi/arm-multilib/lib/gcc/arm-none-eabi/4.6.2/../../../../arm-none-eabi/lib/thumb2/libm.a(lib_a-sf_cos.o)
 .debug_line    0x000090da      0x15c /opt/paparazzi/arm-multilib/lib/gcc/arm-none-eabi/4.6.2/../../../../arm-none-eabi/lib/thumb2/libm.a(lib_a-sf_fabs.o)
 .debug_line    0x00009236      0x175 /opt/paparazzi/arm-multilib/lib/gcc/arm-none-eabi/4.6.2/../../../../arm-none-eabi/lib/thumb2/libm.a(lib_a-sf_sin.o)
 .debug_line    0x000093ab      0x101 /opt/paparazzi/arm-multilib/lib/gcc/arm-none-eabi/4.6.2/../../../../arm-none-eabi/lib/thumb2/libm.a(lib_a-w_asin.o)
 .debug_line    0x000094ac       0xe5 /opt/paparazzi/arm-multilib/lib/gcc/arm-none-eabi/4.6.2/../../../../arm-none-eabi/lib/thumb2/libm.a(lib_a-w_atan2.o)
 .debug_line    0x00009591      0x103 /opt/paparazzi/arm-multilib/lib/gcc/arm-none-eabi/4.6.2/../../../../arm-none-eabi/lib/thumb2/libm.a(lib_a-w_cosh.o)
 .debug_line    0x00009694      0x106 /opt/paparazzi/arm-multilib/lib/gcc/arm-none-eabi/4.6.2/../../../../arm-none-eabi/lib/thumb2/libm.a(lib_a-w_exp.o)
 .debug_line    0x0000979a      0x10c /opt/paparazzi/arm-multilib/lib/gcc/arm-none-eabi/4.6.2/../../../../arm-none-eabi/lib/thumb2/libm.a(lib_a-w_log.o)
 .debug_line    0x000098a6      0x182 /opt/paparazzi/arm-multilib/lib/gcc/arm-none-eabi/4.6.2/../../../../arm-none-eabi/lib/thumb2/libm.a(lib_a-w_pow.o)
 .debug_line    0x00009a28      0x118 /opt/paparazzi/arm-multilib/lib/gcc/arm-none-eabi/4.6.2/../../../../arm-none-eabi/lib/thumb2/libm.a(lib_a-w_sinh.o)
 .debug_line    0x00009b40      0x102 /opt/paparazzi/arm-multilib/lib/gcc/arm-none-eabi/4.6.2/../../../../arm-none-eabi/lib/thumb2/libm.a(lib_a-w_sqrt.o)
 .debug_line    0x00009c42       0xff /opt/paparazzi/arm-multilib/lib/gcc/arm-none-eabi/4.6.2/../../../../arm-none-eabi/lib/thumb2/libm.a(lib_a-wf_asin.o)
 .debug_line    0x00009d41       0xe5 /opt/paparazzi/arm-multilib/lib/gcc/arm-none-eabi/4.6.2/../../../../arm-none-eabi/lib/thumb2/libm.a(lib_a-wf_atan2.o)
 .debug_line    0x00009e26      0x18b /opt/paparazzi/arm-multilib/lib/gcc/arm-none-eabi/4.6.2/../../../../arm-none-eabi/lib/thumb2/libm.a(lib_a-wf_pow.o)
 .debug_line    0x00009fb1      0x103 /opt/paparazzi/arm-multilib/lib/gcc/arm-none-eabi/4.6.2/../../../../arm-none-eabi/lib/thumb2/libm.a(lib_a-wf_sqrt.o)
 .debug_line    0x0000a0b4      0x198 /opt/paparazzi/arm-multilib/lib/gcc/arm-none-eabi/4.6.2/../../../../arm-none-eabi/lib/thumb2/libm.a(lib_a-e_asin.o)
 .debug_line    0x0000a24c      0x1b3 /opt/paparazzi/arm-multilib/lib/gcc/arm-none-eabi/4.6.2/../../../../arm-none-eabi/lib/thumb2/libm.a(lib_a-e_atan2.o)
 .debug_line    0x0000a3ff      0x12a /opt/paparazzi/arm-multilib/lib/gcc/arm-none-eabi/4.6.2/../../../../arm-none-eabi/lib/thumb2/libm.a(lib_a-e_cosh.o)
 .debug_line    0x0000a529      0x19e /opt/paparazzi/arm-multilib/lib/gcc/arm-none-eabi/4.6.2/../../../../arm-none-eabi/lib/thumb2/libm.a(lib_a-e_exp.o)
 .debug_line    0x0000a6c7      0x1ec /opt/paparazzi/arm-multilib/lib/gcc/arm-none-eabi/4.6.2/../../../../arm-none-eabi/lib/thumb2/libm.a(lib_a-e_log.o)
 .debug_line    0x0000a8b3      0x306 /opt/paparazzi/arm-multilib/lib/gcc/arm-none-eabi/4.6.2/../../../../arm-none-eabi/lib/thumb2/libm.a(lib_a-e_pow.o)
 .debug_line    0x0000abb9      0x1ef /opt/paparazzi/arm-multilib/lib/gcc/arm-none-eabi/4.6.2/../../../../arm-none-eabi/lib/thumb2/libm.a(lib_a-e_rem_pio2.o)
 .debug_line    0x0000ada8      0x133 /opt/paparazzi/arm-multilib/lib/gcc/arm-none-eabi/4.6.2/../../../../arm-none-eabi/lib/thumb2/libm.a(lib_a-e_sinh.o)
 .debug_line    0x0000aedb      0x1da /opt/paparazzi/arm-multilib/lib/gcc/arm-none-eabi/4.6.2/../../../../arm-none-eabi/lib/thumb2/libm.a(lib_a-e_sqrt.o)
 .debug_line    0x0000b0b5      0x18f /opt/paparazzi/arm-multilib/lib/gcc/arm-none-eabi/4.6.2/../../../../arm-none-eabi/lib/thumb2/libm.a(lib_a-ef_asin.o)
 .debug_line    0x0000b244      0x1a6 /opt/paparazzi/arm-multilib/lib/gcc/arm-none-eabi/4.6.2/../../../../arm-none-eabi/lib/thumb2/libm.a(lib_a-ef_atan2.o)
 .debug_line    0x0000b3ea      0x2a7 /opt/paparazzi/arm-multilib/lib/gcc/arm-none-eabi/4.6.2/../../../../arm-none-eabi/lib/thumb2/libm.a(lib_a-ef_pow.o)
 .debug_line    0x0000b691      0x1d9 /opt/paparazzi/arm-multilib/lib/gcc/arm-none-eabi/4.6.2/../../../../arm-none-eabi/lib/thumb2/libm.a(lib_a-ef_rem_pio2.o)
 .debug_line    0x0000b86a      0x195 /opt/paparazzi/arm-multilib/lib/gcc/arm-none-eabi/4.6.2/../../../../arm-none-eabi/lib/thumb2/libm.a(lib_a-ef_sqrt.o)
 .debug_line    0x0000b9ff      0x16f /opt/paparazzi/arm-multilib/lib/gcc/arm-none-eabi/4.6.2/../../../../arm-none-eabi/lib/thumb2/libm.a(lib_a-k_cos.o)
 .debug_line    0x0000bb6e      0x3c1 /opt/paparazzi/arm-multilib/lib/gcc/arm-none-eabi/4.6.2/../../../../arm-none-eabi/lib/thumb2/libm.a(lib_a-k_rem_pio2.o)
 .debug_line    0x0000bf2f      0x10f /opt/paparazzi/arm-multilib/lib/gcc/arm-none-eabi/4.6.2/../../../../arm-none-eabi/lib/thumb2/libm.a(lib_a-k_sin.o)
 .debug_line    0x0000c03e      0x1ac /opt/paparazzi/arm-multilib/lib/gcc/arm-none-eabi/4.6.2/../../../../arm-none-eabi/lib/thumb2/libm.a(lib_a-k_tan.o)
 .debug_line    0x0000c1ea      0x118 /opt/paparazzi/arm-multilib/lib/gcc/arm-none-eabi/4.6.2/../../../../arm-none-eabi/lib/thumb2/libm.a(lib_a-kf_cos.o)
 .debug_line    0x0000c302      0x40c /opt/paparazzi/arm-multilib/lib/gcc/arm-none-eabi/4.6.2/../../../../arm-none-eabi/lib/thumb2/libm.a(lib_a-kf_rem_pio2.o)
 .debug_line    0x0000c70e      0x10c /opt/paparazzi/arm-multilib/lib/gcc/arm-none-eabi/4.6.2/../../../../arm-none-eabi/lib/thumb2/libm.a(lib_a-kf_sin.o)
 .debug_line    0x0000c81a      0x200 /opt/paparazzi/arm-multilib/lib/gcc/arm-none-eabi/4.6.2/../../../../arm-none-eabi/lib/thumb2/libm.a(lib_a-s_expm1.o)
 .debug_line    0x0000ca1a      0x15f /opt/paparazzi/arm-multilib/lib/gcc/arm-none-eabi/4.6.2/../../../../arm-none-eabi/lib/thumb2/libm.a(lib_a-s_finite.o)
 .debug_line    0x0000cb79      0x1e9 /opt/paparazzi/arm-multilib/lib/gcc/arm-none-eabi/4.6.2/../../../../arm-none-eabi/lib/thumb2/libm.a(lib_a-s_floor.o)
 .debug_line    0x0000cd62      0x1a0 /opt/paparazzi/arm-multilib/lib/gcc/arm-none-eabi/4.6.2/../../../../arm-none-eabi/lib/thumb2/libm.a(lib_a-s_fpclassify.o)
 .debug_line    0x0000cf02       0x83 /opt/paparazzi/arm-multilib/lib/gcc/arm-none-eabi/4.6.2/../../../../arm-none-eabi/lib/thumb2/libm.a(lib_a-s_lib_ver.o)
 .debug_line    0x0000cf85       0xe8 /opt/paparazzi/arm-multilib/lib/gcc/arm-none-eabi/4.6.2/../../../../arm-none-eabi/lib/thumb2/libm.a(lib_a-s_matherr.o)
 .debug_line    0x0000d06d       0xe3 /opt/paparazzi/arm-multilib/lib/gcc/arm-none-eabi/4.6.2/../../../../arm-none-eabi/lib/thumb2/libm.a(lib_a-s_nan.o)
 .debug_line    0x0000d150      0x18d /opt/paparazzi/arm-multilib/lib/gcc/arm-none-eabi/4.6.2/../../../../arm-none-eabi/lib/thumb2/libm.a(lib_a-s_scalbn.o)
 .debug_line    0x0000d2dd      0x160 /opt/paparazzi/arm-multilib/lib/gcc/arm-none-eabi/4.6.2/../../../../arm-none-eabi/lib/thumb2/libm.a(lib_a-sf_finite.o)
 .debug_line    0x0000d43d      0x1d8 /opt/paparazzi/arm-multilib/lib/gcc/arm-none-eabi/4.6.2/../../../../arm-none-eabi/lib/thumb2/libm.a(lib_a-sf_floor.o)
 .debug_line    0x0000d615      0x18f /opt/paparazzi/arm-multilib/lib/gcc/arm-none-eabi/4.6.2/../../../../arm-none-eabi/lib/thumb2/libm.a(lib_a-sf_fpclassify.o)
 .debug_line    0x0000d7a4       0xe2 /opt/paparazzi/arm-multilib/lib/gcc/arm-none-eabi/4.6.2/../../../../arm-none-eabi/lib/thumb2/libm.a(lib_a-sf_nan.o)
 .debug_line    0x0000d886      0x18c /opt/paparazzi/arm-multilib/lib/gcc/arm-none-eabi/4.6.2/../../../../arm-none-eabi/lib/thumb2/libm.a(lib_a-sf_scalbn.o)
 .debug_line    0x0000da12      0x171 /opt/paparazzi/arm-multilib/lib/gcc/arm-none-eabi/4.6.2/../../../../arm-none-eabi/lib/thumb2/libm.a(lib_a-s_copysign.o)
 .debug_line    0x0000db83      0x16f /opt/paparazzi/arm-multilib/lib/gcc/arm-none-eabi/4.6.2/../../../../arm-none-eabi/lib/thumb2/libm.a(lib_a-sf_copysign.o)
 .debug_line    0x0000dcf2       0xbe /opt/paparazzi/arm-multilib/lib/gcc/arm-none-eabi/4.6.2/thumb2/libgcc.a(_divsi3.o)
 .debug_line    0x0000ddb0       0x83 /opt/paparazzi/arm-multilib/lib/gcc/arm-none-eabi/4.6.2/thumb2/libgcc.a(_dvmd_tls.o)
 .debug_line    0x0000de33      0x220 /opt/paparazzi/arm-multilib/lib/gcc/arm-none-eabi/4.6.2/thumb2/libgcc.a(_arm_addsubdf3.o)
 .debug_line    0x0000e053      0x23c /opt/paparazzi/arm-multilib/lib/gcc/arm-none-eabi/4.6.2/thumb2/libgcc.a(_arm_muldivdf3.o)
 .debug_line    0x0000e28f      0x122 /opt/paparazzi/arm-multilib/lib/gcc/arm-none-eabi/4.6.2/thumb2/libgcc.a(_arm_cmpdf2.o)
 .debug_line    0x0000e3b1       0x9a /opt/paparazzi/arm-multilib/lib/gcc/arm-none-eabi/4.6.2/thumb2/libgcc.a(_arm_fixdfsi.o)
 .debug_line    0x0000e44b       0x96 /opt/paparazzi/arm-multilib/lib/gcc/arm-none-eabi/4.6.2/thumb2/libgcc.a(_arm_fixunsdfsi.o)
 .debug_line    0x0000e4e1       0xae /opt/paparazzi/arm-multilib/lib/gcc/arm-none-eabi/4.6.2/thumb2/libgcc.a(_arm_truncdfsf2.o)
 .debug_line    0x0000e58f      0x13c /opt/paparazzi/arm-multilib/lib/gcc/arm-none-eabi/4.6.2/thumb2/libgcc.a(_arm_addsubsf3.o)
 .debug_line    0x0000e6cb      0x15d /opt/paparazzi/arm-multilib/lib/gcc/arm-none-eabi/4.6.2/thumb2/libgcc.a(_arm_muldivsf3.o)
 .debug_line    0x0000e828      0x116 /opt/paparazzi/arm-multilib/lib/gcc/arm-none-eabi/4.6.2/thumb2/libgcc.a(_arm_cmpsf2.o)
 .debug_line    0x0000e93e       0x9a /opt/paparazzi/arm-multilib/lib/gcc/arm-none-eabi/4.6.2/thumb2/libgcc.a(_arm_fixsfsi.o)
 .debug_line    0x0000e9d8       0x96 /opt/paparazzi/arm-multilib/lib/gcc/arm-none-eabi/4.6.2/thumb2/libgcc.a(_arm_fixunssfsi.o)
 .debug_line    0x0000ea6e      0x4d2 /opt/paparazzi/arm-multilib/lib/gcc/arm-none-eabi/4.6.2/../../../../arm-none-eabi/lib/libstm32.a(stm32_adc.o)
 .debug_line    0x0000ef40      0xa54 /opt/paparazzi/arm-multilib/lib/gcc/arm-none-eabi/4.6.2/../../../../arm-none-eabi/lib/libstm32.a(stm32_tim.o)
 .debug_line    0x0000f994      0x298 /opt/paparazzi/arm-multilib/lib/gcc/arm-none-eabi/4.6.2/../../../../arm-none-eabi/lib/libstm32.a(stm32_dma.o)
 .debug_line    0x0000fc2c      0x34a /opt/paparazzi/arm-multilib/lib/gcc/arm-none-eabi/4.6.2/../../../../arm-none-eabi/lib/libstm32.a(stm32_gpio.o)
 .debug_line    0x0000ff76      0x44a /opt/paparazzi/arm-multilib/lib/gcc/arm-none-eabi/4.6.2/../../../../arm-none-eabi/lib/libstm32.a(stm32_usart.o)
 .debug_line    0x000103c0      0x245 /opt/paparazzi/arm-multilib/lib/gcc/arm-none-eabi/4.6.2/../../../../arm-none-eabi/lib/libstm32.a(stm32_exti.o)
 .debug_line    0x00010605      0x488 /opt/paparazzi/arm-multilib/lib/gcc/arm-none-eabi/4.6.2/../../../../arm-none-eabi/lib/libstm32.a(stm32_i2c.o)
 .debug_line    0x00010a8d      0x3e7 /opt/paparazzi/arm-multilib/lib/gcc/arm-none-eabi/4.6.2/../../../../arm-none-eabi/lib/libstm32.a(stm32_spi.o)
 .debug_line    0x00010e74      0x445 /opt/paparazzi/arm-multilib/lib/gcc/arm-none-eabi/4.6.2/../../../../arm-none-eabi/lib/libstm32.a(stm32_rcc.o)
 .debug_line    0x000112b9      0x21a /opt/paparazzi/arm-multilib/lib/gcc/arm-none-eabi/4.6.2/../../../../arm-none-eabi/lib/libstm32.a(stm32_misc.o)
 .debug_line    0x000114d3      0x42d /opt/paparazzi/arm-multilib/lib/gcc/arm-none-eabi/4.6.2/../../../../arm-none-eabi/lib/libopencm3_stm32.a(rcc.o)
 .debug_line    0x00011900      0x23a /opt/paparazzi/arm-multilib/lib/gcc/arm-none-eabi/4.6.2/../../../../arm-none-eabi/lib/libopencm3_stm32.a(usart.o)
 .debug_line    0x00011b3a      0x290 /opt/paparazzi/arm-multilib/lib/gcc/arm-none-eabi/4.6.2/../../../../arm-none-eabi/lib/libopencm3_stm32.a(flash.o)
 .debug_line    0x00011dca      0x157 /opt/paparazzi/arm-multilib/lib/gcc/arm-none-eabi/4.6.2/../../../../arm-none-eabi/lib/thumb2/libc.a(lib_a-errno.o)
 .debug_line    0x00011f21      0x13d /opt/paparazzi/arm-multilib/lib/gcc/arm-none-eabi/4.6.2/../../../../arm-none-eabi/lib/thumb2/libc.a(lib_a-impure.o)

.debug_frame    0x00000000     0x3f58
 *(.debug_frame)
 .debug_frame   0x00000000       0x3c /home/mav/paparazzi/var/Radian/ap/mcu.o
 .debug_frame   0x0000003c       0x20 /home/mav/paparazzi/var/Radian/ap/arch/stm32/mcu_arch.o
 .debug_frame   0x0000005c       0x7c /home/mav/paparazzi/var/Radian/ap/mcu_periph/sys_time.o
 .debug_frame   0x000000d8       0x48 /home/mav/paparazzi/var/Radian/ap/arch/stm32/mcu_periph/sys_time_arch.o
 .debug_frame   0x00000120      0x254 /home/mav/paparazzi/var/Radian/ap/math/pprz_geodetic_int.o
 .debug_frame   0x00000374      0x2ec /home/mav/paparazzi/var/Radian/ap/math/pprz_geodetic_float.o
 .debug_frame   0x00000660      0x26c /home/mav/paparazzi/var/Radian/ap/math/pprz_geodetic_double.o
 .debug_frame   0x000008cc       0x20 /home/mav/paparazzi/var/Radian/ap/mcu_periph/i2c.o
 .debug_frame   0x000008ec       0x5c /home/mav/paparazzi/var/Radian/ap/arch/stm32/mcu_periph/i2c_arch.o
 .debug_frame   0x00000948       0xc8 /home/mav/paparazzi/var/Radian/ap/firmwares/fixedwing/main_fbw.o
 .debug_frame   0x00000a10       0x3c /home/mav/paparazzi/var/Radian/ap/subsystems/electrical.o
 .debug_frame   0x00000a4c      0x130 /home/mav/paparazzi/var/Radian/ap/firmwares/fixedwing/main_ap.o
 .debug_frame   0x00000b7c       0x40 /home/mav/paparazzi/var/Radian/ap/./estimator.o
 .debug_frame   0x00000bbc       0x60 /home/mav/paparazzi/var/Radian/ap/arch/stm32/stm32_exceptions.o
 .debug_frame   0x00000c1c       0x60 /home/mav/paparazzi/var/Radian/ap/arch/stm32/stm32_vector_table.o
 .debug_frame   0x00000c7c       0x90 /home/mav/paparazzi/var/Radian/ap/lisa/plug_sys.o
 .debug_frame   0x00000d0c       0x2c /home/mav/paparazzi/var/Radian/ap/firmwares/fixedwing/main.o
 .debug_frame   0x00000d38       0x30 /home/mav/paparazzi/var/Radian/ap/mcu_periph/uart.o
 .debug_frame   0x00000d68       0xe0 /home/mav/paparazzi/var/Radian/ap/arch/stm32/mcu_periph/uart_arch.o
 .debug_frame   0x00000e48       0x30 /home/mav/paparazzi/var/Radian/ap/subsystems/settings.o
 .debug_frame   0x00000e78       0x9c /home/mav/paparazzi/var/Radian/ap/arch/stm32/subsystems/settings_arch.o
 .debug_frame   0x00000f14       0x70 /home/mav/paparazzi/var/Radian/ap/arch/stm32/mcu_periph/adc_arch.o
 .debug_frame   0x00000f84       0x20 /home/mav/paparazzi/var/Radian/ap/arch/stm32/servos_direct_hw.o
 .debug_frame   0x00000fa4       0x58 /home/mav/paparazzi/var/Radian/ap/firmwares/rotorcraft/actuators/arch/stm32/actuators_pwm_arch.o
 .debug_frame   0x00000ffc      0x134 /home/mav/paparazzi/var/Radian/ap/arch/stm32/subsystems/radio_control/spektrum_arch.o
 .debug_frame   0x00001130       0x44 /home/mav/paparazzi/var/Radian/ap/firmwares/fixedwing/datalink.o
 .debug_frame   0x00001174       0x74 /home/mav/paparazzi/var/Radian/ap/firmwares/fixedwing/stabilization/stabilization_attitude.o
 .debug_frame   0x000011e8       0xa0 /home/mav/paparazzi/var/Radian/ap/firmwares/fixedwing/guidance/guidance_v.o
 .debug_frame   0x00001288      0x190 /home/mav/paparazzi/var/Radian/ap/subsystems/ahrs/ahrs_int_cmpl_quat.o
 .debug_frame   0x00001418       0x54 /home/mav/paparazzi/var/Radian/ap/subsystems/ahrs/ahrs_aligner.o
 .debug_frame   0x0000146c      0x114 /home/mav/paparazzi/var/Radian/ap/subsystems/gps/gps_ubx.o
 .debug_frame   0x00001580       0x20 /home/mav/paparazzi/var/Radian/ap/subsystems/gps.o
 .debug_frame   0x000015a0       0x48 /home/mav/paparazzi/var/Radian/ap/subsystems/imu.o
 .debug_frame   0x000015e8       0x84 /home/mav/paparazzi/var/Radian/ap/subsystems/imu/imu_aspirin2.o
 .debug_frame   0x0000166c       0x5c /home/mav/paparazzi/var/Radian/ap/arch/stm32/subsystems/imu/imu_aspirin2_arch.o
 .debug_frame   0x000016c8       0xc8 /home/mav/paparazzi/var/Radian/ap/arch/stm32/mcu_periph/spi_arch.o
 .debug_frame   0x00001790      0x29c /home/mav/paparazzi/var/Radian/ap/subsystems/nav.o
 .debug_frame   0x00001a2c       0x30 /home/mav/paparazzi/var/Radian/ap/subsystems/navigation/common_flight_plan.o
 .debug_frame   0x00001a5c       0x30 /home/mav/paparazzi/var/Radian/ap/subsystems/navigation/traffic_info.o
 .debug_frame   0x00001a8c       0x74 /home/mav/paparazzi/var/Radian/ap/subsystems/navigation/nav_survey_rectangle.o
 .debug_frame   0x00001b00       0x54 /home/mav/paparazzi/var/Radian/ap/subsystems/navigation/nav_line.o
 .debug_frame   0x00001b54       0x30 /opt/paparazzi/arm-multilib/lib/gcc/arm-none-eabi/4.6.2/../../../../arm-none-eabi/lib/thumb2/libc.a(lib_a-ldiv.o)
 .debug_frame   0x00001b84       0x28 /opt/paparazzi/arm-multilib/lib/gcc/arm-none-eabi/4.6.2/../../../../arm-none-eabi/lib/thumb2/libc.a(lib_a-memcpy.o)
 .debug_frame   0x00001bac       0x38 /opt/paparazzi/arm-multilib/lib/gcc/arm-none-eabi/4.6.2/../../../../arm-none-eabi/lib/thumb2/libm.a(lib_a-s_atan.o)
 .debug_frame   0x00001be4       0x2c /opt/paparazzi/arm-multilib/lib/gcc/arm-none-eabi/4.6.2/../../../../arm-none-eabi/lib/thumb2/libm.a(lib_a-s_cos.o)
 .debug_frame   0x00001c10       0x20 /opt/paparazzi/arm-multilib/lib/gcc/arm-none-eabi/4.6.2/../../../../arm-none-eabi/lib/thumb2/libm.a(lib_a-s_fabs.o)
 .debug_frame   0x00001c30       0x38 /opt/paparazzi/arm-multilib/lib/gcc/arm-none-eabi/4.6.2/../../../../arm-none-eabi/lib/thumb2/libm.a(lib_a-s_rint.o)
 .debug_frame   0x00001c68       0x2c /opt/paparazzi/arm-multilib/lib/gcc/arm-none-eabi/4.6.2/../../../../arm-none-eabi/lib/thumb2/libm.a(lib_a-s_sin.o)
 .debug_frame   0x00001c94       0x2c /opt/paparazzi/arm-multilib/lib/gcc/arm-none-eabi/4.6.2/../../../../arm-none-eabi/lib/thumb2/libm.a(lib_a-s_tan.o)
 .debug_frame   0x00001cc0       0x30 /opt/paparazzi/arm-multilib/lib/gcc/arm-none-eabi/4.6.2/../../../../arm-none-eabi/lib/thumb2/libm.a(lib_a-sf_atan.o)
 .debug_frame   0x00001cf0       0x2c /opt/paparazzi/arm-multilib/lib/gcc/arm-none-eabi/4.6.2/../../../../arm-none-eabi/lib/thumb2/libm.a(lib_a-sf_cos.o)
 .debug_frame   0x00001d1c       0x20 /opt/paparazzi/arm-multilib/lib/gcc/arm-none-eabi/4.6.2/../../../../arm-none-eabi/lib/thumb2/libm.a(lib_a-sf_fabs.o)
 .debug_frame   0x00001d3c       0x2c /opt/paparazzi/arm-multilib/lib/gcc/arm-none-eabi/4.6.2/../../../../arm-none-eabi/lib/thumb2/libm.a(lib_a-sf_sin.o)
 .debug_frame   0x00001d68       0x34 /opt/paparazzi/arm-multilib/lib/gcc/arm-none-eabi/4.6.2/../../../../arm-none-eabi/lib/thumb2/libm.a(lib_a-w_asin.o)
 .debug_frame   0x00001d9c       0x20 /opt/paparazzi/arm-multilib/lib/gcc/arm-none-eabi/4.6.2/../../../../arm-none-eabi/lib/thumb2/libm.a(lib_a-w_atan2.o)
 .debug_frame   0x00001dbc       0x34 /opt/paparazzi/arm-multilib/lib/gcc/arm-none-eabi/4.6.2/../../../../arm-none-eabi/lib/thumb2/libm.a(lib_a-w_cosh.o)
 .debug_frame   0x00001df0       0x34 /opt/paparazzi/arm-multilib/lib/gcc/arm-none-eabi/4.6.2/../../../../arm-none-eabi/lib/thumb2/libm.a(lib_a-w_exp.o)
 .debug_frame   0x00001e24       0x34 /opt/paparazzi/arm-multilib/lib/gcc/arm-none-eabi/4.6.2/../../../../arm-none-eabi/lib/thumb2/libm.a(lib_a-w_log.o)
 .debug_frame   0x00001e58       0x38 /opt/paparazzi/arm-multilib/lib/gcc/arm-none-eabi/4.6.2/../../../../arm-none-eabi/lib/thumb2/libm.a(lib_a-w_pow.o)
 .debug_frame   0x00001e90       0x34 /opt/paparazzi/arm-multilib/lib/gcc/arm-none-eabi/4.6.2/../../../../arm-none-eabi/lib/thumb2/libm.a(lib_a-w_sinh.o)
 .debug_frame   0x00001ec4       0x38 /opt/paparazzi/arm-multilib/lib/gcc/arm-none-eabi/4.6.2/../../../../arm-none-eabi/lib/thumb2/libm.a(lib_a-w_sqrt.o)
 .debug_frame   0x00001efc       0x30 /opt/paparazzi/arm-multilib/lib/gcc/arm-none-eabi/4.6.2/../../../../arm-none-eabi/lib/thumb2/libm.a(lib_a-wf_asin.o)
 .debug_frame   0x00001f2c       0x20 /opt/paparazzi/arm-multilib/lib/gcc/arm-none-eabi/4.6.2/../../../../arm-none-eabi/lib/thumb2/libm.a(lib_a-wf_atan2.o)
 .debug_frame   0x00001f4c       0x34 /opt/paparazzi/arm-multilib/lib/gcc/arm-none-eabi/4.6.2/../../../../arm-none-eabi/lib/thumb2/libm.a(lib_a-wf_pow.o)
 .debug_frame   0x00001f80       0x30 /opt/paparazzi/arm-multilib/lib/gcc/arm-none-eabi/4.6.2/../../../../arm-none-eabi/lib/thumb2/libm.a(lib_a-wf_sqrt.o)
 .debug_frame   0x00001fb0       0x38 /opt/paparazzi/arm-multilib/lib/gcc/arm-none-eabi/4.6.2/../../../../arm-none-eabi/lib/thumb2/libm.a(lib_a-e_asin.o)
 .debug_frame   0x00001fe8       0x3c /opt/paparazzi/arm-multilib/lib/gcc/arm-none-eabi/4.6.2/../../../../arm-none-eabi/lib/thumb2/libm.a(lib_a-e_atan2.o)
 .debug_frame   0x00002024       0x34 /opt/paparazzi/arm-multilib/lib/gcc/arm-none-eabi/4.6.2/../../../../arm-none-eabi/lib/thumb2/libm.a(lib_a-e_cosh.o)
 .debug_frame   0x00002058       0x3c /opt/paparazzi/arm-multilib/lib/gcc/arm-none-eabi/4.6.2/../../../../arm-none-eabi/lib/thumb2/libm.a(lib_a-e_exp.o)
 .debug_frame   0x00002094       0x38 /opt/paparazzi/arm-multilib/lib/gcc/arm-none-eabi/4.6.2/../../../../arm-none-eabi/lib/thumb2/libm.a(lib_a-e_log.o)
 .debug_frame   0x000020cc       0x38 /opt/paparazzi/arm-multilib/lib/gcc/arm-none-eabi/4.6.2/../../../../arm-none-eabi/lib/thumb2/libm.a(lib_a-e_pow.o)
 .debug_frame   0x00002104       0x38 /opt/paparazzi/arm-multilib/lib/gcc/arm-none-eabi/4.6.2/../../../../arm-none-eabi/lib/thumb2/libm.a(lib_a-e_rem_pio2.o)
 .debug_frame   0x0000213c       0x38 /opt/paparazzi/arm-multilib/lib/gcc/arm-none-eabi/4.6.2/../../../../arm-none-eabi/lib/thumb2/libm.a(lib_a-e_sinh.o)
 .debug_frame   0x00002174       0x34 /opt/paparazzi/arm-multilib/lib/gcc/arm-none-eabi/4.6.2/../../../../arm-none-eabi/lib/thumb2/libm.a(lib_a-e_sqrt.o)
 .debug_frame   0x000021a8       0x34 /opt/paparazzi/arm-multilib/lib/gcc/arm-none-eabi/4.6.2/../../../../arm-none-eabi/lib/thumb2/libm.a(lib_a-ef_asin.o)
 .debug_frame   0x000021dc       0x30 /opt/paparazzi/arm-multilib/lib/gcc/arm-none-eabi/4.6.2/../../../../arm-none-eabi/lib/thumb2/libm.a(lib_a-ef_atan2.o)
 .debug_frame   0x0000220c       0x38 /opt/paparazzi/arm-multilib/lib/gcc/arm-none-eabi/4.6.2/../../../../arm-none-eabi/lib/thumb2/libm.a(lib_a-ef_pow.o)
 .debug_frame   0x00002244       0x38 /opt/paparazzi/arm-multilib/lib/gcc/arm-none-eabi/4.6.2/../../../../arm-none-eabi/lib/thumb2/libm.a(lib_a-ef_rem_pio2.o)
 .debug_frame   0x0000227c       0x2c /opt/paparazzi/arm-multilib/lib/gcc/arm-none-eabi/4.6.2/../../../../arm-none-eabi/lib/thumb2/libm.a(lib_a-ef_sqrt.o)
 .debug_frame   0x000022a8       0x38 /opt/paparazzi/arm-multilib/lib/gcc/arm-none-eabi/4.6.2/../../../../arm-none-eabi/lib/thumb2/libm.a(lib_a-k_cos.o)
 .debug_frame   0x000022e0       0x3c /opt/paparazzi/arm-multilib/lib/gcc/arm-none-eabi/4.6.2/../../../../arm-none-eabi/lib/thumb2/libm.a(lib_a-k_rem_pio2.o)
 .debug_frame   0x0000231c       0x38 /opt/paparazzi/arm-multilib/lib/gcc/arm-none-eabi/4.6.2/../../../../arm-none-eabi/lib/thumb2/libm.a(lib_a-k_sin.o)
 .debug_frame   0x00002354       0x38 /opt/paparazzi/arm-multilib/lib/gcc/arm-none-eabi/4.6.2/../../../../arm-none-eabi/lib/thumb2/libm.a(lib_a-k_tan.o)
 .debug_frame   0x0000238c       0x34 /opt/paparazzi/arm-multilib/lib/gcc/arm-none-eabi/4.6.2/../../../../arm-none-eabi/lib/thumb2/libm.a(lib_a-kf_cos.o)
 .debug_frame   0x000023c0       0x3c /opt/paparazzi/arm-multilib/lib/gcc/arm-none-eabi/4.6.2/../../../../arm-none-eabi/lib/thumb2/libm.a(lib_a-kf_rem_pio2.o)
 .debug_frame   0x000023fc       0x34 /opt/paparazzi/arm-multilib/lib/gcc/arm-none-eabi/4.6.2/../../../../arm-none-eabi/lib/thumb2/libm.a(lib_a-kf_sin.o)
 .debug_frame   0x00002430       0x38 /opt/paparazzi/arm-multilib/lib/gcc/arm-none-eabi/4.6.2/../../../../arm-none-eabi/lib/thumb2/libm.a(lib_a-s_expm1.o)
 .debug_frame   0x00002468       0x20 /opt/paparazzi/arm-multilib/lib/gcc/arm-none-eabi/4.6.2/../../../../arm-none-eabi/lib/thumb2/libm.a(lib_a-s_finite.o)
 .debug_frame   0x00002488       0x38 /opt/paparazzi/arm-multilib/lib/gcc/arm-none-eabi/4.6.2/../../../../arm-none-eabi/lib/thumb2/libm.a(lib_a-s_floor.o)
 .debug_frame   0x000024c0       0x20 /opt/paparazzi/arm-multilib/lib/gcc/arm-none-eabi/4.6.2/../../../../arm-none-eabi/lib/thumb2/libm.a(lib_a-s_fpclassify.o)
 .debug_frame   0x000024e0       0x20 /opt/paparazzi/arm-multilib/lib/gcc/arm-none-eabi/4.6.2/../../../../arm-none-eabi/lib/thumb2/libm.a(lib_a-s_matherr.o)
 .debug_frame   0x00002500       0x20 /opt/paparazzi/arm-multilib/lib/gcc/arm-none-eabi/4.6.2/../../../../arm-none-eabi/lib/thumb2/libm.a(lib_a-s_nan.o)
 .debug_frame   0x00002520       0x34 /opt/paparazzi/arm-multilib/lib/gcc/arm-none-eabi/4.6.2/../../../../arm-none-eabi/lib/thumb2/libm.a(lib_a-s_scalbn.o)
 .debug_frame   0x00002554       0x20 /opt/paparazzi/arm-multilib/lib/gcc/arm-none-eabi/4.6.2/../../../../arm-none-eabi/lib/thumb2/libm.a(lib_a-sf_finite.o)
 .debug_frame   0x00002574       0x2c /opt/paparazzi/arm-multilib/lib/gcc/arm-none-eabi/4.6.2/../../../../arm-none-eabi/lib/thumb2/libm.a(lib_a-sf_floor.o)
 .debug_frame   0x000025a0       0x20 /opt/paparazzi/arm-multilib/lib/gcc/arm-none-eabi/4.6.2/../../../../arm-none-eabi/lib/thumb2/libm.a(lib_a-sf_fpclassify.o)
 .debug_frame   0x000025c0       0x20 /opt/paparazzi/arm-multilib/lib/gcc/arm-none-eabi/4.6.2/../../../../arm-none-eabi/lib/thumb2/libm.a(lib_a-sf_nan.o)
 .debug_frame   0x000025e0       0x28 /opt/paparazzi/arm-multilib/lib/gcc/arm-none-eabi/4.6.2/../../../../arm-none-eabi/lib/thumb2/libm.a(lib_a-sf_scalbn.o)
 .debug_frame   0x00002608       0x2c /opt/paparazzi/arm-multilib/lib/gcc/arm-none-eabi/4.6.2/../../../../arm-none-eabi/lib/thumb2/libm.a(lib_a-s_copysign.o)
 .debug_frame   0x00002634       0x20 /opt/paparazzi/arm-multilib/lib/gcc/arm-none-eabi/4.6.2/../../../../arm-none-eabi/lib/thumb2/libm.a(lib_a-sf_copysign.o)
 .debug_frame   0x00002654       0x20 /opt/paparazzi/arm-multilib/lib/gcc/arm-none-eabi/4.6.2/thumb2/libgcc.a(_divsi3.o)
 .debug_frame   0x00002674      0x278 /opt/paparazzi/arm-multilib/lib/gcc/arm-none-eabi/4.6.2/../../../../arm-none-eabi/lib/libstm32.a(stm32_adc.o)
 .debug_frame   0x000028ec      0x658 /opt/paparazzi/arm-multilib/lib/gcc/arm-none-eabi/4.6.2/../../../../arm-none-eabi/lib/libstm32.a(stm32_tim.o)
 .debug_frame   0x00002f44       0xb8 /opt/paparazzi/arm-multilib/lib/gcc/arm-none-eabi/4.6.2/../../../../arm-none-eabi/lib/libstm32.a(stm32_dma.o)
 .debug_frame   0x00002ffc      0x164 /opt/paparazzi/arm-multilib/lib/gcc/arm-none-eabi/4.6.2/../../../../arm-none-eabi/lib/libstm32.a(stm32_gpio.o)
 .debug_frame   0x00003160      0x1ec /opt/paparazzi/arm-multilib/lib/gcc/arm-none-eabi/4.6.2/../../../../arm-none-eabi/lib/libstm32.a(stm32_usart.o)
 .debug_frame   0x0000334c       0x98 /opt/paparazzi/arm-multilib/lib/gcc/arm-none-eabi/4.6.2/../../../../arm-none-eabi/lib/libstm32.a(stm32_exti.o)
 .debug_frame   0x000033e4      0x230 /opt/paparazzi/arm-multilib/lib/gcc/arm-none-eabi/4.6.2/../../../../arm-none-eabi/lib/libstm32.a(stm32_i2c.o)
 .debug_frame   0x00003614      0x1a8 /opt/paparazzi/arm-multilib/lib/gcc/arm-none-eabi/4.6.2/../../../../arm-none-eabi/lib/libstm32.a(stm32_spi.o)
 .debug_frame   0x000037bc      0x224 /opt/paparazzi/arm-multilib/lib/gcc/arm-none-eabi/4.6.2/../../../../arm-none-eabi/lib/libstm32.a(stm32_rcc.o)
 .debug_frame   0x000039e0       0x68 /opt/paparazzi/arm-multilib/lib/gcc/arm-none-eabi/4.6.2/../../../../arm-none-eabi/lib/libstm32.a(stm32_misc.o)
 .debug_frame   0x00003a48      0x260 /opt/paparazzi/arm-multilib/lib/gcc/arm-none-eabi/4.6.2/../../../../arm-none-eabi/lib/libopencm3_stm32.a(rcc.o)
 .debug_frame   0x00003ca8       0xf8 /opt/paparazzi/arm-multilib/lib/gcc/arm-none-eabi/4.6.2/../../../../arm-none-eabi/lib/libopencm3_stm32.a(usart.o)
 .debug_frame   0x00003da0      0x198 /opt/paparazzi/arm-multilib/lib/gcc/arm-none-eabi/4.6.2/../../../../arm-none-eabi/lib/libopencm3_stm32.a(flash.o)
 .debug_frame   0x00003f38       0x20 /opt/paparazzi/arm-multilib/lib/gcc/arm-none-eabi/4.6.2/../../../../arm-none-eabi/lib/thumb2/libc.a(lib_a-errno.o)

.debug_str      0x00000000     0x8c03
 *(.debug_str)
 .debug_str     0x00000000      0x2b7 /home/mav/paparazzi/var/Radian/ap/mcu.o
                                0x331 (size before relaxing)
 .debug_str     0x000002b7       0x24 /home/mav/paparazzi/var/Radian/ap/arch/stm32/mcu_arch.o
                                 0xea (size before relaxing)
 .debug_str     0x000002db       0x14 /home/mav/paparazzi/var/Radian/ap/arch/stm32/led_hw.o
                                 0xf8 (size before relaxing)
 .debug_str     0x000002ef       0x79 /home/mav/paparazzi/var/Radian/ap/mcu_periph/sys_time.o
                                0x1da (size before relaxing)
 .debug_str     0x00000368      0x4ef /home/mav/paparazzi/var/Radian/ap/arch/stm32/mcu_periph/sys_time_arch.o
                                0x68c (size before relaxing)
 .debug_str     0x00000857       0x92 /home/mav/paparazzi/var/Radian/ap/./inter_mcu.o
                                0x235 (size before relaxing)
 .debug_str     0x000008e9      0x1ed /home/mav/paparazzi/var/Radian/ap/math/pprz_geodetic_int.o
                                0x2de (size before relaxing)
 .debug_str     0x00000ad6      0x27e /home/mav/paparazzi/var/Radian/ap/math/pprz_geodetic_float.o
                                0x3d8 (size before relaxing)
 .debug_str     0x00000d54      0x17b /home/mav/paparazzi/var/Radian/ap/math/pprz_geodetic_double.o
                                0x34e (size before relaxing)
 .debug_str     0x00000ecf       0x23 /home/mav/paparazzi/var/Radian/ap/math/pprz_trig_int.o
                                0x10f (size before relaxing)
 .debug_str     0x00000ef2      0x299 /home/mav/paparazzi/var/Radian/ap/mcu_periph/i2c.o
                                0x3c4 (size before relaxing)
 .debug_str     0x0000118b       0x71 /home/mav/paparazzi/var/Radian/ap/arch/stm32/mcu_periph/i2c_arch.o
                                0x431 (size before relaxing)
 .debug_str     0x000011fc      0x2c4 /home/mav/paparazzi/var/Radian/ap/firmwares/fixedwing/main_fbw.o
                                0x58a (size before relaxing)
 .debug_str     0x000014c0       0x69 /home/mav/paparazzi/var/Radian/ap/subsystems/electrical.o
                                0x1a9 (size before relaxing)
 .debug_str     0x00001529        0xb /home/mav/paparazzi/var/Radian/ap/./commands.o
                                0x120 (size before relaxing)
 .debug_str     0x00001534       0x23 /home/mav/paparazzi/var/Radian/ap/firmwares/fixedwing/fbw_downlink.o
                                0x122 (size before relaxing)
 .debug_str     0x00001557      0xaf3 /home/mav/paparazzi/var/Radian/ap/firmwares/fixedwing/main_ap.o
                                0xfa1 (size before relaxing)
 .debug_str     0x0000204a       0xf2 /home/mav/paparazzi/var/Radian/ap/./estimator.o
                                0x53c (size before relaxing)
 .debug_str     0x0000213c       0x22 /home/mav/paparazzi/var/Radian/ap/firmwares/fixedwing/ap_downlink.o
                                0x120 (size before relaxing)
 .debug_str     0x0000215e       0x80 /home/mav/paparazzi/var/Radian/ap/arch/stm32/stm32_exceptions.o
                                 0xc2 (size before relaxing)
 .debug_str     0x000021de       0xac /home/mav/paparazzi/var/Radian/ap/arch/stm32/stm32_vector_table.o
                                0x264 (size before relaxing)
 .debug_str     0x0000228a       0x4c /home/mav/paparazzi/var/Radian/ap/lisa/plug_sys.o
                                0x139 (size before relaxing)
 .debug_str     0x000022d6       0x20 /home/mav/paparazzi/var/Radian/ap/firmwares/fixedwing/main.o
                                0x104 (size before relaxing)
 .debug_str     0x000022f6       0x39 /home/mav/paparazzi/var/Radian/ap/mcu_periph/uart.o
                                0x1b7 (size before relaxing)
 .debug_str     0x0000232f      0x1d3 /home/mav/paparazzi/var/Radian/ap/arch/stm32/mcu_periph/uart_arch.o
                                0x870 (size before relaxing)
 .debug_str     0x00002502       0x67 /home/mav/paparazzi/var/Radian/ap/subsystems/settings.o
                                0x3fd (size before relaxing)
 .debug_str     0x00002569       0xb8 /home/mav/paparazzi/var/Radian/ap/arch/stm32/subsystems/settings_arch.o
                                0x458 (size before relaxing)
 .debug_str     0x00002621      0x378 /home/mav/paparazzi/var/Radian/ap/arch/stm32/mcu_periph/adc_arch.o
                                0xa56 (size before relaxing)
 .debug_str     0x00002999       0x2d /home/mav/paparazzi/var/Radian/ap/arch/stm32/servos_direct_hw.o
                                0x12e (size before relaxing)
 .debug_str     0x000029c6        0xc /home/mav/paparazzi/var/Radian/ap/actuators.o
                                0x103 (size before relaxing)
 .debug_str     0x000029d2      0x108 /home/mav/paparazzi/var/Radian/ap/firmwares/rotorcraft/actuators/arch/stm32/actuators_pwm_arch.o
                                0x4f8 (size before relaxing)
 .debug_str     0x00002ada       0x1b /home/mav/paparazzi/var/Radian/ap/subsystems/radio_control.o
                                0x177 (size before relaxing)
 .debug_str     0x00002af5      0x22d /home/mav/paparazzi/var/Radian/ap/arch/stm32/subsystems/radio_control/spektrum_arch.o
                                0xb5c (size before relaxing)
 .debug_str     0x00002d22       0x1f /home/mav/paparazzi/var/Radian/ap/subsystems/datalink/downlink.o
                                0x148 (size before relaxing)
 .debug_str     0x00002d41       0x25 /home/mav/paparazzi/var/Radian/ap/subsystems/datalink/pprz_transport.o
                                0x1a3 (size before relaxing)
 .debug_str     0x00002d66       0x8b /home/mav/paparazzi/var/Radian/ap/firmwares/fixedwing/datalink.o
                                0x761 (size before relaxing)
 .debug_str     0x00002df1      0x1e6 /home/mav/paparazzi/var/Radian/ap/firmwares/fixedwing/stabilization/stabilization_attitude.o
                                0x4b7 (size before relaxing)
 .debug_str     0x00002fd7      0x331 /home/mav/paparazzi/var/Radian/ap/firmwares/fixedwing/guidance/guidance_v.o
                                0x600 (size before relaxing)
 .debug_str     0x00003308       0x80 /home/mav/paparazzi/var/Radian/ap/subsystems/ahrs.o
                                0x239 (size before relaxing)
 .debug_str     0x00003388      0x3fd /home/mav/paparazzi/var/Radian/ap/subsystems/ahrs/ahrs_int_cmpl_quat.o
                                0x938 (size before relaxing)
 .debug_str     0x00003785       0x8b /home/mav/paparazzi/var/Radian/ap/subsystems/ahrs/ahrs_aligner.o
                                0x338 (size before relaxing)
 .debug_str     0x00003810      0x371 /home/mav/paparazzi/var/Radian/ap/subsystems/gps/gps_ubx.o
                                0x775 (size before relaxing)
 .debug_str     0x00003b81       0x1a /home/mav/paparazzi/var/Radian/ap/subsystems/gps.o
                                0x22a (size before relaxing)
 .debug_str     0x00003b9b      0x16b /home/mav/paparazzi/var/Radian/ap/subsystems/imu.o
                                0x45f (size before relaxing)
 .debug_str     0x00003d06       0xe8 /home/mav/paparazzi/var/Radian/ap/subsystems/imu/imu_aspirin2.o
                                0x362 (size before relaxing)
 .debug_str     0x00003dee       0x96 /home/mav/paparazzi/var/Radian/ap/arch/stm32/subsystems/imu/imu_aspirin2_arch.o
                                0x2ff (size before relaxing)
 .debug_str     0x00003e84      0x26a /home/mav/paparazzi/var/Radian/ap/arch/stm32/mcu_periph/spi_arch.o
                                0xb28 (size before relaxing)
 .debug_str     0x000040ee       0x46 /home/mav/paparazzi/var/Radian/ap/mcu_periph/spi.o
                                0x14e (size before relaxing)
 .debug_str     0x00004134      0x4d0 /home/mav/paparazzi/var/Radian/ap/subsystems/nav.o
                                0xbfa (size before relaxing)
 .debug_str     0x00004604       0x5f /home/mav/paparazzi/var/Radian/ap/subsystems/navigation/common_flight_plan.o
                                0x17e (size before relaxing)
 .debug_str     0x00004663       0x43 /home/mav/paparazzi/var/Radian/ap/subsystems/navigation/traffic_info.o
                                0x16e (size before relaxing)
 .debug_str     0x000046a6       0xc0 /home/mav/paparazzi/var/Radian/ap/subsystems/navigation/nav_survey_rectangle.o
                                0x2d6 (size before relaxing)
 .debug_str     0x00004766       0xb1 /home/mav/paparazzi/var/Radian/ap/subsystems/navigation/nav_line.o
                                0x24b (size before relaxing)
 .debug_str     0x00004817       0xb4 /opt/paparazzi/arm-multilib/lib/gcc/arm-none-eabi/4.6.2/../../../../arm-none-eabi/lib/thumb2/libc.a(lib_a-ldiv.o)
                                0x16b (size before relaxing)
 .debug_str     0x000048cb       0xc6 /opt/paparazzi/arm-multilib/lib/gcc/arm-none-eabi/4.6.2/../../../../arm-none-eabi/lib/thumb2/libc.a(lib_a-memcpy.o)
                                0x178 (size before relaxing)
 .debug_str     0x00004991       0xf1 /opt/paparazzi/arm-multilib/lib/gcc/arm-none-eabi/4.6.2/../../../../arm-none-eabi/lib/thumb2/libm.a(lib_a-s_atan.o)
                                0x1c0 (size before relaxing)
 .debug_str     0x00004a82       0x4b /opt/paparazzi/arm-multilib/lib/gcc/arm-none-eabi/4.6.2/../../../../arm-none-eabi/lib/thumb2/libm.a(lib_a-s_cos.o)
                                0x174 (size before relaxing)
 .debug_str     0x00004acd       0x5b /opt/paparazzi/arm-multilib/lib/gcc/arm-none-eabi/4.6.2/../../../../arm-none-eabi/lib/thumb2/libm.a(lib_a-s_fabs.o)
                                0x1a8 (size before relaxing)
 .debug_str     0x00004b28       0xc0 /opt/paparazzi/arm-multilib/lib/gcc/arm-none-eabi/4.6.2/../../../../arm-none-eabi/lib/thumb2/libm.a(lib_a-s_rint.o)
                                0x1c1 (size before relaxing)
 .debug_str     0x00004be8       0x4b /opt/paparazzi/arm-multilib/lib/gcc/arm-none-eabi/4.6.2/../../../../arm-none-eabi/lib/thumb2/libm.a(lib_a-s_sin.o)
                                0x174 (size before relaxing)
 .debug_str     0x00004c33       0x4b /opt/paparazzi/arm-multilib/lib/gcc/arm-none-eabi/4.6.2/../../../../arm-none-eabi/lib/thumb2/libm.a(lib_a-s_tan.o)
                                0x174 (size before relaxing)
 .debug_str     0x00004c7e       0x6e /opt/paparazzi/arm-multilib/lib/gcc/arm-none-eabi/4.6.2/../../../../arm-none-eabi/lib/thumb2/libm.a(lib_a-sf_atan.o)
                                0x1c0 (size before relaxing)
 .debug_str     0x00004cec       0x4c /opt/paparazzi/arm-multilib/lib/gcc/arm-none-eabi/4.6.2/../../../../arm-none-eabi/lib/thumb2/libm.a(lib_a-sf_cos.o)
                                0x17a (size before relaxing)
 .debug_str     0x00004d38       0x53 /opt/paparazzi/arm-multilib/lib/gcc/arm-none-eabi/4.6.2/../../../../arm-none-eabi/lib/thumb2/libm.a(lib_a-sf_fabs.o)
                                0x17d (size before relaxing)
 .debug_str     0x00004d8b       0x4c /opt/paparazzi/arm-multilib/lib/gcc/arm-none-eabi/4.6.2/../../../../arm-none-eabi/lib/thumb2/libm.a(lib_a-sf_sin.o)
                                0x17a (size before relaxing)
 .debug_str     0x00004dd7       0xbd /opt/paparazzi/arm-multilib/lib/gcc/arm-none-eabi/4.6.2/../../../../arm-none-eabi/lib/thumb2/libm.a(lib_a-w_asin.o)
                                0x1f0 (size before relaxing)
 .debug_str     0x00004e94       0x4d /opt/paparazzi/arm-multilib/lib/gcc/arm-none-eabi/4.6.2/../../../../arm-none-eabi/lib/thumb2/libm.a(lib_a-w_atan2.o)
                                0x172 (size before relaxing)
 .debug_str     0x00004ee1       0x4c /opt/paparazzi/arm-multilib/lib/gcc/arm-none-eabi/4.6.2/../../../../arm-none-eabi/lib/thumb2/libm.a(lib_a-w_cosh.o)
                                0x1f0 (size before relaxing)
 .debug_str     0x00004f2d       0x63 /opt/paparazzi/arm-multilib/lib/gcc/arm-none-eabi/4.6.2/../../../../arm-none-eabi/lib/thumb2/libm.a(lib_a-w_exp.o)
                                0x202 (size before relaxing)
 .debug_str     0x00004f90       0x4b /opt/paparazzi/arm-multilib/lib/gcc/arm-none-eabi/4.6.2/../../../../arm-none-eabi/lib/thumb2/libm.a(lib_a-w_log.o)
                                0x1ea (size before relaxing)
 .debug_str     0x00004fdb       0x4b /opt/paparazzi/arm-multilib/lib/gcc/arm-none-eabi/4.6.2/../../../../arm-none-eabi/lib/thumb2/libm.a(lib_a-w_pow.o)
                                0x1ea (size before relaxing)
 .debug_str     0x00005026       0x4c /opt/paparazzi/arm-multilib/lib/gcc/arm-none-eabi/4.6.2/../../../../arm-none-eabi/lib/thumb2/libm.a(lib_a-w_sinh.o)
                                0x1f0 (size before relaxing)
 .debug_str     0x00005072       0x4c /opt/paparazzi/arm-multilib/lib/gcc/arm-none-eabi/4.6.2/../../../../arm-none-eabi/lib/thumb2/libm.a(lib_a-w_sqrt.o)
                                0x1f0 (size before relaxing)
 .debug_str     0x000050be       0x4d /opt/paparazzi/arm-multilib/lib/gcc/arm-none-eabi/4.6.2/../../../../arm-none-eabi/lib/thumb2/libm.a(lib_a-wf_asin.o)
                                0x1f2 (size before relaxing)
 .debug_str     0x0000510b       0x4e /opt/paparazzi/arm-multilib/lib/gcc/arm-none-eabi/4.6.2/../../../../arm-none-eabi/lib/thumb2/libm.a(lib_a-wf_atan2.o)
                                0x174 (size before relaxing)
 .debug_str     0x00005159       0x4c /opt/paparazzi/arm-multilib/lib/gcc/arm-none-eabi/4.6.2/../../../../arm-none-eabi/lib/thumb2/libm.a(lib_a-wf_pow.o)
                                0x1f0 (size before relaxing)
 .debug_str     0x000051a5       0x4d /opt/paparazzi/arm-multilib/lib/gcc/arm-none-eabi/4.6.2/../../../../arm-none-eabi/lib/thumb2/libm.a(lib_a-wf_sqrt.o)
                                0x1f2 (size before relaxing)
 .debug_str     0x000051f2       0x7d /opt/paparazzi/arm-multilib/lib/gcc/arm-none-eabi/4.6.2/../../../../arm-none-eabi/lib/thumb2/libm.a(lib_a-e_asin.o)
                                0x1de (size before relaxing)
 .debug_str     0x0000526f       0x7b /opt/paparazzi/arm-multilib/lib/gcc/arm-none-eabi/4.6.2/../../../../arm-none-eabi/lib/thumb2/libm.a(lib_a-e_atan2.o)
                                0x1dc (size before relaxing)
 .debug_str     0x000052ea       0x60 /opt/paparazzi/arm-multilib/lib/gcc/arm-none-eabi/4.6.2/../../../../arm-none-eabi/lib/thumb2/libm.a(lib_a-e_cosh.o)
                                0x199 (size before relaxing)
 .debug_str     0x0000534a       0x7a /opt/paparazzi/arm-multilib/lib/gcc/arm-none-eabi/4.6.2/../../../../arm-none-eabi/lib/thumb2/libm.a(lib_a-e_exp.o)
                                0x1fd (size before relaxing)
 .debug_str     0x000053c4       0x72 /opt/paparazzi/arm-multilib/lib/gcc/arm-none-eabi/4.6.2/../../../../arm-none-eabi/lib/thumb2/libm.a(lib_a-e_log.o)
                                0x1dd (size before relaxing)
 .debug_str     0x00005436       0x9c /opt/paparazzi/arm-multilib/lib/gcc/arm-none-eabi/4.6.2/../../../../arm-none-eabi/lib/thumb2/libm.a(lib_a-e_pow.o)
                                0x216 (size before relaxing)
 .debug_str     0x000054d2       0xb3 /opt/paparazzi/arm-multilib/lib/gcc/arm-none-eabi/4.6.2/../../../../arm-none-eabi/lib/thumb2/libm.a(lib_a-e_rem_pio2.o)
                                0x223 (size before relaxing)
 .debug_str     0x00005585       0x61 /opt/paparazzi/arm-multilib/lib/gcc/arm-none-eabi/4.6.2/../../../../arm-none-eabi/lib/thumb2/libm.a(lib_a-e_sinh.o)
                                0x195 (size before relaxing)
 .debug_str     0x000055e6       0x5b /opt/paparazzi/arm-multilib/lib/gcc/arm-none-eabi/4.6.2/../../../../arm-none-eabi/lib/thumb2/libm.a(lib_a-e_sqrt.o)
                                0x1c6 (size before relaxing)
 .debug_str     0x00005641       0x5d /opt/paparazzi/arm-multilib/lib/gcc/arm-none-eabi/4.6.2/../../../../arm-none-eabi/lib/thumb2/libm.a(lib_a-ef_asin.o)
                                0x1d4 (size before relaxing)
 .debug_str     0x0000569e       0x5f /opt/paparazzi/arm-multilib/lib/gcc/arm-none-eabi/4.6.2/../../../../arm-none-eabi/lib/thumb2/libm.a(lib_a-ef_atan2.o)
                                0x1d7 (size before relaxing)
 .debug_str     0x000056fd       0x60 /opt/paparazzi/arm-multilib/lib/gcc/arm-none-eabi/4.6.2/../../../../arm-none-eabi/lib/thumb2/libm.a(lib_a-ef_pow.o)
                                0x20c (size before relaxing)
 .debug_str     0x0000575d       0x6a /opt/paparazzi/arm-multilib/lib/gcc/arm-none-eabi/4.6.2/../../../../arm-none-eabi/lib/thumb2/libm.a(lib_a-ef_rem_pio2.o)
                                0x222 (size before relaxing)
 .debug_str     0x000057c7       0x5d /opt/paparazzi/arm-multilib/lib/gcc/arm-none-eabi/4.6.2/../../../../arm-none-eabi/lib/thumb2/libm.a(lib_a-ef_sqrt.o)
                                0x1bc (size before relaxing)
 .debug_str     0x00005824       0x58 /opt/paparazzi/arm-multilib/lib/gcc/arm-none-eabi/4.6.2/../../../../arm-none-eabi/lib/thumb2/libm.a(lib_a-k_cos.o)
                                0x1b4 (size before relaxing)
 .debug_str     0x0000587c       0x91 /opt/paparazzi/arm-multilib/lib/gcc/arm-none-eabi/4.6.2/../../../../arm-none-eabi/lib/thumb2/libm.a(lib_a-k_rem_pio2.o)
                                0x1c5 (size before relaxing)
 .debug_str     0x0000590d       0x58 /opt/paparazzi/arm-multilib/lib/gcc/arm-none-eabi/4.6.2/../../../../arm-none-eabi/lib/thumb2/libm.a(lib_a-k_sin.o)
                                0x186 (size before relaxing)
 .debug_str     0x00005965       0x64 /opt/paparazzi/arm-multilib/lib/gcc/arm-none-eabi/4.6.2/../../../../arm-none-eabi/lib/thumb2/libm.a(lib_a-k_tan.o)
                                0x1c5 (size before relaxing)
 .debug_str     0x000059c9       0x5a /opt/paparazzi/arm-multilib/lib/gcc/arm-none-eabi/4.6.2/../../../../arm-none-eabi/lib/thumb2/libm.a(lib_a-kf_cos.o)
                                0x183 (size before relaxing)
 .debug_str     0x00005a23       0x6a /opt/paparazzi/arm-multilib/lib/gcc/arm-none-eabi/4.6.2/../../../../arm-none-eabi/lib/thumb2/libm.a(lib_a-kf_rem_pio2.o)
                                0x1c5 (size before relaxing)
 .debug_str     0x00005a8d       0x5a /opt/paparazzi/arm-multilib/lib/gcc/arm-none-eabi/4.6.2/../../../../arm-none-eabi/lib/thumb2/libm.a(lib_a-kf_sin.o)
                                0x188 (size before relaxing)
 .debug_str     0x00005ae7       0x55 /opt/paparazzi/arm-multilib/lib/gcc/arm-none-eabi/4.6.2/../../../../arm-none-eabi/lib/thumb2/libm.a(lib_a-s_expm1.o)
                                0x1e8 (size before relaxing)
 .debug_str     0x00005b3c       0x57 /opt/paparazzi/arm-multilib/lib/gcc/arm-none-eabi/4.6.2/../../../../arm-none-eabi/lib/thumb2/libm.a(lib_a-s_finite.o)
                                0x18d (size before relaxing)
 .debug_str     0x00005b93       0x53 /opt/paparazzi/arm-multilib/lib/gcc/arm-none-eabi/4.6.2/../../../../arm-none-eabi/lib/thumb2/libm.a(lib_a-s_floor.o)
                                0x1b9 (size before relaxing)
 .debug_str     0x00005be6       0x62 /opt/paparazzi/arm-multilib/lib/gcc/arm-none-eabi/4.6.2/../../../../arm-none-eabi/lib/thumb2/libm.a(lib_a-s_fpclassify.o)
                                0x18e (size before relaxing)
 .debug_str     0x00005c48       0x51 /opt/paparazzi/arm-multilib/lib/gcc/arm-none-eabi/4.6.2/../../../../arm-none-eabi/lib/thumb2/libm.a(lib_a-s_lib_ver.o)
                                0x1cd (size before relaxing)
 .debug_str     0x00005c99       0x59 /opt/paparazzi/arm-multilib/lib/gcc/arm-none-eabi/4.6.2/../../../../arm-none-eabi/lib/thumb2/libm.a(lib_a-s_matherr.o)
                                0x19f (size before relaxing)
 .debug_str     0x00005cf2       0x4d /opt/paparazzi/arm-multilib/lib/gcc/arm-none-eabi/4.6.2/../../../../arm-none-eabi/lib/thumb2/libm.a(lib_a-s_nan.o)
                                0x175 (size before relaxing)
 .debug_str     0x00005d3f       0x5e /opt/paparazzi/arm-multilib/lib/gcc/arm-none-eabi/4.6.2/../../../../arm-none-eabi/lib/thumb2/libm.a(lib_a-s_scalbn.o)
                                0x1d6 (size before relaxing)
 .debug_str     0x00005d9d       0x59 /opt/paparazzi/arm-multilib/lib/gcc/arm-none-eabi/4.6.2/../../../../arm-none-eabi/lib/thumb2/libm.a(lib_a-sf_finite.o)
                                0x184 (size before relaxing)
 .debug_str     0x00005df6       0x55 /opt/paparazzi/arm-multilib/lib/gcc/arm-none-eabi/4.6.2/../../../../arm-none-eabi/lib/thumb2/libm.a(lib_a-sf_floor.o)
                                0x1b4 (size before relaxing)
 .debug_str     0x00005e4b       0x63 /opt/paparazzi/arm-multilib/lib/gcc/arm-none-eabi/4.6.2/../../../../arm-none-eabi/lib/thumb2/libm.a(lib_a-sf_fpclassify.o)
                                0x18f (size before relaxing)
 .debug_str     0x00005eae       0x53 /opt/paparazzi/arm-multilib/lib/gcc/arm-none-eabi/4.6.2/../../../../arm-none-eabi/lib/thumb2/libm.a(lib_a-sf_nan.o)
                                0x17b (size before relaxing)
 .debug_str     0x00005f01       0x66 /opt/paparazzi/arm-multilib/lib/gcc/arm-none-eabi/4.6.2/../../../../arm-none-eabi/lib/thumb2/libm.a(lib_a-sf_scalbn.o)
                                0x1d1 (size before relaxing)
 .debug_str     0x00005f67       0x5b /opt/paparazzi/arm-multilib/lib/gcc/arm-none-eabi/4.6.2/../../../../arm-none-eabi/lib/thumb2/libm.a(lib_a-s_copysign.o)
                                0x1b4 (size before relaxing)
 .debug_str     0x00005fc2       0x5d /opt/paparazzi/arm-multilib/lib/gcc/arm-none-eabi/4.6.2/../../../../arm-none-eabi/lib/thumb2/libm.a(lib_a-sf_copysign.o)
                                0x1af (size before relaxing)
 .debug_str     0x0000601f      0x49d /opt/paparazzi/arm-multilib/lib/gcc/arm-none-eabi/4.6.2/../../../../arm-none-eabi/lib/libstm32.a(stm32_adc.o)
                                0x671 (size before relaxing)
 .debug_str     0x000064bc      0x9a2 /opt/paparazzi/arm-multilib/lib/gcc/arm-none-eabi/4.6.2/../../../../arm-none-eabi/lib/libstm32.a(stm32_tim.o)
                                0xd4e (size before relaxing)
 .debug_str     0x00006e5e       0xdf /opt/paparazzi/arm-multilib/lib/gcc/arm-none-eabi/4.6.2/../../../../arm-none-eabi/lib/libstm32.a(stm32_dma.o)
                                0x30c (size before relaxing)
 .debug_str     0x00006f3d      0x1dc /opt/paparazzi/arm-multilib/lib/gcc/arm-none-eabi/4.6.2/../../../../arm-none-eabi/lib/libstm32.a(stm32_gpio.o)
                                0x449 (size before relaxing)
 .debug_str     0x00007119      0x3a3 /opt/paparazzi/arm-multilib/lib/gcc/arm-none-eabi/4.6.2/../../../../arm-none-eabi/lib/libstm32.a(stm32_usart.o)
                                0x5d9 (size before relaxing)
 .debug_str     0x000074bc      0x190 /opt/paparazzi/arm-multilib/lib/gcc/arm-none-eabi/4.6.2/../../../../arm-none-eabi/lib/libstm32.a(stm32_exti.o)
                                0x2d4 (size before relaxing)
 .debug_str     0x0000764c      0x377 /opt/paparazzi/arm-multilib/lib/gcc/arm-none-eabi/4.6.2/../../../../arm-none-eabi/lib/libstm32.a(stm32_i2c.o)
                                0x5b4 (size before relaxing)
 .debug_str     0x000079c3      0x282 /opt/paparazzi/arm-multilib/lib/gcc/arm-none-eabi/4.6.2/../../../../arm-none-eabi/lib/libstm32.a(stm32_spi.o)
                                0x567 (size before relaxing)
 .debug_str     0x00007c45      0x390 /opt/paparazzi/arm-multilib/lib/gcc/arm-none-eabi/4.6.2/../../../../arm-none-eabi/lib/libstm32.a(stm32_rcc.o)
                                0x590 (size before relaxing)
 .debug_str     0x00007fd5       0xd9 /opt/paparazzi/arm-multilib/lib/gcc/arm-none-eabi/4.6.2/../../../../arm-none-eabi/lib/libstm32.a(stm32_misc.o)
                                0x343 (size before relaxing)
 .debug_str     0x000080ae      0x39e /opt/paparazzi/arm-multilib/lib/gcc/arm-none-eabi/4.6.2/../../../../arm-none-eabi/lib/libopencm3_stm32.a(rcc.o)
                                0x48d (size before relaxing)
 .debug_str     0x0000844c      0x101 /opt/paparazzi/arm-multilib/lib/gcc/arm-none-eabi/4.6.2/../../../../arm-none-eabi/lib/libopencm3_stm32.a(usart.o)
                                0x26c (size before relaxing)
 .debug_str     0x0000854d      0x1d6 /opt/paparazzi/arm-multilib/lib/gcc/arm-none-eabi/4.6.2/../../../../arm-none-eabi/lib/libopencm3_stm32.a(flash.o)
                                0x2ee (size before relaxing)
 .debug_str     0x00008723      0x418 /opt/paparazzi/arm-multilib/lib/gcc/arm-none-eabi/4.6.2/../../../../arm-none-eabi/lib/thumb2/libc.a(lib_a-errno.o)
                                0x516 (size before relaxing)
 .debug_str     0x00008b3b       0xc8 /opt/paparazzi/arm-multilib/lib/gcc/arm-none-eabi/4.6.2/../../../../arm-none-eabi/lib/thumb2/libc.a(lib_a-impure.o)
                                0x52e (size before relaxing)

.debug_loc      0x00000000    0x17d3b
 *(.debug_loc)
 .debug_loc     0x00000000       0x20 /home/mav/paparazzi/var/Radian/ap/mcu.o
 .debug_loc     0x00000020      0x12d /home/mav/paparazzi/var/Radian/ap/mcu_periph/sys_time.o
 .debug_loc     0x0000014d       0x3f /home/mav/paparazzi/var/Radian/ap/arch/stm32/mcu_periph/sys_time_arch.o
 .debug_loc     0x0000018c      0x74c /home/mav/paparazzi/var/Radian/ap/math/pprz_geodetic_int.o
 .debug_loc     0x000008d8      0xebb /home/mav/paparazzi/var/Radian/ap/math/pprz_geodetic_float.o
 .debug_loc     0x00001793      0xaf6 /home/mav/paparazzi/var/Radian/ap/math/pprz_geodetic_double.o
 .debug_loc     0x00002289       0xbb /home/mav/paparazzi/var/Radian/ap/arch/stm32/mcu_periph/i2c_arch.o
 .debug_loc     0x00002344      0x540 /home/mav/paparazzi/var/Radian/ap/firmwares/fixedwing/main_fbw.o
 .debug_loc     0x00002884       0x20 /home/mav/paparazzi/var/Radian/ap/subsystems/electrical.o
 .debug_loc     0x000028a4     0x517b /home/mav/paparazzi/var/Radian/ap/firmwares/fixedwing/main_ap.o
 .debug_loc     0x00007a1f       0xae /home/mav/paparazzi/var/Radian/ap/./estimator.o
 .debug_loc     0x00007acd       0x3e /home/mav/paparazzi/var/Radian/ap/arch/stm32/stm32_vector_table.o
 .debug_loc     0x00007b0b       0x72 /home/mav/paparazzi/var/Radian/ap/lisa/plug_sys.o
 .debug_loc     0x00007b7d       0x20 /home/mav/paparazzi/var/Radian/ap/firmwares/fixedwing/main.o
 .debug_loc     0x00007b9d       0x31 /home/mav/paparazzi/var/Radian/ap/mcu_periph/uart.o
 .debug_loc     0x00007bce      0x168 /home/mav/paparazzi/var/Radian/ap/arch/stm32/mcu_periph/uart_arch.o
 .debug_loc     0x00007d36      0x231 /home/mav/paparazzi/var/Radian/ap/arch/stm32/subsystems/settings_arch.o
 .debug_loc     0x00007f67      0x154 /home/mav/paparazzi/var/Radian/ap/arch/stm32/mcu_periph/adc_arch.o
 .debug_loc     0x000080bb       0x4c /home/mav/paparazzi/var/Radian/ap/firmwares/rotorcraft/actuators/arch/stm32/actuators_pwm_arch.o
 .debug_loc     0x00008107      0x280 /home/mav/paparazzi/var/Radian/ap/arch/stm32/subsystems/radio_control/spektrum_arch.o
 .debug_loc     0x00008387      0x4bf /home/mav/paparazzi/var/Radian/ap/firmwares/fixedwing/datalink.o
 .debug_loc     0x00008846      0x14e /home/mav/paparazzi/var/Radian/ap/firmwares/fixedwing/stabilization/stabilization_attitude.o
 .debug_loc     0x00008994      0x157 /home/mav/paparazzi/var/Radian/ap/firmwares/fixedwing/guidance/guidance_v.o
 .debug_loc     0x00008aeb     0x1bd6 /home/mav/paparazzi/var/Radian/ap/subsystems/ahrs/ahrs_int_cmpl_quat.o
 .debug_loc     0x0000a6c1       0xad /home/mav/paparazzi/var/Radian/ap/subsystems/ahrs/ahrs_aligner.o
 .debug_loc     0x0000a76e     0x1623 /home/mav/paparazzi/var/Radian/ap/subsystems/gps/gps_ubx.o
 .debug_loc     0x0000bd91      0x273 /home/mav/paparazzi/var/Radian/ap/subsystems/imu.o
 .debug_loc     0x0000c004       0xd5 /home/mav/paparazzi/var/Radian/ap/subsystems/imu/imu_aspirin2.o
 .debug_loc     0x0000c0d9       0x20 /home/mav/paparazzi/var/Radian/ap/arch/stm32/subsystems/imu/imu_aspirin2_arch.o
 .debug_loc     0x0000c0f9       0xdb /home/mav/paparazzi/var/Radian/ap/arch/stm32/mcu_periph/spi_arch.o
 .debug_loc     0x0000c1d4     0x10d8 /home/mav/paparazzi/var/Radian/ap/subsystems/nav.o
 .debug_loc     0x0000d2ac       0x13 /home/mav/paparazzi/var/Radian/ap/subsystems/navigation/common_flight_plan.o
 .debug_loc     0x0000d2bf       0x13 /home/mav/paparazzi/var/Radian/ap/subsystems/navigation/traffic_info.o
 .debug_loc     0x0000d2d2      0x321 /home/mav/paparazzi/var/Radian/ap/subsystems/navigation/nav_survey_rectangle.o
 .debug_loc     0x0000d5f3      0x68f /home/mav/paparazzi/var/Radian/ap/subsystems/navigation/nav_line.o
 .debug_loc     0x0000dc82       0xdd /opt/paparazzi/arm-multilib/lib/gcc/arm-none-eabi/4.6.2/../../../../arm-none-eabi/lib/thumb2/libc.a(lib_a-ldiv.o)
 .debug_loc     0x0000dd5f       0x59 /opt/paparazzi/arm-multilib/lib/gcc/arm-none-eabi/4.6.2/../../../../arm-none-eabi/lib/thumb2/libc.a(lib_a-memcpy.o)
 .debug_loc     0x0000ddb8      0x2ad /opt/paparazzi/arm-multilib/lib/gcc/arm-none-eabi/4.6.2/../../../../arm-none-eabi/lib/thumb2/libm.a(lib_a-s_atan.o)
 .debug_loc     0x0000e065       0x90 /opt/paparazzi/arm-multilib/lib/gcc/arm-none-eabi/4.6.2/../../../../arm-none-eabi/lib/thumb2/libm.a(lib_a-s_cos.o)
 .debug_loc     0x0000e0f5       0x18 /opt/paparazzi/arm-multilib/lib/gcc/arm-none-eabi/4.6.2/../../../../arm-none-eabi/lib/thumb2/libm.a(lib_a-s_fabs.o)
 .debug_loc     0x0000e10d      0x1f1 /opt/paparazzi/arm-multilib/lib/gcc/arm-none-eabi/4.6.2/../../../../arm-none-eabi/lib/thumb2/libm.a(lib_a-s_rint.o)
 .debug_loc     0x0000e2fe       0x90 /opt/paparazzi/arm-multilib/lib/gcc/arm-none-eabi/4.6.2/../../../../arm-none-eabi/lib/thumb2/libm.a(lib_a-s_sin.o)
 .debug_loc     0x0000e38e       0x90 /opt/paparazzi/arm-multilib/lib/gcc/arm-none-eabi/4.6.2/../../../../arm-none-eabi/lib/thumb2/libm.a(lib_a-s_tan.o)
 .debug_loc     0x0000e41e      0x267 /opt/paparazzi/arm-multilib/lib/gcc/arm-none-eabi/4.6.2/../../../../arm-none-eabi/lib/thumb2/libm.a(lib_a-sf_atan.o)
 .debug_loc     0x0000e685       0x85 /opt/paparazzi/arm-multilib/lib/gcc/arm-none-eabi/4.6.2/../../../../arm-none-eabi/lib/thumb2/libm.a(lib_a-sf_cos.o)
 .debug_loc     0x0000e70a       0x13 /opt/paparazzi/arm-multilib/lib/gcc/arm-none-eabi/4.6.2/../../../../arm-none-eabi/lib/thumb2/libm.a(lib_a-sf_fabs.o)
 .debug_loc     0x0000e71d       0x85 /opt/paparazzi/arm-multilib/lib/gcc/arm-none-eabi/4.6.2/../../../../arm-none-eabi/lib/thumb2/libm.a(lib_a-sf_sin.o)
 .debug_loc     0x0000e7a2       0x5d /opt/paparazzi/arm-multilib/lib/gcc/arm-none-eabi/4.6.2/../../../../arm-none-eabi/lib/thumb2/libm.a(lib_a-w_asin.o)
 .debug_loc     0x0000e7ff       0x30 /opt/paparazzi/arm-multilib/lib/gcc/arm-none-eabi/4.6.2/../../../../arm-none-eabi/lib/thumb2/libm.a(lib_a-w_atan2.o)
 .debug_loc     0x0000e82f       0x5d /opt/paparazzi/arm-multilib/lib/gcc/arm-none-eabi/4.6.2/../../../../arm-none-eabi/lib/thumb2/libm.a(lib_a-w_cosh.o)
 .debug_loc     0x0000e88c       0x5d /opt/paparazzi/arm-multilib/lib/gcc/arm-none-eabi/4.6.2/../../../../arm-none-eabi/lib/thumb2/libm.a(lib_a-w_exp.o)
 .debug_loc     0x0000e8e9       0x5d /opt/paparazzi/arm-multilib/lib/gcc/arm-none-eabi/4.6.2/../../../../arm-none-eabi/lib/thumb2/libm.a(lib_a-w_log.o)
 .debug_loc     0x0000e946       0x75 /opt/paparazzi/arm-multilib/lib/gcc/arm-none-eabi/4.6.2/../../../../arm-none-eabi/lib/thumb2/libm.a(lib_a-w_pow.o)
 .debug_loc     0x0000e9bb       0x5d /opt/paparazzi/arm-multilib/lib/gcc/arm-none-eabi/4.6.2/../../../../arm-none-eabi/lib/thumb2/libm.a(lib_a-w_sinh.o)
 .debug_loc     0x0000ea18       0x5d /opt/paparazzi/arm-multilib/lib/gcc/arm-none-eabi/4.6.2/../../../../arm-none-eabi/lib/thumb2/libm.a(lib_a-w_sqrt.o)
 .debug_loc     0x0000ea75       0x68 /opt/paparazzi/arm-multilib/lib/gcc/arm-none-eabi/4.6.2/../../../../arm-none-eabi/lib/thumb2/libm.a(lib_a-wf_asin.o)
 .debug_loc     0x0000eadd       0x26 /opt/paparazzi/arm-multilib/lib/gcc/arm-none-eabi/4.6.2/../../../../arm-none-eabi/lib/thumb2/libm.a(lib_a-wf_atan2.o)
 .debug_loc     0x0000eb03       0xbe /opt/paparazzi/arm-multilib/lib/gcc/arm-none-eabi/4.6.2/../../../../arm-none-eabi/lib/thumb2/libm.a(lib_a-wf_pow.o)
 .debug_loc     0x0000ebc1       0x68 /opt/paparazzi/arm-multilib/lib/gcc/arm-none-eabi/4.6.2/../../../../arm-none-eabi/lib/thumb2/libm.a(lib_a-wf_sqrt.o)
 .debug_loc     0x0000ec29      0x1cd /opt/paparazzi/arm-multilib/lib/gcc/arm-none-eabi/4.6.2/../../../../arm-none-eabi/lib/thumb2/libm.a(lib_a-e_asin.o)
 .debug_loc     0x0000edf6      0x170 /opt/paparazzi/arm-multilib/lib/gcc/arm-none-eabi/4.6.2/../../../../arm-none-eabi/lib/thumb2/libm.a(lib_a-e_atan2.o)
 .debug_loc     0x0000ef66      0x10f /opt/paparazzi/arm-multilib/lib/gcc/arm-none-eabi/4.6.2/../../../../arm-none-eabi/lib/thumb2/libm.a(lib_a-e_cosh.o)
 .debug_loc     0x0000f075      0x275 /opt/paparazzi/arm-multilib/lib/gcc/arm-none-eabi/4.6.2/../../../../arm-none-eabi/lib/thumb2/libm.a(lib_a-e_exp.o)
 .debug_loc     0x0000f2ea      0x3ab /opt/paparazzi/arm-multilib/lib/gcc/arm-none-eabi/4.6.2/../../../../arm-none-eabi/lib/thumb2/libm.a(lib_a-e_log.o)
 .debug_loc     0x0000f695      0xc06 /opt/paparazzi/arm-multilib/lib/gcc/arm-none-eabi/4.6.2/../../../../arm-none-eabi/lib/thumb2/libm.a(lib_a-e_pow.o)
 .debug_loc     0x0001029b      0x34b /opt/paparazzi/arm-multilib/lib/gcc/arm-none-eabi/4.6.2/../../../../arm-none-eabi/lib/thumb2/libm.a(lib_a-e_rem_pio2.o)
 .debug_loc     0x000105e6      0x165 /opt/paparazzi/arm-multilib/lib/gcc/arm-none-eabi/4.6.2/../../../../arm-none-eabi/lib/thumb2/libm.a(lib_a-e_sinh.o)
 .debug_loc     0x0001074b      0x2e2 /opt/paparazzi/arm-multilib/lib/gcc/arm-none-eabi/4.6.2/../../../../arm-none-eabi/lib/thumb2/libm.a(lib_a-e_sqrt.o)
 .debug_loc     0x00010a2d      0x171 /opt/paparazzi/arm-multilib/lib/gcc/arm-none-eabi/4.6.2/../../../../arm-none-eabi/lib/thumb2/libm.a(lib_a-ef_asin.o)
 .debug_loc     0x00010b9e      0x320 /opt/paparazzi/arm-multilib/lib/gcc/arm-none-eabi/4.6.2/../../../../arm-none-eabi/lib/thumb2/libm.a(lib_a-ef_atan2.o)
 .debug_loc     0x00010ebe      0x9a0 /opt/paparazzi/arm-multilib/lib/gcc/arm-none-eabi/4.6.2/../../../../arm-none-eabi/lib/thumb2/libm.a(lib_a-ef_pow.o)
 .debug_loc     0x0001185e      0x47e /opt/paparazzi/arm-multilib/lib/gcc/arm-none-eabi/4.6.2/../../../../arm-none-eabi/lib/thumb2/libm.a(lib_a-ef_rem_pio2.o)
 .debug_loc     0x00011cdc      0x1a4 /opt/paparazzi/arm-multilib/lib/gcc/arm-none-eabi/4.6.2/../../../../arm-none-eabi/lib/thumb2/libm.a(lib_a-ef_sqrt.o)
 .debug_loc     0x00011e80      0x12d /opt/paparazzi/arm-multilib/lib/gcc/arm-none-eabi/4.6.2/../../../../arm-none-eabi/lib/thumb2/libm.a(lib_a-k_cos.o)
 .debug_loc     0x00011fad      0x86a /opt/paparazzi/arm-multilib/lib/gcc/arm-none-eabi/4.6.2/../../../../arm-none-eabi/lib/thumb2/libm.a(lib_a-k_rem_pio2.o)
 .debug_loc     0x00012817       0xcb /opt/paparazzi/arm-multilib/lib/gcc/arm-none-eabi/4.6.2/../../../../arm-none-eabi/lib/thumb2/libm.a(lib_a-k_sin.o)
 .debug_loc     0x000128e2      0x389 /opt/paparazzi/arm-multilib/lib/gcc/arm-none-eabi/4.6.2/../../../../arm-none-eabi/lib/thumb2/libm.a(lib_a-k_tan.o)
 .debug_loc     0x00012c6b       0xea /opt/paparazzi/arm-multilib/lib/gcc/arm-none-eabi/4.6.2/../../../../arm-none-eabi/lib/thumb2/libm.a(lib_a-kf_cos.o)
 .debug_loc     0x00012d55      0x7ee /opt/paparazzi/arm-multilib/lib/gcc/arm-none-eabi/4.6.2/../../../../arm-none-eabi/lib/thumb2/libm.a(lib_a-kf_rem_pio2.o)
 .debug_loc     0x00013543       0xfa /opt/paparazzi/arm-multilib/lib/gcc/arm-none-eabi/4.6.2/../../../../arm-none-eabi/lib/thumb2/libm.a(lib_a-kf_sin.o)
 .debug_loc     0x0001363d      0x526 /opt/paparazzi/arm-multilib/lib/gcc/arm-none-eabi/4.6.2/../../../../arm-none-eabi/lib/thumb2/libm.a(lib_a-s_expm1.o)
 .debug_loc     0x00013b63       0x18 /opt/paparazzi/arm-multilib/lib/gcc/arm-none-eabi/4.6.2/../../../../arm-none-eabi/lib/thumb2/libm.a(lib_a-s_finite.o)
 .debug_loc     0x00013b7b      0x1e6 /opt/paparazzi/arm-multilib/lib/gcc/arm-none-eabi/4.6.2/../../../../arm-none-eabi/lib/thumb2/libm.a(lib_a-s_floor.o)
 .debug_loc     0x00013d61       0xd6 /opt/paparazzi/arm-multilib/lib/gcc/arm-none-eabi/4.6.2/../../../../arm-none-eabi/lib/thumb2/libm.a(lib_a-s_fpclassify.o)
 .debug_loc     0x00013e37       0x13 /opt/paparazzi/arm-multilib/lib/gcc/arm-none-eabi/4.6.2/../../../../arm-none-eabi/lib/thumb2/libm.a(lib_a-s_matherr.o)
 .debug_loc     0x00013e4a       0x13 /opt/paparazzi/arm-multilib/lib/gcc/arm-none-eabi/4.6.2/../../../../arm-none-eabi/lib/thumb2/libm.a(lib_a-s_nan.o)
 .debug_loc     0x00013e5d      0x142 /opt/paparazzi/arm-multilib/lib/gcc/arm-none-eabi/4.6.2/../../../../arm-none-eabi/lib/thumb2/libm.a(lib_a-s_scalbn.o)
 .debug_loc     0x00013f9f       0x39 /opt/paparazzi/arm-multilib/lib/gcc/arm-none-eabi/4.6.2/../../../../arm-none-eabi/lib/thumb2/libm.a(lib_a-sf_finite.o)
 .debug_loc     0x00013fd8      0x111 /opt/paparazzi/arm-multilib/lib/gcc/arm-none-eabi/4.6.2/../../../../arm-none-eabi/lib/thumb2/libm.a(lib_a-sf_floor.o)
 .debug_loc     0x000140e9       0xa0 /opt/paparazzi/arm-multilib/lib/gcc/arm-none-eabi/4.6.2/../../../../arm-none-eabi/lib/thumb2/libm.a(lib_a-sf_fpclassify.o)
 .debug_loc     0x00014189       0x13 /opt/paparazzi/arm-multilib/lib/gcc/arm-none-eabi/4.6.2/../../../../arm-none-eabi/lib/thumb2/libm.a(lib_a-sf_nan.o)
 .debug_loc     0x0001419c      0x1f6 /opt/paparazzi/arm-multilib/lib/gcc/arm-none-eabi/4.6.2/../../../../arm-none-eabi/lib/thumb2/libm.a(lib_a-sf_scalbn.o)
 .debug_loc     0x00014392       0x68 /opt/paparazzi/arm-multilib/lib/gcc/arm-none-eabi/4.6.2/../../../../arm-none-eabi/lib/thumb2/libm.a(lib_a-s_copysign.o)
 .debug_loc     0x000143fa       0x26 /opt/paparazzi/arm-multilib/lib/gcc/arm-none-eabi/4.6.2/../../../../arm-none-eabi/lib/thumb2/libm.a(lib_a-sf_copysign.o)
 .debug_loc     0x00014420      0x70b /opt/paparazzi/arm-multilib/lib/gcc/arm-none-eabi/4.6.2/../../../../arm-none-eabi/lib/libstm32.a(stm32_adc.o)
 .debug_loc     0x00014b2b     0x1183 /opt/paparazzi/arm-multilib/lib/gcc/arm-none-eabi/4.6.2/../../../../arm-none-eabi/lib/libstm32.a(stm32_tim.o)
 .debug_loc     0x00015cae      0x142 /opt/paparazzi/arm-multilib/lib/gcc/arm-none-eabi/4.6.2/../../../../arm-none-eabi/lib/libstm32.a(stm32_dma.o)
 .debug_loc     0x00015df0      0x45a /opt/paparazzi/arm-multilib/lib/gcc/arm-none-eabi/4.6.2/../../../../arm-none-eabi/lib/libstm32.a(stm32_gpio.o)
 .debug_loc     0x0001624a      0x553 /opt/paparazzi/arm-multilib/lib/gcc/arm-none-eabi/4.6.2/../../../../arm-none-eabi/lib/libstm32.a(stm32_usart.o)
 .debug_loc     0x0001679d       0xca /opt/paparazzi/arm-multilib/lib/gcc/arm-none-eabi/4.6.2/../../../../arm-none-eabi/lib/libstm32.a(stm32_exti.o)
 .debug_loc     0x00016867      0x5d7 /opt/paparazzi/arm-multilib/lib/gcc/arm-none-eabi/4.6.2/../../../../arm-none-eabi/lib/libstm32.a(stm32_i2c.o)
 .debug_loc     0x00016e3e      0x437 /opt/paparazzi/arm-multilib/lib/gcc/arm-none-eabi/4.6.2/../../../../arm-none-eabi/lib/libstm32.a(stm32_spi.o)
 .debug_loc     0x00017275      0x473 /opt/paparazzi/arm-multilib/lib/gcc/arm-none-eabi/4.6.2/../../../../arm-none-eabi/lib/libstm32.a(stm32_rcc.o)
 .debug_loc     0x000176e8      0x11d /opt/paparazzi/arm-multilib/lib/gcc/arm-none-eabi/4.6.2/../../../../arm-none-eabi/lib/libstm32.a(stm32_misc.o)
 .debug_loc     0x00017805      0x272 /opt/paparazzi/arm-multilib/lib/gcc/arm-none-eabi/4.6.2/../../../../arm-none-eabi/lib/libopencm3_stm32.a(rcc.o)
 .debug_loc     0x00017a77      0x128 /opt/paparazzi/arm-multilib/lib/gcc/arm-none-eabi/4.6.2/../../../../arm-none-eabi/lib/libopencm3_stm32.a(usart.o)
 .debug_loc     0x00017b9f      0x19c /opt/paparazzi/arm-multilib/lib/gcc/arm-none-eabi/4.6.2/../../../../arm-none-eabi/lib/libopencm3_stm32.a(flash.o)

.debug_macinfo
 *(.debug_macinfo)

.debug_weaknames
 *(.debug_weaknames)

.debug_funcnames
 *(.debug_funcnames)

.debug_typenames
 *(.debug_typenames)

.debug_varnames
 *(.debug_varnames)
OUTPUT(/home/mav/paparazzi/var/Radian/ap/ap.elf elf32-littlearm)

.debug_ranges   0x00000000     0x5e80
 .debug_ranges  0x00000000       0x68 /home/mav/paparazzi/var/Radian/ap/mcu.o
 .debug_ranges  0x00000068       0x10 /home/mav/paparazzi/var/Radian/ap/arch/stm32/mcu_arch.o
 .debug_ranges  0x00000078       0x48 /home/mav/paparazzi/var/Radian/ap/mcu_periph/sys_time.o
 .debug_ranges  0x000000c0       0x38 /home/mav/paparazzi/var/Radian/ap/arch/stm32/mcu_periph/sys_time_arch.o
 .debug_ranges  0x000000f8       0x88 /home/mav/paparazzi/var/Radian/ap/math/pprz_geodetic_int.o
 .debug_ranges  0x00000180      0x178 /home/mav/paparazzi/var/Radian/ap/math/pprz_geodetic_float.o
 .debug_ranges  0x000002f8      0x108 /home/mav/paparazzi/var/Radian/ap/math/pprz_geodetic_double.o
 .debug_ranges  0x00000400       0x10 /home/mav/paparazzi/var/Radian/ap/mcu_periph/i2c.o
 .debug_ranges  0x00000410       0x20 /home/mav/paparazzi/var/Radian/ap/arch/stm32/mcu_periph/i2c_arch.o
 .debug_ranges  0x00000430      0x260 /home/mav/paparazzi/var/Radian/ap/firmwares/fixedwing/main_fbw.o
 .debug_ranges  0x00000690       0x18 /home/mav/paparazzi/var/Radian/ap/subsystems/electrical.o
 .debug_ranges  0x000006a8     0x1fe0 /home/mav/paparazzi/var/Radian/ap/firmwares/fixedwing/main_ap.o
 .debug_ranges  0x00002688       0x18 /home/mav/paparazzi/var/Radian/ap/./estimator.o
 .debug_ranges  0x000026a0       0x30 /home/mav/paparazzi/var/Radian/ap/arch/stm32/stm32_exceptions.o
 .debug_ranges  0x000026d0       0x28 /home/mav/paparazzi/var/Radian/ap/arch/stm32/stm32_vector_table.o
 .debug_ranges  0x000026f8       0x48 /home/mav/paparazzi/var/Radian/ap/lisa/plug_sys.o
 .debug_ranges  0x00002740       0x10 /home/mav/paparazzi/var/Radian/ap/firmwares/fixedwing/main.o
 .debug_ranges  0x00002750       0x18 /home/mav/paparazzi/var/Radian/ap/mcu_periph/uart.o
 .debug_ranges  0x00002768       0x70 /home/mav/paparazzi/var/Radian/ap/arch/stm32/mcu_periph/uart_arch.o
 .debug_ranges  0x000027d8       0x18 /home/mav/paparazzi/var/Radian/ap/subsystems/settings.o
 .debug_ranges  0x000027f0       0x28 /home/mav/paparazzi/var/Radian/ap/arch/stm32/subsystems/settings_arch.o
 .debug_ranges  0x00002818       0x90 /home/mav/paparazzi/var/Radian/ap/arch/stm32/mcu_periph/adc_arch.o
 .debug_ranges  0x000028a8       0x10 /home/mav/paparazzi/var/Radian/ap/arch/stm32/servos_direct_hw.o
 .debug_ranges  0x000028b8       0x18 /home/mav/paparazzi/var/Radian/ap/firmwares/rotorcraft/actuators/arch/stm32/actuators_pwm_arch.o
 .debug_ranges  0x000028d0       0xa8 /home/mav/paparazzi/var/Radian/ap/arch/stm32/subsystems/radio_control/spektrum_arch.o
 .debug_ranges  0x00002978      0x1a0 /home/mav/paparazzi/var/Radian/ap/firmwares/fixedwing/datalink.o
 .debug_ranges  0x00002b18       0x80 /home/mav/paparazzi/var/Radian/ap/firmwares/fixedwing/stabilization/stabilization_attitude.o
 .debug_ranges  0x00002b98       0x28 /home/mav/paparazzi/var/Radian/ap/firmwares/fixedwing/guidance/guidance_v.o
 .debug_ranges  0x00002bc0      0x628 /home/mav/paparazzi/var/Radian/ap/subsystems/ahrs/ahrs_int_cmpl_quat.o
 .debug_ranges  0x000031e8       0x40 /home/mav/paparazzi/var/Radian/ap/subsystems/ahrs/ahrs_aligner.o
 .debug_ranges  0x00003228     0x1710 /home/mav/paparazzi/var/Radian/ap/subsystems/gps/gps_ubx.o
 .debug_ranges  0x00004938       0x10 /home/mav/paparazzi/var/Radian/ap/subsystems/gps.o
 .debug_ranges  0x00004948       0xc8 /home/mav/paparazzi/var/Radian/ap/subsystems/imu.o
 .debug_ranges  0x00004a10       0x28 /home/mav/paparazzi/var/Radian/ap/subsystems/imu/imu_aspirin2.o
 .debug_ranges  0x00004a38       0x28 /home/mav/paparazzi/var/Radian/ap/arch/stm32/subsystems/imu/imu_aspirin2_arch.o
 .debug_ranges  0x00004a60       0x30 /home/mav/paparazzi/var/Radian/ap/arch/stm32/mcu_periph/spi_arch.o
 .debug_ranges  0x00004a90      0x238 /home/mav/paparazzi/var/Radian/ap/subsystems/nav.o
 .debug_ranges  0x00004cc8       0x18 /home/mav/paparazzi/var/Radian/ap/subsystems/navigation/common_flight_plan.o
 .debug_ranges  0x00004ce0       0x18 /home/mav/paparazzi/var/Radian/ap/subsystems/navigation/traffic_info.o
 .debug_ranges  0x00004cf8       0x78 /home/mav/paparazzi/var/Radian/ap/subsystems/navigation/nav_survey_rectangle.o
 .debug_ranges  0x00004d70      0x210 /home/mav/paparazzi/var/Radian/ap/subsystems/navigation/nav_line.o
 .debug_ranges  0x00004f80       0x18 /opt/paparazzi/arm-multilib/lib/gcc/arm-none-eabi/4.6.2/../../../../arm-none-eabi/lib/thumb2/libm.a(lib_a-s_rint.o)
 .debug_ranges  0x00004f98       0x20 /opt/paparazzi/arm-multilib/lib/gcc/arm-none-eabi/4.6.2/../../../../arm-none-eabi/lib/thumb2/libm.a(lib_a-e_asin.o)
 .debug_ranges  0x00004fb8       0x48 /opt/paparazzi/arm-multilib/lib/gcc/arm-none-eabi/4.6.2/../../../../arm-none-eabi/lib/thumb2/libm.a(lib_a-e_atan2.o)
 .debug_ranges  0x00005000       0x30 /opt/paparazzi/arm-multilib/lib/gcc/arm-none-eabi/4.6.2/../../../../arm-none-eabi/lib/thumb2/libm.a(lib_a-e_exp.o)
 .debug_ranges  0x00005030       0x30 /opt/paparazzi/arm-multilib/lib/gcc/arm-none-eabi/4.6.2/../../../../arm-none-eabi/lib/thumb2/libm.a(lib_a-e_log.o)
 .debug_ranges  0x00005060      0x160 /opt/paparazzi/arm-multilib/lib/gcc/arm-none-eabi/4.6.2/../../../../arm-none-eabi/lib/thumb2/libm.a(lib_a-e_pow.o)
 .debug_ranges  0x000051c0       0x18 /opt/paparazzi/arm-multilib/lib/gcc/arm-none-eabi/4.6.2/../../../../arm-none-eabi/lib/thumb2/libm.a(lib_a-e_rem_pio2.o)
 .debug_ranges  0x000051d8       0x18 /opt/paparazzi/arm-multilib/lib/gcc/arm-none-eabi/4.6.2/../../../../arm-none-eabi/lib/thumb2/libm.a(lib_a-e_sqrt.o)
 .debug_ranges  0x000051f0       0x20 /opt/paparazzi/arm-multilib/lib/gcc/arm-none-eabi/4.6.2/../../../../arm-none-eabi/lib/thumb2/libm.a(lib_a-ef_asin.o)
 .debug_ranges  0x00005210       0x48 /opt/paparazzi/arm-multilib/lib/gcc/arm-none-eabi/4.6.2/../../../../arm-none-eabi/lib/thumb2/libm.a(lib_a-ef_pow.o)
 .debug_ranges  0x00005258       0x40 /opt/paparazzi/arm-multilib/lib/gcc/arm-none-eabi/4.6.2/../../../../arm-none-eabi/lib/thumb2/libm.a(lib_a-k_tan.o)
 .debug_ranges  0x00005298       0x30 /opt/paparazzi/arm-multilib/lib/gcc/arm-none-eabi/4.6.2/../../../../arm-none-eabi/lib/thumb2/libm.a(lib_a-s_expm1.o)
 .debug_ranges  0x000052c8       0x30 /opt/paparazzi/arm-multilib/lib/gcc/arm-none-eabi/4.6.2/../../../../arm-none-eabi/lib/thumb2/libm.a(lib_a-s_scalbn.o)
 .debug_ranges  0x000052f8       0x18 /opt/paparazzi/arm-multilib/lib/gcc/arm-none-eabi/4.6.2/../../../../arm-none-eabi/lib/thumb2/libm.a(lib_a-s_copysign.o)
 .debug_ranges  0x00005310      0x128 /opt/paparazzi/arm-multilib/lib/gcc/arm-none-eabi/4.6.2/../../../../arm-none-eabi/lib/libstm32.a(stm32_adc.o)
 .debug_ranges  0x00005438      0x300 /opt/paparazzi/arm-multilib/lib/gcc/arm-none-eabi/4.6.2/../../../../arm-none-eabi/lib/libstm32.a(stm32_tim.o)
 .debug_ranges  0x00005738       0x58 /opt/paparazzi/arm-multilib/lib/gcc/arm-none-eabi/4.6.2/../../../../arm-none-eabi/lib/libstm32.a(stm32_dma.o)
 .debug_ranges  0x00005790       0x90 /opt/paparazzi/arm-multilib/lib/gcc/arm-none-eabi/4.6.2/../../../../arm-none-eabi/lib/libstm32.a(stm32_gpio.o)
 .debug_ranges  0x00005820       0xe0 /opt/paparazzi/arm-multilib/lib/gcc/arm-none-eabi/4.6.2/../../../../arm-none-eabi/lib/libstm32.a(stm32_usart.o)
 .debug_ranges  0x00005900       0x48 /opt/paparazzi/arm-multilib/lib/gcc/arm-none-eabi/4.6.2/../../../../arm-none-eabi/lib/libstm32.a(stm32_exti.o)
 .debug_ranges  0x00005948      0x108 /opt/paparazzi/arm-multilib/lib/gcc/arm-none-eabi/4.6.2/../../../../arm-none-eabi/lib/libstm32.a(stm32_i2c.o)
 .debug_ranges  0x00005a50       0xc0 /opt/paparazzi/arm-multilib/lib/gcc/arm-none-eabi/4.6.2/../../../../arm-none-eabi/lib/libstm32.a(stm32_spi.o)
 .debug_ranges  0x00005b10      0x108 /opt/paparazzi/arm-multilib/lib/gcc/arm-none-eabi/4.6.2/../../../../arm-none-eabi/lib/libstm32.a(stm32_rcc.o)
 .debug_ranges  0x00005c18       0x30 /opt/paparazzi/arm-multilib/lib/gcc/arm-none-eabi/4.6.2/../../../../arm-none-eabi/lib/libstm32.a(stm32_misc.o)
 .debug_ranges  0x00005c48      0x118 /opt/paparazzi/arm-multilib/lib/gcc/arm-none-eabi/4.6.2/../../../../arm-none-eabi/lib/libopencm3_stm32.a(rcc.o)
 .debug_ranges  0x00005d60       0x78 /opt/paparazzi/arm-multilib/lib/gcc/arm-none-eabi/4.6.2/../../../../arm-none-eabi/lib/libopencm3_stm32.a(usart.o)
 .debug_ranges  0x00005dd8       0xa8 /opt/paparazzi/arm-multilib/lib/gcc/arm-none-eabi/4.6.2/../../../../arm-none-eabi/lib/libopencm3_stm32.a(flash.o)

Cross Reference Table

Symbol                                            File
ADC_AnalogWatchdogCmd                             /opt/paparazzi/arm-multilib/lib/gcc/arm-none-eabi/4.6.2/../../../../arm-none-eabi/lib/libstm32.a(stm32_adc.o)
ADC_AnalogWatchdogSingleChannelConfig             /opt/paparazzi/arm-multilib/lib/gcc/arm-none-eabi/4.6.2/../../../../arm-none-eabi/lib/libstm32.a(stm32_adc.o)
ADC_AnalogWatchdogThresholdsConfig                /opt/paparazzi/arm-multilib/lib/gcc/arm-none-eabi/4.6.2/../../../../arm-none-eabi/lib/libstm32.a(stm32_adc.o)
ADC_AutoInjectedConvCmd                           /opt/paparazzi/arm-multilib/lib/gcc/arm-none-eabi/4.6.2/../../../../arm-none-eabi/lib/libstm32.a(stm32_adc.o)
ADC_ClearFlag                                     /opt/paparazzi/arm-multilib/lib/gcc/arm-none-eabi/4.6.2/../../../../arm-none-eabi/lib/libstm32.a(stm32_adc.o)
ADC_ClearITPendingBit                             /opt/paparazzi/arm-multilib/lib/gcc/arm-none-eabi/4.6.2/../../../../arm-none-eabi/lib/libstm32.a(stm32_adc.o)
                                                  /home/mav/paparazzi/var/Radian/ap/arch/stm32/mcu_periph/adc_arch.o
ADC_Cmd                                           /opt/paparazzi/arm-multilib/lib/gcc/arm-none-eabi/4.6.2/../../../../arm-none-eabi/lib/libstm32.a(stm32_adc.o)
                                                  /home/mav/paparazzi/var/Radian/ap/arch/stm32/mcu_periph/adc_arch.o
ADC_DMACmd                                        /opt/paparazzi/arm-multilib/lib/gcc/arm-none-eabi/4.6.2/../../../../arm-none-eabi/lib/libstm32.a(stm32_adc.o)
ADC_DeInit                                        /opt/paparazzi/arm-multilib/lib/gcc/arm-none-eabi/4.6.2/../../../../arm-none-eabi/lib/libstm32.a(stm32_adc.o)
ADC_DiscModeChannelCountConfig                    /opt/paparazzi/arm-multilib/lib/gcc/arm-none-eabi/4.6.2/../../../../arm-none-eabi/lib/libstm32.a(stm32_adc.o)
ADC_DiscModeCmd                                   /opt/paparazzi/arm-multilib/lib/gcc/arm-none-eabi/4.6.2/../../../../arm-none-eabi/lib/libstm32.a(stm32_adc.o)
ADC_ExternalTrigConvCmd                           /opt/paparazzi/arm-multilib/lib/gcc/arm-none-eabi/4.6.2/../../../../arm-none-eabi/lib/libstm32.a(stm32_adc.o)
ADC_ExternalTrigInjectedConvCmd                   /opt/paparazzi/arm-multilib/lib/gcc/arm-none-eabi/4.6.2/../../../../arm-none-eabi/lib/libstm32.a(stm32_adc.o)
                                                  /home/mav/paparazzi/var/Radian/ap/arch/stm32/mcu_periph/adc_arch.o
ADC_ExternalTrigInjectedConvConfig                /opt/paparazzi/arm-multilib/lib/gcc/arm-none-eabi/4.6.2/../../../../arm-none-eabi/lib/libstm32.a(stm32_adc.o)
                                                  /home/mav/paparazzi/var/Radian/ap/arch/stm32/mcu_periph/adc_arch.o
ADC_GetCalibrationStatus                          /opt/paparazzi/arm-multilib/lib/gcc/arm-none-eabi/4.6.2/../../../../arm-none-eabi/lib/libstm32.a(stm32_adc.o)
                                                  /home/mav/paparazzi/var/Radian/ap/arch/stm32/mcu_periph/adc_arch.o
ADC_GetConversionValue                            /opt/paparazzi/arm-multilib/lib/gcc/arm-none-eabi/4.6.2/../../../../arm-none-eabi/lib/libstm32.a(stm32_adc.o)
ADC_GetDualModeConversionValue                    /opt/paparazzi/arm-multilib/lib/gcc/arm-none-eabi/4.6.2/../../../../arm-none-eabi/lib/libstm32.a(stm32_adc.o)
ADC_GetFlagStatus                                 /opt/paparazzi/arm-multilib/lib/gcc/arm-none-eabi/4.6.2/../../../../arm-none-eabi/lib/libstm32.a(stm32_adc.o)
ADC_GetITStatus                                   /opt/paparazzi/arm-multilib/lib/gcc/arm-none-eabi/4.6.2/../../../../arm-none-eabi/lib/libstm32.a(stm32_adc.o)
ADC_GetInjectedConversionValue                    /opt/paparazzi/arm-multilib/lib/gcc/arm-none-eabi/4.6.2/../../../../arm-none-eabi/lib/libstm32.a(stm32_adc.o)
                                                  /home/mav/paparazzi/var/Radian/ap/arch/stm32/mcu_periph/adc_arch.o
ADC_GetResetCalibrationStatus                     /opt/paparazzi/arm-multilib/lib/gcc/arm-none-eabi/4.6.2/../../../../arm-none-eabi/lib/libstm32.a(stm32_adc.o)
                                                  /home/mav/paparazzi/var/Radian/ap/arch/stm32/mcu_periph/adc_arch.o
ADC_GetSoftwareStartConvStatus                    /opt/paparazzi/arm-multilib/lib/gcc/arm-none-eabi/4.6.2/../../../../arm-none-eabi/lib/libstm32.a(stm32_adc.o)
ADC_GetSoftwareStartInjectedConvCmdStatus         /opt/paparazzi/arm-multilib/lib/gcc/arm-none-eabi/4.6.2/../../../../arm-none-eabi/lib/libstm32.a(stm32_adc.o)
ADC_ITConfig                                      /opt/paparazzi/arm-multilib/lib/gcc/arm-none-eabi/4.6.2/../../../../arm-none-eabi/lib/libstm32.a(stm32_adc.o)
                                                  /home/mav/paparazzi/var/Radian/ap/arch/stm32/mcu_periph/adc_arch.o
ADC_Init                                          /opt/paparazzi/arm-multilib/lib/gcc/arm-none-eabi/4.6.2/../../../../arm-none-eabi/lib/libstm32.a(stm32_adc.o)
                                                  /home/mav/paparazzi/var/Radian/ap/arch/stm32/mcu_periph/adc_arch.o
ADC_InjectedChannelConfig                         /opt/paparazzi/arm-multilib/lib/gcc/arm-none-eabi/4.6.2/../../../../arm-none-eabi/lib/libstm32.a(stm32_adc.o)
                                                  /home/mav/paparazzi/var/Radian/ap/arch/stm32/mcu_periph/adc_arch.o
ADC_InjectedDiscModeCmd                           /opt/paparazzi/arm-multilib/lib/gcc/arm-none-eabi/4.6.2/../../../../arm-none-eabi/lib/libstm32.a(stm32_adc.o)
ADC_InjectedSequencerLengthConfig                 /opt/paparazzi/arm-multilib/lib/gcc/arm-none-eabi/4.6.2/../../../../arm-none-eabi/lib/libstm32.a(stm32_adc.o)
                                                  /home/mav/paparazzi/var/Radian/ap/arch/stm32/mcu_periph/adc_arch.o
ADC_RegularChannelConfig                          /opt/paparazzi/arm-multilib/lib/gcc/arm-none-eabi/4.6.2/../../../../arm-none-eabi/lib/libstm32.a(stm32_adc.o)
ADC_ResetCalibration                              /opt/paparazzi/arm-multilib/lib/gcc/arm-none-eabi/4.6.2/../../../../arm-none-eabi/lib/libstm32.a(stm32_adc.o)
                                                  /home/mav/paparazzi/var/Radian/ap/arch/stm32/mcu_periph/adc_arch.o
ADC_SetInjectedOffset                             /opt/paparazzi/arm-multilib/lib/gcc/arm-none-eabi/4.6.2/../../../../arm-none-eabi/lib/libstm32.a(stm32_adc.o)
ADC_SoftwareStartConvCmd                          /opt/paparazzi/arm-multilib/lib/gcc/arm-none-eabi/4.6.2/../../../../arm-none-eabi/lib/libstm32.a(stm32_adc.o)
ADC_SoftwareStartInjectedConvCmd                  /opt/paparazzi/arm-multilib/lib/gcc/arm-none-eabi/4.6.2/../../../../arm-none-eabi/lib/libstm32.a(stm32_adc.o)
ADC_StartCalibration                              /opt/paparazzi/arm-multilib/lib/gcc/arm-none-eabi/4.6.2/../../../../arm-none-eabi/lib/libstm32.a(stm32_adc.o)
                                                  /home/mav/paparazzi/var/Radian/ap/arch/stm32/mcu_periph/adc_arch.o
ADC_StructInit                                    /opt/paparazzi/arm-multilib/lib/gcc/arm-none-eabi/4.6.2/../../../../arm-none-eabi/lib/libstm32.a(stm32_adc.o)
ADC_TempSensorVrefintCmd                          /opt/paparazzi/arm-multilib/lib/gcc/arm-none-eabi/4.6.2/../../../../arm-none-eabi/lib/libstm32.a(stm32_adc.o)
DMA_ClearFlag                                     /opt/paparazzi/arm-multilib/lib/gcc/arm-none-eabi/4.6.2/../../../../arm-none-eabi/lib/libstm32.a(stm32_dma.o)
DMA_ClearITPendingBit                             /opt/paparazzi/arm-multilib/lib/gcc/arm-none-eabi/4.6.2/../../../../arm-none-eabi/lib/libstm32.a(stm32_dma.o)
                                                  /home/mav/paparazzi/var/Radian/ap/arch/stm32/mcu_periph/spi_arch.o
DMA_Cmd                                           /opt/paparazzi/arm-multilib/lib/gcc/arm-none-eabi/4.6.2/../../../../arm-none-eabi/lib/libstm32.a(stm32_dma.o)
                                                  /home/mav/paparazzi/var/Radian/ap/arch/stm32/mcu_periph/spi_arch.o
DMA_DeInit                                        /opt/paparazzi/arm-multilib/lib/gcc/arm-none-eabi/4.6.2/../../../../arm-none-eabi/lib/libstm32.a(stm32_dma.o)
                                                  /home/mav/paparazzi/var/Radian/ap/arch/stm32/mcu_periph/spi_arch.o
DMA_GetCurrDataCounter                            /opt/paparazzi/arm-multilib/lib/gcc/arm-none-eabi/4.6.2/../../../../arm-none-eabi/lib/libstm32.a(stm32_dma.o)
DMA_GetFlagStatus                                 /opt/paparazzi/arm-multilib/lib/gcc/arm-none-eabi/4.6.2/../../../../arm-none-eabi/lib/libstm32.a(stm32_dma.o)
DMA_GetITStatus                                   /opt/paparazzi/arm-multilib/lib/gcc/arm-none-eabi/4.6.2/../../../../arm-none-eabi/lib/libstm32.a(stm32_dma.o)
                                                  /home/mav/paparazzi/var/Radian/ap/arch/stm32/mcu_periph/spi_arch.o
DMA_ITConfig                                      /opt/paparazzi/arm-multilib/lib/gcc/arm-none-eabi/4.6.2/../../../../arm-none-eabi/lib/libstm32.a(stm32_dma.o)
                                                  /home/mav/paparazzi/var/Radian/ap/arch/stm32/mcu_periph/spi_arch.o
DMA_Init                                          /opt/paparazzi/arm-multilib/lib/gcc/arm-none-eabi/4.6.2/../../../../arm-none-eabi/lib/libstm32.a(stm32_dma.o)
                                                  /home/mav/paparazzi/var/Radian/ap/arch/stm32/mcu_periph/spi_arch.o
DMA_StructInit                                    /opt/paparazzi/arm-multilib/lib/gcc/arm-none-eabi/4.6.2/../../../../arm-none-eabi/lib/libstm32.a(stm32_dma.o)
DebugInit                                         /home/mav/paparazzi/var/Radian/ap/arch/stm32/subsystems/radio_control/spektrum_arch.o
EXTI_ClearFlag                                    /opt/paparazzi/arm-multilib/lib/gcc/arm-none-eabi/4.6.2/../../../../arm-none-eabi/lib/libstm32.a(stm32_exti.o)
EXTI_ClearITPendingBit                            /opt/paparazzi/arm-multilib/lib/gcc/arm-none-eabi/4.6.2/../../../../arm-none-eabi/lib/libstm32.a(stm32_exti.o)
                                                  /home/mav/paparazzi/var/Radian/ap/arch/stm32/subsystems/imu/imu_aspirin2_arch.o
EXTI_DeInit                                       /opt/paparazzi/arm-multilib/lib/gcc/arm-none-eabi/4.6.2/../../../../arm-none-eabi/lib/libstm32.a(stm32_exti.o)
EXTI_GenerateSWInterrupt                          /opt/paparazzi/arm-multilib/lib/gcc/arm-none-eabi/4.6.2/../../../../arm-none-eabi/lib/libstm32.a(stm32_exti.o)
EXTI_GetFlagStatus                                /opt/paparazzi/arm-multilib/lib/gcc/arm-none-eabi/4.6.2/../../../../arm-none-eabi/lib/libstm32.a(stm32_exti.o)
EXTI_GetITStatus                                  /opt/paparazzi/arm-multilib/lib/gcc/arm-none-eabi/4.6.2/../../../../arm-none-eabi/lib/libstm32.a(stm32_exti.o)
                                                  /home/mav/paparazzi/var/Radian/ap/arch/stm32/subsystems/imu/imu_aspirin2_arch.o
EXTI_Init                                         /opt/paparazzi/arm-multilib/lib/gcc/arm-none-eabi/4.6.2/../../../../arm-none-eabi/lib/libstm32.a(stm32_exti.o)
EXTI_StructInit                                   /opt/paparazzi/arm-multilib/lib/gcc/arm-none-eabi/4.6.2/../../../../arm-none-eabi/lib/libstm32.a(stm32_exti.o)
GPIO_AFIODeInit                                   /opt/paparazzi/arm-multilib/lib/gcc/arm-none-eabi/4.6.2/../../../../arm-none-eabi/lib/libstm32.a(stm32_gpio.o)
GPIO_DeInit                                       /opt/paparazzi/arm-multilib/lib/gcc/arm-none-eabi/4.6.2/../../../../arm-none-eabi/lib/libstm32.a(stm32_gpio.o)
GPIO_EXTILineConfig                               /opt/paparazzi/arm-multilib/lib/gcc/arm-none-eabi/4.6.2/../../../../arm-none-eabi/lib/libstm32.a(stm32_gpio.o)
GPIO_EventOutputCmd                               /opt/paparazzi/arm-multilib/lib/gcc/arm-none-eabi/4.6.2/../../../../arm-none-eabi/lib/libstm32.a(stm32_gpio.o)
GPIO_EventOutputConfig                            /opt/paparazzi/arm-multilib/lib/gcc/arm-none-eabi/4.6.2/../../../../arm-none-eabi/lib/libstm32.a(stm32_gpio.o)
GPIO_Init                                         /opt/paparazzi/arm-multilib/lib/gcc/arm-none-eabi/4.6.2/../../../../arm-none-eabi/lib/libstm32.a(stm32_gpio.o)
                                                  /home/mav/paparazzi/var/Radian/ap/arch/stm32/mcu_periph/spi_arch.o
                                                  /home/mav/paparazzi/var/Radian/ap/arch/stm32/subsystems/radio_control/spektrum_arch.o
                                                  /home/mav/paparazzi/var/Radian/ap/firmwares/rotorcraft/actuators/arch/stm32/actuators_pwm_arch.o
                                                  /home/mav/paparazzi/var/Radian/ap/arch/stm32/mcu_periph/adc_arch.o
                                                  /home/mav/paparazzi/var/Radian/ap/arch/stm32/mcu_periph/uart_arch.o
                                                  /home/mav/paparazzi/var/Radian/ap/mcu.o
GPIO_PinLockConfig                                /opt/paparazzi/arm-multilib/lib/gcc/arm-none-eabi/4.6.2/../../../../arm-none-eabi/lib/libstm32.a(stm32_gpio.o)
GPIO_PinRemapConfig                               /opt/paparazzi/arm-multilib/lib/gcc/arm-none-eabi/4.6.2/../../../../arm-none-eabi/lib/libstm32.a(stm32_gpio.o)
                                                  /home/mav/paparazzi/var/Radian/ap/firmwares/rotorcraft/actuators/arch/stm32/actuators_pwm_arch.o
                                                  /home/mav/paparazzi/var/Radian/ap/arch/stm32/mcu_periph/uart_arch.o
                                                  /home/mav/paparazzi/var/Radian/ap/mcu.o
GPIO_ReadInputData                                /opt/paparazzi/arm-multilib/lib/gcc/arm-none-eabi/4.6.2/../../../../arm-none-eabi/lib/libstm32.a(stm32_gpio.o)
GPIO_ReadInputDataBit                             /opt/paparazzi/arm-multilib/lib/gcc/arm-none-eabi/4.6.2/../../../../arm-none-eabi/lib/libstm32.a(stm32_gpio.o)
                                                  /home/mav/paparazzi/var/Radian/ap/arch/stm32/subsystems/radio_control/spektrum_arch.o
GPIO_ReadOutputData                               /opt/paparazzi/arm-multilib/lib/gcc/arm-none-eabi/4.6.2/../../../../arm-none-eabi/lib/libstm32.a(stm32_gpio.o)
GPIO_ReadOutputDataBit                            /opt/paparazzi/arm-multilib/lib/gcc/arm-none-eabi/4.6.2/../../../../arm-none-eabi/lib/libstm32.a(stm32_gpio.o)
GPIO_ResetBits                                    /opt/paparazzi/arm-multilib/lib/gcc/arm-none-eabi/4.6.2/../../../../arm-none-eabi/lib/libstm32.a(stm32_gpio.o)
GPIO_SetBits                                      /opt/paparazzi/arm-multilib/lib/gcc/arm-none-eabi/4.6.2/../../../../arm-none-eabi/lib/libstm32.a(stm32_gpio.o)
GPIO_StructInit                                   /opt/paparazzi/arm-multilib/lib/gcc/arm-none-eabi/4.6.2/../../../../arm-none-eabi/lib/libstm32.a(stm32_gpio.o)
GPIO_Write                                        /opt/paparazzi/arm-multilib/lib/gcc/arm-none-eabi/4.6.2/../../../../arm-none-eabi/lib/libstm32.a(stm32_gpio.o)
GPIO_WriteBit                                     /opt/paparazzi/arm-multilib/lib/gcc/arm-none-eabi/4.6.2/../../../../arm-none-eabi/lib/libstm32.a(stm32_gpio.o)
                                                  /home/mav/paparazzi/var/Radian/ap/arch/stm32/subsystems/radio_control/spektrum_arch.o
I2C_ARPCmd                                        /opt/paparazzi/arm-multilib/lib/gcc/arm-none-eabi/4.6.2/../../../../arm-none-eabi/lib/libstm32.a(stm32_i2c.o)
I2C_AcknowledgeConfig                             /opt/paparazzi/arm-multilib/lib/gcc/arm-none-eabi/4.6.2/../../../../arm-none-eabi/lib/libstm32.a(stm32_i2c.o)
I2C_CalculatePEC                                  /opt/paparazzi/arm-multilib/lib/gcc/arm-none-eabi/4.6.2/../../../../arm-none-eabi/lib/libstm32.a(stm32_i2c.o)
I2C_CheckEvent                                    /opt/paparazzi/arm-multilib/lib/gcc/arm-none-eabi/4.6.2/../../../../arm-none-eabi/lib/libstm32.a(stm32_i2c.o)
I2C_ClearFlag                                     /opt/paparazzi/arm-multilib/lib/gcc/arm-none-eabi/4.6.2/../../../../arm-none-eabi/lib/libstm32.a(stm32_i2c.o)
I2C_ClearITPendingBit                             /opt/paparazzi/arm-multilib/lib/gcc/arm-none-eabi/4.6.2/../../../../arm-none-eabi/lib/libstm32.a(stm32_i2c.o)
I2C_Cmd                                           /opt/paparazzi/arm-multilib/lib/gcc/arm-none-eabi/4.6.2/../../../../arm-none-eabi/lib/libstm32.a(stm32_i2c.o)
I2C_DMACmd                                        /opt/paparazzi/arm-multilib/lib/gcc/arm-none-eabi/4.6.2/../../../../arm-none-eabi/lib/libstm32.a(stm32_i2c.o)
I2C_DMALastTransferCmd                            /opt/paparazzi/arm-multilib/lib/gcc/arm-none-eabi/4.6.2/../../../../arm-none-eabi/lib/libstm32.a(stm32_i2c.o)
I2C_DeInit                                        /opt/paparazzi/arm-multilib/lib/gcc/arm-none-eabi/4.6.2/../../../../arm-none-eabi/lib/libstm32.a(stm32_i2c.o)
I2C_DualAddressCmd                                /opt/paparazzi/arm-multilib/lib/gcc/arm-none-eabi/4.6.2/../../../../arm-none-eabi/lib/libstm32.a(stm32_i2c.o)
I2C_FastModeDutyCycleConfig                       /opt/paparazzi/arm-multilib/lib/gcc/arm-none-eabi/4.6.2/../../../../arm-none-eabi/lib/libstm32.a(stm32_i2c.o)
I2C_GeneralCallCmd                                /opt/paparazzi/arm-multilib/lib/gcc/arm-none-eabi/4.6.2/../../../../arm-none-eabi/lib/libstm32.a(stm32_i2c.o)
I2C_GenerateSTART                                 /opt/paparazzi/arm-multilib/lib/gcc/arm-none-eabi/4.6.2/../../../../arm-none-eabi/lib/libstm32.a(stm32_i2c.o)
                                                  /home/mav/paparazzi/var/Radian/ap/arch/stm32/mcu_periph/i2c_arch.o
I2C_GenerateSTOP                                  /opt/paparazzi/arm-multilib/lib/gcc/arm-none-eabi/4.6.2/../../../../arm-none-eabi/lib/libstm32.a(stm32_i2c.o)
I2C_GetFlagStatus                                 /opt/paparazzi/arm-multilib/lib/gcc/arm-none-eabi/4.6.2/../../../../arm-none-eabi/lib/libstm32.a(stm32_i2c.o)
                                                  /home/mav/paparazzi/var/Radian/ap/arch/stm32/mcu_periph/i2c_arch.o
I2C_GetITStatus                                   /opt/paparazzi/arm-multilib/lib/gcc/arm-none-eabi/4.6.2/../../../../arm-none-eabi/lib/libstm32.a(stm32_i2c.o)
I2C_GetLastEvent                                  /opt/paparazzi/arm-multilib/lib/gcc/arm-none-eabi/4.6.2/../../../../arm-none-eabi/lib/libstm32.a(stm32_i2c.o)
I2C_GetPEC                                        /opt/paparazzi/arm-multilib/lib/gcc/arm-none-eabi/4.6.2/../../../../arm-none-eabi/lib/libstm32.a(stm32_i2c.o)
I2C_ITConfig                                      /opt/paparazzi/arm-multilib/lib/gcc/arm-none-eabi/4.6.2/../../../../arm-none-eabi/lib/libstm32.a(stm32_i2c.o)
                                                  /home/mav/paparazzi/var/Radian/ap/arch/stm32/mcu_periph/i2c_arch.o
I2C_Init                                          /opt/paparazzi/arm-multilib/lib/gcc/arm-none-eabi/4.6.2/../../../../arm-none-eabi/lib/libstm32.a(stm32_i2c.o)
I2C_OwnAddress2Config                             /opt/paparazzi/arm-multilib/lib/gcc/arm-none-eabi/4.6.2/../../../../arm-none-eabi/lib/libstm32.a(stm32_i2c.o)
I2C_PECPositionConfig                             /opt/paparazzi/arm-multilib/lib/gcc/arm-none-eabi/4.6.2/../../../../arm-none-eabi/lib/libstm32.a(stm32_i2c.o)
I2C_ReadRegister                                  /opt/paparazzi/arm-multilib/lib/gcc/arm-none-eabi/4.6.2/../../../../arm-none-eabi/lib/libstm32.a(stm32_i2c.o)
I2C_ReceiveData                                   /opt/paparazzi/arm-multilib/lib/gcc/arm-none-eabi/4.6.2/../../../../arm-none-eabi/lib/libstm32.a(stm32_i2c.o)
I2C_SMBusAlertConfig                              /opt/paparazzi/arm-multilib/lib/gcc/arm-none-eabi/4.6.2/../../../../arm-none-eabi/lib/libstm32.a(stm32_i2c.o)
I2C_Send7bitAddress                               /opt/paparazzi/arm-multilib/lib/gcc/arm-none-eabi/4.6.2/../../../../arm-none-eabi/lib/libstm32.a(stm32_i2c.o)
I2C_SendData                                      /opt/paparazzi/arm-multilib/lib/gcc/arm-none-eabi/4.6.2/../../../../arm-none-eabi/lib/libstm32.a(stm32_i2c.o)
I2C_SoftwareResetCmd                              /opt/paparazzi/arm-multilib/lib/gcc/arm-none-eabi/4.6.2/../../../../arm-none-eabi/lib/libstm32.a(stm32_i2c.o)
I2C_StretchClockCmd                               /opt/paparazzi/arm-multilib/lib/gcc/arm-none-eabi/4.6.2/../../../../arm-none-eabi/lib/libstm32.a(stm32_i2c.o)
I2C_StructInit                                    /opt/paparazzi/arm-multilib/lib/gcc/arm-none-eabi/4.6.2/../../../../arm-none-eabi/lib/libstm32.a(stm32_i2c.o)
I2C_TransmitPEC                                   /opt/paparazzi/arm-multilib/lib/gcc/arm-none-eabi/4.6.2/../../../../arm-none-eabi/lib/libstm32.a(stm32_i2c.o)
I2S_Cmd                                           /opt/paparazzi/arm-multilib/lib/gcc/arm-none-eabi/4.6.2/../../../../arm-none-eabi/lib/libstm32.a(stm32_spi.o)
I2S_Init                                          /opt/paparazzi/arm-multilib/lib/gcc/arm-none-eabi/4.6.2/../../../../arm-none-eabi/lib/libstm32.a(stm32_spi.o)
I2S_StructInit                                    /opt/paparazzi/arm-multilib/lib/gcc/arm-none-eabi/4.6.2/../../../../arm-none-eabi/lib/libstm32.a(stm32_spi.o)
NVIC_Init                                         /opt/paparazzi/arm-multilib/lib/gcc/arm-none-eabi/4.6.2/../../../../arm-none-eabi/lib/libstm32.a(stm32_misc.o)
                                                  /home/mav/paparazzi/var/Radian/ap/arch/stm32/mcu_periph/spi_arch.o
                                                  /home/mav/paparazzi/var/Radian/ap/arch/stm32/subsystems/radio_control/spektrum_arch.o
                                                  /home/mav/paparazzi/var/Radian/ap/arch/stm32/mcu_periph/adc_arch.o
                                                  /home/mav/paparazzi/var/Radian/ap/arch/stm32/mcu_periph/uart_arch.o
NVIC_PriorityGroupConfig                          /opt/paparazzi/arm-multilib/lib/gcc/arm-none-eabi/4.6.2/../../../../arm-none-eabi/lib/libstm32.a(stm32_misc.o)
NVIC_SetVectorTable                               /opt/paparazzi/arm-multilib/lib/gcc/arm-none-eabi/4.6.2/../../../../arm-none-eabi/lib/libstm32.a(stm32_misc.o)
NVIC_SystemLPConfig                               /opt/paparazzi/arm-multilib/lib/gcc/arm-none-eabi/4.6.2/../../../../arm-none-eabi/lib/libstm32.a(stm32_misc.o)
PrimarySpektrumState                              /home/mav/paparazzi/var/Radian/ap/arch/stm32/subsystems/radio_control/spektrum_arch.o
RCC_ADCCLKConfig                                  /opt/paparazzi/arm-multilib/lib/gcc/arm-none-eabi/4.6.2/../../../../arm-none-eabi/lib/libstm32.a(stm32_rcc.o)
                                                  /home/mav/paparazzi/var/Radian/ap/arch/stm32/mcu_periph/adc_arch.o
RCC_AHBPeriphClockCmd                             /opt/paparazzi/arm-multilib/lib/gcc/arm-none-eabi/4.6.2/../../../../arm-none-eabi/lib/libstm32.a(stm32_rcc.o)
                                                  /home/mav/paparazzi/var/Radian/ap/arch/stm32/mcu_periph/spi_arch.o
RCC_APB1PeriphClockCmd                            /opt/paparazzi/arm-multilib/lib/gcc/arm-none-eabi/4.6.2/../../../../arm-none-eabi/lib/libstm32.a(stm32_rcc.o)
                                                  /home/mav/paparazzi/var/Radian/ap/arch/stm32/mcu_periph/spi_arch.o
                                                  /home/mav/paparazzi/var/Radian/ap/arch/stm32/subsystems/radio_control/spektrum_arch.o
                                                  /home/mav/paparazzi/var/Radian/ap/firmwares/rotorcraft/actuators/arch/stm32/actuators_pwm_arch.o
                                                  /home/mav/paparazzi/var/Radian/ap/arch/stm32/mcu_periph/adc_arch.o
                                                  /home/mav/paparazzi/var/Radian/ap/arch/stm32/mcu_periph/uart_arch.o
RCC_APB1PeriphResetCmd                            /opt/paparazzi/arm-multilib/lib/gcc/arm-none-eabi/4.6.2/../../../../arm-none-eabi/lib/libstm32.a(stm32_rcc.o)
                                                  /opt/paparazzi/arm-multilib/lib/gcc/arm-none-eabi/4.6.2/../../../../arm-none-eabi/lib/libstm32.a(stm32_spi.o)
                                                  /opt/paparazzi/arm-multilib/lib/gcc/arm-none-eabi/4.6.2/../../../../arm-none-eabi/lib/libstm32.a(stm32_i2c.o)
                                                  /opt/paparazzi/arm-multilib/lib/gcc/arm-none-eabi/4.6.2/../../../../arm-none-eabi/lib/libstm32.a(stm32_usart.o)
                                                  /opt/paparazzi/arm-multilib/lib/gcc/arm-none-eabi/4.6.2/../../../../arm-none-eabi/lib/libstm32.a(stm32_tim.o)
RCC_APB2PeriphClockCmd                            /opt/paparazzi/arm-multilib/lib/gcc/arm-none-eabi/4.6.2/../../../../arm-none-eabi/lib/libstm32.a(stm32_rcc.o)
                                                  /home/mav/paparazzi/var/Radian/ap/arch/stm32/mcu_periph/spi_arch.o
                                                  /home/mav/paparazzi/var/Radian/ap/arch/stm32/subsystems/radio_control/spektrum_arch.o
                                                  /home/mav/paparazzi/var/Radian/ap/firmwares/rotorcraft/actuators/arch/stm32/actuators_pwm_arch.o
                                                  /home/mav/paparazzi/var/Radian/ap/arch/stm32/mcu_periph/adc_arch.o
                                                  /home/mav/paparazzi/var/Radian/ap/arch/stm32/mcu_periph/uart_arch.o
                                                  /home/mav/paparazzi/var/Radian/ap/mcu.o
RCC_APB2PeriphResetCmd                            /opt/paparazzi/arm-multilib/lib/gcc/arm-none-eabi/4.6.2/../../../../arm-none-eabi/lib/libstm32.a(stm32_rcc.o)
                                                  /opt/paparazzi/arm-multilib/lib/gcc/arm-none-eabi/4.6.2/../../../../arm-none-eabi/lib/libstm32.a(stm32_spi.o)
                                                  /opt/paparazzi/arm-multilib/lib/gcc/arm-none-eabi/4.6.2/../../../../arm-none-eabi/lib/libstm32.a(stm32_usart.o)
                                                  /opt/paparazzi/arm-multilib/lib/gcc/arm-none-eabi/4.6.2/../../../../arm-none-eabi/lib/libstm32.a(stm32_gpio.o)
                                                  /opt/paparazzi/arm-multilib/lib/gcc/arm-none-eabi/4.6.2/../../../../arm-none-eabi/lib/libstm32.a(stm32_tim.o)
                                                  /opt/paparazzi/arm-multilib/lib/gcc/arm-none-eabi/4.6.2/../../../../arm-none-eabi/lib/libstm32.a(stm32_adc.o)
RCC_AdjustHSICalibrationValue                     /opt/paparazzi/arm-multilib/lib/gcc/arm-none-eabi/4.6.2/../../../../arm-none-eabi/lib/libstm32.a(stm32_rcc.o)
RCC_BackupResetCmd                                /opt/paparazzi/arm-multilib/lib/gcc/arm-none-eabi/4.6.2/../../../../arm-none-eabi/lib/libstm32.a(stm32_rcc.o)
RCC_ClearFlag                                     /opt/paparazzi/arm-multilib/lib/gcc/arm-none-eabi/4.6.2/../../../../arm-none-eabi/lib/libstm32.a(stm32_rcc.o)
RCC_ClearITPendingBit                             /opt/paparazzi/arm-multilib/lib/gcc/arm-none-eabi/4.6.2/../../../../arm-none-eabi/lib/libstm32.a(stm32_rcc.o)
RCC_ClockSecuritySystemCmd                        /opt/paparazzi/arm-multilib/lib/gcc/arm-none-eabi/4.6.2/../../../../arm-none-eabi/lib/libstm32.a(stm32_rcc.o)
RCC_DeInit                                        /opt/paparazzi/arm-multilib/lib/gcc/arm-none-eabi/4.6.2/../../../../arm-none-eabi/lib/libstm32.a(stm32_rcc.o)
RCC_GetClocksFreq                                 /opt/paparazzi/arm-multilib/lib/gcc/arm-none-eabi/4.6.2/../../../../arm-none-eabi/lib/libstm32.a(stm32_rcc.o)
                                                  /opt/paparazzi/arm-multilib/lib/gcc/arm-none-eabi/4.6.2/../../../../arm-none-eabi/lib/libstm32.a(stm32_spi.o)
                                                  /opt/paparazzi/arm-multilib/lib/gcc/arm-none-eabi/4.6.2/../../../../arm-none-eabi/lib/libstm32.a(stm32_i2c.o)
                                                  /opt/paparazzi/arm-multilib/lib/gcc/arm-none-eabi/4.6.2/../../../../arm-none-eabi/lib/libstm32.a(stm32_usart.o)
RCC_GetFlagStatus                                 /opt/paparazzi/arm-multilib/lib/gcc/arm-none-eabi/4.6.2/../../../../arm-none-eabi/lib/libstm32.a(stm32_rcc.o)
RCC_GetITStatus                                   /opt/paparazzi/arm-multilib/lib/gcc/arm-none-eabi/4.6.2/../../../../arm-none-eabi/lib/libstm32.a(stm32_rcc.o)
RCC_GetSYSCLKSource                               /opt/paparazzi/arm-multilib/lib/gcc/arm-none-eabi/4.6.2/../../../../arm-none-eabi/lib/libstm32.a(stm32_rcc.o)
RCC_HCLKConfig                                    /opt/paparazzi/arm-multilib/lib/gcc/arm-none-eabi/4.6.2/../../../../arm-none-eabi/lib/libstm32.a(stm32_rcc.o)
RCC_HSEConfig                                     /opt/paparazzi/arm-multilib/lib/gcc/arm-none-eabi/4.6.2/../../../../arm-none-eabi/lib/libstm32.a(stm32_rcc.o)
RCC_HSICmd                                        /opt/paparazzi/arm-multilib/lib/gcc/arm-none-eabi/4.6.2/../../../../arm-none-eabi/lib/libstm32.a(stm32_rcc.o)
RCC_ITConfig                                      /opt/paparazzi/arm-multilib/lib/gcc/arm-none-eabi/4.6.2/../../../../arm-none-eabi/lib/libstm32.a(stm32_rcc.o)
RCC_LSEConfig                                     /opt/paparazzi/arm-multilib/lib/gcc/arm-none-eabi/4.6.2/../../../../arm-none-eabi/lib/libstm32.a(stm32_rcc.o)
RCC_LSICmd                                        /opt/paparazzi/arm-multilib/lib/gcc/arm-none-eabi/4.6.2/../../../../arm-none-eabi/lib/libstm32.a(stm32_rcc.o)
RCC_MCOConfig                                     /opt/paparazzi/arm-multilib/lib/gcc/arm-none-eabi/4.6.2/../../../../arm-none-eabi/lib/libstm32.a(stm32_rcc.o)
RCC_PCLK1Config                                   /opt/paparazzi/arm-multilib/lib/gcc/arm-none-eabi/4.6.2/../../../../arm-none-eabi/lib/libstm32.a(stm32_rcc.o)
RCC_PCLK2Config                                   /opt/paparazzi/arm-multilib/lib/gcc/arm-none-eabi/4.6.2/../../../../arm-none-eabi/lib/libstm32.a(stm32_rcc.o)
RCC_PLLCmd                                        /opt/paparazzi/arm-multilib/lib/gcc/arm-none-eabi/4.6.2/../../../../arm-none-eabi/lib/libstm32.a(stm32_rcc.o)
RCC_PLLConfig                                     /opt/paparazzi/arm-multilib/lib/gcc/arm-none-eabi/4.6.2/../../../../arm-none-eabi/lib/libstm32.a(stm32_rcc.o)
RCC_RTCCLKCmd                                     /opt/paparazzi/arm-multilib/lib/gcc/arm-none-eabi/4.6.2/../../../../arm-none-eabi/lib/libstm32.a(stm32_rcc.o)
RCC_RTCCLKConfig                                  /opt/paparazzi/arm-multilib/lib/gcc/arm-none-eabi/4.6.2/../../../../arm-none-eabi/lib/libstm32.a(stm32_rcc.o)
RCC_SYSCLKConfig                                  /opt/paparazzi/arm-multilib/lib/gcc/arm-none-eabi/4.6.2/../../../../arm-none-eabi/lib/libstm32.a(stm32_rcc.o)
RCC_USBCLKConfig                                  /opt/paparazzi/arm-multilib/lib/gcc/arm-none-eabi/4.6.2/../../../../arm-none-eabi/lib/libstm32.a(stm32_rcc.o)
RCC_WaitForHSEStartUp                             /opt/paparazzi/arm-multilib/lib/gcc/arm-none-eabi/4.6.2/../../../../arm-none-eabi/lib/libstm32.a(stm32_rcc.o)
RadioControlEventImp                              /home/mav/paparazzi/var/Radian/ap/arch/stm32/subsystems/radio_control/spektrum_arch.o
                                                  /home/mav/paparazzi/var/Radian/ap/firmwares/fixedwing/main_fbw.o
SPI_BiDirectionalLineConfig                       /opt/paparazzi/arm-multilib/lib/gcc/arm-none-eabi/4.6.2/../../../../arm-none-eabi/lib/libstm32.a(stm32_spi.o)
SPI_CalculateCRC                                  /opt/paparazzi/arm-multilib/lib/gcc/arm-none-eabi/4.6.2/../../../../arm-none-eabi/lib/libstm32.a(stm32_spi.o)
SPI_Cmd                                           /opt/paparazzi/arm-multilib/lib/gcc/arm-none-eabi/4.6.2/../../../../arm-none-eabi/lib/libstm32.a(stm32_spi.o)
                                                  /home/mav/paparazzi/var/Radian/ap/arch/stm32/mcu_periph/spi_arch.o
SPI_DataSizeConfig                                /opt/paparazzi/arm-multilib/lib/gcc/arm-none-eabi/4.6.2/../../../../arm-none-eabi/lib/libstm32.a(stm32_spi.o)
SPI_GetCRC                                        /opt/paparazzi/arm-multilib/lib/gcc/arm-none-eabi/4.6.2/../../../../arm-none-eabi/lib/libstm32.a(stm32_spi.o)
SPI_GetCRCPolynomial                              /opt/paparazzi/arm-multilib/lib/gcc/arm-none-eabi/4.6.2/../../../../arm-none-eabi/lib/libstm32.a(stm32_spi.o)
SPI_I2S_ClearFlag                                 /opt/paparazzi/arm-multilib/lib/gcc/arm-none-eabi/4.6.2/../../../../arm-none-eabi/lib/libstm32.a(stm32_spi.o)
SPI_I2S_ClearITPendingBit                         /opt/paparazzi/arm-multilib/lib/gcc/arm-none-eabi/4.6.2/../../../../arm-none-eabi/lib/libstm32.a(stm32_spi.o)
SPI_I2S_DMACmd                                    /opt/paparazzi/arm-multilib/lib/gcc/arm-none-eabi/4.6.2/../../../../arm-none-eabi/lib/libstm32.a(stm32_spi.o)
                                                  /home/mav/paparazzi/var/Radian/ap/arch/stm32/mcu_periph/spi_arch.o
SPI_I2S_DeInit                                    /opt/paparazzi/arm-multilib/lib/gcc/arm-none-eabi/4.6.2/../../../../arm-none-eabi/lib/libstm32.a(stm32_spi.o)
SPI_I2S_GetFlagStatus                             /opt/paparazzi/arm-multilib/lib/gcc/arm-none-eabi/4.6.2/../../../../arm-none-eabi/lib/libstm32.a(stm32_spi.o)
SPI_I2S_GetITStatus                               /opt/paparazzi/arm-multilib/lib/gcc/arm-none-eabi/4.6.2/../../../../arm-none-eabi/lib/libstm32.a(stm32_spi.o)
SPI_I2S_ITConfig                                  /opt/paparazzi/arm-multilib/lib/gcc/arm-none-eabi/4.6.2/../../../../arm-none-eabi/lib/libstm32.a(stm32_spi.o)
SPI_I2S_ReceiveData                               /opt/paparazzi/arm-multilib/lib/gcc/arm-none-eabi/4.6.2/../../../../arm-none-eabi/lib/libstm32.a(stm32_spi.o)
SPI_I2S_SendData                                  /opt/paparazzi/arm-multilib/lib/gcc/arm-none-eabi/4.6.2/../../../../arm-none-eabi/lib/libstm32.a(stm32_spi.o)
SPI_Init                                          /opt/paparazzi/arm-multilib/lib/gcc/arm-none-eabi/4.6.2/../../../../arm-none-eabi/lib/libstm32.a(stm32_spi.o)
                                                  /home/mav/paparazzi/var/Radian/ap/arch/stm32/mcu_periph/spi_arch.o
SPI_NSSInternalSoftwareConfig                     /opt/paparazzi/arm-multilib/lib/gcc/arm-none-eabi/4.6.2/../../../../arm-none-eabi/lib/libstm32.a(stm32_spi.o)
SPI_SSOutputCmd                                   /opt/paparazzi/arm-multilib/lib/gcc/arm-none-eabi/4.6.2/../../../../arm-none-eabi/lib/libstm32.a(stm32_spi.o)
SPI_StructInit                                    /opt/paparazzi/arm-multilib/lib/gcc/arm-none-eabi/4.6.2/../../../../arm-none-eabi/lib/libstm32.a(stm32_spi.o)
SPI_TransmitCRC                                   /opt/paparazzi/arm-multilib/lib/gcc/arm-none-eabi/4.6.2/../../../../arm-none-eabi/lib/libstm32.a(stm32_spi.o)
SpektrumBuf                                       /home/mav/paparazzi/var/Radian/ap/arch/stm32/subsystems/radio_control/spektrum_arch.o
SpektrumSigns                                     /home/mav/paparazzi/var/Radian/ap/arch/stm32/subsystems/radio_control/spektrum_arch.o
SpektrumTimerInit                                 /home/mav/paparazzi/var/Radian/ap/arch/stm32/subsystems/radio_control/spektrum_arch.o
SpektrumUartInit                                  /home/mav/paparazzi/var/Radian/ap/arch/stm32/subsystems/radio_control/spektrum_arch.o
SysTick_CLKSourceConfig                           /opt/paparazzi/arm-multilib/lib/gcc/arm-none-eabi/4.6.2/../../../../arm-none-eabi/lib/libstm32.a(stm32_misc.o)
TIM_ARRPreloadConfig                              /opt/paparazzi/arm-multilib/lib/gcc/arm-none-eabi/4.6.2/../../../../arm-none-eabi/lib/libstm32.a(stm32_tim.o)
                                                  /home/mav/paparazzi/var/Radian/ap/firmwares/rotorcraft/actuators/arch/stm32/actuators_pwm_arch.o
TIM_BDTRConfig                                    /opt/paparazzi/arm-multilib/lib/gcc/arm-none-eabi/4.6.2/../../../../arm-none-eabi/lib/libstm32.a(stm32_tim.o)
TIM_BDTRStructInit                                /opt/paparazzi/arm-multilib/lib/gcc/arm-none-eabi/4.6.2/../../../../arm-none-eabi/lib/libstm32.a(stm32_tim.o)
TIM_CCPreloadControl                              /opt/paparazzi/arm-multilib/lib/gcc/arm-none-eabi/4.6.2/../../../../arm-none-eabi/lib/libstm32.a(stm32_tim.o)
TIM_CCxCmd                                        /opt/paparazzi/arm-multilib/lib/gcc/arm-none-eabi/4.6.2/../../../../arm-none-eabi/lib/libstm32.a(stm32_tim.o)
TIM_CCxNCmd                                       /opt/paparazzi/arm-multilib/lib/gcc/arm-none-eabi/4.6.2/../../../../arm-none-eabi/lib/libstm32.a(stm32_tim.o)
TIM_ClearFlag                                     /opt/paparazzi/arm-multilib/lib/gcc/arm-none-eabi/4.6.2/../../../../arm-none-eabi/lib/libstm32.a(stm32_tim.o)
                                                  /home/mav/paparazzi/var/Radian/ap/arch/stm32/subsystems/radio_control/spektrum_arch.o
TIM_ClearITPendingBit                             /opt/paparazzi/arm-multilib/lib/gcc/arm-none-eabi/4.6.2/../../../../arm-none-eabi/lib/libstm32.a(stm32_tim.o)
                                                  /home/mav/paparazzi/var/Radian/ap/arch/stm32/subsystems/radio_control/spektrum_arch.o
TIM_ClearOC1Ref                                   /opt/paparazzi/arm-multilib/lib/gcc/arm-none-eabi/4.6.2/../../../../arm-none-eabi/lib/libstm32.a(stm32_tim.o)
TIM_ClearOC2Ref                                   /opt/paparazzi/arm-multilib/lib/gcc/arm-none-eabi/4.6.2/../../../../arm-none-eabi/lib/libstm32.a(stm32_tim.o)
TIM_ClearOC3Ref                                   /opt/paparazzi/arm-multilib/lib/gcc/arm-none-eabi/4.6.2/../../../../arm-none-eabi/lib/libstm32.a(stm32_tim.o)
TIM_ClearOC4Ref                                   /opt/paparazzi/arm-multilib/lib/gcc/arm-none-eabi/4.6.2/../../../../arm-none-eabi/lib/libstm32.a(stm32_tim.o)
TIM_Cmd                                           /opt/paparazzi/arm-multilib/lib/gcc/arm-none-eabi/4.6.2/../../../../arm-none-eabi/lib/libstm32.a(stm32_tim.o)
                                                  /home/mav/paparazzi/var/Radian/ap/arch/stm32/subsystems/radio_control/spektrum_arch.o
                                                  /home/mav/paparazzi/var/Radian/ap/firmwares/rotorcraft/actuators/arch/stm32/actuators_pwm_arch.o
                                                  /home/mav/paparazzi/var/Radian/ap/arch/stm32/mcu_periph/adc_arch.o
TIM_CounterModeConfig                             /opt/paparazzi/arm-multilib/lib/gcc/arm-none-eabi/4.6.2/../../../../arm-none-eabi/lib/libstm32.a(stm32_tim.o)
TIM_CtrlPWMOutputs                                /opt/paparazzi/arm-multilib/lib/gcc/arm-none-eabi/4.6.2/../../../../arm-none-eabi/lib/libstm32.a(stm32_tim.o)
                                                  /home/mav/paparazzi/var/Radian/ap/firmwares/rotorcraft/actuators/arch/stm32/actuators_pwm_arch.o
TIM_DMACmd                                        /opt/paparazzi/arm-multilib/lib/gcc/arm-none-eabi/4.6.2/../../../../arm-none-eabi/lib/libstm32.a(stm32_tim.o)
TIM_DMAConfig                                     /opt/paparazzi/arm-multilib/lib/gcc/arm-none-eabi/4.6.2/../../../../arm-none-eabi/lib/libstm32.a(stm32_tim.o)
TIM_DeInit                                        /opt/paparazzi/arm-multilib/lib/gcc/arm-none-eabi/4.6.2/../../../../arm-none-eabi/lib/libstm32.a(stm32_tim.o)
TIM_ETRClockMode1Config                           /opt/paparazzi/arm-multilib/lib/gcc/arm-none-eabi/4.6.2/../../../../arm-none-eabi/lib/libstm32.a(stm32_tim.o)
TIM_ETRClockMode2Config                           /opt/paparazzi/arm-multilib/lib/gcc/arm-none-eabi/4.6.2/../../../../arm-none-eabi/lib/libstm32.a(stm32_tim.o)
TIM_ETRConfig                                     /opt/paparazzi/arm-multilib/lib/gcc/arm-none-eabi/4.6.2/../../../../arm-none-eabi/lib/libstm32.a(stm32_tim.o)
TIM_EncoderInterfaceConfig                        /opt/paparazzi/arm-multilib/lib/gcc/arm-none-eabi/4.6.2/../../../../arm-none-eabi/lib/libstm32.a(stm32_tim.o)
TIM_ForcedOC1Config                               /opt/paparazzi/arm-multilib/lib/gcc/arm-none-eabi/4.6.2/../../../../arm-none-eabi/lib/libstm32.a(stm32_tim.o)
TIM_ForcedOC2Config                               /opt/paparazzi/arm-multilib/lib/gcc/arm-none-eabi/4.6.2/../../../../arm-none-eabi/lib/libstm32.a(stm32_tim.o)
TIM_ForcedOC3Config                               /opt/paparazzi/arm-multilib/lib/gcc/arm-none-eabi/4.6.2/../../../../arm-none-eabi/lib/libstm32.a(stm32_tim.o)
TIM_ForcedOC4Config                               /opt/paparazzi/arm-multilib/lib/gcc/arm-none-eabi/4.6.2/../../../../arm-none-eabi/lib/libstm32.a(stm32_tim.o)
TIM_GenerateEvent                                 /opt/paparazzi/arm-multilib/lib/gcc/arm-none-eabi/4.6.2/../../../../arm-none-eabi/lib/libstm32.a(stm32_tim.o)
TIM_GetCapture1                                   /opt/paparazzi/arm-multilib/lib/gcc/arm-none-eabi/4.6.2/../../../../arm-none-eabi/lib/libstm32.a(stm32_tim.o)
TIM_GetCapture2                                   /opt/paparazzi/arm-multilib/lib/gcc/arm-none-eabi/4.6.2/../../../../arm-none-eabi/lib/libstm32.a(stm32_tim.o)
TIM_GetCapture3                                   /opt/paparazzi/arm-multilib/lib/gcc/arm-none-eabi/4.6.2/../../../../arm-none-eabi/lib/libstm32.a(stm32_tim.o)
TIM_GetCapture4                                   /opt/paparazzi/arm-multilib/lib/gcc/arm-none-eabi/4.6.2/../../../../arm-none-eabi/lib/libstm32.a(stm32_tim.o)
TIM_GetCounter                                    /opt/paparazzi/arm-multilib/lib/gcc/arm-none-eabi/4.6.2/../../../../arm-none-eabi/lib/libstm32.a(stm32_tim.o)
TIM_GetFlagStatus                                 /opt/paparazzi/arm-multilib/lib/gcc/arm-none-eabi/4.6.2/../../../../arm-none-eabi/lib/libstm32.a(stm32_tim.o)
TIM_GetITStatus                                   /opt/paparazzi/arm-multilib/lib/gcc/arm-none-eabi/4.6.2/../../../../arm-none-eabi/lib/libstm32.a(stm32_tim.o)
TIM_GetPrescaler                                  /opt/paparazzi/arm-multilib/lib/gcc/arm-none-eabi/4.6.2/../../../../arm-none-eabi/lib/libstm32.a(stm32_tim.o)
TIM_ICInit                                        /opt/paparazzi/arm-multilib/lib/gcc/arm-none-eabi/4.6.2/../../../../arm-none-eabi/lib/libstm32.a(stm32_tim.o)
TIM_ICStructInit                                  /opt/paparazzi/arm-multilib/lib/gcc/arm-none-eabi/4.6.2/../../../../arm-none-eabi/lib/libstm32.a(stm32_tim.o)
TIM_ITConfig                                      /opt/paparazzi/arm-multilib/lib/gcc/arm-none-eabi/4.6.2/../../../../arm-none-eabi/lib/libstm32.a(stm32_tim.o)
                                                  /home/mav/paparazzi/var/Radian/ap/arch/stm32/subsystems/radio_control/spektrum_arch.o
TIM_ITRxExternalClockConfig                       /opt/paparazzi/arm-multilib/lib/gcc/arm-none-eabi/4.6.2/../../../../arm-none-eabi/lib/libstm32.a(stm32_tim.o)
TIM_InternalClockConfig                           /opt/paparazzi/arm-multilib/lib/gcc/arm-none-eabi/4.6.2/../../../../arm-none-eabi/lib/libstm32.a(stm32_tim.o)
TIM_OC1FastConfig                                 /opt/paparazzi/arm-multilib/lib/gcc/arm-none-eabi/4.6.2/../../../../arm-none-eabi/lib/libstm32.a(stm32_tim.o)
TIM_OC1Init                                       /opt/paparazzi/arm-multilib/lib/gcc/arm-none-eabi/4.6.2/../../../../arm-none-eabi/lib/libstm32.a(stm32_tim.o)
                                                  /home/mav/paparazzi/var/Radian/ap/firmwares/rotorcraft/actuators/arch/stm32/actuators_pwm_arch.o
TIM_OC1NPolarityConfig                            /opt/paparazzi/arm-multilib/lib/gcc/arm-none-eabi/4.6.2/../../../../arm-none-eabi/lib/libstm32.a(stm32_tim.o)
TIM_OC1PolarityConfig                             /opt/paparazzi/arm-multilib/lib/gcc/arm-none-eabi/4.6.2/../../../../arm-none-eabi/lib/libstm32.a(stm32_tim.o)
TIM_OC1PreloadConfig                              /opt/paparazzi/arm-multilib/lib/gcc/arm-none-eabi/4.6.2/../../../../arm-none-eabi/lib/libstm32.a(stm32_tim.o)
                                                  /home/mav/paparazzi/var/Radian/ap/firmwares/rotorcraft/actuators/arch/stm32/actuators_pwm_arch.o
TIM_OC2FastConfig                                 /opt/paparazzi/arm-multilib/lib/gcc/arm-none-eabi/4.6.2/../../../../arm-none-eabi/lib/libstm32.a(stm32_tim.o)
TIM_OC2Init                                       /opt/paparazzi/arm-multilib/lib/gcc/arm-none-eabi/4.6.2/../../../../arm-none-eabi/lib/libstm32.a(stm32_tim.o)
                                                  /home/mav/paparazzi/var/Radian/ap/firmwares/rotorcraft/actuators/arch/stm32/actuators_pwm_arch.o
TIM_OC2NPolarityConfig                            /opt/paparazzi/arm-multilib/lib/gcc/arm-none-eabi/4.6.2/../../../../arm-none-eabi/lib/libstm32.a(stm32_tim.o)
TIM_OC2PolarityConfig                             /opt/paparazzi/arm-multilib/lib/gcc/arm-none-eabi/4.6.2/../../../../arm-none-eabi/lib/libstm32.a(stm32_tim.o)
TIM_OC2PreloadConfig                              /opt/paparazzi/arm-multilib/lib/gcc/arm-none-eabi/4.6.2/../../../../arm-none-eabi/lib/libstm32.a(stm32_tim.o)
                                                  /home/mav/paparazzi/var/Radian/ap/firmwares/rotorcraft/actuators/arch/stm32/actuators_pwm_arch.o
TIM_OC3FastConfig                                 /opt/paparazzi/arm-multilib/lib/gcc/arm-none-eabi/4.6.2/../../../../arm-none-eabi/lib/libstm32.a(stm32_tim.o)
TIM_OC3Init                                       /opt/paparazzi/arm-multilib/lib/gcc/arm-none-eabi/4.6.2/../../../../arm-none-eabi/lib/libstm32.a(stm32_tim.o)
                                                  /home/mav/paparazzi/var/Radian/ap/firmwares/rotorcraft/actuators/arch/stm32/actuators_pwm_arch.o
TIM_OC3NPolarityConfig                            /opt/paparazzi/arm-multilib/lib/gcc/arm-none-eabi/4.6.2/../../../../arm-none-eabi/lib/libstm32.a(stm32_tim.o)
TIM_OC3PolarityConfig                             /opt/paparazzi/arm-multilib/lib/gcc/arm-none-eabi/4.6.2/../../../../arm-none-eabi/lib/libstm32.a(stm32_tim.o)
TIM_OC3PreloadConfig                              /opt/paparazzi/arm-multilib/lib/gcc/arm-none-eabi/4.6.2/../../../../arm-none-eabi/lib/libstm32.a(stm32_tim.o)
                                                  /home/mav/paparazzi/var/Radian/ap/firmwares/rotorcraft/actuators/arch/stm32/actuators_pwm_arch.o
TIM_OC4FastConfig                                 /opt/paparazzi/arm-multilib/lib/gcc/arm-none-eabi/4.6.2/../../../../arm-none-eabi/lib/libstm32.a(stm32_tim.o)
TIM_OC4Init                                       /opt/paparazzi/arm-multilib/lib/gcc/arm-none-eabi/4.6.2/../../../../arm-none-eabi/lib/libstm32.a(stm32_tim.o)
                                                  /home/mav/paparazzi/var/Radian/ap/firmwares/rotorcraft/actuators/arch/stm32/actuators_pwm_arch.o
TIM_OC4PolarityConfig                             /opt/paparazzi/arm-multilib/lib/gcc/arm-none-eabi/4.6.2/../../../../arm-none-eabi/lib/libstm32.a(stm32_tim.o)
TIM_OC4PreloadConfig                              /opt/paparazzi/arm-multilib/lib/gcc/arm-none-eabi/4.6.2/../../../../arm-none-eabi/lib/libstm32.a(stm32_tim.o)
                                                  /home/mav/paparazzi/var/Radian/ap/firmwares/rotorcraft/actuators/arch/stm32/actuators_pwm_arch.o
TIM_OCStructInit                                  /opt/paparazzi/arm-multilib/lib/gcc/arm-none-eabi/4.6.2/../../../../arm-none-eabi/lib/libstm32.a(stm32_tim.o)
TIM_PWMIConfig                                    /opt/paparazzi/arm-multilib/lib/gcc/arm-none-eabi/4.6.2/../../../../arm-none-eabi/lib/libstm32.a(stm32_tim.o)
TIM_PrescalerConfig                               /opt/paparazzi/arm-multilib/lib/gcc/arm-none-eabi/4.6.2/../../../../arm-none-eabi/lib/libstm32.a(stm32_tim.o)
TIM_SelectCCDMA                                   /opt/paparazzi/arm-multilib/lib/gcc/arm-none-eabi/4.6.2/../../../../arm-none-eabi/lib/libstm32.a(stm32_tim.o)
TIM_SelectCOM                                     /opt/paparazzi/arm-multilib/lib/gcc/arm-none-eabi/4.6.2/../../../../arm-none-eabi/lib/libstm32.a(stm32_tim.o)
TIM_SelectHallSensor                              /opt/paparazzi/arm-multilib/lib/gcc/arm-none-eabi/4.6.2/../../../../arm-none-eabi/lib/libstm32.a(stm32_tim.o)
TIM_SelectInputTrigger                            /opt/paparazzi/arm-multilib/lib/gcc/arm-none-eabi/4.6.2/../../../../arm-none-eabi/lib/libstm32.a(stm32_tim.o)
TIM_SelectMasterSlaveMode                         /opt/paparazzi/arm-multilib/lib/gcc/arm-none-eabi/4.6.2/../../../../arm-none-eabi/lib/libstm32.a(stm32_tim.o)
TIM_SelectOCxM                                    /opt/paparazzi/arm-multilib/lib/gcc/arm-none-eabi/4.6.2/../../../../arm-none-eabi/lib/libstm32.a(stm32_tim.o)
TIM_SelectOnePulseMode                            /opt/paparazzi/arm-multilib/lib/gcc/arm-none-eabi/4.6.2/../../../../arm-none-eabi/lib/libstm32.a(stm32_tim.o)
TIM_SelectOutputTrigger                           /opt/paparazzi/arm-multilib/lib/gcc/arm-none-eabi/4.6.2/../../../../arm-none-eabi/lib/libstm32.a(stm32_tim.o)
                                                  /home/mav/paparazzi/var/Radian/ap/arch/stm32/mcu_periph/adc_arch.o
TIM_SelectSlaveMode                               /opt/paparazzi/arm-multilib/lib/gcc/arm-none-eabi/4.6.2/../../../../arm-none-eabi/lib/libstm32.a(stm32_tim.o)
TIM_SetAutoreload                                 /opt/paparazzi/arm-multilib/lib/gcc/arm-none-eabi/4.6.2/../../../../arm-none-eabi/lib/libstm32.a(stm32_tim.o)
TIM_SetClockDivision                              /opt/paparazzi/arm-multilib/lib/gcc/arm-none-eabi/4.6.2/../../../../arm-none-eabi/lib/libstm32.a(stm32_tim.o)
TIM_SetCompare1                                   /opt/paparazzi/arm-multilib/lib/gcc/arm-none-eabi/4.6.2/../../../../arm-none-eabi/lib/libstm32.a(stm32_tim.o)
                                                  /home/mav/paparazzi/var/Radian/ap/firmwares/rotorcraft/actuators/arch/stm32/actuators_pwm_arch.o
TIM_SetCompare2                                   /opt/paparazzi/arm-multilib/lib/gcc/arm-none-eabi/4.6.2/../../../../arm-none-eabi/lib/libstm32.a(stm32_tim.o)
                                                  /home/mav/paparazzi/var/Radian/ap/firmwares/rotorcraft/actuators/arch/stm32/actuators_pwm_arch.o
TIM_SetCompare3                                   /opt/paparazzi/arm-multilib/lib/gcc/arm-none-eabi/4.6.2/../../../../arm-none-eabi/lib/libstm32.a(stm32_tim.o)
                                                  /home/mav/paparazzi/var/Radian/ap/firmwares/rotorcraft/actuators/arch/stm32/actuators_pwm_arch.o
TIM_SetCompare4                                   /opt/paparazzi/arm-multilib/lib/gcc/arm-none-eabi/4.6.2/../../../../arm-none-eabi/lib/libstm32.a(stm32_tim.o)
                                                  /home/mav/paparazzi/var/Radian/ap/firmwares/rotorcraft/actuators/arch/stm32/actuators_pwm_arch.o
TIM_SetCounter                                    /opt/paparazzi/arm-multilib/lib/gcc/arm-none-eabi/4.6.2/../../../../arm-none-eabi/lib/libstm32.a(stm32_tim.o)
TIM_SetIC1Prescaler                               /opt/paparazzi/arm-multilib/lib/gcc/arm-none-eabi/4.6.2/../../../../arm-none-eabi/lib/libstm32.a(stm32_tim.o)
TIM_SetIC2Prescaler                               /opt/paparazzi/arm-multilib/lib/gcc/arm-none-eabi/4.6.2/../../../../arm-none-eabi/lib/libstm32.a(stm32_tim.o)
TIM_SetIC3Prescaler                               /opt/paparazzi/arm-multilib/lib/gcc/arm-none-eabi/4.6.2/../../../../arm-none-eabi/lib/libstm32.a(stm32_tim.o)
TIM_SetIC4Prescaler                               /opt/paparazzi/arm-multilib/lib/gcc/arm-none-eabi/4.6.2/../../../../arm-none-eabi/lib/libstm32.a(stm32_tim.o)
TIM_TIxExternalClockConfig                        /opt/paparazzi/arm-multilib/lib/gcc/arm-none-eabi/4.6.2/../../../../arm-none-eabi/lib/libstm32.a(stm32_tim.o)
TIM_TimeBaseInit                                  /opt/paparazzi/arm-multilib/lib/gcc/arm-none-eabi/4.6.2/../../../../arm-none-eabi/lib/libstm32.a(stm32_tim.o)
                                                  /home/mav/paparazzi/var/Radian/ap/arch/stm32/subsystems/radio_control/spektrum_arch.o
                                                  /home/mav/paparazzi/var/Radian/ap/firmwares/rotorcraft/actuators/arch/stm32/actuators_pwm_arch.o
                                                  /home/mav/paparazzi/var/Radian/ap/arch/stm32/mcu_periph/adc_arch.o
TIM_TimeBaseStructInit                            /opt/paparazzi/arm-multilib/lib/gcc/arm-none-eabi/4.6.2/../../../../arm-none-eabi/lib/libstm32.a(stm32_tim.o)
                                                  /home/mav/paparazzi/var/Radian/ap/arch/stm32/subsystems/radio_control/spektrum_arch.o
                                                  /home/mav/paparazzi/var/Radian/ap/arch/stm32/mcu_periph/adc_arch.o
TIM_UpdateDisableConfig                           /opt/paparazzi/arm-multilib/lib/gcc/arm-none-eabi/4.6.2/../../../../arm-none-eabi/lib/libstm32.a(stm32_tim.o)
TIM_UpdateRequestConfig                           /opt/paparazzi/arm-multilib/lib/gcc/arm-none-eabi/4.6.2/../../../../arm-none-eabi/lib/libstm32.a(stm32_tim.o)
USART_ClearFlag                                   /opt/paparazzi/arm-multilib/lib/gcc/arm-none-eabi/4.6.2/../../../../arm-none-eabi/lib/libstm32.a(stm32_usart.o)
USART_ClearITPendingBit                           /opt/paparazzi/arm-multilib/lib/gcc/arm-none-eabi/4.6.2/../../../../arm-none-eabi/lib/libstm32.a(stm32_usart.o)
USART_ClockInit                                   /opt/paparazzi/arm-multilib/lib/gcc/arm-none-eabi/4.6.2/../../../../arm-none-eabi/lib/libstm32.a(stm32_usart.o)
USART_ClockStructInit                             /opt/paparazzi/arm-multilib/lib/gcc/arm-none-eabi/4.6.2/../../../../arm-none-eabi/lib/libstm32.a(stm32_usart.o)
USART_Cmd                                         /opt/paparazzi/arm-multilib/lib/gcc/arm-none-eabi/4.6.2/../../../../arm-none-eabi/lib/libstm32.a(stm32_usart.o)
                                                  /home/mav/paparazzi/var/Radian/ap/arch/stm32/subsystems/radio_control/spektrum_arch.o
                                                  /home/mav/paparazzi/var/Radian/ap/arch/stm32/mcu_periph/uart_arch.o
USART_DMACmd                                      /opt/paparazzi/arm-multilib/lib/gcc/arm-none-eabi/4.6.2/../../../../arm-none-eabi/lib/libstm32.a(stm32_usart.o)
USART_DeInit                                      /opt/paparazzi/arm-multilib/lib/gcc/arm-none-eabi/4.6.2/../../../../arm-none-eabi/lib/libstm32.a(stm32_usart.o)
USART_GetFlagStatus                               /opt/paparazzi/arm-multilib/lib/gcc/arm-none-eabi/4.6.2/../../../../arm-none-eabi/lib/libstm32.a(stm32_usart.o)
USART_GetITStatus                                 /opt/paparazzi/arm-multilib/lib/gcc/arm-none-eabi/4.6.2/../../../../arm-none-eabi/lib/libstm32.a(stm32_usart.o)
                                                  /home/mav/paparazzi/var/Radian/ap/arch/stm32/subsystems/radio_control/spektrum_arch.o
                                                  /home/mav/paparazzi/var/Radian/ap/arch/stm32/mcu_periph/uart_arch.o
USART_HalfDuplexCmd                               /opt/paparazzi/arm-multilib/lib/gcc/arm-none-eabi/4.6.2/../../../../arm-none-eabi/lib/libstm32.a(stm32_usart.o)
USART_ITConfig                                    /opt/paparazzi/arm-multilib/lib/gcc/arm-none-eabi/4.6.2/../../../../arm-none-eabi/lib/libstm32.a(stm32_usart.o)
                                                  /home/mav/paparazzi/var/Radian/ap/arch/stm32/subsystems/radio_control/spektrum_arch.o
                                                  /home/mav/paparazzi/var/Radian/ap/arch/stm32/mcu_periph/uart_arch.o
USART_Init                                        /opt/paparazzi/arm-multilib/lib/gcc/arm-none-eabi/4.6.2/../../../../arm-none-eabi/lib/libstm32.a(stm32_usart.o)
                                                  /home/mav/paparazzi/var/Radian/ap/arch/stm32/subsystems/radio_control/spektrum_arch.o
                                                  /home/mav/paparazzi/var/Radian/ap/arch/stm32/mcu_periph/uart_arch.o
USART_IrDACmd                                     /opt/paparazzi/arm-multilib/lib/gcc/arm-none-eabi/4.6.2/../../../../arm-none-eabi/lib/libstm32.a(stm32_usart.o)
USART_IrDAConfig                                  /opt/paparazzi/arm-multilib/lib/gcc/arm-none-eabi/4.6.2/../../../../arm-none-eabi/lib/libstm32.a(stm32_usart.o)
USART_LINBreakDetectLengthConfig                  /opt/paparazzi/arm-multilib/lib/gcc/arm-none-eabi/4.6.2/../../../../arm-none-eabi/lib/libstm32.a(stm32_usart.o)
USART_LINCmd                                      /opt/paparazzi/arm-multilib/lib/gcc/arm-none-eabi/4.6.2/../../../../arm-none-eabi/lib/libstm32.a(stm32_usart.o)
USART_ReceiveData                                 /opt/paparazzi/arm-multilib/lib/gcc/arm-none-eabi/4.6.2/../../../../arm-none-eabi/lib/libstm32.a(stm32_usart.o)
                                                  /home/mav/paparazzi/var/Radian/ap/arch/stm32/subsystems/radio_control/spektrum_arch.o
                                                  /home/mav/paparazzi/var/Radian/ap/arch/stm32/mcu_periph/uart_arch.o
USART_ReceiverWakeUpCmd                           /opt/paparazzi/arm-multilib/lib/gcc/arm-none-eabi/4.6.2/../../../../arm-none-eabi/lib/libstm32.a(stm32_usart.o)
USART_SendBreak                                   /opt/paparazzi/arm-multilib/lib/gcc/arm-none-eabi/4.6.2/../../../../arm-none-eabi/lib/libstm32.a(stm32_usart.o)
USART_SendData                                    /opt/paparazzi/arm-multilib/lib/gcc/arm-none-eabi/4.6.2/../../../../arm-none-eabi/lib/libstm32.a(stm32_usart.o)
                                                  /home/mav/paparazzi/var/Radian/ap/arch/stm32/mcu_periph/uart_arch.o
USART_SetAddress                                  /opt/paparazzi/arm-multilib/lib/gcc/arm-none-eabi/4.6.2/../../../../arm-none-eabi/lib/libstm32.a(stm32_usart.o)
USART_SetGuardTime                                /opt/paparazzi/arm-multilib/lib/gcc/arm-none-eabi/4.6.2/../../../../arm-none-eabi/lib/libstm32.a(stm32_usart.o)
USART_SetPrescaler                                /opt/paparazzi/arm-multilib/lib/gcc/arm-none-eabi/4.6.2/../../../../arm-none-eabi/lib/libstm32.a(stm32_usart.o)
USART_SmartCardCmd                                /opt/paparazzi/arm-multilib/lib/gcc/arm-none-eabi/4.6.2/../../../../arm-none-eabi/lib/libstm32.a(stm32_usart.o)
USART_SmartCardNACKCmd                            /opt/paparazzi/arm-multilib/lib/gcc/arm-none-eabi/4.6.2/../../../../arm-none-eabi/lib/libstm32.a(stm32_usart.o)
USART_StructInit                                  /opt/paparazzi/arm-multilib/lib/gcc/arm-none-eabi/4.6.2/../../../../arm-none-eabi/lib/libstm32.a(stm32_usart.o)
USART_WakeUpConfig                                /opt/paparazzi/arm-multilib/lib/gcc/arm-none-eabi/4.6.2/../../../../arm-none-eabi/lib/libstm32.a(stm32_usart.o)
__adddf3                                          /opt/paparazzi/arm-multilib/lib/gcc/arm-none-eabi/4.6.2/thumb2/libgcc.a(_arm_addsubdf3.o)
__addsf3                                          /opt/paparazzi/arm-multilib/lib/gcc/arm-none-eabi/4.6.2/thumb2/libgcc.a(_arm_addsubsf3.o)
__aeabi_cdcmpeq                                   /opt/paparazzi/arm-multilib/lib/gcc/arm-none-eabi/4.6.2/thumb2/libgcc.a(_arm_cmpdf2.o)
__aeabi_cdcmple                                   /opt/paparazzi/arm-multilib/lib/gcc/arm-none-eabi/4.6.2/thumb2/libgcc.a(_arm_cmpdf2.o)
__aeabi_cdrcmple                                  /opt/paparazzi/arm-multilib/lib/gcc/arm-none-eabi/4.6.2/thumb2/libgcc.a(_arm_cmpdf2.o)
__aeabi_cfcmpeq                                   /opt/paparazzi/arm-multilib/lib/gcc/arm-none-eabi/4.6.2/thumb2/libgcc.a(_arm_cmpsf2.o)
__aeabi_cfcmple                                   /opt/paparazzi/arm-multilib/lib/gcc/arm-none-eabi/4.6.2/thumb2/libgcc.a(_arm_cmpsf2.o)
__aeabi_cfrcmple                                  /opt/paparazzi/arm-multilib/lib/gcc/arm-none-eabi/4.6.2/thumb2/libgcc.a(_arm_cmpsf2.o)
__aeabi_d2f                                       /opt/paparazzi/arm-multilib/lib/gcc/arm-none-eabi/4.6.2/thumb2/libgcc.a(_arm_truncdfsf2.o)
                                                  /opt/paparazzi/arm-multilib/lib/gcc/arm-none-eabi/4.6.2/../../../../arm-none-eabi/lib/thumb2/libm.a(lib_a-wf_sqrt.o)
                                                  /opt/paparazzi/arm-multilib/lib/gcc/arm-none-eabi/4.6.2/../../../../arm-none-eabi/lib/thumb2/libm.a(lib_a-wf_pow.o)
                                                  /opt/paparazzi/arm-multilib/lib/gcc/arm-none-eabi/4.6.2/../../../../arm-none-eabi/lib/thumb2/libm.a(lib_a-wf_asin.o)
                                                  /home/mav/paparazzi/var/Radian/ap/subsystems/navigation/nav_line.o
                                                  /home/mav/paparazzi/var/Radian/ap/subsystems/navigation/nav_survey_rectangle.o
                                                  /home/mav/paparazzi/var/Radian/ap/subsystems/nav.o
                                                  /home/mav/paparazzi/var/Radian/ap/subsystems/ahrs/ahrs_int_cmpl_quat.o
                                                  /home/mav/paparazzi/var/Radian/ap/firmwares/fixedwing/stabilization/stabilization_attitude.o
                                                  /home/mav/paparazzi/var/Radian/ap/firmwares/fixedwing/datalink.o
                                                  /home/mav/paparazzi/var/Radian/ap/./estimator.o
                                                  /home/mav/paparazzi/var/Radian/ap/firmwares/fixedwing/main_ap.o
                                                  /home/mav/paparazzi/var/Radian/ap/firmwares/fixedwing/main_fbw.o
                                                  /home/mav/paparazzi/var/Radian/ap/math/pprz_geodetic_double.o
                                                  /home/mav/paparazzi/var/Radian/ap/math/pprz_geodetic_float.o
__aeabi_d2iz                                      /opt/paparazzi/arm-multilib/lib/gcc/arm-none-eabi/4.6.2/thumb2/libgcc.a(_arm_fixdfsi.o)
                                                  /opt/paparazzi/arm-multilib/lib/gcc/arm-none-eabi/4.6.2/../../../../arm-none-eabi/lib/thumb2/libm.a(lib_a-s_expm1.o)
                                                  /opt/paparazzi/arm-multilib/lib/gcc/arm-none-eabi/4.6.2/../../../../arm-none-eabi/lib/thumb2/libm.a(lib_a-k_tan.o)
                                                  /opt/paparazzi/arm-multilib/lib/gcc/arm-none-eabi/4.6.2/../../../../arm-none-eabi/lib/thumb2/libm.a(lib_a-k_sin.o)
                                                  /opt/paparazzi/arm-multilib/lib/gcc/arm-none-eabi/4.6.2/../../../../arm-none-eabi/lib/thumb2/libm.a(lib_a-k_rem_pio2.o)
                                                  /opt/paparazzi/arm-multilib/lib/gcc/arm-none-eabi/4.6.2/../../../../arm-none-eabi/lib/thumb2/libm.a(lib_a-k_cos.o)
                                                  /opt/paparazzi/arm-multilib/lib/gcc/arm-none-eabi/4.6.2/../../../../arm-none-eabi/lib/thumb2/libm.a(lib_a-e_rem_pio2.o)
                                                  /opt/paparazzi/arm-multilib/lib/gcc/arm-none-eabi/4.6.2/../../../../arm-none-eabi/lib/thumb2/libm.a(lib_a-e_exp.o)
                                                  /home/mav/paparazzi/var/Radian/ap/subsystems/gps/gps_ubx.o
                                                  /home/mav/paparazzi/var/Radian/ap/subsystems/ahrs/ahrs_int_cmpl_quat.o
                                                  /home/mav/paparazzi/var/Radian/ap/firmwares/fixedwing/main_ap.o
                                                  /home/mav/paparazzi/var/Radian/ap/math/pprz_geodetic_int.o
__aeabi_d2uiz                                     /opt/paparazzi/arm-multilib/lib/gcc/arm-none-eabi/4.6.2/thumb2/libgcc.a(_arm_fixunsdfsi.o)
                                                  /home/mav/paparazzi/var/Radian/ap/subsystems/nav.o
                                                  /home/mav/paparazzi/var/Radian/ap/subsystems/gps/gps_ubx.o
                                                  /home/mav/paparazzi/var/Radian/ap/firmwares/fixedwing/datalink.o
                                                  /home/mav/paparazzi/var/Radian/ap/firmwares/fixedwing/main_ap.o
                                                  /home/mav/paparazzi/var/Radian/ap/subsystems/electrical.o
                                                  /home/mav/paparazzi/var/Radian/ap/mcu_periph/sys_time.o
__aeabi_dadd                                      /opt/paparazzi/arm-multilib/lib/gcc/arm-none-eabi/4.6.2/thumb2/libgcc.a(_arm_addsubdf3.o)
                                                  /opt/paparazzi/arm-multilib/lib/gcc/arm-none-eabi/4.6.2/../../../../arm-none-eabi/lib/thumb2/libm.a(lib_a-s_scalbn.o)
                                                  /opt/paparazzi/arm-multilib/lib/gcc/arm-none-eabi/4.6.2/../../../../arm-none-eabi/lib/thumb2/libm.a(lib_a-s_floor.o)
                                                  /opt/paparazzi/arm-multilib/lib/gcc/arm-none-eabi/4.6.2/../../../../arm-none-eabi/lib/thumb2/libm.a(lib_a-s_expm1.o)
                                                  /opt/paparazzi/arm-multilib/lib/gcc/arm-none-eabi/4.6.2/../../../../arm-none-eabi/lib/thumb2/libm.a(lib_a-k_tan.o)
                                                  /opt/paparazzi/arm-multilib/lib/gcc/arm-none-eabi/4.6.2/../../../../arm-none-eabi/lib/thumb2/libm.a(lib_a-k_sin.o)
                                                  /opt/paparazzi/arm-multilib/lib/gcc/arm-none-eabi/4.6.2/../../../../arm-none-eabi/lib/thumb2/libm.a(lib_a-k_rem_pio2.o)
                                                  /opt/paparazzi/arm-multilib/lib/gcc/arm-none-eabi/4.6.2/../../../../arm-none-eabi/lib/thumb2/libm.a(lib_a-k_cos.o)
                                                  /opt/paparazzi/arm-multilib/lib/gcc/arm-none-eabi/4.6.2/../../../../arm-none-eabi/lib/thumb2/libm.a(lib_a-e_sqrt.o)
                                                  /opt/paparazzi/arm-multilib/lib/gcc/arm-none-eabi/4.6.2/../../../../arm-none-eabi/lib/thumb2/libm.a(lib_a-e_sinh.o)
                                                  /opt/paparazzi/arm-multilib/lib/gcc/arm-none-eabi/4.6.2/../../../../arm-none-eabi/lib/thumb2/libm.a(lib_a-e_rem_pio2.o)
                                                  /opt/paparazzi/arm-multilib/lib/gcc/arm-none-eabi/4.6.2/../../../../arm-none-eabi/lib/thumb2/libm.a(lib_a-e_pow.o)
                                                  /opt/paparazzi/arm-multilib/lib/gcc/arm-none-eabi/4.6.2/../../../../arm-none-eabi/lib/thumb2/libm.a(lib_a-e_log.o)
                                                  /opt/paparazzi/arm-multilib/lib/gcc/arm-none-eabi/4.6.2/../../../../arm-none-eabi/lib/thumb2/libm.a(lib_a-e_exp.o)
                                                  /opt/paparazzi/arm-multilib/lib/gcc/arm-none-eabi/4.6.2/../../../../arm-none-eabi/lib/thumb2/libm.a(lib_a-e_cosh.o)
                                                  /opt/paparazzi/arm-multilib/lib/gcc/arm-none-eabi/4.6.2/../../../../arm-none-eabi/lib/thumb2/libm.a(lib_a-e_atan2.o)
                                                  /opt/paparazzi/arm-multilib/lib/gcc/arm-none-eabi/4.6.2/../../../../arm-none-eabi/lib/thumb2/libm.a(lib_a-e_asin.o)
                                                  /opt/paparazzi/arm-multilib/lib/gcc/arm-none-eabi/4.6.2/../../../../arm-none-eabi/lib/thumb2/libm.a(lib_a-s_rint.o)
                                                  /opt/paparazzi/arm-multilib/lib/gcc/arm-none-eabi/4.6.2/../../../../arm-none-eabi/lib/thumb2/libm.a(lib_a-s_atan.o)
                                                  /home/mav/paparazzi/var/Radian/ap/subsystems/navigation/nav_line.o
                                                  /home/mav/paparazzi/var/Radian/ap/subsystems/navigation/nav_survey_rectangle.o
                                                  /home/mav/paparazzi/var/Radian/ap/subsystems/nav.o
                                                  /home/mav/paparazzi/var/Radian/ap/subsystems/ahrs/ahrs_int_cmpl_quat.o
                                                  /home/mav/paparazzi/var/Radian/ap/firmwares/fixedwing/stabilization/stabilization_attitude.o
                                                  /home/mav/paparazzi/var/Radian/ap/firmwares/fixedwing/main_ap.o
                                                  /home/mav/paparazzi/var/Radian/ap/math/pprz_geodetic_double.o
                                                  /home/mav/paparazzi/var/Radian/ap/math/pprz_geodetic_float.o
                                                  /home/mav/paparazzi/var/Radian/ap/mcu_periph/sys_time.o
__aeabi_dcmpeq                                    /opt/paparazzi/arm-multilib/lib/gcc/arm-none-eabi/4.6.2/thumb2/libgcc.a(_arm_cmpdf2.o)
                                                  /opt/paparazzi/arm-multilib/lib/gcc/arm-none-eabi/4.6.2/../../../../arm-none-eabi/lib/thumb2/libm.a(lib_a-k_rem_pio2.o)
                                                  /opt/paparazzi/arm-multilib/lib/gcc/arm-none-eabi/4.6.2/../../../../arm-none-eabi/lib/thumb2/libm.a(lib_a-e_rem_pio2.o)
                                                  /opt/paparazzi/arm-multilib/lib/gcc/arm-none-eabi/4.6.2/../../../../arm-none-eabi/lib/thumb2/libm.a(lib_a-e_log.o)
                                                  /opt/paparazzi/arm-multilib/lib/gcc/arm-none-eabi/4.6.2/../../../../arm-none-eabi/lib/thumb2/libm.a(lib_a-wf_pow.o)
                                                  /opt/paparazzi/arm-multilib/lib/gcc/arm-none-eabi/4.6.2/../../../../arm-none-eabi/lib/thumb2/libm.a(lib_a-w_pow.o)
                                                  /opt/paparazzi/arm-multilib/lib/gcc/arm-none-eabi/4.6.2/../../../../arm-none-eabi/lib/thumb2/libm.a(lib_a-w_log.o)
__aeabi_dcmpge                                    /opt/paparazzi/arm-multilib/lib/gcc/arm-none-eabi/4.6.2/thumb2/libgcc.a(_arm_cmpdf2.o)
                                                  /opt/paparazzi/arm-multilib/lib/gcc/arm-none-eabi/4.6.2/../../../../arm-none-eabi/lib/thumb2/libm.a(lib_a-k_rem_pio2.o)
__aeabi_dcmpgt                                    /opt/paparazzi/arm-multilib/lib/gcc/arm-none-eabi/4.6.2/thumb2/libgcc.a(_arm_cmpdf2.o)
                                                  /opt/paparazzi/arm-multilib/lib/gcc/arm-none-eabi/4.6.2/../../../../arm-none-eabi/lib/thumb2/libm.a(lib_a-s_floor.o)
                                                  /opt/paparazzi/arm-multilib/lib/gcc/arm-none-eabi/4.6.2/../../../../arm-none-eabi/lib/thumb2/libm.a(lib_a-s_expm1.o)
                                                  /opt/paparazzi/arm-multilib/lib/gcc/arm-none-eabi/4.6.2/../../../../arm-none-eabi/lib/thumb2/libm.a(lib_a-e_sinh.o)
                                                  /opt/paparazzi/arm-multilib/lib/gcc/arm-none-eabi/4.6.2/../../../../arm-none-eabi/lib/thumb2/libm.a(lib_a-e_pow.o)
                                                  /opt/paparazzi/arm-multilib/lib/gcc/arm-none-eabi/4.6.2/../../../../arm-none-eabi/lib/thumb2/libm.a(lib_a-e_exp.o)
                                                  /opt/paparazzi/arm-multilib/lib/gcc/arm-none-eabi/4.6.2/../../../../arm-none-eabi/lib/thumb2/libm.a(lib_a-e_asin.o)
                                                  /opt/paparazzi/arm-multilib/lib/gcc/arm-none-eabi/4.6.2/../../../../arm-none-eabi/lib/thumb2/libm.a(lib_a-w_sinh.o)
                                                  /opt/paparazzi/arm-multilib/lib/gcc/arm-none-eabi/4.6.2/../../../../arm-none-eabi/lib/thumb2/libm.a(lib_a-w_log.o)
                                                  /opt/paparazzi/arm-multilib/lib/gcc/arm-none-eabi/4.6.2/../../../../arm-none-eabi/lib/thumb2/libm.a(lib_a-w_exp.o)
                                                  /opt/paparazzi/arm-multilib/lib/gcc/arm-none-eabi/4.6.2/../../../../arm-none-eabi/lib/thumb2/libm.a(lib_a-w_cosh.o)
                                                  /opt/paparazzi/arm-multilib/lib/gcc/arm-none-eabi/4.6.2/../../../../arm-none-eabi/lib/thumb2/libm.a(lib_a-w_asin.o)
                                                  /opt/paparazzi/arm-multilib/lib/gcc/arm-none-eabi/4.6.2/../../../../arm-none-eabi/lib/thumb2/libm.a(lib_a-s_atan.o)
                                                  /home/mav/paparazzi/var/Radian/ap/subsystems/navigation/nav_survey_rectangle.o
                                                  /home/mav/paparazzi/var/Radian/ap/subsystems/nav.o
                                                  /home/mav/paparazzi/var/Radian/ap/subsystems/ahrs/ahrs_int_cmpl_quat.o
                                                  /home/mav/paparazzi/var/Radian/ap/firmwares/fixedwing/guidance/guidance_v.o
                                                  /home/mav/paparazzi/var/Radian/ap/firmwares/fixedwing/stabilization/stabilization_attitude.o
                                                  /home/mav/paparazzi/var/Radian/ap/firmwares/fixedwing/main_ap.o
                                                  /home/mav/paparazzi/var/Radian/ap/math/pprz_geodetic_double.o
__aeabi_dcmple                                    /opt/paparazzi/arm-multilib/lib/gcc/arm-none-eabi/4.6.2/thumb2/libgcc.a(_arm_cmpdf2.o)
                                                  /opt/paparazzi/arm-multilib/lib/gcc/arm-none-eabi/4.6.2/../../../../arm-none-eabi/lib/thumb2/libm.a(lib_a-e_pow.o)
__aeabi_dcmplt                                    /opt/paparazzi/arm-multilib/lib/gcc/arm-none-eabi/4.6.2/thumb2/libgcc.a(_arm_cmpdf2.o)
                                                  /opt/paparazzi/arm-multilib/lib/gcc/arm-none-eabi/4.6.2/../../../../arm-none-eabi/lib/thumb2/libm.a(lib_a-s_expm1.o)
                                                  /opt/paparazzi/arm-multilib/lib/gcc/arm-none-eabi/4.6.2/../../../../arm-none-eabi/lib/thumb2/libm.a(lib_a-e_exp.o)
                                                  /opt/paparazzi/arm-multilib/lib/gcc/arm-none-eabi/4.6.2/../../../../arm-none-eabi/lib/thumb2/libm.a(lib_a-w_sqrt.o)
                                                  /opt/paparazzi/arm-multilib/lib/gcc/arm-none-eabi/4.6.2/../../../../arm-none-eabi/lib/thumb2/libm.a(lib_a-w_pow.o)
                                                  /opt/paparazzi/arm-multilib/lib/gcc/arm-none-eabi/4.6.2/../../../../arm-none-eabi/lib/thumb2/libm.a(lib_a-w_exp.o)
                                                  /home/mav/paparazzi/var/Radian/ap/subsystems/navigation/nav_survey_rectangle.o
                                                  /home/mav/paparazzi/var/Radian/ap/subsystems/nav.o
                                                  /home/mav/paparazzi/var/Radian/ap/subsystems/ahrs/ahrs_int_cmpl_quat.o
                                                  /home/mav/paparazzi/var/Radian/ap/firmwares/fixedwing/guidance/guidance_v.o
                                                  /home/mav/paparazzi/var/Radian/ap/firmwares/fixedwing/stabilization/stabilization_attitude.o
                                                  /home/mav/paparazzi/var/Radian/ap/firmwares/fixedwing/main_ap.o
__aeabi_ddiv                                      /opt/paparazzi/arm-multilib/lib/gcc/arm-none-eabi/4.6.2/thumb2/libgcc.a(_arm_muldivdf3.o)
                                                  /opt/paparazzi/arm-multilib/lib/gcc/arm-none-eabi/4.6.2/../../../../arm-none-eabi/lib/thumb2/libm.a(lib_a-s_expm1.o)
                                                  /opt/paparazzi/arm-multilib/lib/gcc/arm-none-eabi/4.6.2/../../../../arm-none-eabi/lib/thumb2/libm.a(lib_a-k_tan.o)
                                                  /opt/paparazzi/arm-multilib/lib/gcc/arm-none-eabi/4.6.2/../../../../arm-none-eabi/lib/thumb2/libm.a(lib_a-e_sqrt.o)
                                                  /opt/paparazzi/arm-multilib/lib/gcc/arm-none-eabi/4.6.2/../../../../arm-none-eabi/lib/thumb2/libm.a(lib_a-e_sinh.o)
                                                  /opt/paparazzi/arm-multilib/lib/gcc/arm-none-eabi/4.6.2/../../../../arm-none-eabi/lib/thumb2/libm.a(lib_a-e_pow.o)
                                                  /opt/paparazzi/arm-multilib/lib/gcc/arm-none-eabi/4.6.2/../../../../arm-none-eabi/lib/thumb2/libm.a(lib_a-e_log.o)
                                                  /opt/paparazzi/arm-multilib/lib/gcc/arm-none-eabi/4.6.2/../../../../arm-none-eabi/lib/thumb2/libm.a(lib_a-e_exp.o)
                                                  /opt/paparazzi/arm-multilib/lib/gcc/arm-none-eabi/4.6.2/../../../../arm-none-eabi/lib/thumb2/libm.a(lib_a-e_cosh.o)
                                                  /opt/paparazzi/arm-multilib/lib/gcc/arm-none-eabi/4.6.2/../../../../arm-none-eabi/lib/thumb2/libm.a(lib_a-e_atan2.o)
                                                  /opt/paparazzi/arm-multilib/lib/gcc/arm-none-eabi/4.6.2/../../../../arm-none-eabi/lib/thumb2/libm.a(lib_a-e_asin.o)
                                                  /opt/paparazzi/arm-multilib/lib/gcc/arm-none-eabi/4.6.2/../../../../arm-none-eabi/lib/thumb2/libm.a(lib_a-wf_sqrt.o)
                                                  /opt/paparazzi/arm-multilib/lib/gcc/arm-none-eabi/4.6.2/../../../../arm-none-eabi/lib/thumb2/libm.a(lib_a-wf_pow.o)
                                                  /opt/paparazzi/arm-multilib/lib/gcc/arm-none-eabi/4.6.2/../../../../arm-none-eabi/lib/thumb2/libm.a(lib_a-w_sqrt.o)
                                                  /opt/paparazzi/arm-multilib/lib/gcc/arm-none-eabi/4.6.2/../../../../arm-none-eabi/lib/thumb2/libm.a(lib_a-w_pow.o)
                                                  /opt/paparazzi/arm-multilib/lib/gcc/arm-none-eabi/4.6.2/../../../../arm-none-eabi/lib/thumb2/libm.a(lib_a-s_atan.o)
                                                  /home/mav/paparazzi/var/Radian/ap/subsystems/nav.o
                                                  /home/mav/paparazzi/var/Radian/ap/subsystems/ahrs/ahrs_int_cmpl_quat.o
                                                  /home/mav/paparazzi/var/Radian/ap/firmwares/fixedwing/datalink.o
                                                  /home/mav/paparazzi/var/Radian/ap/./estimator.o
                                                  /home/mav/paparazzi/var/Radian/ap/firmwares/fixedwing/main_ap.o
                                                  /home/mav/paparazzi/var/Radian/ap/math/pprz_geodetic_double.o
                                                  /home/mav/paparazzi/var/Radian/ap/math/pprz_geodetic_float.o
                                                  /home/mav/paparazzi/var/Radian/ap/math/pprz_geodetic_int.o
                                                  /home/mav/paparazzi/var/Radian/ap/mcu_periph/sys_time.o
__aeabi_dmul                                      /opt/paparazzi/arm-multilib/lib/gcc/arm-none-eabi/4.6.2/thumb2/libgcc.a(_arm_muldivdf3.o)
                                                  /opt/paparazzi/arm-multilib/lib/gcc/arm-none-eabi/4.6.2/../../../../arm-none-eabi/lib/thumb2/libm.a(lib_a-s_scalbn.o)
                                                  /opt/paparazzi/arm-multilib/lib/gcc/arm-none-eabi/4.6.2/../../../../arm-none-eabi/lib/thumb2/libm.a(lib_a-s_expm1.o)
                                                  /opt/paparazzi/arm-multilib/lib/gcc/arm-none-eabi/4.6.2/../../../../arm-none-eabi/lib/thumb2/libm.a(lib_a-k_tan.o)
                                                  /opt/paparazzi/arm-multilib/lib/gcc/arm-none-eabi/4.6.2/../../../../arm-none-eabi/lib/thumb2/libm.a(lib_a-k_sin.o)
                                                  /opt/paparazzi/arm-multilib/lib/gcc/arm-none-eabi/4.6.2/../../../../arm-none-eabi/lib/thumb2/libm.a(lib_a-k_rem_pio2.o)
                                                  /opt/paparazzi/arm-multilib/lib/gcc/arm-none-eabi/4.6.2/../../../../arm-none-eabi/lib/thumb2/libm.a(lib_a-k_cos.o)
                                                  /opt/paparazzi/arm-multilib/lib/gcc/arm-none-eabi/4.6.2/../../../../arm-none-eabi/lib/thumb2/libm.a(lib_a-e_sqrt.o)
                                                  /opt/paparazzi/arm-multilib/lib/gcc/arm-none-eabi/4.6.2/../../../../arm-none-eabi/lib/thumb2/libm.a(lib_a-e_sinh.o)
                                                  /opt/paparazzi/arm-multilib/lib/gcc/arm-none-eabi/4.6.2/../../../../arm-none-eabi/lib/thumb2/libm.a(lib_a-e_rem_pio2.o)
                                                  /opt/paparazzi/arm-multilib/lib/gcc/arm-none-eabi/4.6.2/../../../../arm-none-eabi/lib/thumb2/libm.a(lib_a-e_pow.o)
                                                  /opt/paparazzi/arm-multilib/lib/gcc/arm-none-eabi/4.6.2/../../../../arm-none-eabi/lib/thumb2/libm.a(lib_a-e_log.o)
                                                  /opt/paparazzi/arm-multilib/lib/gcc/arm-none-eabi/4.6.2/../../../../arm-none-eabi/lib/thumb2/libm.a(lib_a-e_exp.o)
                                                  /opt/paparazzi/arm-multilib/lib/gcc/arm-none-eabi/4.6.2/../../../../arm-none-eabi/lib/thumb2/libm.a(lib_a-e_cosh.o)
                                                  /opt/paparazzi/arm-multilib/lib/gcc/arm-none-eabi/4.6.2/../../../../arm-none-eabi/lib/thumb2/libm.a(lib_a-e_asin.o)
                                                  /opt/paparazzi/arm-multilib/lib/gcc/arm-none-eabi/4.6.2/../../../../arm-none-eabi/lib/thumb2/libm.a(lib_a-w_pow.o)
                                                  /opt/paparazzi/arm-multilib/lib/gcc/arm-none-eabi/4.6.2/../../../../arm-none-eabi/lib/thumb2/libm.a(lib_a-s_atan.o)
                                                  /home/mav/paparazzi/var/Radian/ap/subsystems/navigation/nav_line.o
                                                  /home/mav/paparazzi/var/Radian/ap/subsystems/navigation/nav_survey_rectangle.o
                                                  /home/mav/paparazzi/var/Radian/ap/subsystems/nav.o
                                                  /home/mav/paparazzi/var/Radian/ap/subsystems/gps/gps_ubx.o
                                                  /home/mav/paparazzi/var/Radian/ap/subsystems/ahrs/ahrs_int_cmpl_quat.o
                                                  /home/mav/paparazzi/var/Radian/ap/firmwares/fixedwing/stabilization/stabilization_attitude.o
                                                  /home/mav/paparazzi/var/Radian/ap/firmwares/fixedwing/datalink.o
                                                  /home/mav/paparazzi/var/Radian/ap/firmwares/fixedwing/main_ap.o
                                                  /home/mav/paparazzi/var/Radian/ap/subsystems/electrical.o
                                                  /home/mav/paparazzi/var/Radian/ap/firmwares/fixedwing/main_fbw.o
                                                  /home/mav/paparazzi/var/Radian/ap/math/pprz_geodetic_double.o
                                                  /home/mav/paparazzi/var/Radian/ap/math/pprz_geodetic_float.o
                                                  /home/mav/paparazzi/var/Radian/ap/math/pprz_geodetic_int.o
__aeabi_drsub                                     /opt/paparazzi/arm-multilib/lib/gcc/arm-none-eabi/4.6.2/thumb2/libgcc.a(_arm_addsubdf3.o)
__aeabi_dsub                                      /opt/paparazzi/arm-multilib/lib/gcc/arm-none-eabi/4.6.2/thumb2/libgcc.a(_arm_addsubdf3.o)
                                                  /opt/paparazzi/arm-multilib/lib/gcc/arm-none-eabi/4.6.2/../../../../arm-none-eabi/lib/thumb2/libm.a(lib_a-s_expm1.o)
                                                  /opt/paparazzi/arm-multilib/lib/gcc/arm-none-eabi/4.6.2/../../../../arm-none-eabi/lib/thumb2/libm.a(lib_a-k_tan.o)
                                                  /opt/paparazzi/arm-multilib/lib/gcc/arm-none-eabi/4.6.2/../../../../arm-none-eabi/lib/thumb2/libm.a(lib_a-k_sin.o)
                                                  /opt/paparazzi/arm-multilib/lib/gcc/arm-none-eabi/4.6.2/../../../../arm-none-eabi/lib/thumb2/libm.a(lib_a-k_rem_pio2.o)
                                                  /opt/paparazzi/arm-multilib/lib/gcc/arm-none-eabi/4.6.2/../../../../arm-none-eabi/lib/thumb2/libm.a(lib_a-k_cos.o)
                                                  /opt/paparazzi/arm-multilib/lib/gcc/arm-none-eabi/4.6.2/../../../../arm-none-eabi/lib/thumb2/libm.a(lib_a-e_sqrt.o)
                                                  /opt/paparazzi/arm-multilib/lib/gcc/arm-none-eabi/4.6.2/../../../../arm-none-eabi/lib/thumb2/libm.a(lib_a-e_sinh.o)
                                                  /opt/paparazzi/arm-multilib/lib/gcc/arm-none-eabi/4.6.2/../../../../arm-none-eabi/lib/thumb2/libm.a(lib_a-e_rem_pio2.o)
                                                  /opt/paparazzi/arm-multilib/lib/gcc/arm-none-eabi/4.6.2/../../../../arm-none-eabi/lib/thumb2/libm.a(lib_a-e_pow.o)
                                                  /opt/paparazzi/arm-multilib/lib/gcc/arm-none-eabi/4.6.2/../../../../arm-none-eabi/lib/thumb2/libm.a(lib_a-e_log.o)
                                                  /opt/paparazzi/arm-multilib/lib/gcc/arm-none-eabi/4.6.2/../../../../arm-none-eabi/lib/thumb2/libm.a(lib_a-e_exp.o)
                                                  /opt/paparazzi/arm-multilib/lib/gcc/arm-none-eabi/4.6.2/../../../../arm-none-eabi/lib/thumb2/libm.a(lib_a-e_atan2.o)
                                                  /opt/paparazzi/arm-multilib/lib/gcc/arm-none-eabi/4.6.2/../../../../arm-none-eabi/lib/thumb2/libm.a(lib_a-e_asin.o)
                                                  /opt/paparazzi/arm-multilib/lib/gcc/arm-none-eabi/4.6.2/../../../../arm-none-eabi/lib/thumb2/libm.a(lib_a-s_tan.o)
                                                  /opt/paparazzi/arm-multilib/lib/gcc/arm-none-eabi/4.6.2/../../../../arm-none-eabi/lib/thumb2/libm.a(lib_a-s_sin.o)
                                                  /opt/paparazzi/arm-multilib/lib/gcc/arm-none-eabi/4.6.2/../../../../arm-none-eabi/lib/thumb2/libm.a(lib_a-s_rint.o)
                                                  /opt/paparazzi/arm-multilib/lib/gcc/arm-none-eabi/4.6.2/../../../../arm-none-eabi/lib/thumb2/libm.a(lib_a-s_cos.o)
                                                  /opt/paparazzi/arm-multilib/lib/gcc/arm-none-eabi/4.6.2/../../../../arm-none-eabi/lib/thumb2/libm.a(lib_a-s_atan.o)
                                                  /home/mav/paparazzi/var/Radian/ap/subsystems/navigation/nav_line.o
                                                  /home/mav/paparazzi/var/Radian/ap/subsystems/navigation/nav_survey_rectangle.o
                                                  /home/mav/paparazzi/var/Radian/ap/subsystems/nav.o
                                                  /home/mav/paparazzi/var/Radian/ap/subsystems/ahrs/ahrs_int_cmpl_quat.o
                                                  /home/mav/paparazzi/var/Radian/ap/firmwares/fixedwing/stabilization/stabilization_attitude.o
                                                  /home/mav/paparazzi/var/Radian/ap/math/pprz_geodetic_double.o
                                                  /home/mav/paparazzi/var/Radian/ap/math/pprz_geodetic_float.o
__aeabi_f2d                                       /opt/paparazzi/arm-multilib/lib/gcc/arm-none-eabi/4.6.2/thumb2/libgcc.a(_arm_addsubdf3.o)
                                                  /opt/paparazzi/arm-multilib/lib/gcc/arm-none-eabi/4.6.2/../../../../arm-none-eabi/lib/thumb2/libm.a(lib_a-wf_sqrt.o)
                                                  /opt/paparazzi/arm-multilib/lib/gcc/arm-none-eabi/4.6.2/../../../../arm-none-eabi/lib/thumb2/libm.a(lib_a-wf_pow.o)
                                                  /opt/paparazzi/arm-multilib/lib/gcc/arm-none-eabi/4.6.2/../../../../arm-none-eabi/lib/thumb2/libm.a(lib_a-wf_asin.o)
                                                  /home/mav/paparazzi/var/Radian/ap/subsystems/navigation/nav_line.o
                                                  /home/mav/paparazzi/var/Radian/ap/subsystems/navigation/nav_survey_rectangle.o
                                                  /home/mav/paparazzi/var/Radian/ap/subsystems/nav.o
                                                  /home/mav/paparazzi/var/Radian/ap/subsystems/ahrs/ahrs_int_cmpl_quat.o
                                                  /home/mav/paparazzi/var/Radian/ap/firmwares/fixedwing/guidance/guidance_v.o
                                                  /home/mav/paparazzi/var/Radian/ap/firmwares/fixedwing/stabilization/stabilization_attitude.o
                                                  /home/mav/paparazzi/var/Radian/ap/firmwares/fixedwing/datalink.o
                                                  /home/mav/paparazzi/var/Radian/ap/firmwares/fixedwing/main_ap.o
                                                  /home/mav/paparazzi/var/Radian/ap/firmwares/fixedwing/main_fbw.o
                                                  /home/mav/paparazzi/var/Radian/ap/math/pprz_geodetic_double.o
                                                  /home/mav/paparazzi/var/Radian/ap/math/pprz_geodetic_float.o
                                                  /home/mav/paparazzi/var/Radian/ap/math/pprz_geodetic_int.o
                                                  /home/mav/paparazzi/var/Radian/ap/mcu_periph/sys_time.o
__aeabi_f2iz                                      /opt/paparazzi/arm-multilib/lib/gcc/arm-none-eabi/4.6.2/thumb2/libgcc.a(_arm_fixsfsi.o)
                                                  /opt/paparazzi/arm-multilib/lib/gcc/arm-none-eabi/4.6.2/../../../../arm-none-eabi/lib/thumb2/libm.a(lib_a-kf_sin.o)
                                                  /opt/paparazzi/arm-multilib/lib/gcc/arm-none-eabi/4.6.2/../../../../arm-none-eabi/lib/thumb2/libm.a(lib_a-kf_rem_pio2.o)
                                                  /opt/paparazzi/arm-multilib/lib/gcc/arm-none-eabi/4.6.2/../../../../arm-none-eabi/lib/thumb2/libm.a(lib_a-kf_cos.o)
                                                  /opt/paparazzi/arm-multilib/lib/gcc/arm-none-eabi/4.6.2/../../../../arm-none-eabi/lib/thumb2/libm.a(lib_a-ef_rem_pio2.o)
                                                  /home/mav/paparazzi/var/Radian/ap/subsystems/nav.o
                                                  /home/mav/paparazzi/var/Radian/ap/subsystems/gps/gps_ubx.o
                                                  /home/mav/paparazzi/var/Radian/ap/subsystems/ahrs/ahrs_int_cmpl_quat.o
                                                  /home/mav/paparazzi/var/Radian/ap/firmwares/fixedwing/guidance/guidance_v.o
                                                  /home/mav/paparazzi/var/Radian/ap/firmwares/fixedwing/stabilization/stabilization_attitude.o
                                                  /home/mav/paparazzi/var/Radian/ap/firmwares/fixedwing/main_ap.o
                                                  /home/mav/paparazzi/var/Radian/ap/firmwares/fixedwing/main_fbw.o
__aeabi_f2uiz                                     /opt/paparazzi/arm-multilib/lib/gcc/arm-none-eabi/4.6.2/thumb2/libgcc.a(_arm_fixunssfsi.o)
                                                  /home/mav/paparazzi/var/Radian/ap/firmwares/fixedwing/datalink.o
__aeabi_fadd                                      /opt/paparazzi/arm-multilib/lib/gcc/arm-none-eabi/4.6.2/thumb2/libgcc.a(_arm_addsubsf3.o)
                                                  /opt/paparazzi/arm-multilib/lib/gcc/arm-none-eabi/4.6.2/../../../../arm-none-eabi/lib/thumb2/libm.a(lib_a-sf_scalbn.o)
                                                  /opt/paparazzi/arm-multilib/lib/gcc/arm-none-eabi/4.6.2/../../../../arm-none-eabi/lib/thumb2/libm.a(lib_a-sf_floor.o)
                                                  /opt/paparazzi/arm-multilib/lib/gcc/arm-none-eabi/4.6.2/../../../../arm-none-eabi/lib/thumb2/libm.a(lib_a-kf_sin.o)
                                                  /opt/paparazzi/arm-multilib/lib/gcc/arm-none-eabi/4.6.2/../../../../arm-none-eabi/lib/thumb2/libm.a(lib_a-kf_rem_pio2.o)
                                                  /opt/paparazzi/arm-multilib/lib/gcc/arm-none-eabi/4.6.2/../../../../arm-none-eabi/lib/thumb2/libm.a(lib_a-kf_cos.o)
                                                  /opt/paparazzi/arm-multilib/lib/gcc/arm-none-eabi/4.6.2/../../../../arm-none-eabi/lib/thumb2/libm.a(lib_a-ef_sqrt.o)
                                                  /opt/paparazzi/arm-multilib/lib/gcc/arm-none-eabi/4.6.2/../../../../arm-none-eabi/lib/thumb2/libm.a(lib_a-ef_rem_pio2.o)
                                                  /opt/paparazzi/arm-multilib/lib/gcc/arm-none-eabi/4.6.2/../../../../arm-none-eabi/lib/thumb2/libm.a(lib_a-ef_pow.o)
                                                  /opt/paparazzi/arm-multilib/lib/gcc/arm-none-eabi/4.6.2/../../../../arm-none-eabi/lib/thumb2/libm.a(lib_a-ef_atan2.o)
                                                  /opt/paparazzi/arm-multilib/lib/gcc/arm-none-eabi/4.6.2/../../../../arm-none-eabi/lib/thumb2/libm.a(lib_a-ef_asin.o)
                                                  /opt/paparazzi/arm-multilib/lib/gcc/arm-none-eabi/4.6.2/../../../../arm-none-eabi/lib/thumb2/libm.a(lib_a-sf_atan.o)
                                                  /home/mav/paparazzi/var/Radian/ap/subsystems/navigation/nav_line.o
                                                  /home/mav/paparazzi/var/Radian/ap/subsystems/navigation/nav_survey_rectangle.o
                                                  /home/mav/paparazzi/var/Radian/ap/subsystems/nav.o
                                                  /home/mav/paparazzi/var/Radian/ap/subsystems/ahrs/ahrs_int_cmpl_quat.o
                                                  /home/mav/paparazzi/var/Radian/ap/firmwares/fixedwing/guidance/guidance_v.o
                                                  /home/mav/paparazzi/var/Radian/ap/firmwares/fixedwing/stabilization/stabilization_attitude.o
                                                  /home/mav/paparazzi/var/Radian/ap/firmwares/fixedwing/datalink.o
                                                  /home/mav/paparazzi/var/Radian/ap/firmwares/fixedwing/main_ap.o
                                                  /home/mav/paparazzi/var/Radian/ap/math/pprz_geodetic_float.o
__aeabi_fcmpeq                                    /opt/paparazzi/arm-multilib/lib/gcc/arm-none-eabi/4.6.2/thumb2/libgcc.a(_arm_cmpsf2.o)
                                                  /opt/paparazzi/arm-multilib/lib/gcc/arm-none-eabi/4.6.2/../../../../arm-none-eabi/lib/thumb2/libm.a(lib_a-kf_rem_pio2.o)
                                                  /opt/paparazzi/arm-multilib/lib/gcc/arm-none-eabi/4.6.2/../../../../arm-none-eabi/lib/thumb2/libm.a(lib_a-ef_rem_pio2.o)
                                                  /opt/paparazzi/arm-multilib/lib/gcc/arm-none-eabi/4.6.2/../../../../arm-none-eabi/lib/thumb2/libm.a(lib_a-wf_pow.o)
                                                  /home/mav/paparazzi/var/Radian/ap/firmwares/fixedwing/datalink.o
__aeabi_fcmpge                                    /opt/paparazzi/arm-multilib/lib/gcc/arm-none-eabi/4.6.2/thumb2/libgcc.a(_arm_cmpsf2.o)
                                                  /opt/paparazzi/arm-multilib/lib/gcc/arm-none-eabi/4.6.2/../../../../arm-none-eabi/lib/thumb2/libm.a(lib_a-kf_rem_pio2.o)
                                                  /home/mav/paparazzi/var/Radian/ap/subsystems/navigation/nav_line.o
                                                  /home/mav/paparazzi/var/Radian/ap/subsystems/navigation/nav_survey_rectangle.o
                                                  /home/mav/paparazzi/var/Radian/ap/subsystems/nav.o
__aeabi_fcmpgt                                    /opt/paparazzi/arm-multilib/lib/gcc/arm-none-eabi/4.6.2/thumb2/libgcc.a(_arm_cmpsf2.o)
                                                  /opt/paparazzi/arm-multilib/lib/gcc/arm-none-eabi/4.6.2/../../../../arm-none-eabi/lib/thumb2/libm.a(lib_a-sf_floor.o)
                                                  /opt/paparazzi/arm-multilib/lib/gcc/arm-none-eabi/4.6.2/../../../../arm-none-eabi/lib/thumb2/libm.a(lib_a-ef_pow.o)
                                                  /opt/paparazzi/arm-multilib/lib/gcc/arm-none-eabi/4.6.2/../../../../arm-none-eabi/lib/thumb2/libm.a(lib_a-ef_asin.o)
                                                  /opt/paparazzi/arm-multilib/lib/gcc/arm-none-eabi/4.6.2/../../../../arm-none-eabi/lib/thumb2/libm.a(lib_a-wf_asin.o)
                                                  /opt/paparazzi/arm-multilib/lib/gcc/arm-none-eabi/4.6.2/../../../../arm-none-eabi/lib/thumb2/libm.a(lib_a-sf_atan.o)
                                                  /home/mav/paparazzi/var/Radian/ap/subsystems/navigation/nav_line.o
                                                  /home/mav/paparazzi/var/Radian/ap/subsystems/navigation/nav_survey_rectangle.o
                                                  /home/mav/paparazzi/var/Radian/ap/subsystems/nav.o
                                                  /home/mav/paparazzi/var/Radian/ap/subsystems/ahrs/ahrs_int_cmpl_quat.o
                                                  /home/mav/paparazzi/var/Radian/ap/firmwares/fixedwing/guidance/guidance_v.o
                                                  /home/mav/paparazzi/var/Radian/ap/firmwares/fixedwing/stabilization/stabilization_attitude.o
                                                  /home/mav/paparazzi/var/Radian/ap/firmwares/fixedwing/main_ap.o
                                                  /home/mav/paparazzi/var/Radian/ap/firmwares/fixedwing/main_fbw.o
                                                  /home/mav/paparazzi/var/Radian/ap/math/pprz_geodetic_float.o
__aeabi_fcmple                                    /opt/paparazzi/arm-multilib/lib/gcc/arm-none-eabi/4.6.2/thumb2/libgcc.a(_arm_cmpsf2.o)
                                                  /opt/paparazzi/arm-multilib/lib/gcc/arm-none-eabi/4.6.2/../../../../arm-none-eabi/lib/thumb2/libm.a(lib_a-ef_pow.o)
__aeabi_fcmplt                                    /opt/paparazzi/arm-multilib/lib/gcc/arm-none-eabi/4.6.2/thumb2/libgcc.a(_arm_cmpsf2.o)
                                                  /opt/paparazzi/arm-multilib/lib/gcc/arm-none-eabi/4.6.2/../../../../arm-none-eabi/lib/thumb2/libm.a(lib_a-wf_sqrt.o)
                                                  /opt/paparazzi/arm-multilib/lib/gcc/arm-none-eabi/4.6.2/../../../../arm-none-eabi/lib/thumb2/libm.a(lib_a-wf_pow.o)
                                                  /home/mav/paparazzi/var/Radian/ap/subsystems/navigation/nav_line.o
                                                  /home/mav/paparazzi/var/Radian/ap/subsystems/navigation/nav_survey_rectangle.o
                                                  /home/mav/paparazzi/var/Radian/ap/subsystems/nav.o
                                                  /home/mav/paparazzi/var/Radian/ap/subsystems/ahrs/ahrs_int_cmpl_quat.o
                                                  /home/mav/paparazzi/var/Radian/ap/firmwares/fixedwing/guidance/guidance_v.o
                                                  /home/mav/paparazzi/var/Radian/ap/firmwares/fixedwing/stabilization/stabilization_attitude.o
                                                  /home/mav/paparazzi/var/Radian/ap/firmwares/fixedwing/main_ap.o
__aeabi_fdiv                                      /opt/paparazzi/arm-multilib/lib/gcc/arm-none-eabi/4.6.2/thumb2/libgcc.a(_arm_muldivsf3.o)
                                                  /opt/paparazzi/arm-multilib/lib/gcc/arm-none-eabi/4.6.2/../../../../arm-none-eabi/lib/thumb2/libm.a(lib_a-ef_sqrt.o)
                                                  /opt/paparazzi/arm-multilib/lib/gcc/arm-none-eabi/4.6.2/../../../../arm-none-eabi/lib/thumb2/libm.a(lib_a-ef_pow.o)
                                                  /opt/paparazzi/arm-multilib/lib/gcc/arm-none-eabi/4.6.2/../../../../arm-none-eabi/lib/thumb2/libm.a(lib_a-ef_atan2.o)
                                                  /opt/paparazzi/arm-multilib/lib/gcc/arm-none-eabi/4.6.2/../../../../arm-none-eabi/lib/thumb2/libm.a(lib_a-ef_asin.o)
                                                  /opt/paparazzi/arm-multilib/lib/gcc/arm-none-eabi/4.6.2/../../../../arm-none-eabi/lib/thumb2/libm.a(lib_a-sf_atan.o)
                                                  /home/mav/paparazzi/var/Radian/ap/subsystems/navigation/nav_line.o
                                                  /home/mav/paparazzi/var/Radian/ap/subsystems/nav.o
                                                  /home/mav/paparazzi/var/Radian/ap/subsystems/gps/gps_ubx.o
                                                  /home/mav/paparazzi/var/Radian/ap/subsystems/ahrs/ahrs_int_cmpl_quat.o
                                                  /home/mav/paparazzi/var/Radian/ap/firmwares/fixedwing/stabilization/stabilization_attitude.o
                                                  /home/mav/paparazzi/var/Radian/ap/firmwares/fixedwing/datalink.o
                                                  /home/mav/paparazzi/var/Radian/ap/firmwares/fixedwing/main_ap.o
                                                  /home/mav/paparazzi/var/Radian/ap/math/pprz_geodetic_float.o
                                                  /home/mav/paparazzi/var/Radian/ap/math/pprz_geodetic_int.o
__aeabi_fmul                                      /opt/paparazzi/arm-multilib/lib/gcc/arm-none-eabi/4.6.2/thumb2/libgcc.a(_arm_muldivsf3.o)
                                                  /opt/paparazzi/arm-multilib/lib/gcc/arm-none-eabi/4.6.2/../../../../arm-none-eabi/lib/thumb2/libm.a(lib_a-sf_scalbn.o)
                                                  /opt/paparazzi/arm-multilib/lib/gcc/arm-none-eabi/4.6.2/../../../../arm-none-eabi/lib/thumb2/libm.a(lib_a-kf_sin.o)
                                                  /opt/paparazzi/arm-multilib/lib/gcc/arm-none-eabi/4.6.2/../../../../arm-none-eabi/lib/thumb2/libm.a(lib_a-kf_rem_pio2.o)
                                                  /opt/paparazzi/arm-multilib/lib/gcc/arm-none-eabi/4.6.2/../../../../arm-none-eabi/lib/thumb2/libm.a(lib_a-kf_cos.o)
                                                  /opt/paparazzi/arm-multilib/lib/gcc/arm-none-eabi/4.6.2/../../../../arm-none-eabi/lib/thumb2/libm.a(lib_a-ef_sqrt.o)
                                                  /opt/paparazzi/arm-multilib/lib/gcc/arm-none-eabi/4.6.2/../../../../arm-none-eabi/lib/thumb2/libm.a(lib_a-ef_rem_pio2.o)
                                                  /opt/paparazzi/arm-multilib/lib/gcc/arm-none-eabi/4.6.2/../../../../arm-none-eabi/lib/thumb2/libm.a(lib_a-ef_pow.o)
                                                  /opt/paparazzi/arm-multilib/lib/gcc/arm-none-eabi/4.6.2/../../../../arm-none-eabi/lib/thumb2/libm.a(lib_a-ef_asin.o)
                                                  /opt/paparazzi/arm-multilib/lib/gcc/arm-none-eabi/4.6.2/../../../../arm-none-eabi/lib/thumb2/libm.a(lib_a-wf_pow.o)
                                                  /opt/paparazzi/arm-multilib/lib/gcc/arm-none-eabi/4.6.2/../../../../arm-none-eabi/lib/thumb2/libm.a(lib_a-sf_atan.o)
                                                  /home/mav/paparazzi/var/Radian/ap/subsystems/navigation/nav_line.o
                                                  /home/mav/paparazzi/var/Radian/ap/subsystems/navigation/nav_survey_rectangle.o
                                                  /home/mav/paparazzi/var/Radian/ap/subsystems/nav.o
                                                  /home/mav/paparazzi/var/Radian/ap/subsystems/gps/gps_ubx.o
                                                  /home/mav/paparazzi/var/Radian/ap/subsystems/ahrs/ahrs_int_cmpl_quat.o
                                                  /home/mav/paparazzi/var/Radian/ap/firmwares/fixedwing/guidance/guidance_v.o
                                                  /home/mav/paparazzi/var/Radian/ap/firmwares/fixedwing/stabilization/stabilization_attitude.o
                                                  /home/mav/paparazzi/var/Radian/ap/firmwares/fixedwing/main_ap.o
                                                  /home/mav/paparazzi/var/Radian/ap/math/pprz_geodetic_float.o
                                                  /home/mav/paparazzi/var/Radian/ap/math/pprz_geodetic_int.o
__aeabi_frsub                                     /opt/paparazzi/arm-multilib/lib/gcc/arm-none-eabi/4.6.2/thumb2/libgcc.a(_arm_addsubsf3.o)
__aeabi_fsub                                      /opt/paparazzi/arm-multilib/lib/gcc/arm-none-eabi/4.6.2/thumb2/libgcc.a(_arm_addsubsf3.o)
                                                  /opt/paparazzi/arm-multilib/lib/gcc/arm-none-eabi/4.6.2/../../../../arm-none-eabi/lib/thumb2/libm.a(lib_a-kf_sin.o)
                                                  /opt/paparazzi/arm-multilib/lib/gcc/arm-none-eabi/4.6.2/../../../../arm-none-eabi/lib/thumb2/libm.a(lib_a-kf_rem_pio2.o)
                                                  /opt/paparazzi/arm-multilib/lib/gcc/arm-none-eabi/4.6.2/../../../../arm-none-eabi/lib/thumb2/libm.a(lib_a-kf_cos.o)
                                                  /opt/paparazzi/arm-multilib/lib/gcc/arm-none-eabi/4.6.2/../../../../arm-none-eabi/lib/thumb2/libm.a(lib_a-ef_sqrt.o)
                                                  /opt/paparazzi/arm-multilib/lib/gcc/arm-none-eabi/4.6.2/../../../../arm-none-eabi/lib/thumb2/libm.a(lib_a-ef_rem_pio2.o)
                                                  /opt/paparazzi/arm-multilib/lib/gcc/arm-none-eabi/4.6.2/../../../../arm-none-eabi/lib/thumb2/libm.a(lib_a-ef_pow.o)
                                                  /opt/paparazzi/arm-multilib/lib/gcc/arm-none-eabi/4.6.2/../../../../arm-none-eabi/lib/thumb2/libm.a(lib_a-ef_atan2.o)
                                                  /opt/paparazzi/arm-multilib/lib/gcc/arm-none-eabi/4.6.2/../../../../arm-none-eabi/lib/thumb2/libm.a(lib_a-ef_asin.o)
                                                  /opt/paparazzi/arm-multilib/lib/gcc/arm-none-eabi/4.6.2/../../../../arm-none-eabi/lib/thumb2/libm.a(lib_a-sf_sin.o)
                                                  /opt/paparazzi/arm-multilib/lib/gcc/arm-none-eabi/4.6.2/../../../../arm-none-eabi/lib/thumb2/libm.a(lib_a-sf_cos.o)
                                                  /opt/paparazzi/arm-multilib/lib/gcc/arm-none-eabi/4.6.2/../../../../arm-none-eabi/lib/thumb2/libm.a(lib_a-sf_atan.o)
                                                  /home/mav/paparazzi/var/Radian/ap/subsystems/navigation/nav_line.o
                                                  /home/mav/paparazzi/var/Radian/ap/subsystems/navigation/nav_survey_rectangle.o
                                                  /home/mav/paparazzi/var/Radian/ap/subsystems/nav.o
                                                  /home/mav/paparazzi/var/Radian/ap/subsystems/ahrs/ahrs_int_cmpl_quat.o
                                                  /home/mav/paparazzi/var/Radian/ap/firmwares/fixedwing/guidance/guidance_v.o
                                                  /home/mav/paparazzi/var/Radian/ap/firmwares/fixedwing/stabilization/stabilization_attitude.o
                                                  /home/mav/paparazzi/var/Radian/ap/firmwares/fixedwing/datalink.o
                                                  /home/mav/paparazzi/var/Radian/ap/./estimator.o
                                                  /home/mav/paparazzi/var/Radian/ap/math/pprz_geodetic_float.o
__aeabi_i2d                                       /opt/paparazzi/arm-multilib/lib/gcc/arm-none-eabi/4.6.2/thumb2/libgcc.a(_arm_addsubdf3.o)
                                                  /opt/paparazzi/arm-multilib/lib/gcc/arm-none-eabi/4.6.2/../../../../arm-none-eabi/lib/thumb2/libm.a(lib_a-s_expm1.o)
                                                  /opt/paparazzi/arm-multilib/lib/gcc/arm-none-eabi/4.6.2/../../../../arm-none-eabi/lib/thumb2/libm.a(lib_a-k_tan.o)
                                                  /opt/paparazzi/arm-multilib/lib/gcc/arm-none-eabi/4.6.2/../../../../arm-none-eabi/lib/thumb2/libm.a(lib_a-k_rem_pio2.o)
                                                  /opt/paparazzi/arm-multilib/lib/gcc/arm-none-eabi/4.6.2/../../../../arm-none-eabi/lib/thumb2/libm.a(lib_a-e_rem_pio2.o)
                                                  /opt/paparazzi/arm-multilib/lib/gcc/arm-none-eabi/4.6.2/../../../../arm-none-eabi/lib/thumb2/libm.a(lib_a-e_pow.o)
                                                  /opt/paparazzi/arm-multilib/lib/gcc/arm-none-eabi/4.6.2/../../../../arm-none-eabi/lib/thumb2/libm.a(lib_a-e_log.o)
                                                  /opt/paparazzi/arm-multilib/lib/gcc/arm-none-eabi/4.6.2/../../../../arm-none-eabi/lib/thumb2/libm.a(lib_a-e_exp.o)
                                                  /home/mav/paparazzi/var/Radian/ap/subsystems/nav.o
                                                  /home/mav/paparazzi/var/Radian/ap/subsystems/gps/gps_ubx.o
                                                  /home/mav/paparazzi/var/Radian/ap/subsystems/ahrs/ahrs_int_cmpl_quat.o
                                                  /home/mav/paparazzi/var/Radian/ap/firmwares/fixedwing/guidance/guidance_v.o
                                                  /home/mav/paparazzi/var/Radian/ap/firmwares/fixedwing/datalink.o
                                                  /home/mav/paparazzi/var/Radian/ap/./estimator.o
                                                  /home/mav/paparazzi/var/Radian/ap/firmwares/fixedwing/main_ap.o
                                                  /home/mav/paparazzi/var/Radian/ap/math/pprz_geodetic_double.o
                                                  /home/mav/paparazzi/var/Radian/ap/math/pprz_geodetic_float.o
                                                  /home/mav/paparazzi/var/Radian/ap/math/pprz_geodetic_int.o
__aeabi_i2f                                       /opt/paparazzi/arm-multilib/lib/gcc/arm-none-eabi/4.6.2/thumb2/libgcc.a(_arm_addsubsf3.o)
                                                  /opt/paparazzi/arm-multilib/lib/gcc/arm-none-eabi/4.6.2/../../../../arm-none-eabi/lib/thumb2/libm.a(lib_a-kf_rem_pio2.o)
                                                  /opt/paparazzi/arm-multilib/lib/gcc/arm-none-eabi/4.6.2/../../../../arm-none-eabi/lib/thumb2/libm.a(lib_a-ef_rem_pio2.o)
                                                  /opt/paparazzi/arm-multilib/lib/gcc/arm-none-eabi/4.6.2/../../../../arm-none-eabi/lib/thumb2/libm.a(lib_a-ef_pow.o)
                                                  /home/mav/paparazzi/var/Radian/ap/subsystems/nav.o
                                                  /home/mav/paparazzi/var/Radian/ap/subsystems/gps/gps_ubx.o
                                                  /home/mav/paparazzi/var/Radian/ap/subsystems/ahrs/ahrs_int_cmpl_quat.o
                                                  /home/mav/paparazzi/var/Radian/ap/firmwares/fixedwing/stabilization/stabilization_attitude.o
                                                  /home/mav/paparazzi/var/Radian/ap/firmwares/fixedwing/datalink.o
                                                  /home/mav/paparazzi/var/Radian/ap/./estimator.o
                                                  /home/mav/paparazzi/var/Radian/ap/firmwares/fixedwing/main_ap.o
                                                  /home/mav/paparazzi/var/Radian/ap/firmwares/fixedwing/main_fbw.o
                                                  /home/mav/paparazzi/var/Radian/ap/math/pprz_geodetic_float.o
                                                  /home/mav/paparazzi/var/Radian/ap/math/pprz_geodetic_int.o
__aeabi_idiv                                      /opt/paparazzi/arm-multilib/lib/gcc/arm-none-eabi/4.6.2/thumb2/libgcc.a(_divsi3.o)
                                                  /opt/paparazzi/arm-multilib/lib/gcc/arm-none-eabi/4.6.2/../../../../arm-none-eabi/lib/thumb2/libm.a(lib_a-k_rem_pio2.o)
                                                  /opt/paparazzi/arm-multilib/lib/gcc/arm-none-eabi/4.6.2/../../../../arm-none-eabi/lib/thumb2/libc.a(lib_a-ldiv.o)
__aeabi_idiv0                                     /opt/paparazzi/arm-multilib/lib/gcc/arm-none-eabi/4.6.2/thumb2/libgcc.a(_dvmd_tls.o)
                                                  /opt/paparazzi/arm-multilib/lib/gcc/arm-none-eabi/4.6.2/thumb2/libgcc.a(_divsi3.o)
__aeabi_idivmod                                   /opt/paparazzi/arm-multilib/lib/gcc/arm-none-eabi/4.6.2/thumb2/libgcc.a(_divsi3.o)
                                                  /opt/paparazzi/arm-multilib/lib/gcc/arm-none-eabi/4.6.2/../../../../arm-none-eabi/lib/thumb2/libc.a(lib_a-ldiv.o)
__aeabi_l2d                                       /opt/paparazzi/arm-multilib/lib/gcc/arm-none-eabi/4.6.2/thumb2/libgcc.a(_arm_addsubdf3.o)
__aeabi_l2f                                       /opt/paparazzi/arm-multilib/lib/gcc/arm-none-eabi/4.6.2/thumb2/libgcc.a(_arm_addsubsf3.o)
__aeabi_ldiv0                                     /opt/paparazzi/arm-multilib/lib/gcc/arm-none-eabi/4.6.2/thumb2/libgcc.a(_dvmd_tls.o)
__aeabi_ui2d                                      /opt/paparazzi/arm-multilib/lib/gcc/arm-none-eabi/4.6.2/thumb2/libgcc.a(_arm_addsubdf3.o)
                                                  /home/mav/paparazzi/var/Radian/ap/subsystems/gps/gps_ubx.o
                                                  /home/mav/paparazzi/var/Radian/ap/subsystems/electrical.o
__aeabi_ui2f                                      /opt/paparazzi/arm-multilib/lib/gcc/arm-none-eabi/4.6.2/thumb2/libgcc.a(_arm_addsubsf3.o)
                                                  /home/mav/paparazzi/var/Radian/ap/firmwares/fixedwing/datalink.o
                                                  /home/mav/paparazzi/var/Radian/ap/firmwares/fixedwing/main_ap.o
__aeabi_ul2d                                      /opt/paparazzi/arm-multilib/lib/gcc/arm-none-eabi/4.6.2/thumb2/libgcc.a(_arm_addsubdf3.o)
__aeabi_ul2f                                      /opt/paparazzi/arm-multilib/lib/gcc/arm-none-eabi/4.6.2/thumb2/libgcc.a(_arm_addsubsf3.o)
__cmpdf2                                          /opt/paparazzi/arm-multilib/lib/gcc/arm-none-eabi/4.6.2/thumb2/libgcc.a(_arm_cmpdf2.o)
__cmpsf2                                          /opt/paparazzi/arm-multilib/lib/gcc/arm-none-eabi/4.6.2/thumb2/libgcc.a(_arm_cmpsf2.o)
__divdf3                                          /opt/paparazzi/arm-multilib/lib/gcc/arm-none-eabi/4.6.2/thumb2/libgcc.a(_arm_muldivdf3.o)
__divsf3                                          /opt/paparazzi/arm-multilib/lib/gcc/arm-none-eabi/4.6.2/thumb2/libgcc.a(_arm_muldivsf3.o)
__divsi3                                          /opt/paparazzi/arm-multilib/lib/gcc/arm-none-eabi/4.6.2/thumb2/libgcc.a(_divsi3.o)
__eqdf2                                           /opt/paparazzi/arm-multilib/lib/gcc/arm-none-eabi/4.6.2/thumb2/libgcc.a(_arm_cmpdf2.o)
__eqsf2                                           /opt/paparazzi/arm-multilib/lib/gcc/arm-none-eabi/4.6.2/thumb2/libgcc.a(_arm_cmpsf2.o)
__errno                                           /opt/paparazzi/arm-multilib/lib/gcc/arm-none-eabi/4.6.2/../../../../arm-none-eabi/lib/thumb2/libc.a(lib_a-errno.o)
                                                  /opt/paparazzi/arm-multilib/lib/gcc/arm-none-eabi/4.6.2/../../../../arm-none-eabi/lib/thumb2/libm.a(lib_a-wf_sqrt.o)
                                                  /opt/paparazzi/arm-multilib/lib/gcc/arm-none-eabi/4.6.2/../../../../arm-none-eabi/lib/thumb2/libm.a(lib_a-wf_pow.o)
                                                  /opt/paparazzi/arm-multilib/lib/gcc/arm-none-eabi/4.6.2/../../../../arm-none-eabi/lib/thumb2/libm.a(lib_a-wf_asin.o)
                                                  /opt/paparazzi/arm-multilib/lib/gcc/arm-none-eabi/4.6.2/../../../../arm-none-eabi/lib/thumb2/libm.a(lib_a-w_sqrt.o)
                                                  /opt/paparazzi/arm-multilib/lib/gcc/arm-none-eabi/4.6.2/../../../../arm-none-eabi/lib/thumb2/libm.a(lib_a-w_sinh.o)
                                                  /opt/paparazzi/arm-multilib/lib/gcc/arm-none-eabi/4.6.2/../../../../arm-none-eabi/lib/thumb2/libm.a(lib_a-w_pow.o)
                                                  /opt/paparazzi/arm-multilib/lib/gcc/arm-none-eabi/4.6.2/../../../../arm-none-eabi/lib/thumb2/libm.a(lib_a-w_log.o)
                                                  /opt/paparazzi/arm-multilib/lib/gcc/arm-none-eabi/4.6.2/../../../../arm-none-eabi/lib/thumb2/libm.a(lib_a-w_exp.o)
                                                  /opt/paparazzi/arm-multilib/lib/gcc/arm-none-eabi/4.6.2/../../../../arm-none-eabi/lib/thumb2/libm.a(lib_a-w_cosh.o)
                                                  /opt/paparazzi/arm-multilib/lib/gcc/arm-none-eabi/4.6.2/../../../../arm-none-eabi/lib/thumb2/libm.a(lib_a-w_asin.o)
__extendsfdf2                                     /opt/paparazzi/arm-multilib/lib/gcc/arm-none-eabi/4.6.2/thumb2/libgcc.a(_arm_addsubdf3.o)
__fdlib_version                                   /opt/paparazzi/arm-multilib/lib/gcc/arm-none-eabi/4.6.2/../../../../arm-none-eabi/lib/thumb2/libm.a(lib_a-s_lib_ver.o)
                                                  /opt/paparazzi/arm-multilib/lib/gcc/arm-none-eabi/4.6.2/../../../../arm-none-eabi/lib/thumb2/libm.a(lib_a-wf_sqrt.o)
                                                  /opt/paparazzi/arm-multilib/lib/gcc/arm-none-eabi/4.6.2/../../../../arm-none-eabi/lib/thumb2/libm.a(lib_a-wf_pow.o)
                                                  /opt/paparazzi/arm-multilib/lib/gcc/arm-none-eabi/4.6.2/../../../../arm-none-eabi/lib/thumb2/libm.a(lib_a-wf_asin.o)
                                                  /opt/paparazzi/arm-multilib/lib/gcc/arm-none-eabi/4.6.2/../../../../arm-none-eabi/lib/thumb2/libm.a(lib_a-w_sqrt.o)
                                                  /opt/paparazzi/arm-multilib/lib/gcc/arm-none-eabi/4.6.2/../../../../arm-none-eabi/lib/thumb2/libm.a(lib_a-w_sinh.o)
                                                  /opt/paparazzi/arm-multilib/lib/gcc/arm-none-eabi/4.6.2/../../../../arm-none-eabi/lib/thumb2/libm.a(lib_a-w_pow.o)
                                                  /opt/paparazzi/arm-multilib/lib/gcc/arm-none-eabi/4.6.2/../../../../arm-none-eabi/lib/thumb2/libm.a(lib_a-w_log.o)
                                                  /opt/paparazzi/arm-multilib/lib/gcc/arm-none-eabi/4.6.2/../../../../arm-none-eabi/lib/thumb2/libm.a(lib_a-w_exp.o)
                                                  /opt/paparazzi/arm-multilib/lib/gcc/arm-none-eabi/4.6.2/../../../../arm-none-eabi/lib/thumb2/libm.a(lib_a-w_cosh.o)
                                                  /opt/paparazzi/arm-multilib/lib/gcc/arm-none-eabi/4.6.2/../../../../arm-none-eabi/lib/thumb2/libm.a(lib_a-w_asin.o)
__fixdfsi                                         /opt/paparazzi/arm-multilib/lib/gcc/arm-none-eabi/4.6.2/thumb2/libgcc.a(_arm_fixdfsi.o)
__fixsfsi                                         /opt/paparazzi/arm-multilib/lib/gcc/arm-none-eabi/4.6.2/thumb2/libgcc.a(_arm_fixsfsi.o)
__fixunsdfsi                                      /opt/paparazzi/arm-multilib/lib/gcc/arm-none-eabi/4.6.2/thumb2/libgcc.a(_arm_fixunsdfsi.o)
__fixunssfsi                                      /opt/paparazzi/arm-multilib/lib/gcc/arm-none-eabi/4.6.2/thumb2/libgcc.a(_arm_fixunssfsi.o)
__floatdidf                                       /opt/paparazzi/arm-multilib/lib/gcc/arm-none-eabi/4.6.2/thumb2/libgcc.a(_arm_addsubdf3.o)
__floatdisf                                       /opt/paparazzi/arm-multilib/lib/gcc/arm-none-eabi/4.6.2/thumb2/libgcc.a(_arm_addsubsf3.o)
__floatsidf                                       /opt/paparazzi/arm-multilib/lib/gcc/arm-none-eabi/4.6.2/thumb2/libgcc.a(_arm_addsubdf3.o)
__floatsisf                                       /opt/paparazzi/arm-multilib/lib/gcc/arm-none-eabi/4.6.2/thumb2/libgcc.a(_arm_addsubsf3.o)
__floatundidf                                     /opt/paparazzi/arm-multilib/lib/gcc/arm-none-eabi/4.6.2/thumb2/libgcc.a(_arm_addsubdf3.o)
__floatundisf                                     /opt/paparazzi/arm-multilib/lib/gcc/arm-none-eabi/4.6.2/thumb2/libgcc.a(_arm_addsubsf3.o)
__floatunsidf                                     /opt/paparazzi/arm-multilib/lib/gcc/arm-none-eabi/4.6.2/thumb2/libgcc.a(_arm_addsubdf3.o)
__floatunsisf                                     /opt/paparazzi/arm-multilib/lib/gcc/arm-none-eabi/4.6.2/thumb2/libgcc.a(_arm_addsubsf3.o)
__fpclassifyd                                     /opt/paparazzi/arm-multilib/lib/gcc/arm-none-eabi/4.6.2/../../../../arm-none-eabi/lib/thumb2/libm.a(lib_a-s_fpclassify.o)
                                                  /opt/paparazzi/arm-multilib/lib/gcc/arm-none-eabi/4.6.2/../../../../arm-none-eabi/lib/thumb2/libm.a(lib_a-w_sqrt.o)
                                                  /opt/paparazzi/arm-multilib/lib/gcc/arm-none-eabi/4.6.2/../../../../arm-none-eabi/lib/thumb2/libm.a(lib_a-w_pow.o)
                                                  /opt/paparazzi/arm-multilib/lib/gcc/arm-none-eabi/4.6.2/../../../../arm-none-eabi/lib/thumb2/libm.a(lib_a-w_log.o)
                                                  /opt/paparazzi/arm-multilib/lib/gcc/arm-none-eabi/4.6.2/../../../../arm-none-eabi/lib/thumb2/libm.a(lib_a-w_cosh.o)
                                                  /opt/paparazzi/arm-multilib/lib/gcc/arm-none-eabi/4.6.2/../../../../arm-none-eabi/lib/thumb2/libm.a(lib_a-w_asin.o)
__fpclassifyf                                     /opt/paparazzi/arm-multilib/lib/gcc/arm-none-eabi/4.6.2/../../../../arm-none-eabi/lib/thumb2/libm.a(lib_a-sf_fpclassify.o)
                                                  /opt/paparazzi/arm-multilib/lib/gcc/arm-none-eabi/4.6.2/../../../../arm-none-eabi/lib/thumb2/libm.a(lib_a-wf_sqrt.o)
                                                  /opt/paparazzi/arm-multilib/lib/gcc/arm-none-eabi/4.6.2/../../../../arm-none-eabi/lib/thumb2/libm.a(lib_a-wf_pow.o)
                                                  /opt/paparazzi/arm-multilib/lib/gcc/arm-none-eabi/4.6.2/../../../../arm-none-eabi/lib/thumb2/libm.a(lib_a-wf_asin.o)
__gedf2                                           /opt/paparazzi/arm-multilib/lib/gcc/arm-none-eabi/4.6.2/thumb2/libgcc.a(_arm_cmpdf2.o)
__gesf2                                           /opt/paparazzi/arm-multilib/lib/gcc/arm-none-eabi/4.6.2/thumb2/libgcc.a(_arm_cmpsf2.o)
__gtdf2                                           /opt/paparazzi/arm-multilib/lib/gcc/arm-none-eabi/4.6.2/thumb2/libgcc.a(_arm_cmpdf2.o)
__gtsf2                                           /opt/paparazzi/arm-multilib/lib/gcc/arm-none-eabi/4.6.2/thumb2/libgcc.a(_arm_cmpsf2.o)
__ieee754_asin                                    /opt/paparazzi/arm-multilib/lib/gcc/arm-none-eabi/4.6.2/../../../../arm-none-eabi/lib/thumb2/libm.a(lib_a-e_asin.o)
                                                  /opt/paparazzi/arm-multilib/lib/gcc/arm-none-eabi/4.6.2/../../../../arm-none-eabi/lib/thumb2/libm.a(lib_a-w_asin.o)
__ieee754_asinf                                   /opt/paparazzi/arm-multilib/lib/gcc/arm-none-eabi/4.6.2/../../../../arm-none-eabi/lib/thumb2/libm.a(lib_a-ef_asin.o)
                                                  /opt/paparazzi/arm-multilib/lib/gcc/arm-none-eabi/4.6.2/../../../../arm-none-eabi/lib/thumb2/libm.a(lib_a-wf_asin.o)
__ieee754_atan2                                   /opt/paparazzi/arm-multilib/lib/gcc/arm-none-eabi/4.6.2/../../../../arm-none-eabi/lib/thumb2/libm.a(lib_a-e_atan2.o)
                                                  /opt/paparazzi/arm-multilib/lib/gcc/arm-none-eabi/4.6.2/../../../../arm-none-eabi/lib/thumb2/libm.a(lib_a-w_atan2.o)
__ieee754_atan2f                                  /opt/paparazzi/arm-multilib/lib/gcc/arm-none-eabi/4.6.2/../../../../arm-none-eabi/lib/thumb2/libm.a(lib_a-ef_atan2.o)
                                                  /opt/paparazzi/arm-multilib/lib/gcc/arm-none-eabi/4.6.2/../../../../arm-none-eabi/lib/thumb2/libm.a(lib_a-wf_atan2.o)
__ieee754_cosh                                    /opt/paparazzi/arm-multilib/lib/gcc/arm-none-eabi/4.6.2/../../../../arm-none-eabi/lib/thumb2/libm.a(lib_a-e_cosh.o)
                                                  /opt/paparazzi/arm-multilib/lib/gcc/arm-none-eabi/4.6.2/../../../../arm-none-eabi/lib/thumb2/libm.a(lib_a-w_cosh.o)
__ieee754_exp                                     /opt/paparazzi/arm-multilib/lib/gcc/arm-none-eabi/4.6.2/../../../../arm-none-eabi/lib/thumb2/libm.a(lib_a-e_exp.o)
                                                  /opt/paparazzi/arm-multilib/lib/gcc/arm-none-eabi/4.6.2/../../../../arm-none-eabi/lib/thumb2/libm.a(lib_a-e_sinh.o)
                                                  /opt/paparazzi/arm-multilib/lib/gcc/arm-none-eabi/4.6.2/../../../../arm-none-eabi/lib/thumb2/libm.a(lib_a-e_cosh.o)
                                                  /opt/paparazzi/arm-multilib/lib/gcc/arm-none-eabi/4.6.2/../../../../arm-none-eabi/lib/thumb2/libm.a(lib_a-w_exp.o)
__ieee754_log                                     /opt/paparazzi/arm-multilib/lib/gcc/arm-none-eabi/4.6.2/../../../../arm-none-eabi/lib/thumb2/libm.a(lib_a-e_log.o)
                                                  /opt/paparazzi/arm-multilib/lib/gcc/arm-none-eabi/4.6.2/../../../../arm-none-eabi/lib/thumb2/libm.a(lib_a-w_log.o)
__ieee754_pow                                     /opt/paparazzi/arm-multilib/lib/gcc/arm-none-eabi/4.6.2/../../../../arm-none-eabi/lib/thumb2/libm.a(lib_a-e_pow.o)
                                                  /opt/paparazzi/arm-multilib/lib/gcc/arm-none-eabi/4.6.2/../../../../arm-none-eabi/lib/thumb2/libm.a(lib_a-w_pow.o)
__ieee754_powf                                    /opt/paparazzi/arm-multilib/lib/gcc/arm-none-eabi/4.6.2/../../../../arm-none-eabi/lib/thumb2/libm.a(lib_a-ef_pow.o)
                                                  /opt/paparazzi/arm-multilib/lib/gcc/arm-none-eabi/4.6.2/../../../../arm-none-eabi/lib/thumb2/libm.a(lib_a-wf_pow.o)
__ieee754_rem_pio2                                /opt/paparazzi/arm-multilib/lib/gcc/arm-none-eabi/4.6.2/../../../../arm-none-eabi/lib/thumb2/libm.a(lib_a-e_rem_pio2.o)
                                                  /opt/paparazzi/arm-multilib/lib/gcc/arm-none-eabi/4.6.2/../../../../arm-none-eabi/lib/thumb2/libm.a(lib_a-s_tan.o)
                                                  /opt/paparazzi/arm-multilib/lib/gcc/arm-none-eabi/4.6.2/../../../../arm-none-eabi/lib/thumb2/libm.a(lib_a-s_sin.o)
                                                  /opt/paparazzi/arm-multilib/lib/gcc/arm-none-eabi/4.6.2/../../../../arm-none-eabi/lib/thumb2/libm.a(lib_a-s_cos.o)
__ieee754_rem_pio2f                               /opt/paparazzi/arm-multilib/lib/gcc/arm-none-eabi/4.6.2/../../../../arm-none-eabi/lib/thumb2/libm.a(lib_a-ef_rem_pio2.o)
                                                  /opt/paparazzi/arm-multilib/lib/gcc/arm-none-eabi/4.6.2/../../../../arm-none-eabi/lib/thumb2/libm.a(lib_a-sf_sin.o)
                                                  /opt/paparazzi/arm-multilib/lib/gcc/arm-none-eabi/4.6.2/../../../../arm-none-eabi/lib/thumb2/libm.a(lib_a-sf_cos.o)
__ieee754_sinh                                    /opt/paparazzi/arm-multilib/lib/gcc/arm-none-eabi/4.6.2/../../../../arm-none-eabi/lib/thumb2/libm.a(lib_a-e_sinh.o)
                                                  /opt/paparazzi/arm-multilib/lib/gcc/arm-none-eabi/4.6.2/../../../../arm-none-eabi/lib/thumb2/libm.a(lib_a-w_sinh.o)
__ieee754_sqrt                                    /opt/paparazzi/arm-multilib/lib/gcc/arm-none-eabi/4.6.2/../../../../arm-none-eabi/lib/thumb2/libm.a(lib_a-e_sqrt.o)
                                                  /opt/paparazzi/arm-multilib/lib/gcc/arm-none-eabi/4.6.2/../../../../arm-none-eabi/lib/thumb2/libm.a(lib_a-e_pow.o)
                                                  /opt/paparazzi/arm-multilib/lib/gcc/arm-none-eabi/4.6.2/../../../../arm-none-eabi/lib/thumb2/libm.a(lib_a-e_asin.o)
                                                  /opt/paparazzi/arm-multilib/lib/gcc/arm-none-eabi/4.6.2/../../../../arm-none-eabi/lib/thumb2/libm.a(lib_a-w_sqrt.o)
__ieee754_sqrtf                                   /opt/paparazzi/arm-multilib/lib/gcc/arm-none-eabi/4.6.2/../../../../arm-none-eabi/lib/thumb2/libm.a(lib_a-ef_sqrt.o)
                                                  /opt/paparazzi/arm-multilib/lib/gcc/arm-none-eabi/4.6.2/../../../../arm-none-eabi/lib/thumb2/libm.a(lib_a-ef_pow.o)
                                                  /opt/paparazzi/arm-multilib/lib/gcc/arm-none-eabi/4.6.2/../../../../arm-none-eabi/lib/thumb2/libm.a(lib_a-ef_asin.o)
                                                  /opt/paparazzi/arm-multilib/lib/gcc/arm-none-eabi/4.6.2/../../../../arm-none-eabi/lib/thumb2/libm.a(lib_a-wf_sqrt.o)
__kernel_cos                                      /opt/paparazzi/arm-multilib/lib/gcc/arm-none-eabi/4.6.2/../../../../arm-none-eabi/lib/thumb2/libm.a(lib_a-k_cos.o)
                                                  /opt/paparazzi/arm-multilib/lib/gcc/arm-none-eabi/4.6.2/../../../../arm-none-eabi/lib/thumb2/libm.a(lib_a-s_sin.o)
                                                  /opt/paparazzi/arm-multilib/lib/gcc/arm-none-eabi/4.6.2/../../../../arm-none-eabi/lib/thumb2/libm.a(lib_a-s_cos.o)
__kernel_cosf                                     /opt/paparazzi/arm-multilib/lib/gcc/arm-none-eabi/4.6.2/../../../../arm-none-eabi/lib/thumb2/libm.a(lib_a-kf_cos.o)
                                                  /opt/paparazzi/arm-multilib/lib/gcc/arm-none-eabi/4.6.2/../../../../arm-none-eabi/lib/thumb2/libm.a(lib_a-sf_sin.o)
                                                  /opt/paparazzi/arm-multilib/lib/gcc/arm-none-eabi/4.6.2/../../../../arm-none-eabi/lib/thumb2/libm.a(lib_a-sf_cos.o)
__kernel_rem_pio2                                 /opt/paparazzi/arm-multilib/lib/gcc/arm-none-eabi/4.6.2/../../../../arm-none-eabi/lib/thumb2/libm.a(lib_a-k_rem_pio2.o)
                                                  /opt/paparazzi/arm-multilib/lib/gcc/arm-none-eabi/4.6.2/../../../../arm-none-eabi/lib/thumb2/libm.a(lib_a-e_rem_pio2.o)
__kernel_rem_pio2f                                /opt/paparazzi/arm-multilib/lib/gcc/arm-none-eabi/4.6.2/../../../../arm-none-eabi/lib/thumb2/libm.a(lib_a-kf_rem_pio2.o)
                                                  /opt/paparazzi/arm-multilib/lib/gcc/arm-none-eabi/4.6.2/../../../../arm-none-eabi/lib/thumb2/libm.a(lib_a-ef_rem_pio2.o)
__kernel_sin                                      /opt/paparazzi/arm-multilib/lib/gcc/arm-none-eabi/4.6.2/../../../../arm-none-eabi/lib/thumb2/libm.a(lib_a-k_sin.o)
                                                  /opt/paparazzi/arm-multilib/lib/gcc/arm-none-eabi/4.6.2/../../../../arm-none-eabi/lib/thumb2/libm.a(lib_a-s_sin.o)
                                                  /opt/paparazzi/arm-multilib/lib/gcc/arm-none-eabi/4.6.2/../../../../arm-none-eabi/lib/thumb2/libm.a(lib_a-s_cos.o)
__kernel_sinf                                     /opt/paparazzi/arm-multilib/lib/gcc/arm-none-eabi/4.6.2/../../../../arm-none-eabi/lib/thumb2/libm.a(lib_a-kf_sin.o)
                                                  /opt/paparazzi/arm-multilib/lib/gcc/arm-none-eabi/4.6.2/../../../../arm-none-eabi/lib/thumb2/libm.a(lib_a-sf_sin.o)
                                                  /opt/paparazzi/arm-multilib/lib/gcc/arm-none-eabi/4.6.2/../../../../arm-none-eabi/lib/thumb2/libm.a(lib_a-sf_cos.o)
__kernel_tan                                      /opt/paparazzi/arm-multilib/lib/gcc/arm-none-eabi/4.6.2/../../../../arm-none-eabi/lib/thumb2/libm.a(lib_a-k_tan.o)
                                                  /opt/paparazzi/arm-multilib/lib/gcc/arm-none-eabi/4.6.2/../../../../arm-none-eabi/lib/thumb2/libm.a(lib_a-s_tan.o)
__ledf2                                           /opt/paparazzi/arm-multilib/lib/gcc/arm-none-eabi/4.6.2/thumb2/libgcc.a(_arm_cmpdf2.o)
__lesf2                                           /opt/paparazzi/arm-multilib/lib/gcc/arm-none-eabi/4.6.2/thumb2/libgcc.a(_arm_cmpsf2.o)
__ltdf2                                           /opt/paparazzi/arm-multilib/lib/gcc/arm-none-eabi/4.6.2/thumb2/libgcc.a(_arm_cmpdf2.o)
__ltsf2                                           /opt/paparazzi/arm-multilib/lib/gcc/arm-none-eabi/4.6.2/thumb2/libgcc.a(_arm_cmpsf2.o)
__muldf3                                          /opt/paparazzi/arm-multilib/lib/gcc/arm-none-eabi/4.6.2/thumb2/libgcc.a(_arm_muldivdf3.o)
__mulsf3                                          /opt/paparazzi/arm-multilib/lib/gcc/arm-none-eabi/4.6.2/thumb2/libgcc.a(_arm_muldivsf3.o)
__nedf2                                           /opt/paparazzi/arm-multilib/lib/gcc/arm-none-eabi/4.6.2/thumb2/libgcc.a(_arm_cmpdf2.o)
__nesf2                                           /opt/paparazzi/arm-multilib/lib/gcc/arm-none-eabi/4.6.2/thumb2/libgcc.a(_arm_cmpsf2.o)
__subdf3                                          /opt/paparazzi/arm-multilib/lib/gcc/arm-none-eabi/4.6.2/thumb2/libgcc.a(_arm_addsubdf3.o)
__subsf3                                          /opt/paparazzi/arm-multilib/lib/gcc/arm-none-eabi/4.6.2/thumb2/libgcc.a(_arm_addsubsf3.o)
__truncdfsf2                                      /opt/paparazzi/arm-multilib/lib/gcc/arm-none-eabi/4.6.2/thumb2/libgcc.a(_arm_truncdfsf2.o)
_close                                            /home/mav/paparazzi/var/Radian/ap/lisa/plug_sys.o
_ebss                                             /home/mav/paparazzi/var/Radian/ap/arch/stm32/stm32_vector_table.o
_edata                                            /home/mav/paparazzi/var/Radian/ap/arch/stm32/stm32_vector_table.o
_estack                                           /home/mav/paparazzi/var/Radian/ap/arch/stm32/stm32_vector_table.o
_global_impure_ptr                                /opt/paparazzi/arm-multilib/lib/gcc/arm-none-eabi/4.6.2/../../../../arm-none-eabi/lib/thumb2/libc.a(lib_a-impure.o)
_impure_ptr                                       /opt/paparazzi/arm-multilib/lib/gcc/arm-none-eabi/4.6.2/../../../../arm-none-eabi/lib/thumb2/libc.a(lib_a-impure.o)
                                                  /opt/paparazzi/arm-multilib/lib/gcc/arm-none-eabi/4.6.2/../../../../arm-none-eabi/lib/thumb2/libc.a(lib_a-errno.o)
_lseek                                            /home/mav/paparazzi/var/Radian/ap/lisa/plug_sys.o
_read                                             /home/mav/paparazzi/var/Radian/ap/lisa/plug_sys.o
_sbrk                                             /home/mav/paparazzi/var/Radian/ap/lisa/plug_sys.o
_sbss                                             /home/mav/paparazzi/var/Radian/ap/arch/stm32/stm32_vector_table.o
_sdata                                            /home/mav/paparazzi/var/Radian/ap/arch/stm32/stm32_vector_table.o
_sidata                                           /home/mav/paparazzi/var/Radian/ap/arch/stm32/stm32_vector_table.o
_write                                            /home/mav/paparazzi/var/Radian/ap/lisa/plug_sys.o
abort                                             /home/mav/paparazzi/var/Radian/ap/lisa/plug_sys.o
acs_idx                                           /home/mav/paparazzi/var/Radian/ap/subsystems/navigation/traffic_info.o
                                                  /home/mav/paparazzi/var/Radian/ap/firmwares/fixedwing/datalink.o
actuators                                         /home/mav/paparazzi/var/Radian/ap/actuators.o
                                                  /home/mav/paparazzi/var/Radian/ap/firmwares/fixedwing/main_fbw.o
actuators_init                                    /home/mav/paparazzi/var/Radian/ap/arch/stm32/servos_direct_hw.o
                                                  /home/mav/paparazzi/var/Radian/ap/firmwares/fixedwing/main_fbw.o
actuators_pwm_arch_init                           /home/mav/paparazzi/var/Radian/ap/firmwares/rotorcraft/actuators/arch/stm32/actuators_pwm_arch.o
                                                  /home/mav/paparazzi/var/Radian/ap/arch/stm32/servos_direct_hw.o
actuators_pwm_commit                              /home/mav/paparazzi/var/Radian/ap/firmwares/rotorcraft/actuators/arch/stm32/actuators_pwm_arch.o
                                                  /home/mav/paparazzi/var/Radian/ap/firmwares/fixedwing/main_fbw.o
actuators_pwm_values                              /home/mav/paparazzi/var/Radian/ap/arch/stm32/servos_direct_hw.o
                                                  /home/mav/paparazzi/var/Radian/ap/firmwares/rotorcraft/actuators/arch/stm32/actuators_pwm_arch.o
                                                  /home/mav/paparazzi/var/Radian/ap/firmwares/fixedwing/main_fbw.o
adc1_2_irq_handler                                /home/mav/paparazzi/var/Radian/ap/arch/stm32/mcu_periph/adc_arch.o
                                                  /home/mav/paparazzi/var/Radian/ap/arch/stm32/stm32_vector_table.o
adc_buf_channel                                   /home/mav/paparazzi/var/Radian/ap/arch/stm32/mcu_periph/adc_arch.o
                                                  /home/mav/paparazzi/var/Radian/ap/subsystems/electrical.o
adc_init                                          /home/mav/paparazzi/var/Radian/ap/arch/stm32/mcu_periph/adc_arch.o
                                                  /home/mav/paparazzi/var/Radian/ap/mcu.o
adc_new_data_trigger                              /home/mav/paparazzi/var/Radian/ap/arch/stm32/mcu_periph/adc_arch.o
ahrs                                              /home/mav/paparazzi/var/Radian/ap/subsystems/ahrs.o
                                                  /home/mav/paparazzi/var/Radian/ap/subsystems/ahrs/ahrs_int_cmpl_quat.o
                                                  /home/mav/paparazzi/var/Radian/ap/firmwares/fixedwing/main_ap.o
ahrs_align                                        /home/mav/paparazzi/var/Radian/ap/subsystems/ahrs/ahrs_int_cmpl_quat.o
                                                  /home/mav/paparazzi/var/Radian/ap/firmwares/fixedwing/main_ap.o
ahrs_aligner                                      /home/mav/paparazzi/var/Radian/ap/subsystems/ahrs/ahrs_aligner.o
                                                  /home/mav/paparazzi/var/Radian/ap/subsystems/ahrs/ahrs_int_cmpl_quat.o
                                                  /home/mav/paparazzi/var/Radian/ap/firmwares/fixedwing/main_ap.o
ahrs_aligner_init                                 /home/mav/paparazzi/var/Radian/ap/subsystems/ahrs/ahrs_aligner.o
                                                  /home/mav/paparazzi/var/Radian/ap/firmwares/fixedwing/main_ap.o
ahrs_aligner_run                                  /home/mav/paparazzi/var/Radian/ap/subsystems/ahrs/ahrs_aligner.o
                                                  /home/mav/paparazzi/var/Radian/ap/firmwares/fixedwing/main_ap.o
ahrs_float                                        /home/mav/paparazzi/var/Radian/ap/subsystems/ahrs.o
ahrs_impl                                         /home/mav/paparazzi/var/Radian/ap/subsystems/ahrs/ahrs_int_cmpl_quat.o
ahrs_init                                         /home/mav/paparazzi/var/Radian/ap/subsystems/ahrs/ahrs_int_cmpl_quat.o
                                                  /home/mav/paparazzi/var/Radian/ap/firmwares/fixedwing/main_ap.o
ahrs_mag_offset                                   /home/mav/paparazzi/var/Radian/ap/subsystems/ahrs.o
ahrs_propagate                                    /home/mav/paparazzi/var/Radian/ap/subsystems/ahrs/ahrs_int_cmpl_quat.o
                                                  /home/mav/paparazzi/var/Radian/ap/firmwares/fixedwing/main_ap.o
ahrs_realign_heading                              /home/mav/paparazzi/var/Radian/ap/subsystems/ahrs/ahrs_int_cmpl_quat.o
ahrs_timeout_counter                              /home/mav/paparazzi/var/Radian/ap/firmwares/fixedwing/main_ap.o
ahrs_update_accel                                 /home/mav/paparazzi/var/Radian/ap/subsystems/ahrs/ahrs_int_cmpl_quat.o
                                                  /home/mav/paparazzi/var/Radian/ap/firmwares/fixedwing/main_ap.o
ahrs_update_fw_estimator                          /home/mav/paparazzi/var/Radian/ap/subsystems/ahrs/ahrs_int_cmpl_quat.o
                                                  /home/mav/paparazzi/var/Radian/ap/firmwares/fixedwing/main_ap.o
ahrs_update_gps                                   /home/mav/paparazzi/var/Radian/ap/subsystems/ahrs/ahrs_int_cmpl_quat.o
                                                  /home/mav/paparazzi/var/Radian/ap/firmwares/fixedwing/main_ap.o
ahrs_update_heading                               /home/mav/paparazzi/var/Radian/ap/subsystems/ahrs/ahrs_int_cmpl_quat.o
ahrs_update_mag                                   /home/mav/paparazzi/var/Radian/ap/subsystems/ahrs/ahrs_int_cmpl_quat.o
                                                  /home/mav/paparazzi/var/Radian/ap/firmwares/fixedwing/main_ap.o
alt_kalman_enabled                                /home/mav/paparazzi/var/Radian/ap/./estimator.o
ap_ok                                             /home/mav/paparazzi/var/Radian/ap/./inter_mcu.o
                                                  /home/mav/paparazzi/var/Radian/ap/firmwares/fixedwing/main_fbw.o
ap_state                                          /home/mav/paparazzi/var/Radian/ap/./inter_mcu.o
                                                  /home/mav/paparazzi/var/Radian/ap/firmwares/fixedwing/main_ap.o
                                                  /home/mav/paparazzi/var/Radian/ap/firmwares/fixedwing/main_fbw.o
asin                                              /opt/paparazzi/arm-multilib/lib/gcc/arm-none-eabi/4.6.2/../../../../arm-none-eabi/lib/thumb2/libm.a(lib_a-w_asin.o)
                                                  /home/mav/paparazzi/var/Radian/ap/math/pprz_geodetic_double.o
                                                  /home/mav/paparazzi/var/Radian/ap/math/pprz_geodetic_float.o
asinf                                             /opt/paparazzi/arm-multilib/lib/gcc/arm-none-eabi/4.6.2/../../../../arm-none-eabi/lib/thumb2/libm.a(lib_a-wf_asin.o)
                                                  /home/mav/paparazzi/var/Radian/ap/subsystems/ahrs/ahrs_int_cmpl_quat.o
aspirin2_mpu60x0                                  /home/mav/paparazzi/var/Radian/ap/subsystems/imu/imu_aspirin2.o
assert_param                                      /home/mav/paparazzi/var/Radian/ap/arch/stm32/stm32_vector_table.o
atan                                              /opt/paparazzi/arm-multilib/lib/gcc/arm-none-eabi/4.6.2/../../../../arm-none-eabi/lib/thumb2/libm.a(lib_a-s_atan.o)
                                                  /opt/paparazzi/arm-multilib/lib/gcc/arm-none-eabi/4.6.2/../../../../arm-none-eabi/lib/thumb2/libm.a(lib_a-e_atan2.o)
                                                  /home/mav/paparazzi/var/Radian/ap/subsystems/nav.o
                                                  /home/mav/paparazzi/var/Radian/ap/math/pprz_geodetic_double.o
                                                  /home/mav/paparazzi/var/Radian/ap/math/pprz_geodetic_float.o
atan2                                             /opt/paparazzi/arm-multilib/lib/gcc/arm-none-eabi/4.6.2/../../../../arm-none-eabi/lib/thumb2/libm.a(lib_a-w_atan2.o)
                                                  /home/mav/paparazzi/var/Radian/ap/subsystems/navigation/nav_line.o
                                                  /home/mav/paparazzi/var/Radian/ap/subsystems/nav.o
                                                  /home/mav/paparazzi/var/Radian/ap/math/pprz_geodetic_double.o
atan2f                                            /opt/paparazzi/arm-multilib/lib/gcc/arm-none-eabi/4.6.2/../../../../arm-none-eabi/lib/thumb2/libm.a(lib_a-wf_atan2.o)
                                                  /home/mav/paparazzi/var/Radian/ap/subsystems/ahrs/ahrs_int_cmpl_quat.o
                                                  /home/mav/paparazzi/var/Radian/ap/math/pprz_geodetic_float.o
atanf                                             /opt/paparazzi/arm-multilib/lib/gcc/arm-none-eabi/4.6.2/../../../../arm-none-eabi/lib/thumb2/libm.a(lib_a-sf_atan.o)
                                                  /opt/paparazzi/arm-multilib/lib/gcc/arm-none-eabi/4.6.2/../../../../arm-none-eabi/lib/thumb2/libm.a(lib_a-ef_atan2.o)
                                                  /home/mav/paparazzi/var/Radian/ap/math/pprz_geodetic_float.o
attitude_loop                                     /home/mav/paparazzi/var/Radian/ap/firmwares/fixedwing/main_ap.o
attitude_tid                                      /home/mav/paparazzi/var/Radian/ap/firmwares/fixedwing/main_ap.o
block_time                                        /home/mav/paparazzi/var/Radian/ap/subsystems/navigation/common_flight_plan.o
                                                  /home/mav/paparazzi/var/Radian/ap/subsystems/nav.o
                                                  /home/mav/paparazzi/var/Radian/ap/firmwares/fixedwing/main_ap.o
bus_fault_exception                               /home/mav/paparazzi/var/Radian/ap/arch/stm32/stm32_exceptions.o
                                                  /home/mav/paparazzi/var/Radian/ap/arch/stm32/stm32_vector_table.o
carrot_x                                          /home/mav/paparazzi/var/Radian/ap/subsystems/nav.o
carrot_y                                          /home/mav/paparazzi/var/Radian/ap/subsystems/nav.o
circle_bank                                       /home/mav/paparazzi/var/Radian/ap/subsystems/nav.o
ck_a                                              /home/mav/paparazzi/var/Radian/ap/subsystems/datalink/pprz_transport.o
                                                  /home/mav/paparazzi/var/Radian/ap/subsystems/gps/gps_ubx.o
                                                  /home/mav/paparazzi/var/Radian/ap/firmwares/fixedwing/datalink.o
                                                  /home/mav/paparazzi/var/Radian/ap/firmwares/fixedwing/main_ap.o
                                                  /home/mav/paparazzi/var/Radian/ap/firmwares/fixedwing/main_fbw.o
ck_b                                              /home/mav/paparazzi/var/Radian/ap/subsystems/datalink/pprz_transport.o
                                                  /home/mav/paparazzi/var/Radian/ap/subsystems/gps/gps_ubx.o
                                                  /home/mav/paparazzi/var/Radian/ap/firmwares/fixedwing/datalink.o
                                                  /home/mav/paparazzi/var/Radian/ap/firmwares/fixedwing/main_ap.o
                                                  /home/mav/paparazzi/var/Radian/ap/firmwares/fixedwing/main_fbw.o
command_pitch_trim                                /home/mav/paparazzi/var/Radian/ap/./commands.o
                                                  /home/mav/paparazzi/var/Radian/ap/firmwares/fixedwing/main_fbw.o
command_roll_trim                                 /home/mav/paparazzi/var/Radian/ap/./commands.o
                                                  /home/mav/paparazzi/var/Radian/ap/firmwares/fixedwing/main_fbw.o
commands                                          /home/mav/paparazzi/var/Radian/ap/./commands.o
                                                  /home/mav/paparazzi/var/Radian/ap/firmwares/fixedwing/main_fbw.o
commands_failsafe                                 /home/mav/paparazzi/var/Radian/ap/./commands.o
                                                  /home/mav/paparazzi/var/Radian/ap/firmwares/fixedwing/main_fbw.o
common_nav_periodic_task_4Hz                      /home/mav/paparazzi/var/Radian/ap/subsystems/nav.o
                                                  /home/mav/paparazzi/var/Radian/ap/firmwares/fixedwing/main_ap.o
compute_dist2_to_home                             /home/mav/paparazzi/var/Radian/ap/subsystems/nav.o
copysign                                          /opt/paparazzi/arm-multilib/lib/gcc/arm-none-eabi/4.6.2/../../../../arm-none-eabi/lib/thumb2/libm.a(lib_a-s_copysign.o)
                                                  /opt/paparazzi/arm-multilib/lib/gcc/arm-none-eabi/4.6.2/../../../../arm-none-eabi/lib/thumb2/libm.a(lib_a-s_scalbn.o)
copysignf                                         /opt/paparazzi/arm-multilib/lib/gcc/arm-none-eabi/4.6.2/../../../../arm-none-eabi/lib/thumb2/libm.a(lib_a-sf_copysign.o)
                                                  /opt/paparazzi/arm-multilib/lib/gcc/arm-none-eabi/4.6.2/../../../../arm-none-eabi/lib/thumb2/libm.a(lib_a-sf_scalbn.o)
cos                                               /opt/paparazzi/arm-multilib/lib/gcc/arm-none-eabi/4.6.2/../../../../arm-none-eabi/lib/thumb2/libm.a(lib_a-s_cos.o)
                                                  /home/mav/paparazzi/var/Radian/ap/subsystems/nav.o
                                                  /home/mav/paparazzi/var/Radian/ap/math/pprz_geodetic_double.o
                                                  /home/mav/paparazzi/var/Radian/ap/math/pprz_geodetic_float.o
cosf                                              /opt/paparazzi/arm-multilib/lib/gcc/arm-none-eabi/4.6.2/../../../../arm-none-eabi/lib/thumb2/libm.a(lib_a-sf_cos.o)
                                                  /home/mav/paparazzi/var/Radian/ap/math/pprz_geodetic_double.o
                                                  /home/mav/paparazzi/var/Radian/ap/math/pprz_geodetic_float.o
                                                  /home/mav/paparazzi/var/Radian/ap/math/pprz_geodetic_int.o
cosh                                              /opt/paparazzi/arm-multilib/lib/gcc/arm-none-eabi/4.6.2/../../../../arm-none-eabi/lib/thumb2/libm.a(lib_a-w_cosh.o)
                                                  /home/mav/paparazzi/var/Radian/ap/math/pprz_geodetic_double.o
                                                  /home/mav/paparazzi/var/Radian/ap/math/pprz_geodetic_float.o
datalink_time                                     /home/mav/paparazzi/var/Radian/ap/firmwares/fixedwing/datalink.o
                                                  /home/mav/paparazzi/var/Radian/ap/firmwares/fixedwing/main_ap.o
desired_x                                         /home/mav/paparazzi/var/Radian/ap/subsystems/nav.o
                                                  /home/mav/paparazzi/var/Radian/ap/firmwares/fixedwing/main_ap.o
desired_y                                         /home/mav/paparazzi/var/Radian/ap/subsystems/nav.o
                                                  /home/mav/paparazzi/var/Radian/ap/firmwares/fixedwing/main_ap.o
dist2_to_home                                     /home/mav/paparazzi/var/Radian/ap/subsystems/nav.o
                                                  /home/mav/paparazzi/var/Radian/ap/firmwares/fixedwing/datalink.o
                                                  /home/mav/paparazzi/var/Radian/ap/firmwares/fixedwing/main_ap.o
dist2_to_wp                                       /home/mav/paparazzi/var/Radian/ap/subsystems/nav.o
                                                  /home/mav/paparazzi/var/Radian/ap/firmwares/fixedwing/datalink.o
                                                  /home/mav/paparazzi/var/Radian/ap/firmwares/fixedwing/main_ap.o
dl_buffer                                         /home/mav/paparazzi/var/Radian/ap/firmwares/fixedwing/datalink.o
                                                  /home/mav/paparazzi/var/Radian/ap/firmwares/fixedwing/main_ap.o
dl_msg_available                                  /home/mav/paparazzi/var/Radian/ap/firmwares/fixedwing/datalink.o
                                                  /home/mav/paparazzi/var/Radian/ap/firmwares/fixedwing/main_ap.o
dl_parse_msg                                      /home/mav/paparazzi/var/Radian/ap/firmwares/fixedwing/datalink.o
                                                  /home/mav/paparazzi/var/Radian/ap/firmwares/fixedwing/main_ap.o
dma1_c4_irq_handler                               /home/mav/paparazzi/var/Radian/ap/arch/stm32/mcu_periph/spi_arch.o
                                                  /home/mav/paparazzi/var/Radian/ap/arch/stm32/stm32_vector_table.o
downlink_nb_bytes                                 /home/mav/paparazzi/var/Radian/ap/subsystems/datalink/downlink.o
                                                  /home/mav/paparazzi/var/Radian/ap/subsystems/gps/gps_ubx.o
                                                  /home/mav/paparazzi/var/Radian/ap/firmwares/fixedwing/datalink.o
                                                  /home/mav/paparazzi/var/Radian/ap/firmwares/fixedwing/main_ap.o
                                                  /home/mav/paparazzi/var/Radian/ap/firmwares/fixedwing/main_fbw.o
downlink_nb_msgs                                  /home/mav/paparazzi/var/Radian/ap/subsystems/datalink/downlink.o
                                                  /home/mav/paparazzi/var/Radian/ap/subsystems/gps/gps_ubx.o
                                                  /home/mav/paparazzi/var/Radian/ap/firmwares/fixedwing/datalink.o
                                                  /home/mav/paparazzi/var/Radian/ap/firmwares/fixedwing/main_ap.o
                                                  /home/mav/paparazzi/var/Radian/ap/firmwares/fixedwing/main_fbw.o
downlink_nb_ovrn                                  /home/mav/paparazzi/var/Radian/ap/subsystems/datalink/downlink.o
                                                  /home/mav/paparazzi/var/Radian/ap/subsystems/gps/gps_ubx.o
                                                  /home/mav/paparazzi/var/Radian/ap/firmwares/fixedwing/datalink.o
                                                  /home/mav/paparazzi/var/Radian/ap/firmwares/fixedwing/main_ap.o
                                                  /home/mav/paparazzi/var/Radian/ap/firmwares/fixedwing/main_fbw.o
ecef_of_enu_point_d                               /home/mav/paparazzi/var/Radian/ap/math/pprz_geodetic_double.o
ecef_of_enu_point_f                               /home/mav/paparazzi/var/Radian/ap/math/pprz_geodetic_float.o
ecef_of_enu_point_i                               /home/mav/paparazzi/var/Radian/ap/math/pprz_geodetic_int.o
ecef_of_enu_vect_d                                /home/mav/paparazzi/var/Radian/ap/math/pprz_geodetic_double.o
ecef_of_enu_vect_f                                /home/mav/paparazzi/var/Radian/ap/math/pprz_geodetic_float.o
ecef_of_enu_vect_i                                /home/mav/paparazzi/var/Radian/ap/math/pprz_geodetic_int.o
ecef_of_lla_d                                     /home/mav/paparazzi/var/Radian/ap/math/pprz_geodetic_double.o
                                                  /home/mav/paparazzi/var/Radian/ap/math/pprz_geodetic_int.o
ecef_of_lla_f                                     /home/mav/paparazzi/var/Radian/ap/math/pprz_geodetic_float.o
ecef_of_lla_i                                     /home/mav/paparazzi/var/Radian/ap/math/pprz_geodetic_int.o
ecef_of_ned_point_d                               /home/mav/paparazzi/var/Radian/ap/math/pprz_geodetic_double.o
ecef_of_ned_point_f                               /home/mav/paparazzi/var/Radian/ap/math/pprz_geodetic_float.o
ecef_of_ned_point_i                               /home/mav/paparazzi/var/Radian/ap/math/pprz_geodetic_int.o
ecef_of_ned_vect_d                                /home/mav/paparazzi/var/Radian/ap/math/pprz_geodetic_double.o
ecef_of_ned_vect_f                                /home/mav/paparazzi/var/Radian/ap/math/pprz_geodetic_float.o
ecef_of_ned_vect_i                                /home/mav/paparazzi/var/Radian/ap/math/pprz_geodetic_int.o
electrical                                        /home/mav/paparazzi/var/Radian/ap/subsystems/electrical.o
                                                  /home/mav/paparazzi/var/Radian/ap/firmwares/fixedwing/main_fbw.o
electrical_init                                   /home/mav/paparazzi/var/Radian/ap/subsystems/electrical.o
                                                  /home/mav/paparazzi/var/Radian/ap/firmwares/fixedwing/main_fbw.o
electrical_periodic                               /home/mav/paparazzi/var/Radian/ap/subsystems/electrical.o
                                                  /home/mav/paparazzi/var/Radian/ap/firmwares/fixedwing/main_fbw.o
electrical_tid                                    /home/mav/paparazzi/var/Radian/ap/firmwares/fixedwing/main_fbw.o
energy                                            /home/mav/paparazzi/var/Radian/ap/firmwares/fixedwing/main_ap.o
enu_of_ecef_point_d                               /home/mav/paparazzi/var/Radian/ap/math/pprz_geodetic_double.o
enu_of_ecef_point_f                               /home/mav/paparazzi/var/Radian/ap/math/pprz_geodetic_float.o
enu_of_ecef_point_i                               /home/mav/paparazzi/var/Radian/ap/math/pprz_geodetic_int.o
enu_of_ecef_vect_d                                /home/mav/paparazzi/var/Radian/ap/math/pprz_geodetic_double.o
enu_of_ecef_vect_f                                /home/mav/paparazzi/var/Radian/ap/math/pprz_geodetic_float.o
enu_of_ecef_vect_i                                /home/mav/paparazzi/var/Radian/ap/math/pprz_geodetic_int.o
enu_of_lla_point_f                                /home/mav/paparazzi/var/Radian/ap/math/pprz_geodetic_float.o
enu_of_lla_point_i                                /home/mav/paparazzi/var/Radian/ap/math/pprz_geodetic_int.o
enu_of_lla_vect_i                                 /home/mav/paparazzi/var/Radian/ap/math/pprz_geodetic_int.o
estimator_AOA                                     /home/mav/paparazzi/var/Radian/ap/./estimator.o
estimator_airspeed                                /home/mav/paparazzi/var/Radian/ap/./estimator.o
                                                  /home/mav/paparazzi/var/Radian/ap/firmwares/fixedwing/datalink.o
estimator_flight_time                             /home/mav/paparazzi/var/Radian/ap/./estimator.o
                                                  /home/mav/paparazzi/var/Radian/ap/subsystems/nav.o
                                                  /home/mav/paparazzi/var/Radian/ap/firmwares/fixedwing/datalink.o
                                                  /home/mav/paparazzi/var/Radian/ap/firmwares/fixedwing/main_ap.o
estimator_hspeed_dir                              /home/mav/paparazzi/var/Radian/ap/./estimator.o
                                                  /home/mav/paparazzi/var/Radian/ap/subsystems/navigation/nav_survey_rectangle.o
                                                  /home/mav/paparazzi/var/Radian/ap/subsystems/nav.o
                                                  /home/mav/paparazzi/var/Radian/ap/firmwares/fixedwing/stabilization/stabilization_attitude.o
estimator_hspeed_mod                              /home/mav/paparazzi/var/Radian/ap/./estimator.o
                                                  /home/mav/paparazzi/var/Radian/ap/subsystems/nav.o
                                                  /home/mav/paparazzi/var/Radian/ap/firmwares/fixedwing/stabilization/stabilization_attitude.o
                                                  /home/mav/paparazzi/var/Radian/ap/firmwares/fixedwing/main_ap.o
estimator_init                                    /home/mav/paparazzi/var/Radian/ap/./estimator.o
                                                  /home/mav/paparazzi/var/Radian/ap/firmwares/fixedwing/main_ap.o
estimator_p                                       /home/mav/paparazzi/var/Radian/ap/./estimator.o
                                                  /home/mav/paparazzi/var/Radian/ap/subsystems/ahrs/ahrs_int_cmpl_quat.o
estimator_phi                                     /home/mav/paparazzi/var/Radian/ap/./estimator.o
                                                  /home/mav/paparazzi/var/Radian/ap/subsystems/ahrs/ahrs_int_cmpl_quat.o
                                                  /home/mav/paparazzi/var/Radian/ap/firmwares/fixedwing/stabilization/stabilization_attitude.o
                                                  /home/mav/paparazzi/var/Radian/ap/firmwares/fixedwing/main_ap.o
estimator_psi                                     /home/mav/paparazzi/var/Radian/ap/./estimator.o
                                                  /home/mav/paparazzi/var/Radian/ap/subsystems/ahrs/ahrs_int_cmpl_quat.o
                                                  /home/mav/paparazzi/var/Radian/ap/firmwares/fixedwing/main_ap.o
estimator_q                                       /home/mav/paparazzi/var/Radian/ap/./estimator.o
                                                  /home/mav/paparazzi/var/Radian/ap/subsystems/ahrs/ahrs_int_cmpl_quat.o
estimator_r                                       /home/mav/paparazzi/var/Radian/ap/./estimator.o
                                                  /home/mav/paparazzi/var/Radian/ap/subsystems/ahrs/ahrs_int_cmpl_quat.o
estimator_t                                       /home/mav/paparazzi/var/Radian/ap/./estimator.o
estimator_theta                                   /home/mav/paparazzi/var/Radian/ap/./estimator.o
                                                  /home/mav/paparazzi/var/Radian/ap/subsystems/ahrs/ahrs_int_cmpl_quat.o
                                                  /home/mav/paparazzi/var/Radian/ap/firmwares/fixedwing/stabilization/stabilization_attitude.o
                                                  /home/mav/paparazzi/var/Radian/ap/firmwares/fixedwing/main_ap.o
estimator_update_state_gps                        /home/mav/paparazzi/var/Radian/ap/./estimator.o
                                                  /home/mav/paparazzi/var/Radian/ap/firmwares/fixedwing/main_ap.o
estimator_x                                       /home/mav/paparazzi/var/Radian/ap/./estimator.o
                                                  /home/mav/paparazzi/var/Radian/ap/subsystems/navigation/nav_survey_rectangle.o
                                                  /home/mav/paparazzi/var/Radian/ap/subsystems/nav.o
                                                  /home/mav/paparazzi/var/Radian/ap/firmwares/fixedwing/datalink.o
                                                  /home/mav/paparazzi/var/Radian/ap/firmwares/fixedwing/main_ap.o
estimator_y                                       /home/mav/paparazzi/var/Radian/ap/./estimator.o
                                                  /home/mav/paparazzi/var/Radian/ap/subsystems/navigation/nav_survey_rectangle.o
                                                  /home/mav/paparazzi/var/Radian/ap/subsystems/nav.o
                                                  /home/mav/paparazzi/var/Radian/ap/firmwares/fixedwing/datalink.o
                                                  /home/mav/paparazzi/var/Radian/ap/firmwares/fixedwing/main_ap.o
estimator_z                                       /home/mav/paparazzi/var/Radian/ap/./estimator.o
                                                  /home/mav/paparazzi/var/Radian/ap/subsystems/nav.o
                                                  /home/mav/paparazzi/var/Radian/ap/firmwares/fixedwing/guidance/guidance_v.o
                                                  /home/mav/paparazzi/var/Radian/ap/firmwares/fixedwing/main_ap.o
estimator_z_dot                                   /home/mav/paparazzi/var/Radian/ap/./estimator.o
                                                  /home/mav/paparazzi/var/Radian/ap/firmwares/fixedwing/guidance/guidance_v.o
                                                  /home/mav/paparazzi/var/Radian/ap/firmwares/fixedwing/main_ap.o
event_task_ap                                     /home/mav/paparazzi/var/Radian/ap/firmwares/fixedwing/main_ap.o
                                                  /home/mav/paparazzi/var/Radian/ap/firmwares/fixedwing/main.o
event_task_fbw                                    /home/mav/paparazzi/var/Radian/ap/firmwares/fixedwing/main_fbw.o
                                                  /home/mav/paparazzi/var/Radian/ap/firmwares/fixedwing/main.o
exp                                               /opt/paparazzi/arm-multilib/lib/gcc/arm-none-eabi/4.6.2/../../../../arm-none-eabi/lib/thumb2/libm.a(lib_a-w_exp.o)
                                                  /home/mav/paparazzi/var/Radian/ap/math/pprz_geodetic_double.o
                                                  /home/mav/paparazzi/var/Radian/ap/math/pprz_geodetic_float.o
expm1                                             /opt/paparazzi/arm-multilib/lib/gcc/arm-none-eabi/4.6.2/../../../../arm-none-eabi/lib/thumb2/libm.a(lib_a-s_expm1.o)
                                                  /opt/paparazzi/arm-multilib/lib/gcc/arm-none-eabi/4.6.2/../../../../arm-none-eabi/lib/thumb2/libm.a(lib_a-e_sinh.o)
                                                  /opt/paparazzi/arm-multilib/lib/gcc/arm-none-eabi/4.6.2/../../../../arm-none-eabi/lib/thumb2/libm.a(lib_a-e_cosh.o)
exti15_10_irq_handler                             /home/mav/paparazzi/var/Radian/ap/arch/stm32/subsystems/imu/imu_aspirin2_arch.o
fabs                                              /opt/paparazzi/arm-multilib/lib/gcc/arm-none-eabi/4.6.2/../../../../arm-none-eabi/lib/thumb2/libm.a(lib_a-s_fabs.o)
                                                  /opt/paparazzi/arm-multilib/lib/gcc/arm-none-eabi/4.6.2/../../../../arm-none-eabi/lib/thumb2/libm.a(lib_a-k_tan.o)
                                                  /opt/paparazzi/arm-multilib/lib/gcc/arm-none-eabi/4.6.2/../../../../arm-none-eabi/lib/thumb2/libm.a(lib_a-e_sinh.o)
                                                  /opt/paparazzi/arm-multilib/lib/gcc/arm-none-eabi/4.6.2/../../../../arm-none-eabi/lib/thumb2/libm.a(lib_a-e_rem_pio2.o)
                                                  /opt/paparazzi/arm-multilib/lib/gcc/arm-none-eabi/4.6.2/../../../../arm-none-eabi/lib/thumb2/libm.a(lib_a-e_pow.o)
                                                  /opt/paparazzi/arm-multilib/lib/gcc/arm-none-eabi/4.6.2/../../../../arm-none-eabi/lib/thumb2/libm.a(lib_a-e_cosh.o)
                                                  /opt/paparazzi/arm-multilib/lib/gcc/arm-none-eabi/4.6.2/../../../../arm-none-eabi/lib/thumb2/libm.a(lib_a-e_atan2.o)
                                                  /opt/paparazzi/arm-multilib/lib/gcc/arm-none-eabi/4.6.2/../../../../arm-none-eabi/lib/thumb2/libm.a(lib_a-e_asin.o)
                                                  /opt/paparazzi/arm-multilib/lib/gcc/arm-none-eabi/4.6.2/../../../../arm-none-eabi/lib/thumb2/libm.a(lib_a-w_cosh.o)
                                                  /opt/paparazzi/arm-multilib/lib/gcc/arm-none-eabi/4.6.2/../../../../arm-none-eabi/lib/thumb2/libm.a(lib_a-w_asin.o)
                                                  /opt/paparazzi/arm-multilib/lib/gcc/arm-none-eabi/4.6.2/../../../../arm-none-eabi/lib/thumb2/libm.a(lib_a-s_atan.o)
fabsf                                             /opt/paparazzi/arm-multilib/lib/gcc/arm-none-eabi/4.6.2/../../../../arm-none-eabi/lib/thumb2/libm.a(lib_a-sf_fabs.o)
                                                  /opt/paparazzi/arm-multilib/lib/gcc/arm-none-eabi/4.6.2/../../../../arm-none-eabi/lib/thumb2/libm.a(lib_a-ef_rem_pio2.o)
                                                  /opt/paparazzi/arm-multilib/lib/gcc/arm-none-eabi/4.6.2/../../../../arm-none-eabi/lib/thumb2/libm.a(lib_a-ef_pow.o)
                                                  /opt/paparazzi/arm-multilib/lib/gcc/arm-none-eabi/4.6.2/../../../../arm-none-eabi/lib/thumb2/libm.a(lib_a-ef_atan2.o)
                                                  /opt/paparazzi/arm-multilib/lib/gcc/arm-none-eabi/4.6.2/../../../../arm-none-eabi/lib/thumb2/libm.a(lib_a-ef_asin.o)
                                                  /opt/paparazzi/arm-multilib/lib/gcc/arm-none-eabi/4.6.2/../../../../arm-none-eabi/lib/thumb2/libm.a(lib_a-wf_asin.o)
                                                  /opt/paparazzi/arm-multilib/lib/gcc/arm-none-eabi/4.6.2/../../../../arm-none-eabi/lib/thumb2/libm.a(lib_a-sf_atan.o)
fbw_mode                                          /home/mav/paparazzi/var/Radian/ap/firmwares/fixedwing/main_fbw.o
fbw_new_actuators                                 /home/mav/paparazzi/var/Radian/ap/firmwares/fixedwing/main_fbw.o
fbw_periodic_tid                                  /home/mav/paparazzi/var/Radian/ap/firmwares/fixedwing/main_fbw.o
fbw_state                                         /home/mav/paparazzi/var/Radian/ap/./inter_mcu.o
                                                  /home/mav/paparazzi/var/Radian/ap/firmwares/fixedwing/main_ap.o
                                                  /home/mav/paparazzi/var/Radian/ap/firmwares/fixedwing/main_fbw.o
finite                                            /opt/paparazzi/arm-multilib/lib/gcc/arm-none-eabi/4.6.2/../../../../arm-none-eabi/lib/thumb2/libm.a(lib_a-s_finite.o)
                                                  /opt/paparazzi/arm-multilib/lib/gcc/arm-none-eabi/4.6.2/../../../../arm-none-eabi/lib/thumb2/libm.a(lib_a-w_sinh.o)
                                                  /opt/paparazzi/arm-multilib/lib/gcc/arm-none-eabi/4.6.2/../../../../arm-none-eabi/lib/thumb2/libm.a(lib_a-w_pow.o)
                                                  /opt/paparazzi/arm-multilib/lib/gcc/arm-none-eabi/4.6.2/../../../../arm-none-eabi/lib/thumb2/libm.a(lib_a-w_exp.o)
finitef                                           /opt/paparazzi/arm-multilib/lib/gcc/arm-none-eabi/4.6.2/../../../../arm-none-eabi/lib/thumb2/libm.a(lib_a-sf_finite.o)
                                                  /opt/paparazzi/arm-multilib/lib/gcc/arm-none-eabi/4.6.2/../../../../arm-none-eabi/lib/thumb2/libm.a(lib_a-wf_pow.o)
flash_clear_bsy_flag                              /opt/paparazzi/arm-multilib/lib/gcc/arm-none-eabi/4.6.2/../../../../arm-none-eabi/lib/libopencm3_stm32.a(flash.o)
flash_clear_eop_flag                              /opt/paparazzi/arm-multilib/lib/gcc/arm-none-eabi/4.6.2/../../../../arm-none-eabi/lib/libopencm3_stm32.a(flash.o)
flash_clear_pgerr_flag                            /opt/paparazzi/arm-multilib/lib/gcc/arm-none-eabi/4.6.2/../../../../arm-none-eabi/lib/libopencm3_stm32.a(flash.o)
flash_clear_status_flags                          /opt/paparazzi/arm-multilib/lib/gcc/arm-none-eabi/4.6.2/../../../../arm-none-eabi/lib/libopencm3_stm32.a(flash.o)
flash_clear_wrprterr_flag                         /opt/paparazzi/arm-multilib/lib/gcc/arm-none-eabi/4.6.2/../../../../arm-none-eabi/lib/libopencm3_stm32.a(flash.o)
flash_erase_all_pages                             /opt/paparazzi/arm-multilib/lib/gcc/arm-none-eabi/4.6.2/../../../../arm-none-eabi/lib/libopencm3_stm32.a(flash.o)
flash_erase_option_bytes                          /opt/paparazzi/arm-multilib/lib/gcc/arm-none-eabi/4.6.2/../../../../arm-none-eabi/lib/libopencm3_stm32.a(flash.o)
flash_erase_page                                  /opt/paparazzi/arm-multilib/lib/gcc/arm-none-eabi/4.6.2/../../../../arm-none-eabi/lib/libopencm3_stm32.a(flash.o)
                                                  /home/mav/paparazzi/var/Radian/ap/arch/stm32/subsystems/settings_arch.o
flash_halfcycle_disable                           /opt/paparazzi/arm-multilib/lib/gcc/arm-none-eabi/4.6.2/../../../../arm-none-eabi/lib/libopencm3_stm32.a(flash.o)
flash_halfcycle_enable                            /opt/paparazzi/arm-multilib/lib/gcc/arm-none-eabi/4.6.2/../../../../arm-none-eabi/lib/libopencm3_stm32.a(flash.o)
flash_lock                                        /opt/paparazzi/arm-multilib/lib/gcc/arm-none-eabi/4.6.2/../../../../arm-none-eabi/lib/libopencm3_stm32.a(flash.o)
                                                  /home/mav/paparazzi/var/Radian/ap/arch/stm32/subsystems/settings_arch.o
flash_prefetch_buffer_disable                     /opt/paparazzi/arm-multilib/lib/gcc/arm-none-eabi/4.6.2/../../../../arm-none-eabi/lib/libopencm3_stm32.a(flash.o)
flash_prefetch_buffer_enable                      /opt/paparazzi/arm-multilib/lib/gcc/arm-none-eabi/4.6.2/../../../../arm-none-eabi/lib/libopencm3_stm32.a(flash.o)
flash_program_half_word                           /opt/paparazzi/arm-multilib/lib/gcc/arm-none-eabi/4.6.2/../../../../arm-none-eabi/lib/libopencm3_stm32.a(flash.o)
                                                  /home/mav/paparazzi/var/Radian/ap/arch/stm32/subsystems/settings_arch.o
flash_program_option_bytes                        /opt/paparazzi/arm-multilib/lib/gcc/arm-none-eabi/4.6.2/../../../../arm-none-eabi/lib/libopencm3_stm32.a(flash.o)
flash_program_word                                /opt/paparazzi/arm-multilib/lib/gcc/arm-none-eabi/4.6.2/../../../../arm-none-eabi/lib/libopencm3_stm32.a(flash.o)
flash_set_ws                                      /opt/paparazzi/arm-multilib/lib/gcc/arm-none-eabi/4.6.2/../../../../arm-none-eabi/lib/libopencm3_stm32.a(flash.o)
                                                  /opt/paparazzi/arm-multilib/lib/gcc/arm-none-eabi/4.6.2/../../../../arm-none-eabi/lib/libopencm3_stm32.a(rcc.o)
flash_unlock                                      /opt/paparazzi/arm-multilib/lib/gcc/arm-none-eabi/4.6.2/../../../../arm-none-eabi/lib/libopencm3_stm32.a(flash.o)
                                                  /home/mav/paparazzi/var/Radian/ap/arch/stm32/subsystems/settings_arch.o
flash_unlock_option_bytes                         /opt/paparazzi/arm-multilib/lib/gcc/arm-none-eabi/4.6.2/../../../../arm-none-eabi/lib/libopencm3_stm32.a(flash.o)
flash_wait_for_last_operation                     /opt/paparazzi/arm-multilib/lib/gcc/arm-none-eabi/4.6.2/../../../../arm-none-eabi/lib/libopencm3_stm32.a(flash.o)
flight_altitude                                   /home/mav/paparazzi/var/Radian/ap/subsystems/nav.o
                                                  /home/mav/paparazzi/var/Radian/ap/firmwares/fixedwing/datalink.o
                                                  /home/mav/paparazzi/var/Radian/ap/firmwares/fixedwing/main_ap.o
floor                                             /opt/paparazzi/arm-multilib/lib/gcc/arm-none-eabi/4.6.2/../../../../arm-none-eabi/lib/thumb2/libm.a(lib_a-s_floor.o)
                                                  /opt/paparazzi/arm-multilib/lib/gcc/arm-none-eabi/4.6.2/../../../../arm-none-eabi/lib/thumb2/libm.a(lib_a-k_rem_pio2.o)
floorf                                            /opt/paparazzi/arm-multilib/lib/gcc/arm-none-eabi/4.6.2/../../../../arm-none-eabi/lib/thumb2/libm.a(lib_a-sf_floor.o)
                                                  /opt/paparazzi/arm-multilib/lib/gcc/arm-none-eabi/4.6.2/../../../../arm-none-eabi/lib/thumb2/libm.a(lib_a-kf_rem_pio2.o)
fly_to_xy                                         /home/mav/paparazzi/var/Radian/ap/subsystems/nav.o
fp_pitch                                          /home/mav/paparazzi/var/Radian/ap/subsystems/nav.o
gc_of_gd_lat_d                                    /home/mav/paparazzi/var/Radian/ap/math/pprz_geodetic_double.o
get_ac_info                                       /home/mav/paparazzi/var/Radian/ap/subsystems/navigation/traffic_info.o
getpid                                            /home/mav/paparazzi/var/Radian/ap/lisa/plug_sys.o
gps                                               /home/mav/paparazzi/var/Radian/ap/subsystems/gps.o
                                                  /home/mav/paparazzi/var/Radian/ap/subsystems/nav.o
                                                  /home/mav/paparazzi/var/Radian/ap/subsystems/gps/gps_ubx.o
                                                  /home/mav/paparazzi/var/Radian/ap/subsystems/ahrs/ahrs_int_cmpl_quat.o
                                                  /home/mav/paparazzi/var/Radian/ap/firmwares/fixedwing/datalink.o
                                                  /home/mav/paparazzi/var/Radian/ap/./estimator.o
                                                  /home/mav/paparazzi/var/Radian/ap/firmwares/fixedwing/main_ap.o
gps_impl_init                                     /home/mav/paparazzi/var/Radian/ap/subsystems/gps/gps_ubx.o
                                                  /home/mav/paparazzi/var/Radian/ap/subsystems/gps.o
gps_init                                          /home/mav/paparazzi/var/Radian/ap/subsystems/gps.o
                                                  /home/mav/paparazzi/var/Radian/ap/firmwares/fixedwing/main_ap.o
gps_lost                                          /home/mav/paparazzi/var/Radian/ap/firmwares/fixedwing/main_ap.o
gps_ubx                                           /home/mav/paparazzi/var/Radian/ap/subsystems/gps/gps_ubx.o
                                                  /home/mav/paparazzi/var/Radian/ap/firmwares/fixedwing/main_ap.o
gps_ubx_gps_ubx_ucenter_periodic_status           /home/mav/paparazzi/var/Radian/ap/firmwares/fixedwing/main_ap.o
                                                  /home/mav/paparazzi/var/Radian/ap/firmwares/fixedwing/datalink.o
gps_ubx_parse                                     /home/mav/paparazzi/var/Radian/ap/subsystems/gps/gps_ubx.o
                                                  /home/mav/paparazzi/var/Radian/ap/firmwares/fixedwing/main_ap.o
gps_ubx_read_message                              /home/mav/paparazzi/var/Radian/ap/subsystems/gps/gps_ubx.o
                                                  /home/mav/paparazzi/var/Radian/ap/firmwares/fixedwing/main_ap.o
gps_ubx_ucenter                                   /home/mav/paparazzi/var/Radian/ap/subsystems/gps/gps_ubx.o
gps_ubx_ucenter_event                             /home/mav/paparazzi/var/Radian/ap/subsystems/gps/gps_ubx.o
                                                  /home/mav/paparazzi/var/Radian/ap/firmwares/fixedwing/main_ap.o
gps_ubx_ucenter_init                              /home/mav/paparazzi/var/Radian/ap/subsystems/gps/gps_ubx.o
                                                  /home/mav/paparazzi/var/Radian/ap/firmwares/fixedwing/main_ap.o
gps_ubx_ucenter_periodic                          /home/mav/paparazzi/var/Radian/ap/subsystems/gps/gps_ubx.o
                                                  /home/mav/paparazzi/var/Radian/ap/firmwares/fixedwing/main_ap.o
ground_alt                                        /home/mav/paparazzi/var/Radian/ap/subsystems/nav.o
h_ctl_aileron_of_throttle                         /home/mav/paparazzi/var/Radian/ap/firmwares/fixedwing/stabilization/stabilization_attitude.o
h_ctl_aileron_setpoint                            /home/mav/paparazzi/var/Radian/ap/firmwares/fixedwing/stabilization/stabilization_attitude.o
                                                  /home/mav/paparazzi/var/Radian/ap/firmwares/fixedwing/main_ap.o
h_ctl_attitude_loop                               /home/mav/paparazzi/var/Radian/ap/firmwares/fixedwing/stabilization/stabilization_attitude.o
                                                  /home/mav/paparazzi/var/Radian/ap/firmwares/fixedwing/main_ap.o
h_ctl_auto1_rate                                  /home/mav/paparazzi/var/Radian/ap/firmwares/fixedwing/stabilization/stabilization_attitude.o
h_ctl_course_dgain                                /home/mav/paparazzi/var/Radian/ap/firmwares/fixedwing/stabilization/stabilization_attitude.o
h_ctl_course_loop                                 /home/mav/paparazzi/var/Radian/ap/firmwares/fixedwing/stabilization/stabilization_attitude.o
                                                  /home/mav/paparazzi/var/Radian/ap/firmwares/fixedwing/main_ap.o
h_ctl_course_pgain                                /home/mav/paparazzi/var/Radian/ap/firmwares/fixedwing/stabilization/stabilization_attitude.o
                                                  /home/mav/paparazzi/var/Radian/ap/subsystems/nav.o
h_ctl_course_pre_bank                             /home/mav/paparazzi/var/Radian/ap/firmwares/fixedwing/stabilization/stabilization_attitude.o
                                                  /home/mav/paparazzi/var/Radian/ap/subsystems/nav.o
h_ctl_course_pre_bank_correction                  /home/mav/paparazzi/var/Radian/ap/firmwares/fixedwing/stabilization/stabilization_attitude.o
h_ctl_course_setpoint                             /home/mav/paparazzi/var/Radian/ap/firmwares/fixedwing/stabilization/stabilization_attitude.o
                                                  /home/mav/paparazzi/var/Radian/ap/subsystems/nav.o
                                                  /home/mav/paparazzi/var/Radian/ap/firmwares/fixedwing/main_ap.o
h_ctl_disabled                                    /home/mav/paparazzi/var/Radian/ap/firmwares/fixedwing/stabilization/stabilization_attitude.o
h_ctl_elevator_of_roll                            /home/mav/paparazzi/var/Radian/ap/firmwares/fixedwing/stabilization/stabilization_attitude.o
h_ctl_elevator_setpoint                           /home/mav/paparazzi/var/Radian/ap/firmwares/fixedwing/stabilization/stabilization_attitude.o
                                                  /home/mav/paparazzi/var/Radian/ap/firmwares/fixedwing/main_ap.o
h_ctl_init                                        /home/mav/paparazzi/var/Radian/ap/firmwares/fixedwing/stabilization/stabilization_attitude.o
                                                  /home/mav/paparazzi/var/Radian/ap/firmwares/fixedwing/main_ap.o
h_ctl_pitch_dgain                                 /home/mav/paparazzi/var/Radian/ap/firmwares/fixedwing/stabilization/stabilization_attitude.o
h_ctl_pitch_loop_setpoint                         /home/mav/paparazzi/var/Radian/ap/firmwares/fixedwing/stabilization/stabilization_attitude.o
                                                  /home/mav/paparazzi/var/Radian/ap/firmwares/fixedwing/main_ap.o
h_ctl_pitch_pgain                                 /home/mav/paparazzi/var/Radian/ap/firmwares/fixedwing/stabilization/stabilization_attitude.o
h_ctl_pitch_setpoint                              /home/mav/paparazzi/var/Radian/ap/firmwares/fixedwing/stabilization/stabilization_attitude.o
                                                  /home/mav/paparazzi/var/Radian/ap/firmwares/fixedwing/main_ap.o
h_ctl_roll_attitude_gain                          /home/mav/paparazzi/var/Radian/ap/firmwares/fixedwing/stabilization/stabilization_attitude.o
h_ctl_roll_max_setpoint                           /home/mav/paparazzi/var/Radian/ap/firmwares/fixedwing/stabilization/stabilization_attitude.o
                                                  /home/mav/paparazzi/var/Radian/ap/subsystems/nav.o
h_ctl_roll_pgain                                  /home/mav/paparazzi/var/Radian/ap/firmwares/fixedwing/stabilization/stabilization_attitude.o
h_ctl_roll_rate_gain                              /home/mav/paparazzi/var/Radian/ap/firmwares/fixedwing/stabilization/stabilization_attitude.o
h_ctl_roll_setpoint                               /home/mav/paparazzi/var/Radian/ap/firmwares/fixedwing/stabilization/stabilization_attitude.o
                                                  /home/mav/paparazzi/var/Radian/ap/subsystems/nav.o
                                                  /home/mav/paparazzi/var/Radian/ap/firmwares/fixedwing/main_ap.o
h_ctl_roll_slew                                   /home/mav/paparazzi/var/Radian/ap/firmwares/fixedwing/stabilization/stabilization_attitude.o
handle_periodic_tasks_ap                          /home/mav/paparazzi/var/Radian/ap/firmwares/fixedwing/main_ap.o
                                                  /home/mav/paparazzi/var/Radian/ap/firmwares/fixedwing/main.o
handle_periodic_tasks_fbw                         /home/mav/paparazzi/var/Radian/ap/firmwares/fixedwing/main_fbw.o
                                                  /home/mav/paparazzi/var/Radian/ap/firmwares/fixedwing/main.o
hard_fault_exception                              /home/mav/paparazzi/var/Radian/ap/arch/stm32/stm32_exceptions.o
                                                  /home/mav/paparazzi/var/Radian/ap/arch/stm32/stm32_vector_table.o
horizontal_mode                                   /home/mav/paparazzi/var/Radian/ap/subsystems/nav.o
                                                  /home/mav/paparazzi/var/Radian/ap/firmwares/fixedwing/main_ap.o
i2c_event                                         /home/mav/paparazzi/var/Radian/ap/arch/stm32/mcu_periph/i2c_arch.o
                                                  /home/mav/paparazzi/var/Radian/ap/firmwares/fixedwing/main_fbw.o
i2c_idle                                          /home/mav/paparazzi/var/Radian/ap/arch/stm32/mcu_periph/i2c_arch.o
i2c_init                                          /home/mav/paparazzi/var/Radian/ap/mcu_periph/i2c.o
i2c_submit                                        /home/mav/paparazzi/var/Radian/ap/arch/stm32/mcu_periph/i2c_arch.o
imu                                               /home/mav/paparazzi/var/Radian/ap/subsystems/imu.o
                                                  /home/mav/paparazzi/var/Radian/ap/subsystems/ahrs/ahrs_aligner.o
                                                  /home/mav/paparazzi/var/Radian/ap/subsystems/ahrs/ahrs_int_cmpl_quat.o
                                                  /home/mav/paparazzi/var/Radian/ap/firmwares/fixedwing/main_ap.o
imu_aspirin2                                      /home/mav/paparazzi/var/Radian/ap/subsystems/imu/imu_aspirin2.o
                                                  /home/mav/paparazzi/var/Radian/ap/firmwares/fixedwing/main_ap.o
imu_aspirin2_arch_init                            /home/mav/paparazzi/var/Radian/ap/arch/stm32/subsystems/imu/imu_aspirin2_arch.o
imu_aspirin2_arch_int_disable                     /home/mav/paparazzi/var/Radian/ap/arch/stm32/subsystems/imu/imu_aspirin2_arch.o
imu_aspirin2_arch_int_enable                      /home/mav/paparazzi/var/Radian/ap/arch/stm32/subsystems/imu/imu_aspirin2_arch.o
imu_float_init                                    /home/mav/paparazzi/var/Radian/ap/subsystems/imu.o
imu_impl_init                                     /home/mav/paparazzi/var/Radian/ap/subsystems/imu/imu_aspirin2.o
                                                  /home/mav/paparazzi/var/Radian/ap/subsystems/imu.o
imu_init                                          /home/mav/paparazzi/var/Radian/ap/subsystems/imu.o
                                                  /home/mav/paparazzi/var/Radian/ap/firmwares/fixedwing/main_ap.o
imu_periodic                                      /home/mav/paparazzi/var/Radian/ap/subsystems/imu/imu_aspirin2.o
                                                  /home/mav/paparazzi/var/Radian/ap/firmwares/fixedwing/main_ap.o
init_ap                                           /home/mav/paparazzi/var/Radian/ap/firmwares/fixedwing/main_ap.o
                                                  /home/mav/paparazzi/var/Radian/ap/firmwares/fixedwing/main.o
init_fbw                                          /home/mav/paparazzi/var/Radian/ap/firmwares/fixedwing/main_fbw.o
                                                  /home/mav/paparazzi/var/Radian/ap/firmwares/fixedwing/main.o
ins_pitch_neutral                                 /home/mav/paparazzi/var/Radian/ap/subsystems/ahrs/ahrs_int_cmpl_quat.o
ins_roll_neutral                                  /home/mav/paparazzi/var/Radian/ap/subsystems/ahrs/ahrs_int_cmpl_quat.o
inter_mcu_received_ap                             /home/mav/paparazzi/var/Radian/ap/./inter_mcu.o
                                                  /home/mav/paparazzi/var/Radian/ap/firmwares/fixedwing/main_ap.o
                                                  /home/mav/paparazzi/var/Radian/ap/firmwares/fixedwing/main_fbw.o
inter_mcu_received_fbw                            /home/mav/paparazzi/var/Radian/ap/./inter_mcu.o
                                                  /home/mav/paparazzi/var/Radian/ap/firmwares/fixedwing/main_ap.o
                                                  /home/mav/paparazzi/var/Radian/ap/firmwares/fixedwing/main_fbw.o
kill                                              /home/mav/paparazzi/var/Radian/ap/lisa/plug_sys.o
kill_throttle                                     /home/mav/paparazzi/var/Radian/ap/firmwares/fixedwing/main_ap.o
                                                  /home/mav/paparazzi/var/Radian/ap/subsystems/nav.o
                                                  /home/mav/paparazzi/var/Radian/ap/firmwares/fixedwing/datalink.o
last_block                                        /home/mav/paparazzi/var/Radian/ap/subsystems/navigation/common_flight_plan.o
last_stage                                        /home/mav/paparazzi/var/Radian/ap/subsystems/navigation/common_flight_plan.o
last_x                                            /home/mav/paparazzi/var/Radian/ap/subsystems/nav.o
last_y                                            /home/mav/paparazzi/var/Radian/ap/subsystems/nav.o
lateral_mode                                      /home/mav/paparazzi/var/Radian/ap/firmwares/fixedwing/main_ap.o
                                                  /home/mav/paparazzi/var/Radian/ap/subsystems/nav.o
launch                                            /home/mav/paparazzi/var/Radian/ap/firmwares/fixedwing/main_ap.o
                                                  /home/mav/paparazzi/var/Radian/ap/firmwares/fixedwing/datalink.o
ldiv                                              /opt/paparazzi/arm-multilib/lib/gcc/arm-none-eabi/4.6.2/../../../../arm-none-eabi/lib/thumb2/libc.a(lib_a-ldiv.o)
                                                  /home/mav/paparazzi/var/Radian/ap/subsystems/ahrs/ahrs_int_cmpl_quat.o
lla_of_ecef_d                                     /home/mav/paparazzi/var/Radian/ap/math/pprz_geodetic_double.o
                                                  /home/mav/paparazzi/var/Radian/ap/math/pprz_geodetic_int.o
lla_of_ecef_f                                     /home/mav/paparazzi/var/Radian/ap/math/pprz_geodetic_float.o
lla_of_ecef_i                                     /home/mav/paparazzi/var/Radian/ap/math/pprz_geodetic_int.o
lla_of_utm_d                                      /home/mav/paparazzi/var/Radian/ap/math/pprz_geodetic_double.o
lla_of_utm_f                                      /home/mav/paparazzi/var/Radian/ap/math/pprz_geodetic_float.o
log                                               /opt/paparazzi/arm-multilib/lib/gcc/arm-none-eabi/4.6.2/../../../../arm-none-eabi/lib/thumb2/libm.a(lib_a-w_log.o)
                                                  /home/mav/paparazzi/var/Radian/ap/math/pprz_geodetic_double.o
                                                  /home/mav/paparazzi/var/Radian/ap/math/pprz_geodetic_float.o
ltp_def_from_ecef_d                               /home/mav/paparazzi/var/Radian/ap/math/pprz_geodetic_double.o
ltp_def_from_ecef_f                               /home/mav/paparazzi/var/Radian/ap/math/pprz_geodetic_float.o
ltp_def_from_ecef_i                               /home/mav/paparazzi/var/Radian/ap/math/pprz_geodetic_int.o
ltp_def_from_lla_f                                /home/mav/paparazzi/var/Radian/ap/math/pprz_geodetic_float.o
ltp_def_from_lla_i                                /home/mav/paparazzi/var/Radian/ap/math/pprz_geodetic_int.o
main                                              /home/mav/paparazzi/var/Radian/ap/firmwares/fixedwing/main.o
                                                  /home/mav/paparazzi/var/Radian/ap/arch/stm32/stm32_vector_table.o
matherr                                           /opt/paparazzi/arm-multilib/lib/gcc/arm-none-eabi/4.6.2/../../../../arm-none-eabi/lib/thumb2/libm.a(lib_a-s_matherr.o)
                                                  /opt/paparazzi/arm-multilib/lib/gcc/arm-none-eabi/4.6.2/../../../../arm-none-eabi/lib/thumb2/libm.a(lib_a-wf_sqrt.o)
                                                  /opt/paparazzi/arm-multilib/lib/gcc/arm-none-eabi/4.6.2/../../../../arm-none-eabi/lib/thumb2/libm.a(lib_a-wf_pow.o)
                                                  /opt/paparazzi/arm-multilib/lib/gcc/arm-none-eabi/4.6.2/../../../../arm-none-eabi/lib/thumb2/libm.a(lib_a-wf_asin.o)
                                                  /opt/paparazzi/arm-multilib/lib/gcc/arm-none-eabi/4.6.2/../../../../arm-none-eabi/lib/thumb2/libm.a(lib_a-w_sqrt.o)
                                                  /opt/paparazzi/arm-multilib/lib/gcc/arm-none-eabi/4.6.2/../../../../arm-none-eabi/lib/thumb2/libm.a(lib_a-w_sinh.o)
                                                  /opt/paparazzi/arm-multilib/lib/gcc/arm-none-eabi/4.6.2/../../../../arm-none-eabi/lib/thumb2/libm.a(lib_a-w_pow.o)
                                                  /opt/paparazzi/arm-multilib/lib/gcc/arm-none-eabi/4.6.2/../../../../arm-none-eabi/lib/thumb2/libm.a(lib_a-w_log.o)
                                                  /opt/paparazzi/arm-multilib/lib/gcc/arm-none-eabi/4.6.2/../../../../arm-none-eabi/lib/thumb2/libm.a(lib_a-w_exp.o)
                                                  /opt/paparazzi/arm-multilib/lib/gcc/arm-none-eabi/4.6.2/../../../../arm-none-eabi/lib/thumb2/libm.a(lib_a-w_cosh.o)
                                                  /opt/paparazzi/arm-multilib/lib/gcc/arm-none-eabi/4.6.2/../../../../arm-none-eabi/lib/thumb2/libm.a(lib_a-w_asin.o)
max_dist_from_home                                /home/mav/paparazzi/var/Radian/ap/subsystems/nav.o
mcu_arch_init                                     /home/mav/paparazzi/var/Radian/ap/arch/stm32/mcu_arch.o
                                                  /home/mav/paparazzi/var/Radian/ap/mcu.o
mcu_init                                          /home/mav/paparazzi/var/Radian/ap/mcu.o
                                                  /home/mav/paparazzi/var/Radian/ap/firmwares/fixedwing/main_fbw.o
mem_manage_exception                              /home/mav/paparazzi/var/Radian/ap/arch/stm32/stm32_exceptions.o
                                                  /home/mav/paparazzi/var/Radian/ap/arch/stm32/stm32_vector_table.o
memcpy                                            /opt/paparazzi/arm-multilib/lib/gcc/arm-none-eabi/4.6.2/../../../../arm-none-eabi/lib/thumb2/libc.a(lib_a-memcpy.o)
                                                  /home/mav/paparazzi/var/Radian/ap/arch/stm32/mcu_periph/spi_arch.o
modules_tid                                       /home/mav/paparazzi/var/Radian/ap/firmwares/fixedwing/main_ap.o
monitor_task                                      /home/mav/paparazzi/var/Radian/ap/firmwares/fixedwing/main_ap.o
monitor_tid                                       /home/mav/paparazzi/var/Radian/ap/firmwares/fixedwing/main_ap.o
nan                                               /opt/paparazzi/arm-multilib/lib/gcc/arm-none-eabi/4.6.2/../../../../arm-none-eabi/lib/thumb2/libm.a(lib_a-s_nan.o)
                                                  /opt/paparazzi/arm-multilib/lib/gcc/arm-none-eabi/4.6.2/../../../../arm-none-eabi/lib/thumb2/libm.a(lib_a-e_pow.o)
                                                  /opt/paparazzi/arm-multilib/lib/gcc/arm-none-eabi/4.6.2/../../../../arm-none-eabi/lib/thumb2/libm.a(lib_a-wf_asin.o)
                                                  /opt/paparazzi/arm-multilib/lib/gcc/arm-none-eabi/4.6.2/../../../../arm-none-eabi/lib/thumb2/libm.a(lib_a-w_log.o)
                                                  /opt/paparazzi/arm-multilib/lib/gcc/arm-none-eabi/4.6.2/../../../../arm-none-eabi/lib/thumb2/libm.a(lib_a-w_asin.o)
nanf                                              /opt/paparazzi/arm-multilib/lib/gcc/arm-none-eabi/4.6.2/../../../../arm-none-eabi/lib/thumb2/libm.a(lib_a-sf_nan.o)
                                                  /opt/paparazzi/arm-multilib/lib/gcc/arm-none-eabi/4.6.2/../../../../arm-none-eabi/lib/thumb2/libm.a(lib_a-ef_pow.o)
nav_altitude                                      /home/mav/paparazzi/var/Radian/ap/subsystems/nav.o
                                                  /home/mav/paparazzi/var/Radian/ap/subsystems/navigation/nav_line.o
                                                  /home/mav/paparazzi/var/Radian/ap/subsystems/navigation/nav_survey_rectangle.o
nav_approaching_xy                                /home/mav/paparazzi/var/Radian/ap/subsystems/nav.o
                                                  /home/mav/paparazzi/var/Radian/ap/subsystems/navigation/nav_line.o
nav_block                                         /home/mav/paparazzi/var/Radian/ap/subsystems/navigation/common_flight_plan.o
                                                  /home/mav/paparazzi/var/Radian/ap/subsystems/nav.o
                                                  /home/mav/paparazzi/var/Radian/ap/firmwares/fixedwing/datalink.o
                                                  /home/mav/paparazzi/var/Radian/ap/firmwares/fixedwing/main_ap.o
nav_circle_XY                                     /home/mav/paparazzi/var/Radian/ap/subsystems/nav.o
                                                  /home/mav/paparazzi/var/Radian/ap/subsystems/navigation/nav_line.o
                                                  /home/mav/paparazzi/var/Radian/ap/subsystems/navigation/nav_survey_rectangle.o
nav_circle_radians                                /home/mav/paparazzi/var/Radian/ap/subsystems/nav.o
                                                  /home/mav/paparazzi/var/Radian/ap/firmwares/fixedwing/datalink.o
                                                  /home/mav/paparazzi/var/Radian/ap/firmwares/fixedwing/main_ap.o
nav_circle_radius                                 /home/mav/paparazzi/var/Radian/ap/subsystems/nav.o
                                                  /home/mav/paparazzi/var/Radian/ap/firmwares/fixedwing/main_ap.o
nav_circle_trigo_qdr                              /home/mav/paparazzi/var/Radian/ap/subsystems/nav.o
                                                  /home/mav/paparazzi/var/Radian/ap/subsystems/navigation/nav_line.o
nav_circle_x                                      /home/mav/paparazzi/var/Radian/ap/subsystems/nav.o
                                                  /home/mav/paparazzi/var/Radian/ap/firmwares/fixedwing/main_ap.o
nav_circle_y                                      /home/mav/paparazzi/var/Radian/ap/subsystems/nav.o
                                                  /home/mav/paparazzi/var/Radian/ap/firmwares/fixedwing/main_ap.o
nav_climb                                         /home/mav/paparazzi/var/Radian/ap/subsystems/nav.o
nav_course                                        /home/mav/paparazzi/var/Radian/ap/subsystems/nav.o
                                                  /home/mav/paparazzi/var/Radian/ap/firmwares/fixedwing/datalink.o
                                                  /home/mav/paparazzi/var/Radian/ap/firmwares/fixedwing/main_ap.o
nav_eight                                         /home/mav/paparazzi/var/Radian/ap/subsystems/nav.o
nav_eight_init                                    /home/mav/paparazzi/var/Radian/ap/subsystems/nav.o
nav_glide_pitch_trim                              /home/mav/paparazzi/var/Radian/ap/subsystems/nav.o
nav_goto_block                                    /home/mav/paparazzi/var/Radian/ap/subsystems/navigation/common_flight_plan.o
                                                  /home/mav/paparazzi/var/Radian/ap/firmwares/fixedwing/datalink.o
nav_ground_speed_pgain                            /home/mav/paparazzi/var/Radian/ap/subsystems/nav.o
nav_ground_speed_setpoint                         /home/mav/paparazzi/var/Radian/ap/subsystems/nav.o
nav_home                                          /home/mav/paparazzi/var/Radian/ap/subsystems/nav.o
                                                  /home/mav/paparazzi/var/Radian/ap/firmwares/fixedwing/main_ap.o
nav_in_circle                                     /home/mav/paparazzi/var/Radian/ap/subsystems/nav.o
                                                  /home/mav/paparazzi/var/Radian/ap/subsystems/navigation/nav_survey_rectangle.o
                                                  /home/mav/paparazzi/var/Radian/ap/firmwares/fixedwing/main_ap.o
nav_in_segment                                    /home/mav/paparazzi/var/Radian/ap/subsystems/nav.o
                                                  /home/mav/paparazzi/var/Radian/ap/subsystems/navigation/nav_survey_rectangle.o
                                                  /home/mav/paparazzi/var/Radian/ap/firmwares/fixedwing/main_ap.o
nav_init                                          /home/mav/paparazzi/var/Radian/ap/subsystems/nav.o
                                                  /home/mav/paparazzi/var/Radian/ap/firmwares/fixedwing/main_ap.o
nav_init_block                                    /home/mav/paparazzi/var/Radian/ap/subsystems/navigation/common_flight_plan.o
                                                  /home/mav/paparazzi/var/Radian/ap/subsystems/nav.o
nav_init_stage                                    /home/mav/paparazzi/var/Radian/ap/subsystems/nav.o
                                                  /home/mav/paparazzi/var/Radian/ap/subsystems/navigation/nav_line.o
                                                  /home/mav/paparazzi/var/Radian/ap/subsystems/navigation/common_flight_plan.o
nav_line                                          /home/mav/paparazzi/var/Radian/ap/subsystems/navigation/nav_line.o
                                                  /home/mav/paparazzi/var/Radian/ap/subsystems/nav.o
nav_line_init                                     /home/mav/paparazzi/var/Radian/ap/subsystems/navigation/nav_line.o
                                                  /home/mav/paparazzi/var/Radian/ap/subsystems/nav.o
nav_mode                                          /home/mav/paparazzi/var/Radian/ap/subsystems/nav.o
nav_move_waypoint                                 /home/mav/paparazzi/var/Radian/ap/subsystems/nav.o
                                                  /home/mav/paparazzi/var/Radian/ap/firmwares/fixedwing/datalink.o
nav_oval                                          /home/mav/paparazzi/var/Radian/ap/subsystems/nav.o
nav_oval_count                                    /home/mav/paparazzi/var/Radian/ap/subsystems/nav.o
                                                  /home/mav/paparazzi/var/Radian/ap/firmwares/fixedwing/datalink.o
                                                  /home/mav/paparazzi/var/Radian/ap/firmwares/fixedwing/main_ap.o
nav_oval_init                                     /home/mav/paparazzi/var/Radian/ap/subsystems/nav.o
nav_periodic_task                                 /home/mav/paparazzi/var/Radian/ap/subsystems/nav.o
                                                  /home/mav/paparazzi/var/Radian/ap/firmwares/fixedwing/main_ap.o
nav_pitch                                         /home/mav/paparazzi/var/Radian/ap/subsystems/nav.o
                                                  /home/mav/paparazzi/var/Radian/ap/subsystems/navigation/nav_line.o
                                                  /home/mav/paparazzi/var/Radian/ap/subsystems/navigation/nav_survey_rectangle.o
                                                  /home/mav/paparazzi/var/Radian/ap/firmwares/fixedwing/guidance/guidance_v.o
                                                  /home/mav/paparazzi/var/Radian/ap/firmwares/fixedwing/main_ap.o
nav_radius                                        /home/mav/paparazzi/var/Radian/ap/subsystems/nav.o
                                                  /home/mav/paparazzi/var/Radian/ap/firmwares/fixedwing/datalink.o
                                                  /home/mav/paparazzi/var/Radian/ap/firmwares/fixedwing/main_ap.o
nav_reset_reference                               /home/mav/paparazzi/var/Radian/ap/subsystems/nav.o
nav_route_xy                                      /home/mav/paparazzi/var/Radian/ap/subsystems/nav.o
                                                  /home/mav/paparazzi/var/Radian/ap/subsystems/navigation/nav_line.o
                                                  /home/mav/paparazzi/var/Radian/ap/subsystems/navigation/nav_survey_rectangle.o
nav_segment_x_1                                   /home/mav/paparazzi/var/Radian/ap/subsystems/nav.o
                                                  /home/mav/paparazzi/var/Radian/ap/firmwares/fixedwing/main_ap.o
nav_segment_x_2                                   /home/mav/paparazzi/var/Radian/ap/subsystems/nav.o
                                                  /home/mav/paparazzi/var/Radian/ap/firmwares/fixedwing/main_ap.o
nav_segment_y_1                                   /home/mav/paparazzi/var/Radian/ap/subsystems/nav.o
                                                  /home/mav/paparazzi/var/Radian/ap/firmwares/fixedwing/main_ap.o
nav_segment_y_2                                   /home/mav/paparazzi/var/Radian/ap/subsystems/nav.o
                                                  /home/mav/paparazzi/var/Radian/ap/firmwares/fixedwing/main_ap.o
nav_shift                                         /home/mav/paparazzi/var/Radian/ap/subsystems/nav.o
                                                  /home/mav/paparazzi/var/Radian/ap/firmwares/fixedwing/datalink.o
                                                  /home/mav/paparazzi/var/Radian/ap/firmwares/fixedwing/main_ap.o
nav_stage                                         /home/mav/paparazzi/var/Radian/ap/subsystems/navigation/common_flight_plan.o
                                                  /home/mav/paparazzi/var/Radian/ap/subsystems/nav.o
                                                  /home/mav/paparazzi/var/Radian/ap/firmwares/fixedwing/datalink.o
                                                  /home/mav/paparazzi/var/Radian/ap/firmwares/fixedwing/main_ap.o
nav_survey_active                                 /home/mav/paparazzi/var/Radian/ap/subsystems/nav.o
                                                  /home/mav/paparazzi/var/Radian/ap/subsystems/navigation/nav_survey_rectangle.o
                                                  /home/mav/paparazzi/var/Radian/ap/firmwares/fixedwing/main_ap.o
nav_survey_east                                   /home/mav/paparazzi/var/Radian/ap/subsystems/nav.o
                                                  /home/mav/paparazzi/var/Radian/ap/subsystems/navigation/nav_survey_rectangle.o
                                                  /home/mav/paparazzi/var/Radian/ap/firmwares/fixedwing/main_ap.o
nav_survey_north                                  /home/mav/paparazzi/var/Radian/ap/subsystems/nav.o
                                                  /home/mav/paparazzi/var/Radian/ap/subsystems/navigation/nav_survey_rectangle.o
                                                  /home/mav/paparazzi/var/Radian/ap/firmwares/fixedwing/main_ap.o
nav_survey_rectangle                              /home/mav/paparazzi/var/Radian/ap/subsystems/navigation/nav_survey_rectangle.o
nav_survey_rectangle_init                         /home/mav/paparazzi/var/Radian/ap/subsystems/navigation/nav_survey_rectangle.o
nav_survey_shift                                  /home/mav/paparazzi/var/Radian/ap/subsystems/nav.o
                                                  /home/mav/paparazzi/var/Radian/ap/subsystems/navigation/nav_survey_rectangle.o
nav_survey_south                                  /home/mav/paparazzi/var/Radian/ap/subsystems/nav.o
                                                  /home/mav/paparazzi/var/Radian/ap/subsystems/navigation/nav_survey_rectangle.o
                                                  /home/mav/paparazzi/var/Radian/ap/firmwares/fixedwing/main_ap.o
nav_survey_west                                   /home/mav/paparazzi/var/Radian/ap/subsystems/nav.o
                                                  /home/mav/paparazzi/var/Radian/ap/subsystems/navigation/nav_survey_rectangle.o
                                                  /home/mav/paparazzi/var/Radian/ap/firmwares/fixedwing/main_ap.o
nav_throttle_setpoint                             /home/mav/paparazzi/var/Radian/ap/subsystems/nav.o
                                                  /home/mav/paparazzi/var/Radian/ap/firmwares/fixedwing/guidance/guidance_v.o
                                                  /home/mav/paparazzi/var/Radian/ap/firmwares/fixedwing/main_ap.o
nav_update_waypoints_alt                          /home/mav/paparazzi/var/Radian/ap/subsystems/nav.o
nav_utm_east0                                     /home/mav/paparazzi/var/Radian/ap/subsystems/nav.o
                                                  /home/mav/paparazzi/var/Radian/ap/firmwares/fixedwing/datalink.o
                                                  /home/mav/paparazzi/var/Radian/ap/./estimator.o
                                                  /home/mav/paparazzi/var/Radian/ap/firmwares/fixedwing/main_ap.o
nav_utm_north0                                    /home/mav/paparazzi/var/Radian/ap/subsystems/nav.o
                                                  /home/mav/paparazzi/var/Radian/ap/firmwares/fixedwing/datalink.o
                                                  /home/mav/paparazzi/var/Radian/ap/./estimator.o
                                                  /home/mav/paparazzi/var/Radian/ap/firmwares/fixedwing/main_ap.o
nav_utm_zone0                                     /home/mav/paparazzi/var/Radian/ap/subsystems/nav.o
                                                  /home/mav/paparazzi/var/Radian/ap/subsystems/gps/gps_ubx.o
                                                  /home/mav/paparazzi/var/Radian/ap/firmwares/fixedwing/datalink.o
                                                  /home/mav/paparazzi/var/Radian/ap/firmwares/fixedwing/main_ap.o
nav_without_gps                                   /home/mav/paparazzi/var/Radian/ap/subsystems/nav.o
                                                  /home/mav/paparazzi/var/Radian/ap/firmwares/fixedwing/main_ap.o
navigation_task                                   /home/mav/paparazzi/var/Radian/ap/firmwares/fixedwing/main_ap.o
navigation_tid                                    /home/mav/paparazzi/var/Radian/ap/firmwares/fixedwing/main_ap.o
nb_waypoint                                       /home/mav/paparazzi/var/Radian/ap/subsystems/nav.o
                                                  /home/mav/paparazzi/var/Radian/ap/firmwares/fixedwing/main_ap.o
ned_of_ecef_point_d                               /home/mav/paparazzi/var/Radian/ap/math/pprz_geodetic_double.o
ned_of_ecef_point_f                               /home/mav/paparazzi/var/Radian/ap/math/pprz_geodetic_float.o
ned_of_ecef_point_i                               /home/mav/paparazzi/var/Radian/ap/math/pprz_geodetic_int.o
ned_of_ecef_vect_d                                /home/mav/paparazzi/var/Radian/ap/math/pprz_geodetic_double.o
ned_of_ecef_vect_f                                /home/mav/paparazzi/var/Radian/ap/math/pprz_geodetic_float.o
ned_of_ecef_vect_i                                /home/mav/paparazzi/var/Radian/ap/math/pprz_geodetic_int.o
ned_of_lla_point_f                                /home/mav/paparazzi/var/Radian/ap/math/pprz_geodetic_float.o
ned_of_lla_point_i                                /home/mav/paparazzi/var/Radian/ap/math/pprz_geodetic_int.o
ned_of_lla_vect_i                                 /home/mav/paparazzi/var/Radian/ap/math/pprz_geodetic_int.o
nmi_exception                                     /home/mav/paparazzi/var/Radian/ap/arch/stm32/stm32_exceptions.o
                                                  /home/mav/paparazzi/var/Radian/ap/arch/stm32/stm32_vector_table.o
null_handler                                      /home/mav/paparazzi/var/Radian/ap/arch/stm32/stm32_vector_table.o
oval_status                                       /home/mav/paparazzi/var/Radian/ap/subsystems/nav.o
periodic_task_fbw                                 /home/mav/paparazzi/var/Radian/ap/firmwares/fixedwing/main_fbw.o
pers_settings                                     /home/mav/paparazzi/var/Radian/ap/subsystems/settings.o
persistent_read                                   /home/mav/paparazzi/var/Radian/ap/arch/stm32/subsystems/settings_arch.o
persistent_write                                  /home/mav/paparazzi/var/Radian/ap/arch/stm32/subsystems/settings_arch.o
pow                                               /opt/paparazzi/arm-multilib/lib/gcc/arm-none-eabi/4.6.2/../../../../arm-none-eabi/lib/thumb2/libm.a(lib_a-w_pow.o)
                                                  /home/mav/paparazzi/var/Radian/ap/math/pprz_geodetic_double.o
                                                  /home/mav/paparazzi/var/Radian/ap/math/pprz_geodetic_float.o
power_switch                                      /home/mav/paparazzi/var/Radian/ap/firmwares/fixedwing/main_ap.o
powf                                              /opt/paparazzi/arm-multilib/lib/gcc/arm-none-eabi/4.6.2/../../../../arm-none-eabi/lib/thumb2/libm.a(lib_a-wf_pow.o)
                                                  /home/mav/paparazzi/var/Radian/ap/math/pprz_geodetic_float.o
pprz_mode                                         /home/mav/paparazzi/var/Radian/ap/firmwares/fixedwing/main_ap.o
                                                  /home/mav/paparazzi/var/Radian/ap/subsystems/nav.o
                                                  /home/mav/paparazzi/var/Radian/ap/firmwares/fixedwing/datalink.o
pprz_tp                                           /home/mav/paparazzi/var/Radian/ap/subsystems/datalink/pprz_transport.o
                                                  /home/mav/paparazzi/var/Radian/ap/firmwares/fixedwing/main_ap.o
pprz_trig_int                                     /home/mav/paparazzi/var/Radian/ap/math/pprz_trig_int.o
                                                  /home/mav/paparazzi/var/Radian/ap/subsystems/imu.o
                                                  /home/mav/paparazzi/var/Radian/ap/subsystems/ahrs/ahrs_int_cmpl_quat.o
radio_control                                     /home/mav/paparazzi/var/Radian/ap/subsystems/radio_control.o
                                                  /home/mav/paparazzi/var/Radian/ap/arch/stm32/subsystems/radio_control/spektrum_arch.o
                                                  /home/mav/paparazzi/var/Radian/ap/firmwares/fixedwing/main_fbw.o
radio_control_impl_init                           /home/mav/paparazzi/var/Radian/ap/arch/stm32/subsystems/radio_control/spektrum_arch.o
                                                  /home/mav/paparazzi/var/Radian/ap/firmwares/fixedwing/main_fbw.o
radio_control_spektrum_try_bind                   /home/mav/paparazzi/var/Radian/ap/arch/stm32/subsystems/radio_control/spektrum_arch.o
                                                  /home/mav/paparazzi/var/Radian/ap/mcu.o
rc_pitch                                          /home/mav/paparazzi/var/Radian/ap/subsystems/nav.o
rcc_backupdomain_reset                            /opt/paparazzi/arm-multilib/lib/gcc/arm-none-eabi/4.6.2/../../../../arm-none-eabi/lib/libopencm3_stm32.a(rcc.o)
rcc_clock_setup_in_hse_12mhz_out_72mhz            /opt/paparazzi/arm-multilib/lib/gcc/arm-none-eabi/4.6.2/../../../../arm-none-eabi/lib/libopencm3_stm32.a(rcc.o)
                                                  /home/mav/paparazzi/var/Radian/ap/arch/stm32/mcu_arch.o
rcc_clock_setup_in_hse_16mhz_out_72mhz            /opt/paparazzi/arm-multilib/lib/gcc/arm-none-eabi/4.6.2/../../../../arm-none-eabi/lib/libopencm3_stm32.a(rcc.o)
rcc_clock_setup_in_hse_8mhz_out_24mhz             /opt/paparazzi/arm-multilib/lib/gcc/arm-none-eabi/4.6.2/../../../../arm-none-eabi/lib/libopencm3_stm32.a(rcc.o)
rcc_clock_setup_in_hse_8mhz_out_72mhz             /opt/paparazzi/arm-multilib/lib/gcc/arm-none-eabi/4.6.2/../../../../arm-none-eabi/lib/libopencm3_stm32.a(rcc.o)
rcc_clock_setup_in_hsi_out_48mhz                  /opt/paparazzi/arm-multilib/lib/gcc/arm-none-eabi/4.6.2/../../../../arm-none-eabi/lib/libopencm3_stm32.a(rcc.o)
rcc_clock_setup_in_hsi_out_64mhz                  /opt/paparazzi/arm-multilib/lib/gcc/arm-none-eabi/4.6.2/../../../../arm-none-eabi/lib/libopencm3_stm32.a(rcc.o)
rcc_css_disable                                   /opt/paparazzi/arm-multilib/lib/gcc/arm-none-eabi/4.6.2/../../../../arm-none-eabi/lib/libopencm3_stm32.a(rcc.o)
rcc_css_enable                                    /opt/paparazzi/arm-multilib/lib/gcc/arm-none-eabi/4.6.2/../../../../arm-none-eabi/lib/libopencm3_stm32.a(rcc.o)
rcc_css_int_clear                                 /opt/paparazzi/arm-multilib/lib/gcc/arm-none-eabi/4.6.2/../../../../arm-none-eabi/lib/libopencm3_stm32.a(rcc.o)
rcc_css_int_flag                                  /opt/paparazzi/arm-multilib/lib/gcc/arm-none-eabi/4.6.2/../../../../arm-none-eabi/lib/libopencm3_stm32.a(rcc.o)
rcc_osc_bypass_disable                            /opt/paparazzi/arm-multilib/lib/gcc/arm-none-eabi/4.6.2/../../../../arm-none-eabi/lib/libopencm3_stm32.a(rcc.o)
rcc_osc_bypass_enable                             /opt/paparazzi/arm-multilib/lib/gcc/arm-none-eabi/4.6.2/../../../../arm-none-eabi/lib/libopencm3_stm32.a(rcc.o)
rcc_osc_off                                       /opt/paparazzi/arm-multilib/lib/gcc/arm-none-eabi/4.6.2/../../../../arm-none-eabi/lib/libopencm3_stm32.a(rcc.o)
rcc_osc_on                                        /opt/paparazzi/arm-multilib/lib/gcc/arm-none-eabi/4.6.2/../../../../arm-none-eabi/lib/libopencm3_stm32.a(rcc.o)
rcc_osc_ready_int_clear                           /opt/paparazzi/arm-multilib/lib/gcc/arm-none-eabi/4.6.2/../../../../arm-none-eabi/lib/libopencm3_stm32.a(rcc.o)
rcc_osc_ready_int_disable                         /opt/paparazzi/arm-multilib/lib/gcc/arm-none-eabi/4.6.2/../../../../arm-none-eabi/lib/libopencm3_stm32.a(rcc.o)
rcc_osc_ready_int_enable                          /opt/paparazzi/arm-multilib/lib/gcc/arm-none-eabi/4.6.2/../../../../arm-none-eabi/lib/libopencm3_stm32.a(rcc.o)
rcc_osc_ready_int_flag                            /opt/paparazzi/arm-multilib/lib/gcc/arm-none-eabi/4.6.2/../../../../arm-none-eabi/lib/libopencm3_stm32.a(rcc.o)
rcc_peripheral_clear_reset                        /opt/paparazzi/arm-multilib/lib/gcc/arm-none-eabi/4.6.2/../../../../arm-none-eabi/lib/libopencm3_stm32.a(rcc.o)
rcc_peripheral_disable_clock                      /opt/paparazzi/arm-multilib/lib/gcc/arm-none-eabi/4.6.2/../../../../arm-none-eabi/lib/libopencm3_stm32.a(rcc.o)
rcc_peripheral_enable_clock                       /opt/paparazzi/arm-multilib/lib/gcc/arm-none-eabi/4.6.2/../../../../arm-none-eabi/lib/libopencm3_stm32.a(rcc.o)
rcc_peripheral_reset                              /opt/paparazzi/arm-multilib/lib/gcc/arm-none-eabi/4.6.2/../../../../arm-none-eabi/lib/libopencm3_stm32.a(rcc.o)
rcc_ppre1_frequency                               /opt/paparazzi/arm-multilib/lib/gcc/arm-none-eabi/4.6.2/../../../../arm-none-eabi/lib/libopencm3_stm32.a(rcc.o)
                                                  /opt/paparazzi/arm-multilib/lib/gcc/arm-none-eabi/4.6.2/../../../../arm-none-eabi/lib/libopencm3_stm32.a(usart.o)
rcc_ppre2_frequency                               /opt/paparazzi/arm-multilib/lib/gcc/arm-none-eabi/4.6.2/../../../../arm-none-eabi/lib/libopencm3_stm32.a(rcc.o)
                                                  /opt/paparazzi/arm-multilib/lib/gcc/arm-none-eabi/4.6.2/../../../../arm-none-eabi/lib/libopencm3_stm32.a(usart.o)
rcc_set_adcpre                                    /opt/paparazzi/arm-multilib/lib/gcc/arm-none-eabi/4.6.2/../../../../arm-none-eabi/lib/libopencm3_stm32.a(rcc.o)
rcc_set_hpre                                      /opt/paparazzi/arm-multilib/lib/gcc/arm-none-eabi/4.6.2/../../../../arm-none-eabi/lib/libopencm3_stm32.a(rcc.o)
rcc_set_pll_multiplication_factor                 /opt/paparazzi/arm-multilib/lib/gcc/arm-none-eabi/4.6.2/../../../../arm-none-eabi/lib/libopencm3_stm32.a(rcc.o)
rcc_set_pll_source                                /opt/paparazzi/arm-multilib/lib/gcc/arm-none-eabi/4.6.2/../../../../arm-none-eabi/lib/libopencm3_stm32.a(rcc.o)
rcc_set_pllxtpre                                  /opt/paparazzi/arm-multilib/lib/gcc/arm-none-eabi/4.6.2/../../../../arm-none-eabi/lib/libopencm3_stm32.a(rcc.o)
rcc_set_ppre1                                     /opt/paparazzi/arm-multilib/lib/gcc/arm-none-eabi/4.6.2/../../../../arm-none-eabi/lib/libopencm3_stm32.a(rcc.o)
rcc_set_ppre2                                     /opt/paparazzi/arm-multilib/lib/gcc/arm-none-eabi/4.6.2/../../../../arm-none-eabi/lib/libopencm3_stm32.a(rcc.o)
rcc_set_sysclk_source                             /opt/paparazzi/arm-multilib/lib/gcc/arm-none-eabi/4.6.2/../../../../arm-none-eabi/lib/libopencm3_stm32.a(rcc.o)
rcc_set_usbpre                                    /opt/paparazzi/arm-multilib/lib/gcc/arm-none-eabi/4.6.2/../../../../arm-none-eabi/lib/libopencm3_stm32.a(rcc.o)
rcc_system_clock_source                           /opt/paparazzi/arm-multilib/lib/gcc/arm-none-eabi/4.6.2/../../../../arm-none-eabi/lib/libopencm3_stm32.a(rcc.o)
rcc_wait_for_osc_ready                            /opt/paparazzi/arm-multilib/lib/gcc/arm-none-eabi/4.6.2/../../../../arm-none-eabi/lib/libopencm3_stm32.a(rcc.o)
reporting_task                                    /home/mav/paparazzi/var/Radian/ap/firmwares/fixedwing/main_ap.o
reset_handler_stage1                              /home/mav/paparazzi/var/Radian/ap/arch/stm32/stm32_vector_table.o
reset_handler_stage2                              /home/mav/paparazzi/var/Radian/ap/arch/stm32/stm32_vector_table.o
rint                                              /opt/paparazzi/arm-multilib/lib/gcc/arm-none-eabi/4.6.2/../../../../arm-none-eabi/lib/thumb2/libm.a(lib_a-s_rint.o)
                                                  /opt/paparazzi/arm-multilib/lib/gcc/arm-none-eabi/4.6.2/../../../../arm-none-eabi/lib/thumb2/libm.a(lib_a-wf_pow.o)
                                                  /opt/paparazzi/arm-multilib/lib/gcc/arm-none-eabi/4.6.2/../../../../arm-none-eabi/lib/thumb2/libm.a(lib_a-w_pow.o)
                                                  /home/mav/paparazzi/var/Radian/ap/math/pprz_geodetic_int.o
scalbn                                            /opt/paparazzi/arm-multilib/lib/gcc/arm-none-eabi/4.6.2/../../../../arm-none-eabi/lib/thumb2/libm.a(lib_a-s_scalbn.o)
                                                  /opt/paparazzi/arm-multilib/lib/gcc/arm-none-eabi/4.6.2/../../../../arm-none-eabi/lib/thumb2/libm.a(lib_a-k_rem_pio2.o)
                                                  /opt/paparazzi/arm-multilib/lib/gcc/arm-none-eabi/4.6.2/../../../../arm-none-eabi/lib/thumb2/libm.a(lib_a-e_pow.o)
scalbnf                                           /opt/paparazzi/arm-multilib/lib/gcc/arm-none-eabi/4.6.2/../../../../arm-none-eabi/lib/thumb2/libm.a(lib_a-sf_scalbn.o)
                                                  /opt/paparazzi/arm-multilib/lib/gcc/arm-none-eabi/4.6.2/../../../../arm-none-eabi/lib/thumb2/libm.a(lib_a-kf_rem_pio2.o)
                                                  /opt/paparazzi/arm-multilib/lib/gcc/arm-none-eabi/4.6.2/../../../../arm-none-eabi/lib/thumb2/libm.a(lib_a-ef_pow.o)
sensors_task                                      /home/mav/paparazzi/var/Radian/ap/firmwares/fixedwing/main_ap.o
sensors_tid                                       /home/mav/paparazzi/var/Radian/ap/firmwares/fixedwing/main_ap.o
settings_init                                     /home/mav/paparazzi/var/Radian/ap/subsystems/settings.o
                                                  /home/mav/paparazzi/var/Radian/ap/firmwares/fixedwing/main_ap.o
settings_store                                    /home/mav/paparazzi/var/Radian/ap/subsystems/settings.o
settings_store_now                                /home/mav/paparazzi/var/Radian/ap/subsystems/settings.o
sin                                               /opt/paparazzi/arm-multilib/lib/gcc/arm-none-eabi/4.6.2/../../../../arm-none-eabi/lib/thumb2/libm.a(lib_a-s_sin.o)
                                                  /home/mav/paparazzi/var/Radian/ap/subsystems/nav.o
                                                  /home/mav/paparazzi/var/Radian/ap/math/pprz_geodetic_double.o
                                                  /home/mav/paparazzi/var/Radian/ap/math/pprz_geodetic_float.o
sinf                                              /opt/paparazzi/arm-multilib/lib/gcc/arm-none-eabi/4.6.2/../../../../arm-none-eabi/lib/thumb2/libm.a(lib_a-sf_sin.o)
                                                  /home/mav/paparazzi/var/Radian/ap/math/pprz_geodetic_double.o
                                                  /home/mav/paparazzi/var/Radian/ap/math/pprz_geodetic_float.o
                                                  /home/mav/paparazzi/var/Radian/ap/math/pprz_geodetic_int.o
sinh                                              /opt/paparazzi/arm-multilib/lib/gcc/arm-none-eabi/4.6.2/../../../../arm-none-eabi/lib/thumb2/libm.a(lib_a-w_sinh.o)
                                                  /home/mav/paparazzi/var/Radian/ap/math/pprz_geodetic_double.o
                                                  /home/mav/paparazzi/var/Radian/ap/math/pprz_geodetic_float.o
slave0                                            /home/mav/paparazzi/var/Radian/ap/arch/stm32/mcu_periph/spi_arch.o
spi_arch_int_disable                              /home/mav/paparazzi/var/Radian/ap/arch/stm32/mcu_periph/spi_arch.o
spi_arch_int_enable                               /home/mav/paparazzi/var/Radian/ap/arch/stm32/mcu_periph/spi_arch.o
spi_buffer_input                                  /home/mav/paparazzi/var/Radian/ap/mcu_periph/spi.o
spi_buffer_length                                 /home/mav/paparazzi/var/Radian/ap/mcu_periph/spi.o
spi_buffer_output                                 /home/mav/paparazzi/var/Radian/ap/mcu_periph/spi.o
spi_init                                          /home/mav/paparazzi/var/Radian/ap/arch/stm32/mcu_periph/spi_arch.o
                                                  /home/mav/paparazzi/var/Radian/ap/mcu.o
spi_message_received                              /home/mav/paparazzi/var/Radian/ap/mcu_periph/spi.o
                                                  /home/mav/paparazzi/var/Radian/ap/arch/stm32/mcu_periph/spi_arch.o
spi_rw                                            /home/mav/paparazzi/var/Radian/ap/arch/stm32/mcu_periph/spi_arch.o
                                                  /home/mav/paparazzi/var/Radian/ap/subsystems/imu/imu_aspirin2.o
sqrt                                              /opt/paparazzi/arm-multilib/lib/gcc/arm-none-eabi/4.6.2/../../../../arm-none-eabi/lib/thumb2/libm.a(lib_a-w_sqrt.o)
                                                  /home/mav/paparazzi/var/Radian/ap/subsystems/navigation/nav_line.o
                                                  /home/mav/paparazzi/var/Radian/ap/subsystems/nav.o
                                                  /home/mav/paparazzi/var/Radian/ap/math/pprz_geodetic_double.o
sqrtf                                             /opt/paparazzi/arm-multilib/lib/gcc/arm-none-eabi/4.6.2/../../../../arm-none-eabi/lib/thumb2/libm.a(lib_a-wf_sqrt.o)
                                                  /home/mav/paparazzi/var/Radian/ap/subsystems/ahrs/ahrs_int_cmpl_quat.o
                                                  /home/mav/paparazzi/var/Radian/ap/math/pprz_geodetic_double.o
                                                  /home/mav/paparazzi/var/Radian/ap/math/pprz_geodetic_float.o
stage_time                                        /home/mav/paparazzi/var/Radian/ap/subsystems/navigation/common_flight_plan.o
                                                  /home/mav/paparazzi/var/Radian/ap/subsystems/nav.o
                                                  /home/mav/paparazzi/var/Radian/ap/firmwares/fixedwing/main_ap.o
sys_tick_irq_handler                              /home/mav/paparazzi/var/Radian/ap/arch/stm32/mcu_periph/sys_time_arch.o
                                                  /home/mav/paparazzi/var/Radian/ap/arch/stm32/stm32_vector_table.o
sys_time                                          /home/mav/paparazzi/var/Radian/ap/mcu_periph/sys_time.o
                                                  /home/mav/paparazzi/var/Radian/ap/firmwares/fixedwing/main_ap.o
                                                  /home/mav/paparazzi/var/Radian/ap/firmwares/fixedwing/main_fbw.o
                                                  /home/mav/paparazzi/var/Radian/ap/arch/stm32/mcu_periph/sys_time_arch.o
sys_time_arch_init                                /home/mav/paparazzi/var/Radian/ap/arch/stm32/mcu_periph/sys_time_arch.o
                                                  /home/mav/paparazzi/var/Radian/ap/mcu_periph/sys_time.o
sys_time_cancel_timer                             /home/mav/paparazzi/var/Radian/ap/mcu_periph/sys_time.o
sys_time_init                                     /home/mav/paparazzi/var/Radian/ap/mcu_periph/sys_time.o
                                                  /home/mav/paparazzi/var/Radian/ap/mcu.o
sys_time_register_timer                           /home/mav/paparazzi/var/Radian/ap/mcu_periph/sys_time.o
                                                  /home/mav/paparazzi/var/Radian/ap/firmwares/fixedwing/main_ap.o
                                                  /home/mav/paparazzi/var/Radian/ap/firmwares/fixedwing/main_fbw.o
sys_time_update_timer                             /home/mav/paparazzi/var/Radian/ap/mcu_periph/sys_time.o
tan                                               /opt/paparazzi/arm-multilib/lib/gcc/arm-none-eabi/4.6.2/../../../../arm-none-eabi/lib/thumb2/libm.a(lib_a-s_tan.o)
                                                  /home/mav/paparazzi/var/Radian/ap/math/pprz_geodetic_double.o
                                                  /home/mav/paparazzi/var/Radian/ap/math/pprz_geodetic_float.o
telemetry_mode_Ap                                 /home/mav/paparazzi/var/Radian/ap/firmwares/fixedwing/ap_downlink.o
                                                  /home/mav/paparazzi/var/Radian/ap/firmwares/fixedwing/datalink.o
                                                  /home/mav/paparazzi/var/Radian/ap/firmwares/fixedwing/main_ap.o
telemetry_mode_Fbw                                /home/mav/paparazzi/var/Radian/ap/firmwares/fixedwing/fbw_downlink.o
                                                  /home/mav/paparazzi/var/Radian/ap/firmwares/fixedwing/datalink.o
                                                  /home/mav/paparazzi/var/Radian/ap/firmwares/fixedwing/main_ap.o
                                                  /home/mav/paparazzi/var/Radian/ap/firmwares/fixedwing/main_fbw.o
telemetry_tid                                     /home/mav/paparazzi/var/Radian/ap/firmwares/fixedwing/main_ap.o
the_acs                                           /home/mav/paparazzi/var/Radian/ap/subsystems/navigation/traffic_info.o
                                                  /home/mav/paparazzi/var/Radian/ap/firmwares/fixedwing/datalink.o
the_acs_id                                        /home/mav/paparazzi/var/Radian/ap/subsystems/navigation/traffic_info.o
                                                  /home/mav/paparazzi/var/Radian/ap/firmwares/fixedwing/datalink.o
tim6_irq_handler                                  /home/mav/paparazzi/var/Radian/ap/arch/stm32/subsystems/radio_control/spektrum_arch.o
                                                  /home/mav/paparazzi/var/Radian/ap/arch/stm32/stm32_vector_table.o
time_since_last_ap                                /home/mav/paparazzi/var/Radian/ap/./inter_mcu.o
                                                  /home/mav/paparazzi/var/Radian/ap/firmwares/fixedwing/main_fbw.o
too_far_from_home                                 /home/mav/paparazzi/var/Radian/ap/subsystems/nav.o
                                                  /home/mav/paparazzi/var/Radian/ap/firmwares/fixedwing/main_ap.o
traffic_info_init                                 /home/mav/paparazzi/var/Radian/ap/subsystems/navigation/traffic_info.o
                                                  /home/mav/paparazzi/var/Radian/ap/firmwares/fixedwing/main_ap.o
uart2                                             /home/mav/paparazzi/var/Radian/ap/mcu_periph/uart.o
                                                  /home/mav/paparazzi/var/Radian/ap/subsystems/gps/gps_ubx.o
                                                  /home/mav/paparazzi/var/Radian/ap/firmwares/fixedwing/datalink.o
                                                  /home/mav/paparazzi/var/Radian/ap/arch/stm32/mcu_periph/uart_arch.o
                                                  /home/mav/paparazzi/var/Radian/ap/firmwares/fixedwing/main_ap.o
                                                  /home/mav/paparazzi/var/Radian/ap/firmwares/fixedwing/main_fbw.o
uart2_init                                        /home/mav/paparazzi/var/Radian/ap/arch/stm32/mcu_periph/uart_arch.o
                                                  /home/mav/paparazzi/var/Radian/ap/mcu.o
uart3                                             /home/mav/paparazzi/var/Radian/ap/mcu_periph/uart.o
                                                  /home/mav/paparazzi/var/Radian/ap/subsystems/gps/gps_ubx.o
                                                  /home/mav/paparazzi/var/Radian/ap/arch/stm32/mcu_periph/uart_arch.o
                                                  /home/mav/paparazzi/var/Radian/ap/firmwares/fixedwing/main_ap.o
uart3_init                                        /home/mav/paparazzi/var/Radian/ap/arch/stm32/mcu_periph/uart_arch.o
                                                  /home/mav/paparazzi/var/Radian/ap/mcu.o
uart_check_free_space                             /home/mav/paparazzi/var/Radian/ap/mcu_periph/uart.o
                                                  /home/mav/paparazzi/var/Radian/ap/subsystems/gps/gps_ubx.o
                                                  /home/mav/paparazzi/var/Radian/ap/firmwares/fixedwing/datalink.o
                                                  /home/mav/paparazzi/var/Radian/ap/firmwares/fixedwing/main_ap.o
                                                  /home/mav/paparazzi/var/Radian/ap/firmwares/fixedwing/main_fbw.o
uart_periph_init                                  /home/mav/paparazzi/var/Radian/ap/mcu_periph/uart.o
                                                  /home/mav/paparazzi/var/Radian/ap/arch/stm32/mcu_periph/uart_arch.o
uart_periph_set_baudrate                          /home/mav/paparazzi/var/Radian/ap/arch/stm32/mcu_periph/uart_arch.o
                                                  /home/mav/paparazzi/var/Radian/ap/subsystems/gps/gps_ubx.o
uart_transmit                                     /home/mav/paparazzi/var/Radian/ap/arch/stm32/mcu_periph/uart_arch.o
                                                  /home/mav/paparazzi/var/Radian/ap/subsystems/gps/gps_ubx.o
                                                  /home/mav/paparazzi/var/Radian/ap/firmwares/fixedwing/datalink.o
                                                  /home/mav/paparazzi/var/Radian/ap/firmwares/fixedwing/main_ap.o
                                                  /home/mav/paparazzi/var/Radian/ap/firmwares/fixedwing/main_fbw.o
ubxsend_cfg_rst                                   /home/mav/paparazzi/var/Radian/ap/subsystems/gps/gps_ubx.o
usage_fault_exception                             /home/mav/paparazzi/var/Radian/ap/arch/stm32/stm32_exceptions.o
                                                  /home/mav/paparazzi/var/Radian/ap/arch/stm32/stm32_vector_table.o
usart1_irq_handler                                /home/mav/paparazzi/var/Radian/ap/arch/stm32/subsystems/radio_control/spektrum_arch.o
                                                  /home/mav/paparazzi/var/Radian/ap/arch/stm32/stm32_vector_table.o
usart2_irq_handler                                /home/mav/paparazzi/var/Radian/ap/arch/stm32/mcu_periph/uart_arch.o
                                                  /home/mav/paparazzi/var/Radian/ap/arch/stm32/stm32_vector_table.o
usart3_irq_handler                                /home/mav/paparazzi/var/Radian/ap/arch/stm32/mcu_periph/uart_arch.o
                                                  /home/mav/paparazzi/var/Radian/ap/arch/stm32/stm32_vector_table.o
usart_disable                                     /opt/paparazzi/arm-multilib/lib/gcc/arm-none-eabi/4.6.2/../../../../arm-none-eabi/lib/libopencm3_stm32.a(usart.o)
usart_enable                                      /opt/paparazzi/arm-multilib/lib/gcc/arm-none-eabi/4.6.2/../../../../arm-none-eabi/lib/libopencm3_stm32.a(usart.o)
usart_recv                                        /opt/paparazzi/arm-multilib/lib/gcc/arm-none-eabi/4.6.2/../../../../arm-none-eabi/lib/libopencm3_stm32.a(usart.o)
usart_recv_blocking                               /opt/paparazzi/arm-multilib/lib/gcc/arm-none-eabi/4.6.2/../../../../arm-none-eabi/lib/libopencm3_stm32.a(usart.o)
usart_send                                        /opt/paparazzi/arm-multilib/lib/gcc/arm-none-eabi/4.6.2/../../../../arm-none-eabi/lib/libopencm3_stm32.a(usart.o)
usart_send_blocking                               /opt/paparazzi/arm-multilib/lib/gcc/arm-none-eabi/4.6.2/../../../../arm-none-eabi/lib/libopencm3_stm32.a(usart.o)
usart_set_baudrate                                /opt/paparazzi/arm-multilib/lib/gcc/arm-none-eabi/4.6.2/../../../../arm-none-eabi/lib/libopencm3_stm32.a(usart.o)
                                                  /home/mav/paparazzi/var/Radian/ap/arch/stm32/subsystems/radio_control/spektrum_arch.o
                                                  /home/mav/paparazzi/var/Radian/ap/arch/stm32/mcu_periph/uart_arch.o
usart_set_databits                                /opt/paparazzi/arm-multilib/lib/gcc/arm-none-eabi/4.6.2/../../../../arm-none-eabi/lib/libopencm3_stm32.a(usart.o)
usart_set_flow_control                            /opt/paparazzi/arm-multilib/lib/gcc/arm-none-eabi/4.6.2/../../../../arm-none-eabi/lib/libopencm3_stm32.a(usart.o)
usart_set_mode                                    /opt/paparazzi/arm-multilib/lib/gcc/arm-none-eabi/4.6.2/../../../../arm-none-eabi/lib/libopencm3_stm32.a(usart.o)
usart_set_parity                                  /opt/paparazzi/arm-multilib/lib/gcc/arm-none-eabi/4.6.2/../../../../arm-none-eabi/lib/libopencm3_stm32.a(usart.o)
usart_set_stopbits                                /opt/paparazzi/arm-multilib/lib/gcc/arm-none-eabi/4.6.2/../../../../arm-none-eabi/lib/libopencm3_stm32.a(usart.o)
usart_wait_recv_ready                             /opt/paparazzi/arm-multilib/lib/gcc/arm-none-eabi/4.6.2/../../../../arm-none-eabi/lib/libopencm3_stm32.a(usart.o)
usart_wait_send_ready                             /opt/paparazzi/arm-multilib/lib/gcc/arm-none-eabi/4.6.2/../../../../arm-none-eabi/lib/libopencm3_stm32.a(usart.o)
utm_of_lla_f                                      /home/mav/paparazzi/var/Radian/ap/math/pprz_geodetic_float.o
                                                  /home/mav/paparazzi/var/Radian/ap/subsystems/nav.o
                                                  /home/mav/paparazzi/var/Radian/ap/subsystems/gps/gps_ubx.o
                                                  /home/mav/paparazzi/var/Radian/ap/firmwares/fixedwing/datalink.o
v_ctl_altitude_error                              /home/mav/paparazzi/var/Radian/ap/firmwares/fixedwing/guidance/guidance_v.o
v_ctl_altitude_loop                               /home/mav/paparazzi/var/Radian/ap/firmwares/fixedwing/guidance/guidance_v.o
                                                  /home/mav/paparazzi/var/Radian/ap/firmwares/fixedwing/main_ap.o
v_ctl_altitude_max_climb                          /home/mav/paparazzi/var/Radian/ap/firmwares/fixedwing/guidance/guidance_v.o
v_ctl_altitude_pgain                              /home/mav/paparazzi/var/Radian/ap/firmwares/fixedwing/guidance/guidance_v.o
v_ctl_altitude_pre_climb                          /home/mav/paparazzi/var/Radian/ap/firmwares/fixedwing/guidance/guidance_v.o
                                                  /home/mav/paparazzi/var/Radian/ap/subsystems/navigation/nav_line.o
                                                  /home/mav/paparazzi/var/Radian/ap/subsystems/navigation/nav_survey_rectangle.o
                                                  /home/mav/paparazzi/var/Radian/ap/subsystems/nav.o
v_ctl_altitude_pre_climb_correction               /home/mav/paparazzi/var/Radian/ap/firmwares/fixedwing/guidance/guidance_v.o
v_ctl_altitude_setpoint                           /home/mav/paparazzi/var/Radian/ap/firmwares/fixedwing/guidance/guidance_v.o
                                                  /home/mav/paparazzi/var/Radian/ap/subsystems/nav.o
                                                  /home/mav/paparazzi/var/Radian/ap/firmwares/fixedwing/main_ap.o
v_ctl_auto_pitch_igain                            /home/mav/paparazzi/var/Radian/ap/firmwares/fixedwing/guidance/guidance_v.o
v_ctl_auto_pitch_pgain                            /home/mav/paparazzi/var/Radian/ap/firmwares/fixedwing/guidance/guidance_v.o
v_ctl_auto_pitch_sum_err                          /home/mav/paparazzi/var/Radian/ap/firmwares/fixedwing/guidance/guidance_v.o
v_ctl_auto_throttle_climb_throttle_increment      /home/mav/paparazzi/var/Radian/ap/firmwares/fixedwing/guidance/guidance_v.o
v_ctl_auto_throttle_cruise_throttle               /home/mav/paparazzi/var/Radian/ap/firmwares/fixedwing/guidance/guidance_v.o
v_ctl_auto_throttle_dgain                         /home/mav/paparazzi/var/Radian/ap/firmwares/fixedwing/guidance/guidance_v.o
v_ctl_auto_throttle_igain                         /home/mav/paparazzi/var/Radian/ap/firmwares/fixedwing/guidance/guidance_v.o
v_ctl_auto_throttle_max_cruise_throttle           /home/mav/paparazzi/var/Radian/ap/firmwares/fixedwing/guidance/guidance_v.o
v_ctl_auto_throttle_min_cruise_throttle           /home/mav/paparazzi/var/Radian/ap/firmwares/fixedwing/guidance/guidance_v.o
v_ctl_auto_throttle_nominal_cruise_throttle       /home/mav/paparazzi/var/Radian/ap/firmwares/fixedwing/guidance/guidance_v.o
v_ctl_auto_throttle_pgain                         /home/mav/paparazzi/var/Radian/ap/firmwares/fixedwing/guidance/guidance_v.o
v_ctl_auto_throttle_pitch_of_vz_dgain             /home/mav/paparazzi/var/Radian/ap/firmwares/fixedwing/guidance/guidance_v.o
v_ctl_auto_throttle_pitch_of_vz_pgain             /home/mav/paparazzi/var/Radian/ap/firmwares/fixedwing/guidance/guidance_v.o
v_ctl_auto_throttle_submode                       /home/mav/paparazzi/var/Radian/ap/firmwares/fixedwing/guidance/guidance_v.o
                                                  /home/mav/paparazzi/var/Radian/ap/firmwares/fixedwing/main_ap.o
v_ctl_auto_throttle_sum_err                       /home/mav/paparazzi/var/Radian/ap/firmwares/fixedwing/guidance/guidance_v.o
                                                  /home/mav/paparazzi/var/Radian/ap/firmwares/fixedwing/main_ap.o
v_ctl_climb_loop                                  /home/mav/paparazzi/var/Radian/ap/firmwares/fixedwing/guidance/guidance_v.o
                                                  /home/mav/paparazzi/var/Radian/ap/firmwares/fixedwing/main_ap.o
v_ctl_climb_mode                                  /home/mav/paparazzi/var/Radian/ap/firmwares/fixedwing/guidance/guidance_v.o
                                                  /home/mav/paparazzi/var/Radian/ap/subsystems/navigation/nav_line.o
                                                  /home/mav/paparazzi/var/Radian/ap/subsystems/navigation/nav_survey_rectangle.o
                                                  /home/mav/paparazzi/var/Radian/ap/subsystems/nav.o
v_ctl_climb_setpoint                              /home/mav/paparazzi/var/Radian/ap/firmwares/fixedwing/guidance/guidance_v.o
                                                  /home/mav/paparazzi/var/Radian/ap/firmwares/fixedwing/main_ap.o
v_ctl_init                                        /home/mav/paparazzi/var/Radian/ap/firmwares/fixedwing/guidance/guidance_v.o
                                                  /home/mav/paparazzi/var/Radian/ap/firmwares/fixedwing/main_ap.o
v_ctl_mode                                        /home/mav/paparazzi/var/Radian/ap/firmwares/fixedwing/guidance/guidance_v.o
                                                  /home/mav/paparazzi/var/Radian/ap/subsystems/navigation/nav_line.o
                                                  /home/mav/paparazzi/var/Radian/ap/subsystems/navigation/nav_survey_rectangle.o
                                                  /home/mav/paparazzi/var/Radian/ap/subsystems/nav.o
                                                  /home/mav/paparazzi/var/Radian/ap/firmwares/fixedwing/main_ap.o
v_ctl_throttle_setpoint                           /home/mav/paparazzi/var/Radian/ap/firmwares/fixedwing/guidance/guidance_v.o
                                                  /home/mav/paparazzi/var/Radian/ap/firmwares/fixedwing/stabilization/stabilization_attitude.o
                                                  /home/mav/paparazzi/var/Radian/ap/firmwares/fixedwing/main_ap.o
v_ctl_throttle_slew                               /home/mav/paparazzi/var/Radian/ap/firmwares/fixedwing/guidance/guidance_v.o
                                                  /home/mav/paparazzi/var/Radian/ap/firmwares/fixedwing/main_ap.o
v_ctl_throttle_slewed                             /home/mav/paparazzi/var/Radian/ap/firmwares/fixedwing/guidance/guidance_v.o
                                                  /home/mav/paparazzi/var/Radian/ap/firmwares/fixedwing/main_ap.o
vector_table                                      /home/mav/paparazzi/var/Radian/ap/arch/stm32/stm32_vector_table.o
vsupply                                           /home/mav/paparazzi/var/Radian/ap/firmwares/fixedwing/main_ap.o
waypoints                                         /home/mav/paparazzi/var/Radian/ap/subsystems/nav.o
                                                  /home/mav/paparazzi/var/Radian/ap/subsystems/navigation/nav_line.o
                                                  /home/mav/paparazzi/var/Radian/ap/subsystems/navigation/nav_survey_rectangle.o
                                                  /home/mav/paparazzi/var/Radian/ap/firmwares/fixedwing/datalink.o
                                                  /home/mav/paparazzi/var/Radian/ap/firmwares/fixedwing/main_ap.o
wind_east                                         /home/mav/paparazzi/var/Radian/ap/./estimator.o
                                                  /home/mav/paparazzi/var/Radian/ap/firmwares/fixedwing/datalink.o
wind_north                                        /home/mav/paparazzi/var/Radian/ap/./estimator.o
                                                  /home/mav/paparazzi/var/Radian/ap/firmwares/fixedwing/datalink.o
