   1              		.syntax unified
   2              		.cpu cortex-m3
   3              		.fpu softvfp
   4              		.eabi_attribute 20, 1
   5              		.eabi_attribute 21, 1
   6              		.eabi_attribute 23, 3
   7              		.eabi_attribute 24, 1
   8              		.eabi_attribute 25, 1
   9              		.eabi_attribute 26, 1
  10              		.eabi_attribute 30, 4
  11              		.eabi_attribute 18, 4
  12              		.thumb
  13              		.file	"gps_ubx.c"
  14              		.text
  15              	.Ltext0:
  16              		.cfi_sections	.debug_frame
  17              		.section	.text.gps_ubx_ucenter_enable_msg.constprop.0,"ax",%progbits
  18              		.align	1
  19              		.thumb
  20              		.thumb_func
  22              	gps_ubx_ucenter_enable_msg.constprop.0:
  23              	.LFB44:
  24              		.file 1 "./modules/gps/gps_ubx_ucenter.c"
   1:./modules/gps/gps_ubx_ucenter.c **** /*
   2:./modules/gps/gps_ubx_ucenter.c ****  * Copyright (C) 2008-2011 The Paparazzi Team
   3:./modules/gps/gps_ubx_ucenter.c ****  *
   4:./modules/gps/gps_ubx_ucenter.c ****  * This file is part of paparazzi.
   5:./modules/gps/gps_ubx_ucenter.c ****  *
   6:./modules/gps/gps_ubx_ucenter.c ****  * paparazzi is free software; you can redistribute it and/or modify
   7:./modules/gps/gps_ubx_ucenter.c ****  * it under the terms of the GNU General Public License as published by
   8:./modules/gps/gps_ubx_ucenter.c ****  * the Free Software Foundation; either version 2, or (at your option)
   9:./modules/gps/gps_ubx_ucenter.c ****  * any later version.
  10:./modules/gps/gps_ubx_ucenter.c ****  *
  11:./modules/gps/gps_ubx_ucenter.c ****  * paparazzi is distributed in the hope that it will be useful,
  12:./modules/gps/gps_ubx_ucenter.c ****  * but WITHOUT ANY WARRANTY; without even the implied warranty of
  13:./modules/gps/gps_ubx_ucenter.c ****  * MERCHANTABILITY or FITNESS FOR A PARTICULAR PURPOSE.  See the
  14:./modules/gps/gps_ubx_ucenter.c ****  * GNU General Public License for more details.
  15:./modules/gps/gps_ubx_ucenter.c ****  *
  16:./modules/gps/gps_ubx_ucenter.c ****  * You should have received a copy of the GNU General Public License
  17:./modules/gps/gps_ubx_ucenter.c ****  * along with paparazzi; see the file COPYING.  If not, write to
  18:./modules/gps/gps_ubx_ucenter.c ****  * the Free Software Foundation, 59 Temple Place - Suite 330,
  19:./modules/gps/gps_ubx_ucenter.c ****  * Boston, MA 02111-1307, USA.
  20:./modules/gps/gps_ubx_ucenter.c ****  *
  21:./modules/gps/gps_ubx_ucenter.c ****  * Initial author: C. De Wagter
  22:./modules/gps/gps_ubx_ucenter.c ****  */
  23:./modules/gps/gps_ubx_ucenter.c **** 
  24:./modules/gps/gps_ubx_ucenter.c **** #include "gps_ubx_ucenter.h"
  25:./modules/gps/gps_ubx_ucenter.c **** 
  26:./modules/gps/gps_ubx_ucenter.c **** //////////////////////////////////////////////////////////////////////////////////////
  27:./modules/gps/gps_ubx_ucenter.c **** //////////////////////////////////////////////////////////////////////////////////////
  28:./modules/gps/gps_ubx_ucenter.c **** //
  29:./modules/gps/gps_ubx_ucenter.c **** // UCENTER: init, periodic and event
  30:./modules/gps/gps_ubx_ucenter.c **** 
  31:./modules/gps/gps_ubx_ucenter.c **** static bool_t gps_ubx_ucenter_autobaud(uint8_t nr);
  32:./modules/gps/gps_ubx_ucenter.c **** static bool_t gps_ubx_ucenter_configure(uint8_t nr);
  33:./modules/gps/gps_ubx_ucenter.c **** 
  34:./modules/gps/gps_ubx_ucenter.c **** #define GPS_UBX_UCENTER_STATUS_STOPPED    0
  35:./modules/gps/gps_ubx_ucenter.c **** #define GPS_UBX_UCENTER_STATUS_AUTOBAUD   1
  36:./modules/gps/gps_ubx_ucenter.c **** #define GPS_UBX_UCENTER_STATUS_CONFIG     2
  37:./modules/gps/gps_ubx_ucenter.c **** 
  38:./modules/gps/gps_ubx_ucenter.c **** #define GPS_UBX_UCENTER_REPLY_NONE        0
  39:./modules/gps/gps_ubx_ucenter.c **** #define GPS_UBX_UCENTER_REPLY_ACK         1
  40:./modules/gps/gps_ubx_ucenter.c **** #define GPS_UBX_UCENTER_REPLY_NACK        2
  41:./modules/gps/gps_ubx_ucenter.c **** #define GPS_UBX_UCENTER_REPLY_VERSION     3
  42:./modules/gps/gps_ubx_ucenter.c **** 
  43:./modules/gps/gps_ubx_ucenter.c **** // All U-Center data
  44:./modules/gps/gps_ubx_ucenter.c **** struct gps_ubx_ucenter_struct gps_ubx_ucenter;
  45:./modules/gps/gps_ubx_ucenter.c **** 
  46:./modules/gps/gps_ubx_ucenter.c **** 
  47:./modules/gps/gps_ubx_ucenter.c **** /////////////////////////////
  48:./modules/gps/gps_ubx_ucenter.c **** // Init Function
  49:./modules/gps/gps_ubx_ucenter.c **** 
  50:./modules/gps/gps_ubx_ucenter.c **** void gps_ubx_ucenter_init(void)
  51:./modules/gps/gps_ubx_ucenter.c **** {
  52:./modules/gps/gps_ubx_ucenter.c ****   // Start UCenter
  53:./modules/gps/gps_ubx_ucenter.c ****   gps_ubx_ucenter.status = GPS_UBX_UCENTER_STATUS_AUTOBAUD;
  54:./modules/gps/gps_ubx_ucenter.c ****   gps_ubx_ucenter.reply = GPS_UBX_UCENTER_REPLY_NONE;
  55:./modules/gps/gps_ubx_ucenter.c ****   gps_ubx_ucenter.cnt = 0;
  56:./modules/gps/gps_ubx_ucenter.c **** 
  57:./modules/gps/gps_ubx_ucenter.c ****   gps_ubx_ucenter.baud_init = 0;
  58:./modules/gps/gps_ubx_ucenter.c ****   gps_ubx_ucenter.baud_run = 0;
  59:./modules/gps/gps_ubx_ucenter.c **** 
  60:./modules/gps/gps_ubx_ucenter.c ****   gps_ubx_ucenter.sw_ver_h = 0;
  61:./modules/gps/gps_ubx_ucenter.c ****   gps_ubx_ucenter.sw_ver_l = 0;
  62:./modules/gps/gps_ubx_ucenter.c ****   gps_ubx_ucenter.hw_ver_h = 0;
  63:./modules/gps/gps_ubx_ucenter.c ****   gps_ubx_ucenter.hw_ver_l = 0;
  64:./modules/gps/gps_ubx_ucenter.c **** 
  65:./modules/gps/gps_ubx_ucenter.c ****   for (int i=0; i<GPS_UBX_UCENTER_CONFIG_STEPS; i++)
  66:./modules/gps/gps_ubx_ucenter.c ****   {
  67:./modules/gps/gps_ubx_ucenter.c ****     gps_ubx_ucenter.replies[i] = 0;
  68:./modules/gps/gps_ubx_ucenter.c ****   }
  69:./modules/gps/gps_ubx_ucenter.c **** }
  70:./modules/gps/gps_ubx_ucenter.c **** 
  71:./modules/gps/gps_ubx_ucenter.c **** 
  72:./modules/gps/gps_ubx_ucenter.c **** /////////////////////////////
  73:./modules/gps/gps_ubx_ucenter.c **** // Periodic Function
  74:./modules/gps/gps_ubx_ucenter.c **** // -time-based configuration
  75:./modules/gps/gps_ubx_ucenter.c **** 
  76:./modules/gps/gps_ubx_ucenter.c **** void gps_ubx_ucenter_periodic(void)
  77:./modules/gps/gps_ubx_ucenter.c **** {
  78:./modules/gps/gps_ubx_ucenter.c ****   switch (gps_ubx_ucenter.status)
  79:./modules/gps/gps_ubx_ucenter.c ****   {
  80:./modules/gps/gps_ubx_ucenter.c ****     // Save processing time inflight
  81:./modules/gps/gps_ubx_ucenter.c ****     case GPS_UBX_UCENTER_STATUS_STOPPED:
  82:./modules/gps/gps_ubx_ucenter.c ****       return;
  83:./modules/gps/gps_ubx_ucenter.c ****     // Automatically Determine Current Baudrate
  84:./modules/gps/gps_ubx_ucenter.c ****     case GPS_UBX_UCENTER_STATUS_AUTOBAUD:
  85:./modules/gps/gps_ubx_ucenter.c ****       if (gps_ubx_ucenter_autobaud(gps_ubx_ucenter.cnt) == FALSE)
  86:./modules/gps/gps_ubx_ucenter.c ****       {
  87:./modules/gps/gps_ubx_ucenter.c ****         gps_ubx_ucenter.status = GPS_UBX_UCENTER_STATUS_CONFIG;
  88:./modules/gps/gps_ubx_ucenter.c ****         gps_ubx_ucenter.cnt = 0;
  89:./modules/gps/gps_ubx_ucenter.c ****       }
  90:./modules/gps/gps_ubx_ucenter.c ****       else
  91:./modules/gps/gps_ubx_ucenter.c ****       {
  92:./modules/gps/gps_ubx_ucenter.c ****         gps_ubx_ucenter.cnt++;
  93:./modules/gps/gps_ubx_ucenter.c ****       }
  94:./modules/gps/gps_ubx_ucenter.c ****       break;
  95:./modules/gps/gps_ubx_ucenter.c ****     // Send Configuration
  96:./modules/gps/gps_ubx_ucenter.c ****     case GPS_UBX_UCENTER_STATUS_CONFIG:
  97:./modules/gps/gps_ubx_ucenter.c ****       if (gps_ubx_ucenter_configure(gps_ubx_ucenter.cnt) == FALSE)
  98:./modules/gps/gps_ubx_ucenter.c ****       {
  99:./modules/gps/gps_ubx_ucenter.c ****         gps_ubx_ucenter.status = GPS_UBX_UCENTER_STATUS_STOPPED;
 100:./modules/gps/gps_ubx_ucenter.c ****         gps_ubx_ucenter.cnt = 0;
 101:./modules/gps/gps_ubx_ucenter.c ****       }
 102:./modules/gps/gps_ubx_ucenter.c ****       else
 103:./modules/gps/gps_ubx_ucenter.c ****       {
 104:./modules/gps/gps_ubx_ucenter.c ****         gps_ubx_ucenter.cnt++;
 105:./modules/gps/gps_ubx_ucenter.c ****       }
 106:./modules/gps/gps_ubx_ucenter.c ****       break;
 107:./modules/gps/gps_ubx_ucenter.c ****     default:
 108:./modules/gps/gps_ubx_ucenter.c ****       // stop this module now...
 109:./modules/gps/gps_ubx_ucenter.c ****       // todo
 110:./modules/gps/gps_ubx_ucenter.c ****       break;
 111:./modules/gps/gps_ubx_ucenter.c ****   }
 112:./modules/gps/gps_ubx_ucenter.c **** }
 113:./modules/gps/gps_ubx_ucenter.c **** 
 114:./modules/gps/gps_ubx_ucenter.c **** /////////////////////////////
 115:./modules/gps/gps_ubx_ucenter.c **** // Event Function
 116:./modules/gps/gps_ubx_ucenter.c **** // -fetch replies: ACK and VERSION info
 117:./modules/gps/gps_ubx_ucenter.c **** 
 118:./modules/gps/gps_ubx_ucenter.c **** void gps_ubx_ucenter_event(void)
 119:./modules/gps/gps_ubx_ucenter.c **** {
 120:./modules/gps/gps_ubx_ucenter.c ****   // Save processing time inflight
 121:./modules/gps/gps_ubx_ucenter.c ****   if (gps_ubx_ucenter.status == GPS_UBX_UCENTER_STATUS_STOPPED)
 122:./modules/gps/gps_ubx_ucenter.c ****     return;
 123:./modules/gps/gps_ubx_ucenter.c **** 
 124:./modules/gps/gps_ubx_ucenter.c ****   // Read Configuration Reply's
 125:./modules/gps/gps_ubx_ucenter.c ****   if (gps_ubx.msg_class == UBX_ACK_ID) {
 126:./modules/gps/gps_ubx_ucenter.c ****     if (gps_ubx.msg_id == UBX_ACK_ACK_ID) {
 127:./modules/gps/gps_ubx_ucenter.c ****       gps_ubx_ucenter.reply = GPS_UBX_UCENTER_REPLY_ACK;
 128:./modules/gps/gps_ubx_ucenter.c ****     }
 129:./modules/gps/gps_ubx_ucenter.c ****     else
 130:./modules/gps/gps_ubx_ucenter.c ****     {
 131:./modules/gps/gps_ubx_ucenter.c ****       gps_ubx_ucenter.reply = GPS_UBX_UCENTER_REPLY_NACK;
 132:./modules/gps/gps_ubx_ucenter.c ****     }
 133:./modules/gps/gps_ubx_ucenter.c ****   }
 134:./modules/gps/gps_ubx_ucenter.c ****   // Version info
 135:./modules/gps/gps_ubx_ucenter.c ****   else if (gps_ubx.msg_class == UBX_MON_ID) {
 136:./modules/gps/gps_ubx_ucenter.c ****     if (gps_ubx.msg_id == UBX_MON_VER_ID ) {
 137:./modules/gps/gps_ubx_ucenter.c ****       gps_ubx_ucenter.reply = GPS_UBX_UCENTER_REPLY_VERSION;
 138:./modules/gps/gps_ubx_ucenter.c ****       gps_ubx_ucenter.sw_ver_h = UBX_MON_VER_c(gps_ubx.msg_buf,0) - '0';
 139:./modules/gps/gps_ubx_ucenter.c ****       gps_ubx_ucenter.sw_ver_l = 10*(UBX_MON_VER_c(gps_ubx.msg_buf,2) - '0');
 140:./modules/gps/gps_ubx_ucenter.c ****       gps_ubx_ucenter.sw_ver_l += UBX_MON_VER_c(gps_ubx.msg_buf,3) - '0';
 141:./modules/gps/gps_ubx_ucenter.c ****       gps_ubx_ucenter.hw_ver_h = UBX_MON_VER_c(gps_ubx.msg_buf,33) - '0';
 142:./modules/gps/gps_ubx_ucenter.c ****       gps_ubx_ucenter.hw_ver_h += 10*(UBX_MON_VER_c(gps_ubx.msg_buf,32) - '0');
 143:./modules/gps/gps_ubx_ucenter.c ****       gps_ubx_ucenter.hw_ver_l = UBX_MON_VER_c(gps_ubx.msg_buf,37) - '0';
 144:./modules/gps/gps_ubx_ucenter.c ****       gps_ubx_ucenter.hw_ver_l += 10*(UBX_MON_VER_c(gps_ubx.msg_buf,36) - '0');
 145:./modules/gps/gps_ubx_ucenter.c ****     }
 146:./modules/gps/gps_ubx_ucenter.c ****   }
 147:./modules/gps/gps_ubx_ucenter.c **** }
 148:./modules/gps/gps_ubx_ucenter.c **** 
 149:./modules/gps/gps_ubx_ucenter.c **** //////////////////////////////////////////////////////////////////////////////////////
 150:./modules/gps/gps_ubx_ucenter.c **** //////////////////////////////////////////////////////////////////////////////////////
 151:./modules/gps/gps_ubx_ucenter.c **** //
 152:./modules/gps/gps_ubx_ucenter.c **** // UCENTER Configuration Functions
 153:./modules/gps/gps_ubx_ucenter.c **** 
 154:./modules/gps/gps_ubx_ucenter.c **** 
 155:./modules/gps/gps_ubx_ucenter.c **** static bool_t gps_ubx_ucenter_autobaud(uint8_t nr)
 156:./modules/gps/gps_ubx_ucenter.c **** {
 157:./modules/gps/gps_ubx_ucenter.c ****   switch (nr)
 158:./modules/gps/gps_ubx_ucenter.c ****   {
 159:./modules/gps/gps_ubx_ucenter.c ****   case 0:
 160:./modules/gps/gps_ubx_ucenter.c ****   case 1:
 161:./modules/gps/gps_ubx_ucenter.c ****     // Very important for some modules:
 162:./modules/gps/gps_ubx_ucenter.c ****     // Give the GPS some time to boot (up to 0.75 second)
 163:./modules/gps/gps_ubx_ucenter.c ****     break;
 164:./modules/gps/gps_ubx_ucenter.c ****   case 2:
 165:./modules/gps/gps_ubx_ucenter.c ****     gps_ubx_ucenter.reply = GPS_UBX_UCENTER_REPLY_NONE;
 166:./modules/gps/gps_ubx_ucenter.c ****     GpsUartSetBaudrate(B38400); // Try the most common first?
 167:./modules/gps/gps_ubx_ucenter.c ****     UbxSend_CFG_MSG(UBX_NAV_ID, UBX_NAV_VELNED_ID, 0, 1, 0, 0);
 168:./modules/gps/gps_ubx_ucenter.c ****     break;
 169:./modules/gps/gps_ubx_ucenter.c ****   case 3:
 170:./modules/gps/gps_ubx_ucenter.c ****     if (gps_ubx_ucenter.reply == GPS_UBX_UCENTER_REPLY_ACK)
 171:./modules/gps/gps_ubx_ucenter.c ****     {
 172:./modules/gps/gps_ubx_ucenter.c ****       gps_ubx_ucenter.baud_init = 38400;
 173:./modules/gps/gps_ubx_ucenter.c ****       return FALSE;
 174:./modules/gps/gps_ubx_ucenter.c ****     }
 175:./modules/gps/gps_ubx_ucenter.c ****     gps_ubx_ucenter.reply = GPS_UBX_UCENTER_REPLY_NONE;
 176:./modules/gps/gps_ubx_ucenter.c ****     GpsUartSetBaudrate(B9600); // Maybe the factory default?
 177:./modules/gps/gps_ubx_ucenter.c ****     UbxSend_CFG_MSG(UBX_NAV_ID, UBX_NAV_VELNED_ID, 0, 1, 0, 0);
 178:./modules/gps/gps_ubx_ucenter.c ****     break;
 179:./modules/gps/gps_ubx_ucenter.c ****   case 4:
 180:./modules/gps/gps_ubx_ucenter.c ****     if (gps_ubx_ucenter.reply == GPS_UBX_UCENTER_REPLY_ACK)
 181:./modules/gps/gps_ubx_ucenter.c ****     {
 182:./modules/gps/gps_ubx_ucenter.c ****       gps_ubx_ucenter.baud_init = 9600;
 183:./modules/gps/gps_ubx_ucenter.c ****       return FALSE;
 184:./modules/gps/gps_ubx_ucenter.c ****     }
 185:./modules/gps/gps_ubx_ucenter.c ****     gps_ubx_ucenter.reply = GPS_UBX_UCENTER_REPLY_NONE;
 186:./modules/gps/gps_ubx_ucenter.c ****     GpsUartSetBaudrate(B57600); // The high-rate default?
 187:./modules/gps/gps_ubx_ucenter.c ****     UbxSend_CFG_MSG(UBX_NAV_ID, UBX_NAV_VELNED_ID, 0, 1, 0, 0);
 188:./modules/gps/gps_ubx_ucenter.c ****     break;
 189:./modules/gps/gps_ubx_ucenter.c ****   case 5:
 190:./modules/gps/gps_ubx_ucenter.c ****     if (gps_ubx_ucenter.reply == GPS_UBX_UCENTER_REPLY_ACK)
 191:./modules/gps/gps_ubx_ucenter.c ****     {
 192:./modules/gps/gps_ubx_ucenter.c ****       gps_ubx_ucenter.baud_init = 57600;
 193:./modules/gps/gps_ubx_ucenter.c ****       return FALSE;
 194:./modules/gps/gps_ubx_ucenter.c ****      }
 195:./modules/gps/gps_ubx_ucenter.c ****     gps_ubx_ucenter.reply = GPS_UBX_UCENTER_REPLY_NONE;
 196:./modules/gps/gps_ubx_ucenter.c ****     GpsUartSetBaudrate(B4800); // Default NMEA baudrate finally?
 197:./modules/gps/gps_ubx_ucenter.c ****     UbxSend_CFG_MSG(UBX_NAV_ID, UBX_NAV_VELNED_ID, 0, 1, 0, 0);
 198:./modules/gps/gps_ubx_ucenter.c ****     break;
 199:./modules/gps/gps_ubx_ucenter.c ****   case 6:
 200:./modules/gps/gps_ubx_ucenter.c ****     if (gps_ubx_ucenter.reply == GPS_UBX_UCENTER_REPLY_ACK)
 201:./modules/gps/gps_ubx_ucenter.c ****     {
 202:./modules/gps/gps_ubx_ucenter.c ****       gps_ubx_ucenter.baud_init = 4800;
 203:./modules/gps/gps_ubx_ucenter.c ****       return FALSE;
 204:./modules/gps/gps_ubx_ucenter.c ****      }
 205:./modules/gps/gps_ubx_ucenter.c **** 
 206:./modules/gps/gps_ubx_ucenter.c ****     // Autoconfig Failed... let's setup the failsafe baudrate
 207:./modules/gps/gps_ubx_ucenter.c ****     // Should we try even a different baudrate?
 208:./modules/gps/gps_ubx_ucenter.c ****     gps_ubx_ucenter.baud_init = 0;
 209:./modules/gps/gps_ubx_ucenter.c ****     GpsUartSetBaudrate(B9600);
 210:./modules/gps/gps_ubx_ucenter.c ****     return FALSE;
 211:./modules/gps/gps_ubx_ucenter.c ****   default:
 212:./modules/gps/gps_ubx_ucenter.c ****     break;
 213:./modules/gps/gps_ubx_ucenter.c ****   }
 214:./modules/gps/gps_ubx_ucenter.c ****   return TRUE;
 215:./modules/gps/gps_ubx_ucenter.c **** }
 216:./modules/gps/gps_ubx_ucenter.c **** 
 217:./modules/gps/gps_ubx_ucenter.c **** /////////////////////////////////////
 218:./modules/gps/gps_ubx_ucenter.c **** // UBlox internal Navigation Solution
 219:./modules/gps/gps_ubx_ucenter.c **** 
 220:./modules/gps/gps_ubx_ucenter.c **** #define NAV_DYN_STATIONARY  1
 221:./modules/gps/gps_ubx_ucenter.c **** #define NAV_DYN_PEDESTRIAN  2
 222:./modules/gps/gps_ubx_ucenter.c **** #define NAV_DYN_AUTOMOTIVE  3
 223:./modules/gps/gps_ubx_ucenter.c **** #define NAV_DYN_SEA         4
 224:./modules/gps/gps_ubx_ucenter.c **** #define NAV_DYN_AIRBORNE_1G 5
 225:./modules/gps/gps_ubx_ucenter.c **** #define NAV_DYN_AIRBORNE_2G 6
 226:./modules/gps/gps_ubx_ucenter.c **** #define NAV_DYN_AIRBORNE_4G 7
 227:./modules/gps/gps_ubx_ucenter.c **** 
 228:./modules/gps/gps_ubx_ucenter.c **** #define NAV5_DYN_PORTABLE    0
 229:./modules/gps/gps_ubx_ucenter.c **** #define NAV5_DYN_FIXED       1
 230:./modules/gps/gps_ubx_ucenter.c **** #define NAV5_DYN_STATIONARY  2
 231:./modules/gps/gps_ubx_ucenter.c **** #define NAV5_DYN_PEDESTRIAN  3
 232:./modules/gps/gps_ubx_ucenter.c **** #define NAV5_DYN_AUTOMOTIVE  4
 233:./modules/gps/gps_ubx_ucenter.c **** #define NAV5_DYN_SEA         5
 234:./modules/gps/gps_ubx_ucenter.c **** #define NAV5_DYN_AIRBORNE_1G 6
 235:./modules/gps/gps_ubx_ucenter.c **** #define NAV5_DYN_AIRBORNE_2G 7
 236:./modules/gps/gps_ubx_ucenter.c **** #define NAV5_DYN_AIRBORNE_4G 8
 237:./modules/gps/gps_ubx_ucenter.c **** 
 238:./modules/gps/gps_ubx_ucenter.c **** #define NAV5_2D_ONLY 1
 239:./modules/gps/gps_ubx_ucenter.c **** #define NAV5_3D_ONLY 2
 240:./modules/gps/gps_ubx_ucenter.c **** #define NAV5_AUTO    3
 241:./modules/gps/gps_ubx_ucenter.c **** 
 242:./modules/gps/gps_ubx_ucenter.c **** #define IGNORED 0
 243:./modules/gps/gps_ubx_ucenter.c **** #define RESERVED 0
 244:./modules/gps/gps_ubx_ucenter.c **** 
 245:./modules/gps/gps_ubx_ucenter.c **** static inline void gps_ubx_ucenter_config_nav(void)
 246:./modules/gps/gps_ubx_ucenter.c **** {
 247:./modules/gps/gps_ubx_ucenter.c ****     //New ublox firmware v5 or higher uses CFG_NAV5 message, CFG_NAV is no longer available
 248:./modules/gps/gps_ubx_ucenter.c ****     if (gps_ubx_ucenter.sw_ver_h < 5)
 249:./modules/gps/gps_ubx_ucenter.c ****     {
 250:./modules/gps/gps_ubx_ucenter.c ****       UbxSend_CFG_NAV(NAV_DYN_AIRBORNE_2G, 3, 16, 24, 20, 5, 0, 0x3C, 0x3C, 0x14, 0x03E8 ,0x0000, 0
 251:./modules/gps/gps_ubx_ucenter.c ****     }
 252:./modules/gps/gps_ubx_ucenter.c ****     else
 253:./modules/gps/gps_ubx_ucenter.c ****     {
 254:./modules/gps/gps_ubx_ucenter.c ****       UbxSend_CFG_NAV5(0x05, NAV5_DYN_AIRBORNE_2G, NAV5_3D_ONLY, IGNORED, IGNORED, IGNORED, IGNORED
 255:./modules/gps/gps_ubx_ucenter.c ****     }
 256:./modules/gps/gps_ubx_ucenter.c **** }
 257:./modules/gps/gps_ubx_ucenter.c **** 
 258:./modules/gps/gps_ubx_ucenter.c **** 
 259:./modules/gps/gps_ubx_ucenter.c **** 
 260:./modules/gps/gps_ubx_ucenter.c **** /////////////////////////////////////
 261:./modules/gps/gps_ubx_ucenter.c **** // UBlox port and protocol GPS configuration
 262:./modules/gps/gps_ubx_ucenter.c **** 
 263:./modules/gps/gps_ubx_ucenter.c **** #define UBX_PROTO_MASK  0x0001
 264:./modules/gps/gps_ubx_ucenter.c **** #define NMEA_PROTO_MASK 0x0002
 265:./modules/gps/gps_ubx_ucenter.c **** #define RTCM_PROTO_MASK 0x0004
 266:./modules/gps/gps_ubx_ucenter.c **** 
 267:./modules/gps/gps_ubx_ucenter.c **** #define GPS_PORT_DDC   0x00
 268:./modules/gps/gps_ubx_ucenter.c **** #define GPS_PORT_UART1 0x01
 269:./modules/gps/gps_ubx_ucenter.c **** #define GPS_PORT_UART2 0x02
 270:./modules/gps/gps_ubx_ucenter.c **** #define GPS_PORT_USB   0x03
 271:./modules/gps/gps_ubx_ucenter.c **** #define GPS_PORT_SPI   0x04
 272:./modules/gps/gps_ubx_ucenter.c **** 
 273:./modules/gps/gps_ubx_ucenter.c **** #ifndef GPS_PORT_ID
 274:./modules/gps/gps_ubx_ucenter.c **** #define GPS_PORT_ID GPS_PORT_UART1
 275:./modules/gps/gps_ubx_ucenter.c **** #endif
 276:./modules/gps/gps_ubx_ucenter.c **** 
 277:./modules/gps/gps_ubx_ucenter.c **** #define __UBX_GPS_BAUD(_u) _u##_BAUD
 278:./modules/gps/gps_ubx_ucenter.c **** #define _UBX_GPS_BAUD(_u) __UBX_GPS_BAUD(_u)
 279:./modules/gps/gps_ubx_ucenter.c **** #define UBX_GPS_BAUD _UBX_GPS_BAUD(GPS_LINK)
 280:./modules/gps/gps_ubx_ucenter.c **** 
 281:./modules/gps/gps_ubx_ucenter.c **** static inline void gps_ubx_ucenter_config_port(void)
 282:./modules/gps/gps_ubx_ucenter.c **** {
 283:./modules/gps/gps_ubx_ucenter.c ****  // I2C Interface
 284:./modules/gps/gps_ubx_ucenter.c ****   #if GPS_PORT_ID == GPS_PORT_DDC
 285:./modules/gps/gps_ubx_ucenter.c ****     UbxSend_CFG_PRT(GPS_PORT_ID, 0x0, 0x0, GPS_I2C_SLAVE_ADDR, 0x0, UBX_PROTO_MASK, UBX_PROTO_MASK,
 286:./modules/gps/gps_ubx_ucenter.c ****   #endif
 287:./modules/gps/gps_ubx_ucenter.c ****   // UART Interface
 288:./modules/gps/gps_ubx_ucenter.c ****   #if GPS_PORT_ID == GPS_PORT_UART1 || GPS_PORT_ID == GPS_PORT_UART2
 289:./modules/gps/gps_ubx_ucenter.c ****     UbxSend_CFG_PRT(GPS_PORT_ID, 0x0, 0x0, 0x000008D0, 38400, UBX_PROTO_MASK, UBX_PROTO_MASK, 0x0, 
 290:./modules/gps/gps_ubx_ucenter.c ****   #endif
 291:./modules/gps/gps_ubx_ucenter.c **** }
 292:./modules/gps/gps_ubx_ucenter.c **** 
 293:./modules/gps/gps_ubx_ucenter.c **** #define GPS_SBAS_ENABLED       0x01
 294:./modules/gps/gps_ubx_ucenter.c **** 
 295:./modules/gps/gps_ubx_ucenter.c **** #define GPS_SBAS_RANGING       0x01
 296:./modules/gps/gps_ubx_ucenter.c **** #define GPS_SBAS_CORRECTIONS   0x02
 297:./modules/gps/gps_ubx_ucenter.c **** #define GPS_SBAS_INTEGRITY     0x04
 298:./modules/gps/gps_ubx_ucenter.c **** 
 299:./modules/gps/gps_ubx_ucenter.c **** static inline void gps_ubx_ucenter_config_sbas(void)
 300:./modules/gps/gps_ubx_ucenter.c **** {
 301:./modules/gps/gps_ubx_ucenter.c ****   // Since March 2nd 2011 EGNOS is released for aviation purposes
 302:./modules/gps/gps_ubx_ucenter.c ****   const uint8_t nrofsat = 1;
 303:./modules/gps/gps_ubx_ucenter.c ****   UbxSend_CFG_SBAS(GPS_SBAS_ENABLED, GPS_SBAS_RANGING | GPS_SBAS_CORRECTIONS | GPS_SBAS_INTEGRITY, 
 304:./modules/gps/gps_ubx_ucenter.c ****   //UbxSend_CFG_SBAS(0x00, 0x00, 0x00, 0x00, 0x00);
 305:./modules/gps/gps_ubx_ucenter.c **** }
 306:./modules/gps/gps_ubx_ucenter.c **** 
 307:./modules/gps/gps_ubx_ucenter.c **** static inline void gps_ubx_ucenter_enable_msg(uint8_t class, uint8_t id, uint8_t rate)
  25              		.loc 1 307 0
  26              		.cfi_startproc
  27              		@ args = 0, pretend = 0, frame = 0
  28              		@ frame_needed = 0, uses_anonymous_args = 0
  29              	.LVL0:
  30 0000 2DE9F041 		push	{r4, r5, r6, r7, r8, lr}
  31              	.LCFI0:
  32              		.cfi_def_cfa_offset 24
  33              		.cfi_offset 14, -4
  34              		.cfi_offset 8, -8
  35              		.cfi_offset 7, -12
  36              		.cfi_offset 6, -16
  37              		.cfi_offset 5, -20
  38              		.cfi_offset 4, -24
  39              	.LBB99:
 308:./modules/gps/gps_ubx_ucenter.c **** {
 309:./modules/gps/gps_ubx_ucenter.c ****   #if GPS_PORT_ID == GPS_PORT_UART1
 310:./modules/gps/gps_ubx_ucenter.c ****     UbxSend_CFG_MSG(class, id, 0, rate, 0, 0);
  40              		.loc 1 310 0
  41 0004 504D     		ldr	r5, .L2
  42              	.LBE99:
 307:./modules/gps/gps_ubx_ucenter.c **** static inline void gps_ubx_ucenter_enable_msg(uint8_t class, uint8_t id, uint8_t rate)
  43              		.loc 1 307 0
  44 0006 8046     		mov	r8, r0
  45 0008 0F46     		mov	r7, r1
  46              	.LBB153:
  47              		.loc 1 310 0
  48 000a 2846     		mov	r0, r5
  49              	.LVL1:
  50 000c B521     		movs	r1, #181
  51              	.LVL2:
  52 000e 4F4C     		ldr	r4, .L2+4
  53 0010 FFF7FEFF 		bl	uart_transmit
  54 0014 2846     		mov	r0, r5
  55 0016 6221     		movs	r1, #98
  56 0018 FFF7FEFF 		bl	uart_transmit
  57 001c 0026     		movs	r6, #0
  58              	.LBB100:
  59 001e 2846     		mov	r0, r5
  60 0020 0621     		movs	r1, #6
  61              	.LBE100:
  62 0022 84F81061 		strb	r6, [r4, #272]
  63 0026 84F80F61 		strb	r6, [r4, #271]
  64              	.LVL3:
  65              	.LBB101:
  66 002a FFF7FEFF 		bl	uart_transmit
  67 002e 94F80F31 		ldrb	r3, [r4, #271]	@ zero_extendqisi2
  68 0032 94F81021 		ldrb	r2, [r4, #272]	@ zero_extendqisi2
  69 0036 0633     		adds	r3, r3, #6
  70 0038 DBB2     		uxtb	r3, r3
  71 003a 84F80F31 		strb	r3, [r4, #271]
  72              	.LBE101:
  73              	.LBB102:
  74 003e 2846     		mov	r0, r5
  75              	.LBE102:
  76              	.LBB103:
  77 0040 9B18     		adds	r3, r3, r2
  78              	.LBE103:
  79              	.LBB104:
  80 0042 0121     		movs	r1, #1
  81              	.LBE104:
  82              	.LBB105:
  83 0044 84F81031 		strb	r3, [r4, #272]
  84              	.LVL4:
  85              	.LBE105:
  86              	.LBB106:
  87 0048 FFF7FEFF 		bl	uart_transmit
  88 004c 94F80F31 		ldrb	r3, [r4, #271]	@ zero_extendqisi2
  89 0050 94F81021 		ldrb	r2, [r4, #272]	@ zero_extendqisi2
  90 0054 0133     		adds	r3, r3, #1
  91 0056 DBB2     		uxtb	r3, r3
  92 0058 84F80F31 		strb	r3, [r4, #271]
  93              	.LBE106:
  94              	.LBB107:
  95              	.LBB108:
  96 005c 2846     		mov	r0, r5
  97              	.LBE108:
  98              	.LBE107:
  99              	.LBB118:
 100 005e 9B18     		adds	r3, r3, r2
 101              	.LBE118:
 102              	.LBB119:
 103              	.LBB109:
 104 0060 0621     		movs	r1, #6
 105              	.LBE109:
 106              	.LBE119:
 107              	.LBB120:
 108 0062 84F81031 		strb	r3, [r4, #272]
 109              	.LVL5:
 110              	.LBE120:
 111              	.LBB121:
 112              	.LBB110:
 113 0066 FFF7FEFF 		bl	uart_transmit
 114 006a 94F80F31 		ldrb	r3, [r4, #271]	@ zero_extendqisi2
 115 006e 94F81021 		ldrb	r2, [r4, #272]	@ zero_extendqisi2
 116 0072 0633     		adds	r3, r3, #6
 117 0074 DBB2     		uxtb	r3, r3
 118 0076 84F80F31 		strb	r3, [r4, #271]
 119              	.LBE110:
 120              	.LBB111:
 121 007a 2846     		mov	r0, r5
 122              	.LBE111:
 123              	.LBB112:
 124 007c 9B18     		adds	r3, r3, r2
 125              	.LBE112:
 126              	.LBB113:
 127 007e 3146     		mov	r1, r6
 128              	.LBE113:
 129              	.LBB114:
 130 0080 84F81031 		strb	r3, [r4, #272]
 131              	.LVL6:
 132              	.LBE114:
 133              	.LBB115:
 134 0084 FFF7FEFF 		bl	uart_transmit
 135 0088 94F81021 		ldrb	r2, [r4, #272]	@ zero_extendqisi2
 136 008c 94F80F31 		ldrb	r3, [r4, #271]	@ zero_extendqisi2
 137              	.LBE115:
 138              	.LBE121:
 139              	.LBB122:
 140 0090 2846     		mov	r0, r5
 141              	.LBE122:
 142              	.LBB123:
 143              	.LBB116:
 144 0092 D318     		adds	r3, r2, r3
 145              	.LBE116:
 146              	.LBE123:
 147              	.LBB124:
 148 0094 0121     		movs	r1, #1
 149              	.LBE124:
 150              	.LBB125:
 151              	.LBB117:
 152 0096 84F81031 		strb	r3, [r4, #272]
 153              	.LVL7:
 154              	.LBE117:
 155              	.LBE125:
 156              	.LBB126:
 157 009a FFF7FEFF 		bl	uart_transmit
 158 009e 94F80F31 		ldrb	r3, [r4, #271]	@ zero_extendqisi2
 159 00a2 94F81021 		ldrb	r2, [r4, #272]	@ zero_extendqisi2
 160 00a6 0133     		adds	r3, r3, #1
 161 00a8 DBB2     		uxtb	r3, r3
 162 00aa 84F80F31 		strb	r3, [r4, #271]
 163              	.LBE126:
 164              	.LBB127:
 165 00ae 2846     		mov	r0, r5
 166              	.LBE127:
 167              	.LBB128:
 168 00b0 9B18     		adds	r3, r3, r2
 169              	.LBE128:
 170              	.LBB129:
 171 00b2 4146     		mov	r1, r8
 172              	.LBE129:
 173              	.LBB130:
 174 00b4 84F81031 		strb	r3, [r4, #272]
 175              	.LVL8:
 176              	.LBE130:
 177              	.LBB131:
 178 00b8 FFF7FEFF 		bl	uart_transmit
 179 00bc 94F80F31 		ldrb	r3, [r4, #271]	@ zero_extendqisi2
 180              	.LBE131:
 181              	.LBB132:
 182 00c0 2846     		mov	r0, r5
 183              	.LBE132:
 184              	.LBB133:
 185 00c2 9844     		add	r8, r8, r3
 186              	.LVL9:
 187 00c4 94F81031 		ldrb	r3, [r4, #272]	@ zero_extendqisi2
 188 00c8 5FFA88F8 		uxtb	r8, r8
 189 00cc 84F80F81 		strb	r8, [r4, #271]
 190              	.LBE133:
 191              	.LBB134:
 192 00d0 3146     		mov	r1, r6
 193              	.LBE134:
 194              	.LBB135:
 195 00d2 9844     		add	r8, r8, r3
 196 00d4 84F81081 		strb	r8, [r4, #272]
 197              	.LVL10:
 198              	.LBE135:
 199              	.LBB136:
 200 00d8 FFF7FEFF 		bl	uart_transmit
 201 00dc 94F81021 		ldrb	r2, [r4, #272]	@ zero_extendqisi2
 202 00e0 94F80F31 		ldrb	r3, [r4, #271]	@ zero_extendqisi2
 203              	.LBE136:
 204              	.LBB137:
 205 00e4 2846     		mov	r0, r5
 206              	.LBE137:
 207              	.LBB138:
 208 00e6 D318     		adds	r3, r2, r3
 209              	.LBE138:
 210              	.LBB139:
 211 00e8 3946     		mov	r1, r7
 212              	.LBE139:
 213              	.LBB140:
 214 00ea 84F81031 		strb	r3, [r4, #272]
 215              	.LVL11:
 216              	.LBE140:
 217              	.LBB141:
 218 00ee FFF7FEFF 		bl	uart_transmit
 219 00f2 94F80F31 		ldrb	r3, [r4, #271]	@ zero_extendqisi2
 220              	.LBE141:
 221              	.LBB142:
 222 00f6 2846     		mov	r0, r5
 223              	.LBE142:
 224              	.LBB143:
 225 00f8 FF18     		adds	r7, r7, r3
 226              	.LVL12:
 227 00fa 94F81031 		ldrb	r3, [r4, #272]	@ zero_extendqisi2
 228 00fe FFB2     		uxtb	r7, r7
 229 0100 84F80F71 		strb	r7, [r4, #271]
 230              	.LBE143:
 231              	.LBB144:
 232 0104 3146     		mov	r1, r6
 233              	.LBE144:
 234              	.LBB145:
 235 0106 FF18     		adds	r7, r7, r3
 236 0108 84F81071 		strb	r7, [r4, #272]
 237              	.LVL13:
 238              	.LBE145:
 239              	.LBB146:
 240 010c FFF7FEFF 		bl	uart_transmit
 241 0110 94F81021 		ldrb	r2, [r4, #272]	@ zero_extendqisi2
 242 0114 94F80F31 		ldrb	r3, [r4, #271]	@ zero_extendqisi2
 243              	.LBE146:
 244              	.LBB147:
 245 0118 2846     		mov	r0, r5
 246              	.LBE147:
 247              	.LBB148:
 248 011a D318     		adds	r3, r2, r3
 249              	.LBE148:
 250              	.LBB149:
 251 011c 3146     		mov	r1, r6
 252              	.LBE149:
 253              	.LBB150:
 254 011e 84F81031 		strb	r3, [r4, #272]
 255              	.LVL14:
 256              	.LBE150:
 257              	.LBB151:
 258 0122 FFF7FEFF 		bl	uart_transmit
 259 0126 94F80F11 		ldrb	r1, [r4, #271]	@ zero_extendqisi2
 260 012a 94F81031 		ldrb	r3, [r4, #272]	@ zero_extendqisi2
 261              	.LBE151:
 262 012e 2846     		mov	r0, r5
 263              	.LBB152:
 264 0130 CB18     		adds	r3, r1, r3
 265 0132 84F81031 		strb	r3, [r4, #272]
 266              	.LBE152:
 267 0136 FFF7FEFF 		bl	uart_transmit
 268 013a 94F81011 		ldrb	r1, [r4, #272]	@ zero_extendqisi2
 269 013e 2846     		mov	r0, r5
 270              	.LBE153:
 311:./modules/gps/gps_ubx_ucenter.c ****   #endif
 312:./modules/gps/gps_ubx_ucenter.c ****   #if GPS_PORT_ID == GPS_PORT_UART2
 313:./modules/gps/gps_ubx_ucenter.c ****     UbxSend_CFG_MSG(class, id, 0, 0, rate, 0);
 314:./modules/gps/gps_ubx_ucenter.c ****   #endif
 315:./modules/gps/gps_ubx_ucenter.c ****   #if GPS_PORT_ID == GPS_PORT_DDC
 316:./modules/gps/gps_ubx_ucenter.c ****     UbxSend_CFG_MSG(class, id, rate, 0, 0, 0);
 317:./modules/gps/gps_ubx_ucenter.c ****   #endif
 318:./modules/gps/gps_ubx_ucenter.c **** }
 271              		.loc 1 318 0
 272 0140 BDE8F041 		pop	{r4, r5, r6, r7, r8, lr}
 273              	.LBB154:
 310:./modules/gps/gps_ubx_ucenter.c ****     UbxSend_CFG_MSG(class, id, 0, rate, 0, 0);
 274              		.loc 1 310 0
 275 0144 FFF7FEBF 		b	uart_transmit
 276              	.L3:
 277              		.align	2
 278              	.L2:
 279 0148 00000000 		.word	uart3
 280 014c 00000000 		.word	.LANCHOR0
 281              	.LBE154:
 282              		.cfi_endproc
 283              	.LFE44:
 285              		.section	.text.gps_impl_init,"ax",%progbits
 286              		.align	1
 287              		.global	gps_impl_init
 288              		.thumb
 289              		.thumb_func
 291              	gps_impl_init:
 292              	.LFB27:
 293              		.file 2 "subsystems/gps/gps_ubx.c"
   1:subsystems/gps/gps_ubx.c **** /*
   2:subsystems/gps/gps_ubx.c ****  * Copyright (C) 2010 Antoine Drouin <poinix@gmail.com>
   3:subsystems/gps/gps_ubx.c ****  *
   4:subsystems/gps/gps_ubx.c ****  * This file is part of paparazzi.
   5:subsystems/gps/gps_ubx.c ****  *
   6:subsystems/gps/gps_ubx.c ****  * paparazzi is free software; you can redistribute it and/or modify
   7:subsystems/gps/gps_ubx.c ****  * it under the terms of the GNU General Public License as published by
   8:subsystems/gps/gps_ubx.c ****  * the Free Software Foundation; either version 2, or (at your option)
   9:subsystems/gps/gps_ubx.c ****  * any later version.
  10:subsystems/gps/gps_ubx.c ****  *
  11:subsystems/gps/gps_ubx.c ****  * paparazzi is distributed in the hope that it will be useful,
  12:subsystems/gps/gps_ubx.c ****  * but WITHOUT ANY WARRANTY; without even the implied warranty of
  13:subsystems/gps/gps_ubx.c ****  * MERCHANTABILITY or FITNESS FOR A PARTICULAR PURPOSE.  See the
  14:subsystems/gps/gps_ubx.c ****  * GNU General Public License for more details.
  15:subsystems/gps/gps_ubx.c ****  *
  16:subsystems/gps/gps_ubx.c ****  * You should have received a copy of the GNU General Public License
  17:subsystems/gps/gps_ubx.c ****  * along with paparazzi; see the file COPYING.  If not, write to
  18:subsystems/gps/gps_ubx.c ****  * the Free Software Foundation, 59 Temple Place - Suite 330,
  19:subsystems/gps/gps_ubx.c ****  * Boston, MA 02111-1307, USA.
  20:subsystems/gps/gps_ubx.c ****  */
  21:subsystems/gps/gps_ubx.c **** 
  22:subsystems/gps/gps_ubx.c **** 
  23:subsystems/gps/gps_ubx.c **** #include "subsystems/gps.h"
  24:subsystems/gps/gps_ubx.c **** 
  25:subsystems/gps/gps_ubx.c **** #include "led.h"
  26:subsystems/gps/gps_ubx.c **** 
  27:subsystems/gps/gps_ubx.c **** #if GPS_USE_LATLONG
  28:subsystems/gps/gps_ubx.c **** /* currently needed to get nav_utm_zone0 */
  29:subsystems/gps/gps_ubx.c **** #include "subsystems/navigation/common_nav.h"
  30:subsystems/gps/gps_ubx.c **** #include "math/pprz_geodetic_float.h"
  31:subsystems/gps/gps_ubx.c **** #endif
  32:subsystems/gps/gps_ubx.c **** 
  33:subsystems/gps/gps_ubx.c **** /* parser status */
  34:subsystems/gps/gps_ubx.c **** #define UNINIT        0
  35:subsystems/gps/gps_ubx.c **** #define GOT_SYNC1     1
  36:subsystems/gps/gps_ubx.c **** #define GOT_SYNC2     2
  37:subsystems/gps/gps_ubx.c **** #define GOT_CLASS     3
  38:subsystems/gps/gps_ubx.c **** #define GOT_ID        4
  39:subsystems/gps/gps_ubx.c **** #define GOT_LEN1      5
  40:subsystems/gps/gps_ubx.c **** #define GOT_LEN2      6
  41:subsystems/gps/gps_ubx.c **** #define GOT_PAYLOAD   7
  42:subsystems/gps/gps_ubx.c **** #define GOT_CHECKSUM1 8
  43:subsystems/gps/gps_ubx.c **** 
  44:subsystems/gps/gps_ubx.c **** /* last error type */
  45:subsystems/gps/gps_ubx.c **** #define GPS_UBX_ERR_NONE         0
  46:subsystems/gps/gps_ubx.c **** #define GPS_UBX_ERR_OVERRUN      1
  47:subsystems/gps/gps_ubx.c **** #define GPS_UBX_ERR_MSG_TOO_LONG 2
  48:subsystems/gps/gps_ubx.c **** #define GPS_UBX_ERR_CHECKSUM     3
  49:subsystems/gps/gps_ubx.c **** #define GPS_UBX_ERR_UNEXPECTED   4
  50:subsystems/gps/gps_ubx.c **** #define GPS_UBX_ERR_OUT_OF_SYNC  5
  51:subsystems/gps/gps_ubx.c **** 
  52:subsystems/gps/gps_ubx.c **** #define UTM_HEM_NORTH 0
  53:subsystems/gps/gps_ubx.c **** #define UTM_HEM_SOUTH 1
  54:subsystems/gps/gps_ubx.c **** 
  55:subsystems/gps/gps_ubx.c **** 
  56:subsystems/gps/gps_ubx.c **** #define GpsUartSend1(c) GpsLink(Transmit(c))
  57:subsystems/gps/gps_ubx.c **** #define GpsUartSetBaudrate(_a) GpsLink(SetBaudrate(_a))
  58:subsystems/gps/gps_ubx.c **** #define GpsUartRunning GpsLink(TxRunning)
  59:subsystems/gps/gps_ubx.c **** #define GpsUartSendMessage GpsLink(SendMessage)
  60:subsystems/gps/gps_ubx.c **** 
  61:subsystems/gps/gps_ubx.c **** #define UbxInitCheksum() { gps_ubx.send_ck_a = gps_ubx.send_ck_b = 0; }
  62:subsystems/gps/gps_ubx.c **** #define UpdateChecksum(c) { gps_ubx.send_ck_a += c; gps_ubx.send_ck_b += gps_ubx.send_ck_a; }
  63:subsystems/gps/gps_ubx.c **** #define UbxTrailer() { GpsUartSend1(gps_ubx.send_ck_a);  GpsUartSend1(gps_ubx.send_ck_b); GpsUartSe
  64:subsystems/gps/gps_ubx.c **** 
  65:subsystems/gps/gps_ubx.c **** #define UbxSend1(c) { uint8_t i8=c; GpsUartSend1(i8); UpdateChecksum(i8); }
  66:subsystems/gps/gps_ubx.c **** #define UbxSend2(c) { uint16_t i16=c; UbxSend1(i16&0xff); UbxSend1(i16 >> 8); }
  67:subsystems/gps/gps_ubx.c **** #define UbxSend1ByAddr(x) { UbxSend1(*x); }
  68:subsystems/gps/gps_ubx.c **** #define UbxSend2ByAddr(x) { UbxSend1(*x); UbxSend1(*(x+1)); }
  69:subsystems/gps/gps_ubx.c **** #define UbxSend4ByAddr(x) { UbxSend1(*x); UbxSend1(*(x+1)); UbxSend1(*(x+2)); UbxSend1(*(x+3)); }
  70:subsystems/gps/gps_ubx.c **** 
  71:subsystems/gps/gps_ubx.c **** #define UbxHeader(nav_id, msg_id, len) {        \
  72:subsystems/gps/gps_ubx.c ****     GpsUartSend1(UBX_SYNC1);                    \
  73:subsystems/gps/gps_ubx.c ****     GpsUartSend1(UBX_SYNC2);                    \
  74:subsystems/gps/gps_ubx.c ****     UbxInitCheksum();                           \
  75:subsystems/gps/gps_ubx.c ****     UbxSend1(nav_id);                           \
  76:subsystems/gps/gps_ubx.c ****     UbxSend1(msg_id);                           \
  77:subsystems/gps/gps_ubx.c ****     UbxSend2(len);                              \
  78:subsystems/gps/gps_ubx.c ****   }
  79:subsystems/gps/gps_ubx.c **** 
  80:subsystems/gps/gps_ubx.c **** 
  81:subsystems/gps/gps_ubx.c **** struct GpsUbx gps_ubx;
  82:subsystems/gps/gps_ubx.c **** 
  83:subsystems/gps/gps_ubx.c **** void gps_impl_init(void) {
 294              		.loc 2 83 0
 295              		.cfi_startproc
 296              		@ args = 0, pretend = 0, frame = 0
 297              		@ frame_needed = 0, uses_anonymous_args = 0
 298              		@ link register save eliminated.
  84:subsystems/gps/gps_ubx.c ****    gps_ubx.status = UNINIT;
 299              		.loc 2 84 0
 300 0000 054B     		ldr	r3, .L5
 301 0002 0022     		movs	r2, #0
 302 0004 83F80921 		strb	r2, [r3, #265]
  85:subsystems/gps/gps_ubx.c ****    gps_ubx.msg_available = FALSE;
 303              		.loc 2 85 0
 304 0008 1A70     		strb	r2, [r3, #0]
  86:subsystems/gps/gps_ubx.c ****    gps_ubx.error_cnt = 0;
 305              		.loc 2 86 0
 306 000a 83F81121 		strb	r2, [r3, #273]
  87:subsystems/gps/gps_ubx.c ****    gps_ubx.error_last = GPS_UBX_ERR_NONE;
 307              		.loc 2 87 0
 308 000e 83F81221 		strb	r2, [r3, #274]
  88:subsystems/gps/gps_ubx.c ****    gps_ubx.have_velned = 0;
 309              		.loc 2 88 0
 310 0012 83F81521 		strb	r2, [r3, #277]
  89:subsystems/gps/gps_ubx.c **** }
 311              		.loc 2 89 0
 312 0016 7047     		bx	lr
 313              	.L6:
 314              		.align	2
 315              	.L5:
 316 0018 00000000 		.word	.LANCHOR0
 317              		.cfi_endproc
 318              	.LFE27:
 320              		.global	__aeabi_i2d
 321              		.global	__aeabi_dmul
 322              		.global	__aeabi_d2iz
 323              		.global	__aeabi_i2f
 324              		.global	__aeabi_fdiv
 325              		.global	__aeabi_fmul
 326              		.global	__aeabi_f2iz
 327              		.global	__aeabi_ui2d
 328              		.global	__aeabi_d2uiz
 329              		.section	.text.gps_ubx_read_message,"ax",%progbits
 330              		.align	1
 331              		.global	gps_ubx_read_message
 332              		.thumb
 333              		.thumb_func
 335              	gps_ubx_read_message:
 336              	.LFB28:
  90:subsystems/gps/gps_ubx.c **** 
  91:subsystems/gps/gps_ubx.c **** 
  92:subsystems/gps/gps_ubx.c **** void gps_ubx_read_message(void) {
 337              		.loc 2 92 0
 338              		.cfi_startproc
 339              		@ args = 0, pretend = 0, frame = 32
 340              		@ frame_needed = 0, uses_anonymous_args = 0
 341 0000 F0B5     		push	{r4, r5, r6, r7, lr}
 342              	.LCFI1:
 343              		.cfi_def_cfa_offset 20
 344              		.cfi_offset 14, -4
 345              		.cfi_offset 7, -8
 346              		.cfi_offset 6, -12
 347              		.cfi_offset 5, -16
 348              		.cfi_offset 4, -20
  93:subsystems/gps/gps_ubx.c **** 
  94:subsystems/gps/gps_ubx.c ****   if (gps_ubx.msg_class == UBX_NAV_ID) {
 349              		.loc 2 94 0
 350 0002 C34C     		ldr	r4, .L15+8
  92:subsystems/gps/gps_ubx.c **** void gps_ubx_read_message(void) {
 351              		.loc 2 92 0
 352 0004 89B0     		sub	sp, sp, #36
 353              	.LCFI2:
 354              		.cfi_def_cfa_offset 56
 355              		.loc 2 94 0
 356 0006 94F80861 		ldrb	r6, [r4, #264]	@ zero_extendqisi2
 357 000a 012E     		cmp	r6, #1
 358 000c 40F0BF81 		bne	.L7
  95:subsystems/gps/gps_ubx.c ****     if (gps_ubx.msg_id == UBX_NAV_SOL_ID) {
 359              		.loc 2 95 0
 360 0010 94F80731 		ldrb	r3, [r4, #263]	@ zero_extendqisi2
 361 0014 062B     		cmp	r3, #6
 362 0016 40F08E80 		bne	.L9
  96:subsystems/gps/gps_ubx.c **** #ifdef GPS_TIMESTAMP
  97:subsystems/gps/gps_ubx.c ****       /* get hardware clock ticks */
  98:subsystems/gps/gps_ubx.c ****       SysTimeTimerStart(gps.t0);
  99:subsystems/gps/gps_ubx.c ****       gps.t0_tow        = UBX_NAV_SOL_ITOW(gps_ubx.msg_buf);
 100:subsystems/gps/gps_ubx.c ****       gps.t0_tow_frac   = UBX_NAV_SOL_Frac(gps_ubx.msg_buf);
 101:subsystems/gps/gps_ubx.c **** #endif
 102:subsystems/gps/gps_ubx.c ****       gps.tow        = UBX_NAV_SOL_ITOW(gps_ubx.msg_buf);
 363              		.loc 2 102 0
 364 001a A27A     		ldrb	r2, [r4, #10]	@ zero_extendqisi2
 365 001c E17A     		ldrb	r1, [r4, #11]	@ zero_extendqisi2
 366 001e 1204     		lsls	r2, r2, #16
 367 0020 607A     		ldrb	r0, [r4, #9]	@ zero_extendqisi2
 368 0022 42EA0162 		orr	r2, r2, r1, lsl #24
 369 0026 217A     		ldrb	r1, [r4, #8]	@ zero_extendqisi2
 370 0028 BA4B     		ldr	r3, .L15+12
 371 002a 41EA0021 		orr	r1, r1, r0, lsl #8
 372 002e 0A43     		orrs	r2, r2, r1
 373 0030 1A66     		str	r2, [r3, #96]
 103:subsystems/gps/gps_ubx.c ****       gps.week       = UBX_NAV_SOL_week(gps_ubx.msg_buf);
 374              		.loc 2 103 0
 375 0032 617C     		ldrb	r1, [r4, #17]	@ zero_extendqisi2
 376 0034 227C     		ldrb	r2, [r4, #16]	@ zero_extendqisi2
 104:subsystems/gps/gps_ubx.c ****       gps.fix        = UBX_NAV_SOL_GPSfix(gps_ubx.msg_buf);
 105:subsystems/gps/gps_ubx.c ****       gps.ecef_pos.x = UBX_NAV_SOL_ECEF_X(gps_ubx.msg_buf);
 106:subsystems/gps/gps_ubx.c ****       gps.ecef_pos.y = UBX_NAV_SOL_ECEF_Y(gps_ubx.msg_buf);
 107:subsystems/gps/gps_ubx.c ****       gps.ecef_pos.z = UBX_NAV_SOL_ECEF_Z(gps_ubx.msg_buf);
 108:subsystems/gps/gps_ubx.c ****       gps.pacc       = UBX_NAV_SOL_Pacc(gps_ubx.msg_buf);
 377              		.loc 2 108 0
 378 0036 94F82100 		ldrb	r0, [r4, #33]	@ zero_extendqisi2
 103:subsystems/gps/gps_ubx.c ****       gps.week       = UBX_NAV_SOL_week(gps_ubx.msg_buf);
 379              		.loc 2 103 0
 380 003a 42EA0122 		orr	r2, r2, r1, lsl #8
 381 003e A3F85C20 		strh	r2, [r3, #92]	@ movhi
 104:subsystems/gps/gps_ubx.c ****       gps.fix        = UBX_NAV_SOL_GPSfix(gps_ubx.msg_buf);
 382              		.loc 2 104 0
 383 0042 A27C     		ldrb	r2, [r4, #18]	@ zero_extendqisi2
 105:subsystems/gps/gps_ubx.c ****       gps.ecef_pos.x = UBX_NAV_SOL_ECEF_X(gps_ubx.msg_buf);
 384              		.loc 2 105 0
 385 0044 617D     		ldrb	r1, [r4, #21]	@ zero_extendqisi2
 104:subsystems/gps/gps_ubx.c ****       gps.fix        = UBX_NAV_SOL_GPSfix(gps_ubx.msg_buf);
 386              		.loc 2 104 0
 387 0046 83F85B20 		strb	r2, [r3, #91]
 105:subsystems/gps/gps_ubx.c ****       gps.ecef_pos.x = UBX_NAV_SOL_ECEF_X(gps_ubx.msg_buf);
 388              		.loc 2 105 0
 389 004a A27D     		ldrb	r2, [r4, #22]	@ zero_extendqisi2
 390 004c 1204     		lsls	r2, r2, #16
 391 004e 42EA0122 		orr	r2, r2, r1, lsl #8
 392 0052 217D     		ldrb	r1, [r4, #20]	@ zero_extendqisi2
 393 0054 0A43     		orrs	r2, r2, r1
 394 0056 E17D     		ldrb	r1, [r4, #23]	@ zero_extendqisi2
 395 0058 42EA0162 		orr	r2, r2, r1, lsl #24
 396 005c 1A60     		str	r2, [r3, #0]
 106:subsystems/gps/gps_ubx.c ****       gps.ecef_pos.y = UBX_NAV_SOL_ECEF_Y(gps_ubx.msg_buf);
 397              		.loc 2 106 0
 398 005e A27E     		ldrb	r2, [r4, #26]	@ zero_extendqisi2
 399 0060 617E     		ldrb	r1, [r4, #25]	@ zero_extendqisi2
 400 0062 1204     		lsls	r2, r2, #16
 401 0064 42EA0122 		orr	r2, r2, r1, lsl #8
 402 0068 217E     		ldrb	r1, [r4, #24]	@ zero_extendqisi2
 403 006a 0A43     		orrs	r2, r2, r1
 404 006c E17E     		ldrb	r1, [r4, #27]	@ zero_extendqisi2
 405 006e 42EA0162 		orr	r2, r2, r1, lsl #24
 406 0072 5A60     		str	r2, [r3, #4]
 107:subsystems/gps/gps_ubx.c ****       gps.ecef_pos.z = UBX_NAV_SOL_ECEF_Z(gps_ubx.msg_buf);
 407              		.loc 2 107 0
 408 0074 A27F     		ldrb	r2, [r4, #30]	@ zero_extendqisi2
 409 0076 617F     		ldrb	r1, [r4, #29]	@ zero_extendqisi2
 410 0078 1204     		lsls	r2, r2, #16
 411 007a 42EA0122 		orr	r2, r2, r1, lsl #8
 412 007e 217F     		ldrb	r1, [r4, #28]	@ zero_extendqisi2
 413 0080 0A43     		orrs	r2, r2, r1
 414 0082 E17F     		ldrb	r1, [r4, #31]	@ zero_extendqisi2
 415 0084 42EA0162 		orr	r2, r2, r1, lsl #24
 416 0088 9A60     		str	r2, [r3, #8]
 417              		.loc 2 108 0
 418 008a 94F82220 		ldrb	r2, [r4, #34]	@ zero_extendqisi2
 419 008e 94F82310 		ldrb	r1, [r4, #35]	@ zero_extendqisi2
 420 0092 1204     		lsls	r2, r2, #16
 421 0094 42EA0162 		orr	r2, r2, r1, lsl #24
 422 0098 94F82010 		ldrb	r1, [r4, #32]	@ zero_extendqisi2
 423 009c 41EA0021 		orr	r1, r1, r0, lsl #8
 424 00a0 0A43     		orrs	r2, r2, r1
 425 00a2 DA64     		str	r2, [r3, #76]
 109:subsystems/gps/gps_ubx.c ****       gps.ecef_vel.x = UBX_NAV_SOL_ECEFVX(gps_ubx.msg_buf);
 426              		.loc 2 109 0
 427 00a4 94F82620 		ldrb	r2, [r4, #38]	@ zero_extendqisi2
 428 00a8 94F82510 		ldrb	r1, [r4, #37]	@ zero_extendqisi2
 429 00ac 1204     		lsls	r2, r2, #16
 430 00ae 42EA0122 		orr	r2, r2, r1, lsl #8
 431 00b2 94F82410 		ldrb	r1, [r4, #36]	@ zero_extendqisi2
 432 00b6 0A43     		orrs	r2, r2, r1
 433 00b8 94F82710 		ldrb	r1, [r4, #39]	@ zero_extendqisi2
 434 00bc 42EA0162 		orr	r2, r2, r1, lsl #24
 435 00c0 DA62     		str	r2, [r3, #44]
 110:subsystems/gps/gps_ubx.c ****       gps.ecef_vel.y = UBX_NAV_SOL_ECEFVY(gps_ubx.msg_buf);
 436              		.loc 2 110 0
 437 00c2 94F82A20 		ldrb	r2, [r4, #42]	@ zero_extendqisi2
 438 00c6 94F82910 		ldrb	r1, [r4, #41]	@ zero_extendqisi2
 439 00ca 1204     		lsls	r2, r2, #16
 440 00cc 42EA0122 		orr	r2, r2, r1, lsl #8
 441 00d0 94F82810 		ldrb	r1, [r4, #40]	@ zero_extendqisi2
 111:subsystems/gps/gps_ubx.c ****       gps.ecef_vel.z = UBX_NAV_SOL_ECEFVZ(gps_ubx.msg_buf);
 112:subsystems/gps/gps_ubx.c ****       gps.sacc       = UBX_NAV_SOL_Sacc(gps_ubx.msg_buf);
 442              		.loc 2 112 0
 443 00d4 94F83100 		ldrb	r0, [r4, #49]	@ zero_extendqisi2
 110:subsystems/gps/gps_ubx.c ****       gps.ecef_vel.y = UBX_NAV_SOL_ECEFVY(gps_ubx.msg_buf);
 444              		.loc 2 110 0
 445 00d8 0A43     		orrs	r2, r2, r1
 446 00da 94F82B10 		ldrb	r1, [r4, #43]	@ zero_extendqisi2
 447 00de 42EA0162 		orr	r2, r2, r1, lsl #24
 448 00e2 1A63     		str	r2, [r3, #48]
 111:subsystems/gps/gps_ubx.c ****       gps.ecef_vel.z = UBX_NAV_SOL_ECEFVZ(gps_ubx.msg_buf);
 449              		.loc 2 111 0
 450 00e4 94F82E20 		ldrb	r2, [r4, #46]	@ zero_extendqisi2
 451 00e8 94F82D10 		ldrb	r1, [r4, #45]	@ zero_extendqisi2
 452 00ec 1204     		lsls	r2, r2, #16
 453 00ee 42EA0122 		orr	r2, r2, r1, lsl #8
 454 00f2 94F82C10 		ldrb	r1, [r4, #44]	@ zero_extendqisi2
 455 00f6 0A43     		orrs	r2, r2, r1
 456 00f8 94F82F10 		ldrb	r1, [r4, #47]	@ zero_extendqisi2
 457 00fc 42EA0162 		orr	r2, r2, r1, lsl #24
 458 0100 5A63     		str	r2, [r3, #52]
 459              		.loc 2 112 0
 460 0102 94F83220 		ldrb	r2, [r4, #50]	@ zero_extendqisi2
 461 0106 94F83310 		ldrb	r1, [r4, #51]	@ zero_extendqisi2
 462 010a 1204     		lsls	r2, r2, #16
 463 010c 42EA0162 		orr	r2, r2, r1, lsl #24
 464 0110 94F83010 		ldrb	r1, [r4, #48]	@ zero_extendqisi2
 465 0114 41EA0021 		orr	r1, r1, r0, lsl #8
 466 0118 0A43     		orrs	r2, r2, r1
 467 011a 1A65     		str	r2, [r3, #80]
 113:subsystems/gps/gps_ubx.c ****       gps.pdop       = UBX_NAV_SOL_PDOP(gps_ubx.msg_buf);
 468              		.loc 2 113 0
 469 011c 94F83510 		ldrb	r1, [r4, #53]	@ zero_extendqisi2
 470 0120 94F83420 		ldrb	r2, [r4, #52]	@ zero_extendqisi2
 471 0124 42EA0122 		orr	r2, r2, r1, lsl #8
 472 0128 A3F85820 		strh	r2, [r3, #88]	@ movhi
 114:subsystems/gps/gps_ubx.c ****       gps.num_sv     = UBX_NAV_SOL_numSV(gps_ubx.msg_buf);
 473              		.loc 2 114 0
 474 012c 94F83720 		ldrb	r2, [r4, #55]	@ zero_extendqisi2
 475 0130 83F85A20 		strb	r2, [r3, #90]
 476 0134 2BE1     		b	.L7
 477              	.L9:
 115:subsystems/gps/gps_ubx.c **** #ifdef GPS_LED
 116:subsystems/gps/gps_ubx.c ****       if (gps.fix == GPS_FIX_3D) {
 117:subsystems/gps/gps_ubx.c ****         LED_ON(GPS_LED);
 118:subsystems/gps/gps_ubx.c ****       }
 119:subsystems/gps/gps_ubx.c ****       else {
 120:subsystems/gps/gps_ubx.c ****         LED_TOGGLE(GPS_LED);
 121:subsystems/gps/gps_ubx.c ****       }
 122:subsystems/gps/gps_ubx.c **** #endif
 123:subsystems/gps/gps_ubx.c ****     } else if (gps_ubx.msg_id == UBX_NAV_POSLLH_ID) {
 478              		.loc 2 123 0
 479 0136 022B     		cmp	r3, #2
 480 0138 6AD1     		bne	.L10
 481              	.LBB155:
 124:subsystems/gps/gps_ubx.c ****       gps.lla_pos.lat = RadOfDeg(UBX_NAV_POSLLH_LAT(gps_ubx.msg_buf));
 482              		.loc 2 124 0
 483 013a A37C     		ldrb	r3, [r4, #18]	@ zero_extendqisi2
 484 013c 627C     		ldrb	r2, [r4, #17]	@ zero_extendqisi2
 485 013e 1B04     		lsls	r3, r3, #16
 486 0140 43EA0223 		orr	r3, r3, r2, lsl #8
 487 0144 227C     		ldrb	r2, [r4, #16]	@ zero_extendqisi2
 488 0146 E07C     		ldrb	r0, [r4, #19]	@ zero_extendqisi2
 489 0148 1343     		orrs	r3, r3, r2
 490 014a 43EA0060 		orr	r0, r3, r0, lsl #24
 491 014e FFF7FEFF 		bl	__aeabi_i2d
 492 0152 6DA3     		adr	r3, .L15
 493 0154 D3E90023 		ldrd	r2, [r3]
 494 0158 FFF7FEFF 		bl	__aeabi_dmul
 495 015c FFF7FEFF 		bl	__aeabi_d2iz
 125:subsystems/gps/gps_ubx.c ****       gps.lla_pos.lon = RadOfDeg(UBX_NAV_POSLLH_LON(gps_ubx.msg_buf));
 496              		.loc 2 125 0
 497 0160 A37B     		ldrb	r3, [r4, #14]	@ zero_extendqisi2
 498 0162 627B     		ldrb	r2, [r4, #13]	@ zero_extendqisi2
 124:subsystems/gps/gps_ubx.c ****       gps.lla_pos.lat = RadOfDeg(UBX_NAV_POSLLH_LAT(gps_ubx.msg_buf));
 499              		.loc 2 124 0
 500 0164 6B4D     		ldr	r5, .L15+12
 501              		.loc 2 125 0
 502 0166 1B04     		lsls	r3, r3, #16
 503 0168 43EA0223 		orr	r3, r3, r2, lsl #8
 504 016c 227B     		ldrb	r2, [r4, #12]	@ zero_extendqisi2
 124:subsystems/gps/gps_ubx.c ****       gps.lla_pos.lat = RadOfDeg(UBX_NAV_POSLLH_LAT(gps_ubx.msg_buf));
 505              		.loc 2 124 0
 506 016e 0646     		mov	r6, r0
 507 0170 2861     		str	r0, [r5, #16]
 508              		.loc 2 125 0
 509 0172 E07B     		ldrb	r0, [r4, #15]	@ zero_extendqisi2
 510 0174 1343     		orrs	r3, r3, r2
 511 0176 43EA0060 		orr	r0, r3, r0, lsl #24
 512 017a FFF7FEFF 		bl	__aeabi_i2d
 513 017e 62A3     		adr	r3, .L15
 514 0180 D3E90023 		ldrd	r2, [r3]
 515 0184 FFF7FEFF 		bl	__aeabi_dmul
 516 0188 FFF7FEFF 		bl	__aeabi_d2iz
 126:subsystems/gps/gps_ubx.c ****       gps.lla_pos.alt = UBX_NAV_POSLLH_HEIGHT(gps_ubx.msg_buf);
 517              		.loc 2 126 0
 518 018c A37D     		ldrb	r3, [r4, #22]	@ zero_extendqisi2
 519 018e 627D     		ldrb	r2, [r4, #21]	@ zero_extendqisi2
 520 0190 1B04     		lsls	r3, r3, #16
 521 0192 43EA0223 		orr	r3, r3, r2, lsl #8
 522 0196 227D     		ldrb	r2, [r4, #20]	@ zero_extendqisi2
 125:subsystems/gps/gps_ubx.c ****       gps.lla_pos.lon = RadOfDeg(UBX_NAV_POSLLH_LON(gps_ubx.msg_buf));
 523              		.loc 2 125 0
 524 0198 0746     		mov	r7, r0
 525              		.loc 2 126 0
 526 019a 1343     		orrs	r3, r3, r2
 527 019c E27D     		ldrb	r2, [r4, #23]	@ zero_extendqisi2
 125:subsystems/gps/gps_ubx.c ****       gps.lla_pos.lon = RadOfDeg(UBX_NAV_POSLLH_LON(gps_ubx.msg_buf));
 528              		.loc 2 125 0
 529 019e E860     		str	r0, [r5, #12]
 530              		.loc 2 126 0
 531 01a0 43EA0263 		orr	r3, r3, r2, lsl #24
 532 01a4 6B61     		str	r3, [r5, #20]
 127:subsystems/gps/gps_ubx.c ****       gps.hmsl        = UBX_NAV_POSLLH_HMSL(gps_ubx.msg_buf);
 533              		.loc 2 127 0
 534 01a6 A37E     		ldrb	r3, [r4, #26]	@ zero_extendqisi2
 535 01a8 627E     		ldrb	r2, [r4, #25]	@ zero_extendqisi2
 536 01aa 1B04     		lsls	r3, r3, #16
 537 01ac 43EA0223 		orr	r3, r3, r2, lsl #8
 538 01b0 227E     		ldrb	r2, [r4, #24]	@ zero_extendqisi2
 128:subsystems/gps/gps_ubx.c **** #if GPS_USE_LATLONG
 129:subsystems/gps/gps_ubx.c ****       /* Computes from (lat, long) in the referenced UTM zone */
 130:subsystems/gps/gps_ubx.c ****       struct LlaCoor_f lla_f;
 131:subsystems/gps/gps_ubx.c ****       lla_f.lat = ((float) gps.lla_pos.lat) / 1e7;
 539              		.loc 2 131 0
 540 01b2 3046     		mov	r0, r6
 127:subsystems/gps/gps_ubx.c ****       gps.hmsl        = UBX_NAV_POSLLH_HMSL(gps_ubx.msg_buf);
 541              		.loc 2 127 0
 542 01b4 1343     		orrs	r3, r3, r2
 543 01b6 E27E     		ldrb	r2, [r4, #27]	@ zero_extendqisi2
 132:subsystems/gps/gps_ubx.c ****       lla_f.lon = ((float) gps.lla_pos.lon) / 1e7;
 133:subsystems/gps/gps_ubx.c ****       struct UtmCoor_f utm_f;
 134:subsystems/gps/gps_ubx.c ****       utm_f.zone = nav_utm_zone0;
 544              		.loc 2 134 0
 545 01b8 574C     		ldr	r4, .L15+16
 127:subsystems/gps/gps_ubx.c ****       gps.hmsl        = UBX_NAV_POSLLH_HMSL(gps_ubx.msg_buf);
 546              		.loc 2 127 0
 547 01ba 43EA0263 		orr	r3, r3, r2, lsl #24
 548 01be AB62     		str	r3, [r5, #40]
 131:subsystems/gps/gps_ubx.c ****       lla_f.lat = ((float) gps.lla_pos.lat) / 1e7;
 549              		.loc 2 131 0
 550 01c0 FFF7FEFF 		bl	__aeabi_i2f
 551 01c4 5549     		ldr	r1, .L15+20
 552 01c6 FFF7FEFF 		bl	__aeabi_fdiv
 553 01ca 0690     		str	r0, [sp, #24]	@ float
 132:subsystems/gps/gps_ubx.c ****       lla_f.lon = ((float) gps.lla_pos.lon) / 1e7;
 554              		.loc 2 132 0
 555 01cc 3846     		mov	r0, r7
 556 01ce FFF7FEFF 		bl	__aeabi_i2f
 557 01d2 5249     		ldr	r1, .L15+20
 558 01d4 FFF7FEFF 		bl	__aeabi_fdiv
 559              		.loc 2 134 0
 560 01d8 2378     		ldrb	r3, [r4, #0]	@ zero_extendqisi2
 132:subsystems/gps/gps_ubx.c ****       lla_f.lon = ((float) gps.lla_pos.lon) / 1e7;
 561              		.loc 2 132 0
 562 01da 0590     		str	r0, [sp, #20]	@ float
 135:subsystems/gps/gps_ubx.c ****       /* convert to utm */
 136:subsystems/gps/gps_ubx.c ****       utm_of_lla_f(&utm_f, &lla_f);
 563              		.loc 2 136 0
 564 01dc 05A9     		add	r1, sp, #20
 565 01de 01A8     		add	r0, sp, #4
 134:subsystems/gps/gps_ubx.c ****       utm_f.zone = nav_utm_zone0;
 566              		.loc 2 134 0
 567 01e0 8DF81030 		strb	r3, [sp, #16]
 568              		.loc 2 136 0
 569 01e4 FFF7FEFF 		bl	utm_of_lla_f
 137:subsystems/gps/gps_ubx.c ****       /* copy results of utm conversion */
 138:subsystems/gps/gps_ubx.c ****       gps.utm_pos.east = utm_f.east*100;
 570              		.loc 2 138 0
 571 01e8 4D49     		ldr	r1, .L15+24
 572 01ea 0298     		ldr	r0, [sp, #8]	@ float
 573 01ec FFF7FEFF 		bl	__aeabi_fmul
 574 01f0 FFF7FEFF 		bl	__aeabi_f2iz
 139:subsystems/gps/gps_ubx.c ****       gps.utm_pos.north = utm_f.north*100;
 575              		.loc 2 139 0
 576 01f4 4A49     		ldr	r1, .L15+24
 138:subsystems/gps/gps_ubx.c ****       gps.utm_pos.east = utm_f.east*100;
 577              		.loc 2 138 0
 578 01f6 E861     		str	r0, [r5, #28]
 579              		.loc 2 139 0
 580 01f8 0198     		ldr	r0, [sp, #4]	@ float
 581 01fa FFF7FEFF 		bl	__aeabi_fmul
 582 01fe FFF7FEFF 		bl	__aeabi_f2iz
 140:subsystems/gps/gps_ubx.c ****       gps.utm_pos.alt = gps.lla_pos.alt;
 583              		.loc 2 140 0
 584 0202 6B69     		ldr	r3, [r5, #20]
 139:subsystems/gps/gps_ubx.c ****       gps.utm_pos.north = utm_f.north*100;
 585              		.loc 2 139 0
 586 0204 A861     		str	r0, [r5, #24]
 587              		.loc 2 140 0
 588 0206 2B62     		str	r3, [r5, #32]
 141:subsystems/gps/gps_ubx.c ****       gps.utm_pos.zone = nav_utm_zone0;
 589              		.loc 2 141 0
 590 0208 2378     		ldrb	r3, [r4, #0]	@ zero_extendqisi2
 591 020a 85F82430 		strb	r3, [r5, #36]
 592 020e BEE0     		b	.L7
 593              	.L10:
 594              	.LBE155:
 142:subsystems/gps/gps_ubx.c **** #else
 143:subsystems/gps/gps_ubx.c ****     }
 144:subsystems/gps/gps_ubx.c ****     else if (gps_ubx.msg_id == UBX_NAV_POSUTM_ID) {
 145:subsystems/gps/gps_ubx.c ****       gps.utm_pos.east = UBX_NAV_POSUTM_EAST(gps_ubx.msg_buf);
 146:subsystems/gps/gps_ubx.c ****       gps.utm_pos.north = UBX_NAV_POSUTM_NORTH(gps_ubx.msg_buf);
 147:subsystems/gps/gps_ubx.c ****       uint8_t hem = UBX_NAV_POSUTM_HEM(gps_ubx.msg_buf);
 148:subsystems/gps/gps_ubx.c ****       if (hem == UTM_HEM_SOUTH)
 149:subsystems/gps/gps_ubx.c ****         gps.utm_pos.north -= 1000000000; /* Subtract false northing: -10000km */
 150:subsystems/gps/gps_ubx.c ****       gps.utm_pos.alt = UBX_NAV_POSUTM_ALT(gps_ubx.msg_buf)*10;
 151:subsystems/gps/gps_ubx.c ****       gps.hmsl = gps.utm_pos.alt;
 152:subsystems/gps/gps_ubx.c ****       gps.lla_pos.alt = gps.utm_pos.alt; // FIXME: with UTM only you do not receive ellipsoid altit
 153:subsystems/gps/gps_ubx.c ****       gps.utm_pos.zone = UBX_NAV_POSUTM_ZONE(gps_ubx.msg_buf);
 154:subsystems/gps/gps_ubx.c **** #endif
 155:subsystems/gps/gps_ubx.c ****     }
 156:subsystems/gps/gps_ubx.c ****     else if (gps_ubx.msg_id == UBX_NAV_VELNED_ID) {
 595              		.loc 2 156 0
 596 0210 122B     		cmp	r3, #18
 597 0212 40F08980 		bne	.L11
 157:subsystems/gps/gps_ubx.c ****       gps.speed_3d = UBX_NAV_VELNED_Speed(gps_ubx.msg_buf);
 598              		.loc 2 157 0
 599 0216 627E     		ldrb	r2, [r4, #25]	@ zero_extendqisi2
 600 0218 237E     		ldrb	r3, [r4, #24]	@ zero_extendqisi2
 601 021a 3E4D     		ldr	r5, .L15+12
 602 021c 43EA0223 		orr	r3, r3, r2, lsl #8
 603 0220 A5F84630 		strh	r3, [r5, #70]	@ movhi
 158:subsystems/gps/gps_ubx.c ****       gps.gspeed = UBX_NAV_VELNED_GSpeed(gps_ubx.msg_buf);
 604              		.loc 2 158 0
 605 0224 627F     		ldrb	r2, [r4, #29]	@ zero_extendqisi2
 606 0226 237F     		ldrb	r3, [r4, #28]	@ zero_extendqisi2
 159:subsystems/gps/gps_ubx.c ****       gps.ned_vel.x = UBX_NAV_VELNED_VEL_N(gps_ubx.msg_buf);
 160:subsystems/gps/gps_ubx.c ****       gps.ned_vel.y = UBX_NAV_VELNED_VEL_E(gps_ubx.msg_buf);
 161:subsystems/gps/gps_ubx.c ****       gps.ned_vel.z = UBX_NAV_VELNED_VEL_D(gps_ubx.msg_buf);
 162:subsystems/gps/gps_ubx.c ****       // Ublox gives I4 heading in 1e-5 degrees, apparenty from 0 to 360 degrees (not -180 to 180)
 163:subsystems/gps/gps_ubx.c ****       // I4 max = 2^31 = 214 * 1e5 * 100 < 360 * 1e7: overflow on angles over 214 deg -> casted to 
 164:subsystems/gps/gps_ubx.c ****       // solution: First to radians, and then scale to 1e-7 radians
 165:subsystems/gps/gps_ubx.c ****       // First x 10 for loosing less resolution, then to radians, then multiply x 10 again
 166:subsystems/gps/gps_ubx.c ****       gps.course = (RadOfDeg(UBX_NAV_VELNED_Heading(gps_ubx.msg_buf)*10)) * 10;
 607              		.loc 2 166 0
 608 0228 94F82200 		ldrb	r0, [r4, #34]	@ zero_extendqisi2
 158:subsystems/gps/gps_ubx.c ****       gps.gspeed = UBX_NAV_VELNED_GSpeed(gps_ubx.msg_buf);
 609              		.loc 2 158 0
 610 022c 43EA0223 		orr	r3, r3, r2, lsl #8
 611 0230 A5F84430 		strh	r3, [r5, #68]	@ movhi
 159:subsystems/gps/gps_ubx.c ****       gps.ned_vel.x = UBX_NAV_VELNED_VEL_N(gps_ubx.msg_buf);
 612              		.loc 2 159 0
 613 0234 A37B     		ldrb	r3, [r4, #14]	@ zero_extendqisi2
 614 0236 627B     		ldrb	r2, [r4, #13]	@ zero_extendqisi2
 615 0238 1B04     		lsls	r3, r3, #16
 616 023a 43EA0223 		orr	r3, r3, r2, lsl #8
 617 023e 227B     		ldrb	r2, [r4, #12]	@ zero_extendqisi2
 618              		.loc 2 166 0
 619 0240 0004     		lsls	r0, r0, #16
 159:subsystems/gps/gps_ubx.c ****       gps.ned_vel.x = UBX_NAV_VELNED_VEL_N(gps_ubx.msg_buf);
 620              		.loc 2 159 0
 621 0242 1343     		orrs	r3, r3, r2
 622 0244 E27B     		ldrb	r2, [r4, #15]	@ zero_extendqisi2
 623              		.loc 2 166 0
 624 0246 0A27     		movs	r7, #10
 159:subsystems/gps/gps_ubx.c ****       gps.ned_vel.x = UBX_NAV_VELNED_VEL_N(gps_ubx.msg_buf);
 625              		.loc 2 159 0
 626 0248 43EA0263 		orr	r3, r3, r2, lsl #24
 627 024c AB63     		str	r3, [r5, #56]
 160:subsystems/gps/gps_ubx.c ****       gps.ned_vel.y = UBX_NAV_VELNED_VEL_E(gps_ubx.msg_buf);
 628              		.loc 2 160 0
 629 024e A37C     		ldrb	r3, [r4, #18]	@ zero_extendqisi2
 630 0250 627C     		ldrb	r2, [r4, #17]	@ zero_extendqisi2
 631 0252 1B04     		lsls	r3, r3, #16
 632 0254 43EA0223 		orr	r3, r3, r2, lsl #8
 633 0258 227C     		ldrb	r2, [r4, #16]	@ zero_extendqisi2
 634 025a 1343     		orrs	r3, r3, r2
 635 025c E27C     		ldrb	r2, [r4, #19]	@ zero_extendqisi2
 636 025e 43EA0263 		orr	r3, r3, r2, lsl #24
 637 0262 EB63     		str	r3, [r5, #60]
 161:subsystems/gps/gps_ubx.c ****       gps.ned_vel.z = UBX_NAV_VELNED_VEL_D(gps_ubx.msg_buf);
 638              		.loc 2 161 0
 639 0264 A37D     		ldrb	r3, [r4, #22]	@ zero_extendqisi2
 640 0266 627D     		ldrb	r2, [r4, #21]	@ zero_extendqisi2
 641 0268 1B04     		lsls	r3, r3, #16
 642 026a 43EA0223 		orr	r3, r3, r2, lsl #8
 643 026e 227D     		ldrb	r2, [r4, #20]	@ zero_extendqisi2
 644 0270 1343     		orrs	r3, r3, r2
 645 0272 E27D     		ldrb	r2, [r4, #23]	@ zero_extendqisi2
 646 0274 43EA0263 		orr	r3, r3, r2, lsl #24
 647 0278 2B64     		str	r3, [r5, #64]
 648              		.loc 2 166 0
 649 027a 94F82130 		ldrb	r3, [r4, #33]	@ zero_extendqisi2
 650 027e 40EA0320 		orr	r0, r0, r3, lsl #8
 651 0282 94F82030 		ldrb	r3, [r4, #32]	@ zero_extendqisi2
 652 0286 1843     		orrs	r0, r0, r3
 653 0288 94F82330 		ldrb	r3, [r4, #35]	@ zero_extendqisi2
 654 028c 40EA0360 		orr	r0, r0, r3, lsl #24
 655 0290 7843     		muls	r0, r7, r0
 656 0292 FFF7FEFF 		bl	__aeabi_i2d
 657 0296 1CA3     		adr	r3, .L15
 658 0298 D3E90023 		ldrd	r2, [r3]
 659 029c FFF7FEFF 		bl	__aeabi_dmul
 660 02a0 0022     		movs	r2, #0
 661 02a2 204B     		ldr	r3, .L15+28
 662 02a4 FFF7FEFF 		bl	__aeabi_dmul
 663 02a8 FFF7FEFF 		bl	__aeabi_d2iz
 664 02ac A864     		str	r0, [r5, #72]
 167:subsystems/gps/gps_ubx.c ****       gps.cacc = (RadOfDeg(UBX_NAV_VELNED_CAcc(gps_ubx.msg_buf)*10)) * 10;
 665              		.loc 2 167 0
 666 02ae 94F82A00 		ldrb	r0, [r4, #42]	@ zero_extendqisi2
 667 02b2 94F82B30 		ldrb	r3, [r4, #43]	@ zero_extendqisi2
 668 02b6 0004     		lsls	r0, r0, #16
 669 02b8 94F82920 		ldrb	r2, [r4, #41]	@ zero_extendqisi2
 670 02bc 40EA0360 		orr	r0, r0, r3, lsl #24
 671 02c0 94F82830 		ldrb	r3, [r4, #40]	@ zero_extendqisi2
 672 02c4 43EA0223 		orr	r3, r3, r2, lsl #8
 673 02c8 1843     		orrs	r0, r0, r3
 674 02ca 7843     		muls	r0, r7, r0
 675 02cc FFF7FEFF 		bl	__aeabi_ui2d
 676 02d0 0DA3     		adr	r3, .L15
 677 02d2 D3E90023 		ldrd	r2, [r3]
 678 02d6 FFF7FEFF 		bl	__aeabi_dmul
 679 02da 0022     		movs	r2, #0
 680 02dc 114B     		ldr	r3, .L15+28
 681 02de FFF7FEFF 		bl	__aeabi_dmul
 682 02e2 FFF7FEFF 		bl	__aeabi_d2uiz
 168:subsystems/gps/gps_ubx.c ****       gps.tow = UBX_NAV_VELNED_ITOW(gps_ubx.msg_buf);
 683              		.loc 2 168 0
 684 02e6 A37A     		ldrb	r3, [r4, #10]	@ zero_extendqisi2
 685 02e8 E27A     		ldrb	r2, [r4, #11]	@ zero_extendqisi2
 686 02ea 1B04     		lsls	r3, r3, #16
 687 02ec 43EA0263 		orr	r3, r3, r2, lsl #24
 688 02f0 617A     		ldrb	r1, [r4, #9]	@ zero_extendqisi2
 689 02f2 227A     		ldrb	r2, [r4, #8]	@ zero_extendqisi2
 167:subsystems/gps/gps_ubx.c ****       gps.cacc = (RadOfDeg(UBX_NAV_VELNED_CAcc(gps_ubx.msg_buf)*10)) * 10;
 690              		.loc 2 167 0
 691 02f4 6865     		str	r0, [r5, #84]
 692              		.loc 2 168 0
 693 02f6 42EA0122 		orr	r2, r2, r1, lsl #8
 694 02fa 1343     		orrs	r3, r3, r2
 695 02fc 2B66     		str	r3, [r5, #96]
 169:subsystems/gps/gps_ubx.c ****       gps_ubx.have_velned = 1;
 696              		.loc 2 169 0
 697 02fe 84F81561 		strb	r6, [r4, #277]
 698 0302 44E0     		b	.L7
 699              	.L16:
 700 0304 AFF30080 		.align	3
 701              	.L15:
 702 0308 399D52A2 		.word	-1571644103
 703 030c 46DF913F 		.word	1066524486
 704 0310 00000000 		.word	.LANCHOR0
 705 0314 00000000 		.word	gps
 706 0318 00000000 		.word	nav_utm_zone0
 707 031c 8096184B 		.word	1259902592
 708 0320 0000C842 		.word	1120403456
 709 0324 00002440 		.word	1076101120
 710              	.L11:
 170:subsystems/gps/gps_ubx.c ****     }
 171:subsystems/gps/gps_ubx.c ****     else if (gps_ubx.msg_id == UBX_NAV_SVINFO_ID) {
 711              		.loc 2 171 0
 712 0328 302B     		cmp	r3, #48
 713 032a 24D1     		bne	.L12
 714              	.LBB156:
 172:subsystems/gps/gps_ubx.c ****       gps.nb_channels = Min(UBX_NAV_SVINFO_NCH(gps_ubx.msg_buf), GPS_NB_CHANNELS);
 715              		.loc 2 172 0
 716 032c 217B     		ldrb	r1, [r4, #12]	@ zero_extendqisi2
 717 032e 194B     		ldr	r3, .L17
 718 0330 1029     		cmp	r1, #16
 719 0332 28BF     		it	cs
 720 0334 1021     		movcs	r1, #16
 721 0336 83F86410 		strb	r1, [r3, #100]
 722              	.LVL15:
 173:subsystems/gps/gps_ubx.c ****       uint8_t i;
 174:subsystems/gps/gps_ubx.c ****       for(i = 0; i < gps.nb_channels; i++) {
 723              		.loc 2 174 0
 724 033a 0022     		movs	r2, #0
 725 033c 16E0     		b	.L13
 726              	.LVL16:
 727              	.L14:
 175:subsystems/gps/gps_ubx.c ****         gps.svinfos[i].svid = UBX_NAV_SVINFO_SVID(gps_ubx.msg_buf, i);
 728              		.loc 2 175 0 discriminator 2
 729 033e 6079     		ldrb	r0, [r4, #5]	@ zero_extendqisi2
 176:subsystems/gps/gps_ubx.c ****         gps.svinfos[i].flags = UBX_NAV_SVINFO_Flags(gps_ubx.msg_buf, i);
 177:subsystems/gps/gps_ubx.c ****         gps.svinfos[i].qi = UBX_NAV_SVINFO_QI(gps_ubx.msg_buf, i);
 178:subsystems/gps/gps_ubx.c ****         gps.svinfos[i].cno = UBX_NAV_SVINFO_CNO(gps_ubx.msg_buf, i);
 179:subsystems/gps/gps_ubx.c ****         gps.svinfos[i].elev = UBX_NAV_SVINFO_Elev(gps_ubx.msg_buf, i);
 180:subsystems/gps/gps_ubx.c ****         gps.svinfos[i].azim = UBX_NAV_SVINFO_Azim(gps_ubx.msg_buf, i);
 730              		.loc 2 180 0 discriminator 2
 731 0340 E57A     		ldrb	r5, [r4, #11]	@ zero_extendqisi2
 175:subsystems/gps/gps_ubx.c ****         gps.svinfos[i].svid = UBX_NAV_SVINFO_SVID(gps_ubx.msg_buf, i);
 732              		.loc 2 175 0 discriminator 2
 733 0342 83F85E00 		strb	r0, [r3, #94]
 176:subsystems/gps/gps_ubx.c ****         gps.svinfos[i].flags = UBX_NAV_SVINFO_Flags(gps_ubx.msg_buf, i);
 734              		.loc 2 176 0 discriminator 2
 735 0346 A079     		ldrb	r0, [r4, #6]	@ zero_extendqisi2
 174:subsystems/gps/gps_ubx.c ****       for(i = 0; i < gps.nb_channels; i++) {
 736              		.loc 2 174 0 discriminator 2
 737 0348 0132     		adds	r2, r2, #1
 738              	.LVL17:
 176:subsystems/gps/gps_ubx.c ****         gps.svinfos[i].flags = UBX_NAV_SVINFO_Flags(gps_ubx.msg_buf, i);
 739              		.loc 2 176 0 discriminator 2
 740 034a 83F85F00 		strb	r0, [r3, #95]
 177:subsystems/gps/gps_ubx.c ****         gps.svinfos[i].qi = UBX_NAV_SVINFO_QI(gps_ubx.msg_buf, i);
 741              		.loc 2 177 0 discriminator 2
 742 034e E079     		ldrb	r0, [r4, #7]	@ zero_extendqisi2
 174:subsystems/gps/gps_ubx.c ****       for(i = 0; i < gps.nb_channels; i++) {
 743              		.loc 2 174 0 discriminator 2
 744 0350 D2B2     		uxtb	r2, r2
 745              	.LVL18:
 177:subsystems/gps/gps_ubx.c ****         gps.svinfos[i].qi = UBX_NAV_SVINFO_QI(gps_ubx.msg_buf, i);
 746              		.loc 2 177 0 discriminator 2
 747 0352 83F86000 		strb	r0, [r3, #96]
 178:subsystems/gps/gps_ubx.c ****         gps.svinfos[i].cno = UBX_NAV_SVINFO_CNO(gps_ubx.msg_buf, i);
 748              		.loc 2 178 0 discriminator 2
 749 0356 207A     		ldrb	r0, [r4, #8]	@ zero_extendqisi2
 750 0358 83F86100 		strb	r0, [r3, #97]
 179:subsystems/gps/gps_ubx.c ****         gps.svinfos[i].elev = UBX_NAV_SVINFO_Elev(gps_ubx.msg_buf, i);
 751              		.loc 2 179 0 discriminator 2
 752 035c 607A     		ldrb	r0, [r4, #9]	@ zero_extendqisi2
 753 035e 83F86200 		strb	r0, [r3, #98]
 754              		.loc 2 180 0 discriminator 2
 755 0362 A07A     		ldrb	r0, [r4, #10]	@ zero_extendqisi2
 756 0364 40EA0520 		orr	r0, r0, r5, lsl #8
 757 0368 A3F86400 		strh	r0, [r3, #100]	@ movhi
 758              	.LVL19:
 759              	.L13:
 174:subsystems/gps/gps_ubx.c ****       for(i = 0; i < gps.nb_channels; i++) {
 760              		.loc 2 174 0 discriminator 1
 761 036c 0C34     		adds	r4, r4, #12
 762 036e 0833     		adds	r3, r3, #8
 763 0370 8A42     		cmp	r2, r1
 764 0372 E4D1     		bne	.L14
 765 0374 0BE0     		b	.L7
 766              	.LVL20:
 767              	.L12:
 768              	.LBE156:
 181:subsystems/gps/gps_ubx.c ****       }
 182:subsystems/gps/gps_ubx.c ****     }
 183:subsystems/gps/gps_ubx.c ****     else if (gps_ubx.msg_id == UBX_NAV_STATUS_ID) {
 769              		.loc 2 183 0
 770 0376 032B     		cmp	r3, #3
 771 0378 09D1     		bne	.L7
 184:subsystems/gps/gps_ubx.c ****       gps.fix = UBX_NAV_STATUS_GPSfix(gps_ubx.msg_buf);
 772              		.loc 2 184 0
 773 037a 064B     		ldr	r3, .L17
 774 037c 227B     		ldrb	r2, [r4, #12]	@ zero_extendqisi2
 775 037e 83F85B20 		strb	r2, [r3, #91]
 185:subsystems/gps/gps_ubx.c ****       gps_ubx.status_flags = UBX_NAV_STATUS_Flags(gps_ubx.msg_buf);
 776              		.loc 2 185 0
 777 0382 637B     		ldrb	r3, [r4, #13]	@ zero_extendqisi2
 778 0384 84F81331 		strb	r3, [r4, #275]
 186:subsystems/gps/gps_ubx.c ****       gps_ubx.sol_flags = UBX_NAV_SOL_Flags(gps_ubx.msg_buf);
 779              		.loc 2 186 0
 780 0388 E37C     		ldrb	r3, [r4, #19]	@ zero_extendqisi2
 781 038a 84F81431 		strb	r3, [r4, #276]
 782              	.L7:
 187:subsystems/gps/gps_ubx.c ****     }
 188:subsystems/gps/gps_ubx.c ****   }
 189:subsystems/gps/gps_ubx.c **** }
 783              		.loc 2 189 0
 784 038e 09B0     		add	sp, sp, #36
 785 0390 F0BD     		pop	{r4, r5, r6, r7, pc}
 786              	.L18:
 787 0392 00BF     		.align	2
 788              	.L17:
 789 0394 00000000 		.word	gps
 790              		.cfi_endproc
 791              	.LFE28:
 793              		.section	.text.gps_ubx_parse,"ax",%progbits
 794              		.align	1
 795              		.global	gps_ubx_parse
 796              		.thumb
 797              		.thumb_func
 799              	gps_ubx_parse:
 800              	.LFB29:
 190:subsystems/gps/gps_ubx.c **** 
 191:subsystems/gps/gps_ubx.c **** 
 192:subsystems/gps/gps_ubx.c **** /* UBX parsing */
 193:subsystems/gps/gps_ubx.c **** void gps_ubx_parse( uint8_t c ) {
 801              		.loc 2 193 0
 802              		.cfi_startproc
 803              		@ args = 0, pretend = 0, frame = 0
 804              		@ frame_needed = 0, uses_anonymous_args = 0
 805              	.LVL21:
 806 0000 10B5     		push	{r4, lr}
 807              	.LCFI3:
 808              		.cfi_def_cfa_offset 8
 809              		.cfi_offset 14, -4
 810              		.cfi_offset 4, -8
 194:subsystems/gps/gps_ubx.c ****   if (gps_ubx.status < GOT_PAYLOAD) {
 811              		.loc 2 194 0
 812 0002 3F4B     		ldr	r3, .L43
 813 0004 93F80921 		ldrb	r2, [r3, #265]	@ zero_extendqisi2
 814 0008 062A     		cmp	r2, #6
 815 000a 0AD8     		bhi	.L20
 195:subsystems/gps/gps_ubx.c ****     gps_ubx.ck_a += c;
 816              		.loc 2 195 0
 817 000c 93F80D11 		ldrb	r1, [r3, #269]	@ zero_extendqisi2
 196:subsystems/gps/gps_ubx.c ****     gps_ubx.ck_b += gps_ubx.ck_a;
 818              		.loc 2 196 0
 819 0010 93F80E41 		ldrb	r4, [r3, #270]	@ zero_extendqisi2
 195:subsystems/gps/gps_ubx.c ****     gps_ubx.ck_a += c;
 820              		.loc 2 195 0
 821 0014 4118     		adds	r1, r0, r1
 822 0016 C9B2     		uxtb	r1, r1
 823 0018 83F80D11 		strb	r1, [r3, #269]
 824              		.loc 2 196 0
 825 001c 0919     		adds	r1, r1, r4
 826 001e 83F80E11 		strb	r1, [r3, #270]
 827              	.L20:
 197:subsystems/gps/gps_ubx.c ****   }
 198:subsystems/gps/gps_ubx.c ****   switch (gps_ubx.status) {
 828              		.loc 2 198 0
 829 0022 082A     		cmp	r2, #8
 830 0024 5CD8     		bhi	.L21
 831 0026 DFE802F0 		tbb	[pc, r2]
 832              	.L31:
 833 002a 05       		.byte	(.L22-.L31)/2
 834 002b 0A       		.byte	(.L23-.L31)/2
 835 002c 16       		.byte	(.L24-.L31)/2
 836 002d 1F       		.byte	(.L25-.L31)/2
 837 002e 24       		.byte	(.L26-.L31)/2
 838 002f 29       		.byte	(.L27-.L31)/2
 839 0030 39       		.byte	(.L28-.L31)/2
 840 0031 48       		.byte	(.L29-.L31)/2
 841 0032 51       		.byte	(.L30-.L31)/2
 842 0033 00       		.align	1
 843              	.L22:
 199:subsystems/gps/gps_ubx.c ****   case UNINIT:
 200:subsystems/gps/gps_ubx.c ****     if (c == UBX_SYNC1)
 844              		.loc 2 200 0
 845 0034 B528     		cmp	r0, #181
 846 0036 61D1     		bne	.L19
 201:subsystems/gps/gps_ubx.c ****       gps_ubx.status++;
 847              		.loc 2 201 0
 848 0038 0122     		movs	r2, #1
 849 003a 314B     		ldr	r3, .L43
 850 003c 43E0     		b	.L41
 851              	.L23:
 202:subsystems/gps/gps_ubx.c ****     break;
 203:subsystems/gps/gps_ubx.c ****   case GOT_SYNC1:
 204:subsystems/gps/gps_ubx.c ****     if (c != UBX_SYNC2) {
 852              		.loc 2 204 0
 853 003e 6228     		cmp	r0, #98
 854 0040 2F4B     		ldr	r3, .L43
 855 0042 01D0     		beq	.L33
 205:subsystems/gps/gps_ubx.c ****       gps_ubx.error_last = GPS_UBX_ERR_OUT_OF_SYNC;
 856              		.loc 2 205 0
 857 0044 0522     		movs	r2, #5
 858 0046 4DE0     		b	.L40
 859              	.L33:
 206:subsystems/gps/gps_ubx.c ****       goto error;
 207:subsystems/gps/gps_ubx.c ****     }
 208:subsystems/gps/gps_ubx.c ****     gps_ubx.ck_a = 0;
 860              		.loc 2 208 0
 861 0048 0022     		movs	r2, #0
 862 004a 83F80D21 		strb	r2, [r3, #269]
 209:subsystems/gps/gps_ubx.c ****     gps_ubx.ck_b = 0;
 863              		.loc 2 209 0
 864 004e 83F80E21 		strb	r2, [r3, #270]
 210:subsystems/gps/gps_ubx.c ****     gps_ubx.status++;
 865              		.loc 2 210 0
 866 0052 0222     		movs	r2, #2
 867 0054 37E0     		b	.L41
 868              	.L24:
 211:subsystems/gps/gps_ubx.c ****     break;
 212:subsystems/gps/gps_ubx.c ****   case GOT_SYNC2:
 213:subsystems/gps/gps_ubx.c ****     if (gps_ubx.msg_available) {
 869              		.loc 2 213 0
 870 0056 2A4B     		ldr	r3, .L43
 871 0058 1A78     		ldrb	r2, [r3, #0]	@ zero_extendqisi2
 872 005a 0AB1     		cbz	r2, .L35
 214:subsystems/gps/gps_ubx.c ****       /* Previous message has not yet been parsed: discard this one */
 215:subsystems/gps/gps_ubx.c ****       gps_ubx.error_last = GPS_UBX_ERR_OVERRUN;
 873              		.loc 2 215 0
 874 005c 0122     		movs	r2, #1
 875 005e 41E0     		b	.L40
 876              	.L35:
 216:subsystems/gps/gps_ubx.c ****       goto error;
 217:subsystems/gps/gps_ubx.c ****     }
 218:subsystems/gps/gps_ubx.c ****     gps_ubx.msg_class = c;
 877              		.loc 2 218 0
 878 0060 83F80801 		strb	r0, [r3, #264]
 219:subsystems/gps/gps_ubx.c ****     gps_ubx.status++;
 879              		.loc 2 219 0
 880 0064 0322     		movs	r2, #3
 881 0066 2EE0     		b	.L41
 882              	.L25:
 220:subsystems/gps/gps_ubx.c ****     break;
 221:subsystems/gps/gps_ubx.c ****   case GOT_CLASS:
 222:subsystems/gps/gps_ubx.c ****     gps_ubx.msg_id = c;
 883              		.loc 2 222 0
 884 0068 254B     		ldr	r3, .L43
 223:subsystems/gps/gps_ubx.c ****     gps_ubx.status++;
 885              		.loc 2 223 0
 886 006a 0422     		movs	r2, #4
 222:subsystems/gps/gps_ubx.c ****     gps_ubx.msg_id = c;
 887              		.loc 2 222 0
 888 006c 83F80701 		strb	r0, [r3, #263]
 889 0070 29E0     		b	.L41
 890              	.L26:
 224:subsystems/gps/gps_ubx.c ****     break;
 225:subsystems/gps/gps_ubx.c ****   case GOT_ID:
 226:subsystems/gps/gps_ubx.c ****     gps_ubx.len = c;
 891              		.loc 2 226 0
 892 0072 234B     		ldr	r3, .L43
 227:subsystems/gps/gps_ubx.c ****     gps_ubx.status++;
 893              		.loc 2 227 0
 894 0074 0522     		movs	r2, #5
 226:subsystems/gps/gps_ubx.c ****     gps_ubx.len = c;
 895              		.loc 2 226 0
 896 0076 A3F80A01 		strh	r0, [r3, #266]	@ movhi
 897 007a 24E0     		b	.L41
 898              	.L27:
 228:subsystems/gps/gps_ubx.c ****     break;
 229:subsystems/gps/gps_ubx.c ****   case GOT_LEN1:
 230:subsystems/gps/gps_ubx.c ****     gps_ubx.len |= (c<<8);
 899              		.loc 2 230 0
 900 007c 204B     		ldr	r3, .L43
 901 007e B3F80A21 		ldrh	r2, [r3, #266]
 902 0082 42EA0020 		orr	r0, r2, r0, lsl #8
 903              	.LVL22:
 231:subsystems/gps/gps_ubx.c ****     if (gps_ubx.len > GPS_UBX_MAX_PAYLOAD) {
 904              		.loc 2 231 0
 905 0086 FF28     		cmp	r0, #255
 230:subsystems/gps/gps_ubx.c ****     gps_ubx.len |= (c<<8);
 906              		.loc 2 230 0
 907 0088 A3F80A01 		strh	r0, [r3, #266]	@ movhi
 908              		.loc 2 231 0
 909 008c 01D9     		bls	.L36
 232:subsystems/gps/gps_ubx.c ****       gps_ubx.error_last = GPS_UBX_ERR_MSG_TOO_LONG;
 910              		.loc 2 232 0
 911 008e 0222     		movs	r2, #2
 912 0090 28E0     		b	.L40
 913              	.L36:
 233:subsystems/gps/gps_ubx.c ****       goto error;
 234:subsystems/gps/gps_ubx.c ****     }
 235:subsystems/gps/gps_ubx.c ****     gps_ubx.msg_idx = 0;
 914              		.loc 2 235 0
 915 0092 0022     		movs	r2, #0
 916 0094 83F80C21 		strb	r2, [r3, #268]
 236:subsystems/gps/gps_ubx.c ****     gps_ubx.status++;
 917              		.loc 2 236 0
 918 0098 0622     		movs	r2, #6
 919 009a 14E0     		b	.L41
 920              	.LVL23:
 921              	.L28:
 237:subsystems/gps/gps_ubx.c ****     break;
 238:subsystems/gps/gps_ubx.c ****   case GOT_LEN2:
 239:subsystems/gps/gps_ubx.c ****     gps_ubx.msg_buf[gps_ubx.msg_idx] = c;
 922              		.loc 2 239 0
 923 009c 184B     		ldr	r3, .L43
 924 009e 93F80C21 		ldrb	r2, [r3, #268]	@ zero_extendqisi2
 925 00a2 9918     		adds	r1, r3, r2
 926 00a4 0872     		strb	r0, [r1, #8]
 240:subsystems/gps/gps_ubx.c ****     gps_ubx.msg_idx++;
 927              		.loc 2 240 0
 928 00a6 0132     		adds	r2, r2, #1
 241:subsystems/gps/gps_ubx.c ****     if (gps_ubx.msg_idx >= gps_ubx.len) {
 929              		.loc 2 241 0
 930 00a8 B3F80A11 		ldrh	r1, [r3, #266]
 240:subsystems/gps/gps_ubx.c ****     gps_ubx.msg_idx++;
 931              		.loc 2 240 0
 932 00ac D2B2     		uxtb	r2, r2
 933              		.loc 2 241 0
 934 00ae 9142     		cmp	r1, r2
 240:subsystems/gps/gps_ubx.c ****     gps_ubx.msg_idx++;
 935              		.loc 2 240 0
 936 00b0 83F80C21 		strb	r2, [r3, #268]
 937              		.loc 2 241 0
 938 00b4 22D8     		bhi	.L19
 242:subsystems/gps/gps_ubx.c ****       gps_ubx.status++;
 939              		.loc 2 242 0
 940 00b6 0722     		movs	r2, #7
 941 00b8 05E0     		b	.L41
 942              	.L29:
 243:subsystems/gps/gps_ubx.c ****     }
 244:subsystems/gps/gps_ubx.c ****     break;
 245:subsystems/gps/gps_ubx.c ****   case GOT_PAYLOAD:
 246:subsystems/gps/gps_ubx.c ****     if (c != gps_ubx.ck_a) {
 943              		.loc 2 246 0
 944 00ba 114B     		ldr	r3, .L43
 945 00bc 93F80D21 		ldrb	r2, [r3, #269]	@ zero_extendqisi2
 946 00c0 8242     		cmp	r2, r0
 947 00c2 08D1     		bne	.L42
 948              	.L37:
 247:subsystems/gps/gps_ubx.c ****       gps_ubx.error_last = GPS_UBX_ERR_CHECKSUM;
 248:subsystems/gps/gps_ubx.c ****       goto error;
 249:subsystems/gps/gps_ubx.c ****     }
 250:subsystems/gps/gps_ubx.c ****     gps_ubx.status++;
 949              		.loc 2 250 0
 950 00c4 0822     		movs	r2, #8
 951              	.LVL24:
 952              	.L41:
 953 00c6 83F80921 		strb	r2, [r3, #265]
 251:subsystems/gps/gps_ubx.c ****     break;
 954              		.loc 2 251 0
 955 00ca 10BD     		pop	{r4, pc}
 956              	.LVL25:
 957              	.L30:
 252:subsystems/gps/gps_ubx.c ****   case GOT_CHECKSUM1:
 253:subsystems/gps/gps_ubx.c ****     if (c != gps_ubx.ck_b) {
 958              		.loc 2 253 0
 959 00cc 0C4B     		ldr	r3, .L43
 960 00ce 93F80E21 		ldrb	r2, [r3, #270]	@ zero_extendqisi2
 961 00d2 8242     		cmp	r2, r0
 962 00d4 01D0     		beq	.L38
 963              	.L42:
 254:subsystems/gps/gps_ubx.c ****       gps_ubx.error_last = GPS_UBX_ERR_CHECKSUM;
 964              		.loc 2 254 0
 965 00d6 0322     		movs	r2, #3
 966 00d8 04E0     		b	.L40
 967              	.L38:
 255:subsystems/gps/gps_ubx.c ****       goto error;
 256:subsystems/gps/gps_ubx.c ****     }
 257:subsystems/gps/gps_ubx.c ****     gps_ubx.msg_available = TRUE;
 968              		.loc 2 257 0
 969 00da 0122     		movs	r2, #1
 970 00dc 1A70     		strb	r2, [r3, #0]
 258:subsystems/gps/gps_ubx.c ****     goto restart;
 971              		.loc 2 258 0
 972 00de 09E0     		b	.L39
 973              	.L21:
 259:subsystems/gps/gps_ubx.c ****     break;
 260:subsystems/gps/gps_ubx.c ****   default:
 261:subsystems/gps/gps_ubx.c ****     gps_ubx.error_last = GPS_UBX_ERR_UNEXPECTED;
 974              		.loc 2 261 0
 975 00e0 074B     		ldr	r3, .L43
 976 00e2 0422     		movs	r2, #4
 977              	.LVL26:
 978              	.L40:
 979              	.L34:
 980 00e4 83F81221 		strb	r2, [r3, #274]
 262:subsystems/gps/gps_ubx.c ****     goto error;
 263:subsystems/gps/gps_ubx.c ****   }
 264:subsystems/gps/gps_ubx.c ****   return;
 265:subsystems/gps/gps_ubx.c ****  error:
 266:subsystems/gps/gps_ubx.c ****   gps_ubx.error_cnt++;
 981              		.loc 2 266 0
 982 00e8 054B     		ldr	r3, .L43
 983 00ea 93F81121 		ldrb	r2, [r3, #273]	@ zero_extendqisi2
 984 00ee 0132     		adds	r2, r2, #1
 985 00f0 83F81121 		strb	r2, [r3, #273]
 986              	.L39:
 267:subsystems/gps/gps_ubx.c ****  restart:
 268:subsystems/gps/gps_ubx.c ****   gps_ubx.status = UNINIT;
 987              		.loc 2 268 0
 988 00f4 024B     		ldr	r3, .L43
 989 00f6 0022     		movs	r2, #0
 990 00f8 83F80921 		strb	r2, [r3, #265]
 991              	.L19:
 992 00fc 10BD     		pop	{r4, pc}
 993              	.L44:
 994 00fe 00BF     		.align	2
 995              	.L43:
 996 0100 00000000 		.word	.LANCHOR0
 997              		.cfi_endproc
 998              	.LFE29:
 1000              		.section	.text.gps_ubx_ucenter_init,"ax",%progbits
 1001              		.align	1
 1002              		.global	gps_ubx_ucenter_init
 1003              		.thumb
 1004              		.thumb_func
 1006              	gps_ubx_ucenter_init:
 1007              	.LFB30:
  51:./modules/gps/gps_ubx_ucenter.c **** {
 1008              		.loc 1 51 0
 1009              		.cfi_startproc
 1010              		@ args = 0, pretend = 0, frame = 0
 1011              		@ frame_needed = 0, uses_anonymous_args = 0
 1012              		@ link register save eliminated.
  53:./modules/gps/gps_ubx_ucenter.c ****   gps_ubx_ucenter.status = GPS_UBX_UCENTER_STATUS_AUTOBAUD;
 1013              		.loc 1 53 0
 1014 0000 094B     		ldr	r3, .L48
 1015 0002 0122     		movs	r2, #1
 1016 0004 1A70     		strb	r2, [r3, #0]
  54:./modules/gps/gps_ubx_ucenter.c ****   gps_ubx_ucenter.reply = GPS_UBX_UCENTER_REPLY_NONE;
 1017              		.loc 1 54 0
 1018 0006 0022     		movs	r2, #0
 1019 0008 5A70     		strb	r2, [r3, #1]
  55:./modules/gps/gps_ubx_ucenter.c ****   gps_ubx_ucenter.cnt = 0;
 1020              		.loc 1 55 0
 1021 000a 9A70     		strb	r2, [r3, #2]
  57:./modules/gps/gps_ubx_ucenter.c ****   gps_ubx_ucenter.baud_init = 0;
 1022              		.loc 1 57 0
 1023 000c 9A80     		strh	r2, [r3, #4]	@ movhi
  58:./modules/gps/gps_ubx_ucenter.c ****   gps_ubx_ucenter.baud_run = 0;
 1024              		.loc 1 58 0
 1025 000e DA80     		strh	r2, [r3, #6]	@ movhi
  60:./modules/gps/gps_ubx_ucenter.c ****   gps_ubx_ucenter.sw_ver_h = 0;
 1026              		.loc 1 60 0
 1027 0010 1A72     		strb	r2, [r3, #8]
  61:./modules/gps/gps_ubx_ucenter.c ****   gps_ubx_ucenter.sw_ver_l = 0;
 1028              		.loc 1 61 0
 1029 0012 5A72     		strb	r2, [r3, #9]
  62:./modules/gps/gps_ubx_ucenter.c ****   gps_ubx_ucenter.hw_ver_h = 0;
 1030              		.loc 1 62 0
 1031 0014 5A81     		strh	r2, [r3, #10]	@ movhi
  63:./modules/gps/gps_ubx_ucenter.c ****   gps_ubx_ucenter.hw_ver_l = 0;
 1032              		.loc 1 63 0
 1033 0016 9A81     		strh	r2, [r3, #12]	@ movhi
 1034              	.LVL27:
 1035              	.LBB157:
  67:./modules/gps/gps_ubx_ucenter.c ****     gps_ubx_ucenter.replies[i] = 0;
 1036              		.loc 1 67 0
 1037 0018 1146     		mov	r1, r2
 1038              	.LBE157:
  63:./modules/gps/gps_ubx_ucenter.c ****   gps_ubx_ucenter.hw_ver_l = 0;
 1039              		.loc 1 63 0
 1040 001a 0D33     		adds	r3, r3, #13
 1041              	.LVL28:
 1042              	.L46:
 1043              	.LBB158:
  65:./modules/gps/gps_ubx_ucenter.c ****   for (int i=0; i<GPS_UBX_UCENTER_CONFIG_STEPS; i++)
 1044              		.loc 1 65 0 discriminator 2
 1045 001c 0132     		adds	r2, r2, #1
 1046              	.LVL29:
 1047 001e 112A     		cmp	r2, #17
  67:./modules/gps/gps_ubx_ucenter.c ****     gps_ubx_ucenter.replies[i] = 0;
 1048              		.loc 1 67 0 discriminator 2
 1049 0020 03F8011F 		strb	r1, [r3, #1]!
  65:./modules/gps/gps_ubx_ucenter.c ****   for (int i=0; i<GPS_UBX_UCENTER_CONFIG_STEPS; i++)
 1050              		.loc 1 65 0 discriminator 2
 1051 0024 FAD1     		bne	.L46
 1052              	.LBE158:
  69:./modules/gps/gps_ubx_ucenter.c **** }
 1053              		.loc 1 69 0
 1054 0026 7047     		bx	lr
 1055              	.L49:
 1056              		.align	2
 1057              	.L48:
 1058 0028 00000000 		.word	.LANCHOR1
 1059              		.cfi_endproc
 1060              	.LFE30:
 1062              		.section	.text.gps_ubx_ucenter_periodic,"ax",%progbits
 1063              		.align	1
 1064              		.global	gps_ubx_ucenter_periodic
 1065              		.thumb
 1066              		.thumb_func
 1068              	gps_ubx_ucenter_periodic:
 1069              	.LFB31:
  77:./modules/gps/gps_ubx_ucenter.c **** {
 1070              		.loc 1 77 0
 1071              		.cfi_startproc
 1072              		@ args = 0, pretend = 0, frame = 40
 1073              		@ frame_needed = 0, uses_anonymous_args = 0
 1074 0000 F0B5     		push	{r4, r5, r6, r7, lr}
 1075              	.LCFI4:
 1076              		.cfi_def_cfa_offset 20
 1077              		.cfi_offset 14, -4
 1078              		.cfi_offset 7, -8
 1079              		.cfi_offset 6, -12
 1080              		.cfi_offset 5, -16
 1081              		.cfi_offset 4, -20
  78:./modules/gps/gps_ubx_ucenter.c ****   switch (gps_ubx_ucenter.status)
 1082              		.loc 1 78 0
 1083 0002 8B4B     		ldr	r3, .L101
  77:./modules/gps/gps_ubx_ucenter.c **** {
 1084              		.loc 1 77 0
 1085 0004 8BB0     		sub	sp, sp, #44
 1086              	.LCFI5:
 1087              		.cfi_def_cfa_offset 64
  78:./modules/gps/gps_ubx_ucenter.c ****   switch (gps_ubx_ucenter.status)
 1088              		.loc 1 78 0
 1089 0006 1A78     		ldrb	r2, [r3, #0]	@ zero_extendqisi2
 1090 0008 012A     		cmp	r2, #1
 1091 000a 03D0     		beq	.L52
 1092 000c 022A     		cmp	r2, #2
 1093 000e 41F07382 		bne	.L50
 1094 0012 C8E0     		b	.L100
 1095              	.L52:
 1096              	.LVL30:
 1097              	.LBB373:
 1098              	.LBB374:
 157:./modules/gps/gps_ubx_ucenter.c ****   switch (nr)
 1099              		.loc 1 157 0
 1100 0014 9A78     		ldrb	r2, [r3, #2]	@ zero_extendqisi2
 1101 0016 023A     		subs	r2, r2, #2
 1102 0018 042A     		cmp	r2, #4
 1103 001a 01F26082 		bhi	.L67
 1104 001e DFE802F0 		tbb	[pc, r2]
 1105              	.L60:
 1106 0022 03       		.byte	(.L55-.L60)/2
 1107 0023 09       		.byte	(.L56-.L60)/2
 1108 0024 16       		.byte	(.L57-.L60)/2
 1109 0025 23       		.byte	(.L58-.L60)/2
 1110 0026 B0       		.byte	(.L59-.L60)/2
 1111 0027 00       		.align	1
 1112              	.L55:
 165:./modules/gps/gps_ubx_ucenter.c ****     gps_ubx_ucenter.reply = GPS_UBX_UCENTER_REPLY_NONE;
 1113              		.loc 1 165 0
 1114 0028 0025     		movs	r5, #0
 1115 002a 5D70     		strb	r5, [r3, #1]
 166:./modules/gps/gps_ubx_ucenter.c ****     GpsUartSetBaudrate(B38400); // Try the most common first?
 1116              		.loc 1 166 0
 1117 002c 8148     		ldr	r0, .L101+4
 1118 002e 4FF41641 		mov	r1, #38400
 1119 0032 25E0     		b	.L91
 1120              	.L56:
 170:./modules/gps/gps_ubx_ucenter.c ****     if (gps_ubx_ucenter.reply == GPS_UBX_UCENTER_REPLY_ACK)
 1121              		.loc 1 170 0
 1122 0034 5B78     		ldrb	r3, [r3, #1]	@ zero_extendqisi2
 1123 0036 7E4A     		ldr	r2, .L101
 1124 0038 012B     		cmp	r3, #1
 1125 003a 02D1     		bne	.L61
 172:./modules/gps/gps_ubx_ucenter.c ****       gps_ubx_ucenter.baud_init = 38400;
 1126              		.loc 1 172 0
 1127 003c 4FF41643 		mov	r3, #38400
 1128 0040 A5E0     		b	.L94
 1129              	.L61:
 175:./modules/gps/gps_ubx_ucenter.c ****     gps_ubx_ucenter.reply = GPS_UBX_UCENTER_REPLY_NONE;
 1130              		.loc 1 175 0
 1131 0042 0025     		movs	r5, #0
 1132 0044 5570     		strb	r5, [r2, #1]
 176:./modules/gps/gps_ubx_ucenter.c ****     GpsUartSetBaudrate(B9600); // Maybe the factory default?
 1133              		.loc 1 176 0
 1134 0046 7B48     		ldr	r0, .L101+4
 1135 0048 4FF41651 		mov	r1, #9600
 1136 004c 18E0     		b	.L91
 1137              	.L57:
 180:./modules/gps/gps_ubx_ucenter.c ****     if (gps_ubx_ucenter.reply == GPS_UBX_UCENTER_REPLY_ACK)
 1138              		.loc 1 180 0
 1139 004e 5B78     		ldrb	r3, [r3, #1]	@ zero_extendqisi2
 1140 0050 774A     		ldr	r2, .L101
 1141 0052 012B     		cmp	r3, #1
 1142 0054 02D1     		bne	.L63
 182:./modules/gps/gps_ubx_ucenter.c ****       gps_ubx_ucenter.baud_init = 9600;
 1143              		.loc 1 182 0
 1144 0056 4FF41653 		mov	r3, #9600
 1145 005a 98E0     		b	.L94
 1146              	.L63:
 185:./modules/gps/gps_ubx_ucenter.c ****     gps_ubx_ucenter.reply = GPS_UBX_UCENTER_REPLY_NONE;
 1147              		.loc 1 185 0
 1148 005c 0025     		movs	r5, #0
 1149 005e 5570     		strb	r5, [r2, #1]
 186:./modules/gps/gps_ubx_ucenter.c ****     GpsUartSetBaudrate(B57600); // The high-rate default?
 1150              		.loc 1 186 0
 1151 0060 7448     		ldr	r0, .L101+4
 1152 0062 4FF46141 		mov	r1, #57600
 1153 0066 0BE0     		b	.L91
 1154              	.L58:
 190:./modules/gps/gps_ubx_ucenter.c ****     if (gps_ubx_ucenter.reply == GPS_UBX_UCENTER_REPLY_ACK)
 1155              		.loc 1 190 0
 1156 0068 5B78     		ldrb	r3, [r3, #1]	@ zero_extendqisi2
 1157 006a 714A     		ldr	r2, .L101
 1158 006c 012B     		cmp	r3, #1
 1159 006e 02D1     		bne	.L64
 192:./modules/gps/gps_ubx_ucenter.c ****       gps_ubx_ucenter.baud_init = 57600;
 1160              		.loc 1 192 0
 1161 0070 4FF46143 		mov	r3, #57600
 1162 0074 8BE0     		b	.L94
 1163              	.L64:
 195:./modules/gps/gps_ubx_ucenter.c ****     gps_ubx_ucenter.reply = GPS_UBX_UCENTER_REPLY_NONE;
 1164              		.loc 1 195 0
 1165 0076 0025     		movs	r5, #0
 196:./modules/gps/gps_ubx_ucenter.c ****     GpsUartSetBaudrate(B4800); // Default NMEA baudrate finally?
 1166              		.loc 1 196 0
 1167 0078 6E48     		ldr	r0, .L101+4
 195:./modules/gps/gps_ubx_ucenter.c ****     gps_ubx_ucenter.reply = GPS_UBX_UCENTER_REPLY_NONE;
 1168              		.loc 1 195 0
 1169 007a 5570     		strb	r5, [r2, #1]
 196:./modules/gps/gps_ubx_ucenter.c ****     GpsUartSetBaudrate(B4800); // Default NMEA baudrate finally?
 1170              		.loc 1 196 0
 1171 007c 4FF49651 		mov	r1, #4800
 1172              	.L91:
 1173              	.LBB375:
 197:./modules/gps/gps_ubx_ucenter.c ****     UbxSend_CFG_MSG(UBX_NAV_ID, UBX_NAV_VELNED_ID, 0, 1, 0, 0);
 1174              		.loc 1 197 0
 1175 0080 6D4C     		ldr	r4, .L101+8
 1176              	.LBE375:
 196:./modules/gps/gps_ubx_ucenter.c ****     GpsUartSetBaudrate(B4800); // Default NMEA baudrate finally?
 1177              		.loc 1 196 0
 1178 0082 FFF7FEFF 		bl	uart_periph_set_baudrate
 1179              	.LVL31:
 1180              	.LBB391:
 197:./modules/gps/gps_ubx_ucenter.c ****     UbxSend_CFG_MSG(UBX_NAV_ID, UBX_NAV_VELNED_ID, 0, 1, 0, 0);
 1181              		.loc 1 197 0
 1182 0086 6B48     		ldr	r0, .L101+4
 1183 0088 B521     		movs	r1, #181
 1184 008a FFF7FEFF 		bl	uart_transmit
 1185 008e 6948     		ldr	r0, .L101+4
 1186 0090 6221     		movs	r1, #98
 1187 0092 FFF7FEFF 		bl	uart_transmit
 1188              	.LBB376:
 1189 0096 6748     		ldr	r0, .L101+4
 1190 0098 0621     		movs	r1, #6
 1191              	.LBE376:
 1192 009a 84F81051 		strb	r5, [r4, #272]
 1193 009e 84F80F51 		strb	r5, [r4, #271]
 1194              	.LVL32:
 1195              	.LBB377:
 1196 00a2 FFF7FEFF 		bl	uart_transmit
 1197 00a6 94F80F31 		ldrb	r3, [r4, #271]	@ zero_extendqisi2
 1198 00aa 94F81021 		ldrb	r2, [r4, #272]	@ zero_extendqisi2
 1199 00ae 0633     		adds	r3, r3, #6
 1200 00b0 DBB2     		uxtb	r3, r3
 1201 00b2 84F80F31 		strb	r3, [r4, #271]
 1202 00b6 9B18     		adds	r3, r3, r2
 1203 00b8 84F81031 		strb	r3, [r4, #272]
 1204              	.LVL33:
 1205              	.LBE377:
 1206              	.LBB378:
 1207 00bc 5D48     		ldr	r0, .L101+4
 1208 00be 0121     		movs	r1, #1
 1209 00c0 FFF7FEFF 		bl	uart_transmit
 1210 00c4 94F80F31 		ldrb	r3, [r4, #271]	@ zero_extendqisi2
 1211 00c8 94F81021 		ldrb	r2, [r4, #272]	@ zero_extendqisi2
 1212 00cc 0133     		adds	r3, r3, #1
 1213 00ce DBB2     		uxtb	r3, r3
 1214 00d0 84F80F31 		strb	r3, [r4, #271]
 1215 00d4 9B18     		adds	r3, r3, r2
 1216 00d6 84F81031 		strb	r3, [r4, #272]
 1217              	.LVL34:
 1218              	.LBE378:
 1219              	.LBB379:
 1220              	.LBB380:
 1221 00da 5648     		ldr	r0, .L101+4
 1222 00dc 0621     		movs	r1, #6
 1223 00de FFF7FEFF 		bl	uart_transmit
 1224 00e2 94F80F31 		ldrb	r3, [r4, #271]	@ zero_extendqisi2
 1225 00e6 94F81021 		ldrb	r2, [r4, #272]	@ zero_extendqisi2
 1226 00ea 0633     		adds	r3, r3, #6
 1227 00ec DBB2     		uxtb	r3, r3
 1228 00ee 84F80F31 		strb	r3, [r4, #271]
 1229 00f2 9B18     		adds	r3, r3, r2
 1230 00f4 84F81031 		strb	r3, [r4, #272]
 1231              	.LVL35:
 1232              	.LBE380:
 1233              	.LBB381:
 1234 00f8 4E48     		ldr	r0, .L101+4
 1235 00fa 2946     		mov	r1, r5
 1236 00fc FFF7FEFF 		bl	uart_transmit
 1237 0100 94F81021 		ldrb	r2, [r4, #272]	@ zero_extendqisi2
 1238 0104 94F80F31 		ldrb	r3, [r4, #271]	@ zero_extendqisi2
 1239              	.LBE381:
 1240              	.LBE379:
 1241              	.LBB383:
 1242 0108 4A48     		ldr	r0, .L101+4
 1243              	.LBE383:
 1244              	.LBB384:
 1245              	.LBB382:
 1246 010a D318     		adds	r3, r2, r3
 1247 010c 84F81031 		strb	r3, [r4, #272]
 1248              	.LVL36:
 1249              	.LBE382:
 1250              	.LBE384:
 1251              	.LBB385:
 1252 0110 0121     		movs	r1, #1
 1253 0112 FFF7FEFF 		bl	uart_transmit
 1254 0116 94F80F31 		ldrb	r3, [r4, #271]	@ zero_extendqisi2
 1255 011a 94F81021 		ldrb	r2, [r4, #272]	@ zero_extendqisi2
 1256 011e 0133     		adds	r3, r3, #1
 1257 0120 DBB2     		uxtb	r3, r3
 1258 0122 84F80F31 		strb	r3, [r4, #271]
 1259 0126 9B18     		adds	r3, r3, r2
 1260 0128 84F81031 		strb	r3, [r4, #272]
 1261              	.LVL37:
 1262              	.LBE385:
 1263              	.LBB386:
 1264 012c 4148     		ldr	r0, .L101+4
 1265 012e 1221     		movs	r1, #18
 1266 0130 FFF7FEFF 		bl	uart_transmit
 1267 0134 94F80F31 		ldrb	r3, [r4, #271]	@ zero_extendqisi2
 1268 0138 94F81021 		ldrb	r2, [r4, #272]	@ zero_extendqisi2
 1269 013c 1233     		adds	r3, r3, #18
 1270 013e DBB2     		uxtb	r3, r3
 1271 0140 84F80F31 		strb	r3, [r4, #271]
 1272 0144 9B18     		adds	r3, r3, r2
 1273 0146 84F81031 		strb	r3, [r4, #272]
 1274              	.LVL38:
 1275              	.LBE386:
 1276              	.LBB387:
 1277 014a 3A48     		ldr	r0, .L101+4
 1278 014c 2946     		mov	r1, r5
 1279 014e FFF7FEFF 		bl	uart_transmit
 1280 0152 94F81021 		ldrb	r2, [r4, #272]	@ zero_extendqisi2
 1281 0156 94F80F31 		ldrb	r3, [r4, #271]	@ zero_extendqisi2
 1282              	.LBE387:
 1283              	.LBB388:
 1284 015a 3648     		ldr	r0, .L101+4
 1285              	.LBE388:
 1286              	.LBB389:
 1287 015c D318     		adds	r3, r2, r3
 1288 015e 84F81031 		strb	r3, [r4, #272]
 1289              	.LVL39:
 1290              	.LBE389:
 1291              	.LBB390:
 1292 0162 0121     		movs	r1, #1
 1293 0164 FFF7FEFF 		bl	uart_transmit
 1294 0168 94F80F31 		ldrb	r3, [r4, #271]	@ zero_extendqisi2
 1295 016c 0133     		adds	r3, r3, #1
 1296              	.LVL40:
 1297              	.L99:
 1298 016e 94F81021 		ldrb	r2, [r4, #272]	@ zero_extendqisi2
 1299 0172 DBB2     		uxtb	r3, r3
 1300 0174 84F80F31 		strb	r3, [r4, #271]
 1301 0178 9B18     		adds	r3, r3, r2
 1302 017a 84F81031 		strb	r3, [r4, #272]
 1303              	.LVL41:
 1304 017e 00F055BC 		b	.L97
 1305              	.LVL42:
 1306              	.L59:
 1307              	.LBE390:
 1308              	.LBE391:
 200:./modules/gps/gps_ubx_ucenter.c ****     if (gps_ubx_ucenter.reply == GPS_UBX_UCENTER_REPLY_ACK)
 1309              		.loc 1 200 0
 1310 0182 5B78     		ldrb	r3, [r3, #1]	@ zero_extendqisi2
 1311 0184 2A4A     		ldr	r2, .L101
 1312 0186 012B     		cmp	r3, #1
 1313 0188 04D1     		bne	.L65
 202:./modules/gps/gps_ubx_ucenter.c ****       gps_ubx_ucenter.baud_init = 4800;
 1314              		.loc 1 202 0
 1315 018a 4FF49653 		mov	r3, #4800
 1316              	.L94:
 1317 018e 9380     		strh	r3, [r2, #4]	@ movhi
 1318 0190 01F0A9B9 		b	.L62
 1319              	.L65:
 208:./modules/gps/gps_ubx_ucenter.c ****     gps_ubx_ucenter.baud_init = 0;
 1320              		.loc 1 208 0
 1321 0194 0023     		movs	r3, #0
 1322 0196 9380     		strh	r3, [r2, #4]	@ movhi
 209:./modules/gps/gps_ubx_ucenter.c ****     GpsUartSetBaudrate(B9600);
 1323              		.loc 1 209 0
 1324 0198 2648     		ldr	r0, .L101+4
 1325 019a 4FF41651 		mov	r1, #9600
 1326 019e FFF7FEFF 		bl	uart_periph_set_baudrate
 1327              	.LVL43:
 1328 01a2 01F0A0B9 		b	.L62
 1329              	.L100:
 1330              	.LBE374:
 1331              	.LBE373:
  97:./modules/gps/gps_ubx_ucenter.c ****       if (gps_ubx_ucenter_configure(gps_ubx_ucenter.cnt) == FALSE)
 1332              		.loc 1 97 0
 1333 01a6 9A78     		ldrb	r2, [r3, #2]	@ zero_extendqisi2
 1334              	.LVL44:
 1335              	.LBB392:
 1336              	.LBB393:
 319:./modules/gps/gps_ubx_ucenter.c **** 
 320:./modules/gps/gps_ubx_ucenter.c **** 
 321:./modules/gps/gps_ubx_ucenter.c **** // Text Telemetry for Debugging
 322:./modules/gps/gps_ubx_ucenter.c **** #ifndef DOWNLINK_DEVICE
 323:./modules/gps/gps_ubx_ucenter.c **** #define DOWNLINK_DEVICE DOWNLINK_AP_DEVICE
 324:./modules/gps/gps_ubx_ucenter.c **** #endif
 325:./modules/gps/gps_ubx_ucenter.c **** #undef GOT_PAYLOAD
 326:./modules/gps/gps_ubx_ucenter.c **** #include "subsystems/datalink/downlink.h"
 327:./modules/gps/gps_ubx_ucenter.c **** 
 328:./modules/gps/gps_ubx_ucenter.c **** static bool_t gps_ubx_ucenter_configure(uint8_t nr)
 329:./modules/gps/gps_ubx_ucenter.c **** {
 330:./modules/gps/gps_ubx_ucenter.c ****   // Store the reply of the last configuration step and reset
 331:./modules/gps/gps_ubx_ucenter.c ****   if (nr < GPS_UBX_UCENTER_CONFIG_STEPS)
 1337              		.loc 1 331 0
 1338 01a8 102A     		cmp	r2, #16
 1339 01aa 02D8     		bhi	.L66
 332:./modules/gps/gps_ubx_ucenter.c ****     gps_ubx_ucenter.replies[nr] = gps_ubx_ucenter.reply;
 1340              		.loc 1 332 0
 1341 01ac 5878     		ldrb	r0, [r3, #1]	@ zero_extendqisi2
 1342 01ae 9918     		adds	r1, r3, r2
 1343 01b0 8873     		strb	r0, [r1, #14]
 1344              	.L66:
 333:./modules/gps/gps_ubx_ucenter.c **** 
 334:./modules/gps/gps_ubx_ucenter.c ****   gps_ubx_ucenter.reply = GPS_UBX_UCENTER_REPLY_NONE;
 1345              		.loc 1 334 0
 1346 01b2 0021     		movs	r1, #0
 1347 01b4 5970     		strb	r1, [r3, #1]
 1348 01b6 1E4C     		ldr	r4, .L101
 335:./modules/gps/gps_ubx_ucenter.c **** 
 336:./modules/gps/gps_ubx_ucenter.c ****   switch (nr) {
 1349              		.loc 1 336 0
 1350 01b8 102A     		cmp	r2, #16
 1351 01ba 01F29081 		bhi	.L67
 1352 01be DFE812F0 		tbh	[pc, r2, lsl #1]
 1353              	.L81:
 1354 01c2 1100     		.2byte	(.L68-.L81)/2
 1355 01c4 8E09     		.2byte	(.L67-.L81)/2
 1356 01c6 8E09     		.2byte	(.L67-.L81)/2
 1357 01c8 8E09     		.2byte	(.L67-.L81)/2
 1358 01ca 8E09     		.2byte	(.L67-.L81)/2
 1359 01cc 3D00     		.2byte	(.L69-.L81)/2
 1360 01ce 3B02     		.2byte	(.L70-.L81)/2
 1361 01d0 C106     		.2byte	(.L71-.L81)/2
 1362 01d2 C306     		.2byte	(.L72-.L81)/2
 1363 01d4 C506     		.2byte	(.L73-.L81)/2
 1364 01d6 C806     		.2byte	(.L74-.L81)/2
 1365 01d8 CB06     		.2byte	(.L75-.L81)/2
 1366 01da CE06     		.2byte	(.L76-.L81)/2
 1367 01dc D306     		.2byte	(.L77-.L81)/2
 1368 01de 8907     		.2byte	(.L78-.L81)/2
 1369 01e0 2708     		.2byte	(.L79-.L81)/2
 1370 01e2 3709     		.2byte	(.L80-.L81)/2
 1371              	.L68:
 337:./modules/gps/gps_ubx_ucenter.c ****   case 0:
 338:./modules/gps/gps_ubx_ucenter.c ****     UbxSend_MON_GET_VER();
 1372              		.loc 1 338 0
 1373 01e4 144C     		ldr	r4, .L101+8
 1374 01e6 1348     		ldr	r0, .L101+4
 1375 01e8 B521     		movs	r1, #181
 1376 01ea FFF7FEFF 		bl	uart_transmit
 1377              	.LVL45:
 1378 01ee 0025     		movs	r5, #0
 1379 01f0 1048     		ldr	r0, .L101+4
 1380 01f2 6221     		movs	r1, #98
 1381 01f4 FFF7FEFF 		bl	uart_transmit
 1382              	.LBB394:
 1383 01f8 0E48     		ldr	r0, .L101+4
 1384 01fa 0A21     		movs	r1, #10
 1385              	.LBE394:
 1386 01fc 84F81051 		strb	r5, [r4, #272]
 1387 0200 84F80F51 		strb	r5, [r4, #271]
 1388              	.LVL46:
 1389              	.LBB395:
 1390 0204 FFF7FEFF 		bl	uart_transmit
 1391 0208 94F80F31 		ldrb	r3, [r4, #271]	@ zero_extendqisi2
 1392 020c 94F81021 		ldrb	r2, [r4, #272]	@ zero_extendqisi2
 1393 0210 0A33     		adds	r3, r3, #10
 1394 0212 DBB2     		uxtb	r3, r3
 1395 0214 84F80F31 		strb	r3, [r4, #271]
 1396 0218 9B18     		adds	r3, r3, r2
 1397 021a 84F81031 		strb	r3, [r4, #272]
 1398              	.LVL47:
 1399              	.LBE395:
 1400              	.LBB396:
 1401 021e 0548     		ldr	r0, .L101+4
 1402 0220 0421     		movs	r1, #4
 1403 0222 FFF7FEFF 		bl	uart_transmit
 1404 0226 94F80F31 		ldrb	r3, [r4, #271]	@ zero_extendqisi2
 1405 022a 0433     		adds	r3, r3, #4
 1406 022c 9FE7     		b	.L99
 1407              	.L102:
 1408 022e 00BF     		.align	2
 1409              	.L101:
 1410 0230 00000000 		.word	.LANCHOR1
 1411 0234 00000000 		.word	uart3
 1412 0238 00000000 		.word	.LANCHOR0
 1413              	.LVL48:
 1414              	.L69:
 1415              	.LBE396:
 339:./modules/gps/gps_ubx_ucenter.c ****     break;
 340:./modules/gps/gps_ubx_ucenter.c ****   case 1:
 341:./modules/gps/gps_ubx_ucenter.c ****   case 2:
 342:./modules/gps/gps_ubx_ucenter.c ****   case 3:
 343:./modules/gps/gps_ubx_ucenter.c ****   case 4:
 344:./modules/gps/gps_ubx_ucenter.c ****     // UBX_G5010 takes 0.7 seconds to answer a firmware request
 345:./modules/gps/gps_ubx_ucenter.c ****     // Version info is important for porper configuration as different firmwares have different set
 346:./modules/gps/gps_ubx_ucenter.c ****     break;
 347:./modules/gps/gps_ubx_ucenter.c ****   case 5:
 348:./modules/gps/gps_ubx_ucenter.c ****     // Send some debugging info: detected baudrate, software version etc...
 349:./modules/gps/gps_ubx_ucenter.c ****     gps_ubx_ucenter.replies[0] = (gps_ubx_ucenter.baud_init/1000);
 1416              		.loc 1 349 0
 1417 023c A388     		ldrh	r3, [r4, #4]
 1418 023e 4FF47A72 		mov	r2, #1000
 1419              	.LVL49:
 1420 0242 B3FBF2F2 		udiv	r2, r3, r2
 1421 0246 D1B2     		uxtb	r1, r2
 1422 0248 A273     		strb	r2, [r4, #14]
 350:./modules/gps/gps_ubx_ucenter.c ****     gps_ubx_ucenter.replies[1] = (gps_ubx_ucenter.baud_init - 1000 * gps_ubx_ucenter.replies[0]) / 
 1423              		.loc 1 350 0
 1424 024a 304A     		ldr	r2, .L103
 351:./modules/gps/gps_ubx_ucenter.c ****     gps_ubx_ucenter.replies[2] = gps_ubx_ucenter.sw_ver_h;
 352:./modules/gps/gps_ubx_ucenter.c ****     gps_ubx_ucenter.replies[3] = gps_ubx_ucenter.sw_ver_l;
 353:./modules/gps/gps_ubx_ucenter.c ****     gps_ubx_ucenter.replies[4] = gps_ubx_ucenter.hw_ver_h;
 354:./modules/gps/gps_ubx_ucenter.c ****     gps_ubx_ucenter.replies[5] = gps_ubx_ucenter.hw_ver_l;
 355:./modules/gps/gps_ubx_ucenter.c ****     DOWNLINK_SEND_DEBUG(DefaultChannel, DefaultDevice,6,gps_ubx_ucenter.replies);
 1425              		.loc 1 355 0
 1426 024c 3048     		ldr	r0, .L103+4
 350:./modules/gps/gps_ubx_ucenter.c ****     gps_ubx_ucenter.replies[1] = (gps_ubx_ucenter.baud_init - 1000 * gps_ubx_ucenter.replies[0]) / 
 1427              		.loc 1 350 0
 1428 024e 02FB0133 		mla	r3, r2, r1, r3
 1429 0252 6422     		movs	r2, #100
 1430 0254 93FBF2F3 		sdiv	r3, r3, r2
 1431 0258 E373     		strb	r3, [r4, #15]
 351:./modules/gps/gps_ubx_ucenter.c ****     gps_ubx_ucenter.replies[2] = gps_ubx_ucenter.sw_ver_h;
 1432              		.loc 1 351 0
 1433 025a 237A     		ldrb	r3, [r4, #8]	@ zero_extendqisi2
 1434              		.loc 1 355 0
 1435 025c 0D21     		movs	r1, #13
 351:./modules/gps/gps_ubx_ucenter.c ****     gps_ubx_ucenter.replies[2] = gps_ubx_ucenter.sw_ver_h;
 1436              		.loc 1 351 0
 1437 025e 2374     		strb	r3, [r4, #16]
 352:./modules/gps/gps_ubx_ucenter.c ****     gps_ubx_ucenter.replies[3] = gps_ubx_ucenter.sw_ver_l;
 1438              		.loc 1 352 0
 1439 0260 637A     		ldrb	r3, [r4, #9]	@ zero_extendqisi2
 1440 0262 6374     		strb	r3, [r4, #17]
 353:./modules/gps/gps_ubx_ucenter.c ****     gps_ubx_ucenter.replies[4] = gps_ubx_ucenter.hw_ver_h;
 1441              		.loc 1 353 0
 1442 0264 6389     		ldrh	r3, [r4, #10]
 1443 0266 A374     		strb	r3, [r4, #18]
 354:./modules/gps/gps_ubx_ucenter.c ****     gps_ubx_ucenter.replies[5] = gps_ubx_ucenter.hw_ver_l;
 1444              		.loc 1 354 0
 1445 0268 A389     		ldrh	r3, [r4, #12]
 1446 026a E374     		strb	r3, [r4, #19]
 1447              		.loc 1 355 0
 1448 026c FFF7FEFF 		bl	uart_check_free_space
 1449 0270 0028     		cmp	r0, #0
 1450 0272 59D0     		beq	.L82
 1451 0274 274B     		ldr	r3, .L103+8
 1452              	.LBB397:
 1453 0276 2648     		ldr	r0, .L103+4
 1454              	.LBE397:
 1455 0278 1A88     		ldrh	r2, [r3, #0]
 1456              	.LBB398:
 1457 027a 9921     		movs	r1, #153
 1458              	.LBE398:
 1459 027c 0D32     		adds	r2, r2, #13
 1460 027e 1A80     		strh	r2, [r3, #0]	@ movhi
 1461 0280 254B     		ldr	r3, .L103+12
 1462 0282 264D     		ldr	r5, .L103+16
 1463 0284 1A88     		ldrh	r2, [r3, #0]
 1464 0286 264C     		ldr	r4, .L103+20
 1465 0288 0132     		adds	r2, r2, #1
 1466 028a 1A80     		strh	r2, [r3, #0]	@ movhi
 1467              	.LBB399:
 1468 028c FFF7FEFF 		bl	uart_transmit
 1469              	.LVL50:
 1470 0290 1F48     		ldr	r0, .L103+4
 1471 0292 0D21     		movs	r1, #13
 1472 0294 FFF7FEFF 		bl	uart_transmit
 1473              	.LBE399:
 1474 0298 0E23     		movs	r3, #14
 1475 029a 2B70     		strb	r3, [r5, #0]
 1476 029c 1B23     		movs	r3, #27
 1477 029e 2370     		strb	r3, [r4, #0]
 1478 02a0 1B48     		ldr	r0, .L103+4
 1479 02a2 0121     		movs	r1, #1
 1480 02a4 FFF7FEFF 		bl	uart_transmit
 1481 02a8 2B78     		ldrb	r3, [r5, #0]	@ zero_extendqisi2
 1482 02aa 2278     		ldrb	r2, [r4, #0]	@ zero_extendqisi2
 1483 02ac 1A33     		adds	r3, r3, #26
 1484 02ae DBB2     		uxtb	r3, r3
 1485 02b0 2B70     		strb	r3, [r5, #0]
 1486 02b2 9B18     		adds	r3, r3, r2
 1487 02b4 2370     		strb	r3, [r4, #0]
 1488 02b6 1648     		ldr	r0, .L103+4
 1489 02b8 1A21     		movs	r1, #26
 1490 02ba FFF7FEFF 		bl	uart_transmit
 1491              	.LBB400:
 1492 02be 2B78     		ldrb	r3, [r5, #0]	@ zero_extendqisi2
 1493 02c0 2278     		ldrb	r2, [r4, #0]	@ zero_extendqisi2
 1494 02c2 0633     		adds	r3, r3, #6
 1495 02c4 DBB2     		uxtb	r3, r3
 1496              	.LVL51:
 1497 02c6 2B70     		strb	r3, [r5, #0]
 1498 02c8 9B18     		adds	r3, r3, r2
 1499              	.LVL52:
 1500 02ca 2370     		strb	r3, [r4, #0]
 1501 02cc 1048     		ldr	r0, .L103+4
 1502 02ce 0621     		movs	r1, #6
 1503 02d0 FFF7FEFF 		bl	uart_transmit
 1504              	.LVL53:
 1505 02d4 134E     		ldr	r6, .L103+24
  76:./modules/gps/gps_ubx_ucenter.c **** void gps_ubx_ucenter_periodic(void)
 1506              		.loc 1 76 0
 1507 02d6 B71D     		adds	r7, r6, #6
 1508              	.LVL54:
 1509              	.L83:
 1510              	.LBB401:
 1511              		.loc 1 355 0
 1512 02d8 B17B     		ldrb	r1, [r6, #14]	@ zero_extendqisi2
 1513              	.LVL55:
 1514 02da 2B78     		ldrb	r3, [r5, #0]	@ zero_extendqisi2
 1515 02dc 2278     		ldrb	r2, [r4, #0]	@ zero_extendqisi2
 1516 02de CB18     		adds	r3, r1, r3
 1517 02e0 DBB2     		uxtb	r3, r3
 1518              	.LVL56:
 1519 02e2 2B70     		strb	r3, [r5, #0]
 1520 02e4 9B18     		adds	r3, r3, r2
 1521              	.LVL57:
 1522 02e6 2370     		strb	r3, [r4, #0]
 1523 02e8 0948     		ldr	r0, .L103+4
 1524 02ea 0136     		adds	r6, r6, #1
 1525 02ec FFF7FEFF 		bl	uart_transmit
 1526              	.LVL58:
 1527              	.LBE401:
 1528 02f0 BE42     		cmp	r6, r7
 1529 02f2 F1D1     		bne	.L83
 1530              	.LBE400:
 1531 02f4 094B     		ldr	r3, .L103+16
 1532 02f6 0648     		ldr	r0, .L103+4
 1533 02f8 1978     		ldrb	r1, [r3, #0]	@ zero_extendqisi2
 1534 02fa FFF7FEFF 		bl	uart_transmit
 1535 02fe 084B     		ldr	r3, .L103+20
 1536 0300 0348     		ldr	r0, .L103+4
 1537 0302 1978     		ldrb	r1, [r3, #0]	@ zero_extendqisi2
 1538 0304 FFF7FEFF 		bl	uart_transmit
 1539 0308 12E0     		b	.L84
 1540              	.L104:
 1541 030a 00BF     		.align	2
 1542              	.L103:
 1543 030c 18FCFFFF 		.word	-1000
 1544 0310 00000000 		.word	uart2
 1545 0314 00000000 		.word	downlink_nb_bytes
 1546 0318 00000000 		.word	downlink_nb_msgs
 1547 031c 00000000 		.word	ck_a
 1548 0320 00000000 		.word	ck_b
 1549 0324 00000000 		.word	.LANCHOR1
 1550              	.LVL59:
 1551              	.L82:
 1552 0328 C04B     		ldr	r3, .L105
 1553 032a 1A78     		ldrb	r2, [r3, #0]	@ zero_extendqisi2
 1554 032c 0132     		adds	r2, r2, #1
 1555 032e 1A70     		strb	r2, [r3, #0]
 1556              	.L84:
 1557              	.LBB402:
 1558              	.LBB403:
 289:./modules/gps/gps_ubx_ucenter.c ****     UbxSend_CFG_PRT(GPS_PORT_ID, 0x0, 0x0, 0x000008D0, 38400, UBX_PROTO_MASK, UBX_PROTO_MASK, 0x0, 
 1559              		.loc 1 289 0
 1560 0330 BF4C     		ldr	r4, .L105+4
 1561 0332 B521     		movs	r1, #181
 1562 0334 BF48     		ldr	r0, .L105+8
 1563 0336 0025     		movs	r5, #0
 1564 0338 FFF7FEFF 		bl	uart_transmit
 1565 033c 6221     		movs	r1, #98
 1566 033e BD48     		ldr	r0, .L105+8
 1567 0340 FFF7FEFF 		bl	uart_transmit
 1568              	.LBB404:
 1569 0344 0621     		movs	r1, #6
 1570              	.LBE404:
 1571 0346 84F81051 		strb	r5, [r4, #272]
 1572 034a 84F80F51 		strb	r5, [r4, #271]
 1573              	.LVL60:
 1574              	.LBB405:
 1575 034e B948     		ldr	r0, .L105+8
 1576 0350 FFF7FEFF 		bl	uart_transmit
 1577 0354 94F80F31 		ldrb	r3, [r4, #271]	@ zero_extendqisi2
 1578 0358 94F81021 		ldrb	r2, [r4, #272]	@ zero_extendqisi2
 1579 035c 0633     		adds	r3, r3, #6
 1580 035e DBB2     		uxtb	r3, r3
 1581 0360 84F80F31 		strb	r3, [r4, #271]
 1582 0364 9B18     		adds	r3, r3, r2
 1583              	.LBE405:
 1584              	.LBB406:
 1585 0366 2946     		mov	r1, r5
 1586              	.LBE406:
 1587              	.LBB407:
 1588 0368 84F81031 		strb	r3, [r4, #272]
 1589              	.LVL61:
 1590              	.LBE407:
 1591              	.LBB408:
 1592 036c B148     		ldr	r0, .L105+8
 1593 036e FFF7FEFF 		bl	uart_transmit
 1594 0372 94F81021 		ldrb	r2, [r4, #272]	@ zero_extendqisi2
 1595 0376 94F80F31 		ldrb	r3, [r4, #271]	@ zero_extendqisi2
 1596              	.LBE408:
 1597              	.LBB409:
 1598              	.LBB410:
 1599 037a 1421     		movs	r1, #20
 1600              	.LBE410:
 1601              	.LBE409:
 1602              	.LBB416:
 1603 037c D318     		adds	r3, r2, r3
 1604 037e 84F81031 		strb	r3, [r4, #272]
 1605              	.LVL62:
 1606              	.LBE416:
 1607              	.LBB417:
 1608              	.LBB411:
 1609 0382 AC48     		ldr	r0, .L105+8
 1610 0384 FFF7FEFF 		bl	uart_transmit
 1611 0388 94F80F31 		ldrb	r3, [r4, #271]	@ zero_extendqisi2
 1612 038c 94F81021 		ldrb	r2, [r4, #272]	@ zero_extendqisi2
 1613 0390 1433     		adds	r3, r3, #20
 1614 0392 DBB2     		uxtb	r3, r3
 1615 0394 84F80F31 		strb	r3, [r4, #271]
 1616 0398 9B18     		adds	r3, r3, r2
 1617              	.LBE411:
 1618              	.LBB412:
 1619 039a 2946     		mov	r1, r5
 1620              	.LBE412:
 1621              	.LBB413:
 1622 039c 84F81031 		strb	r3, [r4, #272]
 1623              	.LVL63:
 1624              	.LBE413:
 1625              	.LBB414:
 1626 03a0 A448     		ldr	r0, .L105+8
 1627 03a2 FFF7FEFF 		bl	uart_transmit
 1628 03a6 94F81021 		ldrb	r2, [r4, #272]	@ zero_extendqisi2
 1629 03aa 94F80F31 		ldrb	r3, [r4, #271]	@ zero_extendqisi2
 1630              	.LBE414:
 1631              	.LBE417:
 1632              	.LBB418:
 1633 03ae 0121     		movs	r1, #1
 1634              	.LBE418:
 1635              	.LBB419:
 1636              	.LBB415:
 1637 03b0 D318     		adds	r3, r2, r3
 1638 03b2 84F81031 		strb	r3, [r4, #272]
 1639              	.LVL64:
 1640              	.LBE415:
 1641              	.LBE419:
 1642              	.LBB420:
 1643 03b6 9F48     		ldr	r0, .L105+8
 1644 03b8 FFF7FEFF 		bl	uart_transmit
 1645 03bc 94F80F31 		ldrb	r3, [r4, #271]	@ zero_extendqisi2
 1646 03c0 94F81021 		ldrb	r2, [r4, #272]	@ zero_extendqisi2
 1647 03c4 0133     		adds	r3, r3, #1
 1648 03c6 DBB2     		uxtb	r3, r3
 1649 03c8 84F80F31 		strb	r3, [r4, #271]
 1650 03cc 9B18     		adds	r3, r3, r2
 1651              	.LBE420:
 1652              	.LBB421:
 1653 03ce 2946     		mov	r1, r5
 1654              	.LBE421:
 1655              	.LBB422:
 1656 03d0 84F81031 		strb	r3, [r4, #272]
 1657              	.LVL65:
 1658              	.LBE422:
 1659              	.LBB423:
 1660 03d4 9748     		ldr	r0, .L105+8
 1661 03d6 FFF7FEFF 		bl	uart_transmit
 1662 03da 94F81021 		ldrb	r2, [r4, #272]	@ zero_extendqisi2
 1663 03de 94F80F31 		ldrb	r3, [r4, #271]	@ zero_extendqisi2
 1664              	.LBE423:
 1665              	.LBB424:
 1666 03e2 2946     		mov	r1, r5
 1667              	.LBE424:
 1668              	.LBB425:
 1669 03e4 D318     		adds	r3, r2, r3
 1670 03e6 84F81031 		strb	r3, [r4, #272]
 1671              	.LBE425:
 1672              	.LBB426:
 1673 03ea 9248     		ldr	r0, .L105+8
 1674              	.LBE426:
 1675 03ec ADF81A50 		strh	r5, [sp, #26]	@ movhi
 1676              	.LVL66:
 1677              	.LBB427:
 1678 03f0 FFF7FEFF 		bl	uart_transmit
 1679 03f4 94F81021 		ldrb	r2, [r4, #272]	@ zero_extendqisi2
 1680 03f8 94F80F31 		ldrb	r3, [r4, #271]	@ zero_extendqisi2
 1681              	.LBE427:
 1682              	.LBB428:
 1683 03fc 9DF81B60 		ldrb	r6, [sp, #27]	@ zero_extendqisi2
 1684              	.LVL67:
 1685              	.LBE428:
 1686              	.LBB429:
 1687 0400 84F80F31 		strb	r3, [r4, #271]
 1688 0404 9B18     		adds	r3, r3, r2
 1689              	.LBE429:
 1690              	.LBB430:
 1691 0406 3146     		mov	r1, r6
 1692              	.LBE430:
 1693              	.LBB431:
 1694 0408 84F81031 		strb	r3, [r4, #272]
 1695              	.LBE431:
 1696              	.LBB432:
 1697 040c 8948     		ldr	r0, .L105+8
 1698 040e FFF7FEFF 		bl	uart_transmit
 1699 0412 94F80F31 		ldrb	r3, [r4, #271]	@ zero_extendqisi2
 1700              	.LBE432:
 1701              	.LBB433:
 1702 0416 8748     		ldr	r0, .L105+8
 1703              	.LBE433:
 1704              	.LBB434:
 1705 0418 F618     		adds	r6, r6, r3
 1706              	.LVL68:
 1707 041a 94F81031 		ldrb	r3, [r4, #272]	@ zero_extendqisi2
 1708 041e F6B2     		uxtb	r6, r6
 1709 0420 84F80F61 		strb	r6, [r4, #271]
 1710 0424 F618     		adds	r6, r6, r3
 1711 0426 84F81061 		strb	r6, [r4, #272]
 1712              	.LBE434:
 1713 042a 4FF40D66 		mov	r6, #2256
 1714 042e 0196     		str	r6, [sp, #4]
 1715              	.LVL69:
 1716              	.LBB435:
 1717 0430 06F0D006 		and	r6, r6, #208
 1718              	.LVL70:
 1719 0434 3146     		mov	r1, r6
 1720 0436 FFF7FEFF 		bl	uart_transmit
 1721 043a 94F80F31 		ldrb	r3, [r4, #271]	@ zero_extendqisi2
 1722              	.LBE435:
 1723              	.LBB436:
 1724 043e 7D48     		ldr	r0, .L105+8
 1725              	.LBE436:
 1726              	.LBB437:
 1727 0440 F618     		adds	r6, r6, r3
 1728              	.LVL71:
 1729 0442 94F81031 		ldrb	r3, [r4, #272]	@ zero_extendqisi2
 1730 0446 F6B2     		uxtb	r6, r6
 1731 0448 84F80F61 		strb	r6, [r4, #271]
 1732 044c F618     		adds	r6, r6, r3
 1733 044e 84F81061 		strb	r6, [r4, #272]
 1734              	.LBE437:
 1735              	.LBB438:
 1736 0452 9DF80560 		ldrb	r6, [sp, #5]	@ zero_extendqisi2
 1737              	.LVL72:
 1738 0456 3146     		mov	r1, r6
 1739 0458 FFF7FEFF 		bl	uart_transmit
 1740 045c 94F80F31 		ldrb	r3, [r4, #271]	@ zero_extendqisi2
 1741              	.LBE438:
 1742              	.LBB439:
 1743 0460 7448     		ldr	r0, .L105+8
 1744              	.LBE439:
 1745              	.LBB440:
 1746 0462 F618     		adds	r6, r6, r3
 1747              	.LVL73:
 1748 0464 94F81031 		ldrb	r3, [r4, #272]	@ zero_extendqisi2
 1749 0468 F6B2     		uxtb	r6, r6
 1750 046a 84F80F61 		strb	r6, [r4, #271]
 1751 046e F618     		adds	r6, r6, r3
 1752 0470 84F81061 		strb	r6, [r4, #272]
 1753              	.LBE440:
 1754              	.LBB441:
 1755 0474 9DF80660 		ldrb	r6, [sp, #6]	@ zero_extendqisi2
 1756              	.LVL74:
 1757 0478 3146     		mov	r1, r6
 1758 047a FFF7FEFF 		bl	uart_transmit
 1759 047e 94F80F31 		ldrb	r3, [r4, #271]	@ zero_extendqisi2
 1760              	.LBE441:
 1761              	.LBB442:
 1762 0482 6C48     		ldr	r0, .L105+8
 1763              	.LBE442:
 1764              	.LBB443:
 1765 0484 F618     		adds	r6, r6, r3
 1766              	.LVL75:
 1767 0486 94F81031 		ldrb	r3, [r4, #272]	@ zero_extendqisi2
 1768 048a F6B2     		uxtb	r6, r6
 1769 048c 84F80F61 		strb	r6, [r4, #271]
 1770 0490 F618     		adds	r6, r6, r3
 1771 0492 84F81061 		strb	r6, [r4, #272]
 1772              	.LBE443:
 1773              	.LBB444:
 1774 0496 9DF80760 		ldrb	r6, [sp, #7]	@ zero_extendqisi2
 1775              	.LVL76:
 1776 049a 3146     		mov	r1, r6
 1777 049c FFF7FEFF 		bl	uart_transmit
 1778 04a0 94F80F31 		ldrb	r3, [r4, #271]	@ zero_extendqisi2
 1779              	.LBE444:
 1780              	.LBB445:
 1781 04a4 2946     		mov	r1, r5
 1782              	.LBE445:
 1783              	.LBB446:
 1784 04a6 F618     		adds	r6, r6, r3
 1785              	.LVL77:
 1786 04a8 94F81031 		ldrb	r3, [r4, #272]	@ zero_extendqisi2
 1787 04ac F6B2     		uxtb	r6, r6
 1788 04ae 84F80F61 		strb	r6, [r4, #271]
 1789 04b2 F618     		adds	r6, r6, r3
 1790 04b4 84F81061 		strb	r6, [r4, #272]
 1791              	.LBE446:
 1792 04b8 4FF41643 		mov	r3, #38400
 1793              	.LBB447:
 1794 04bc 5D48     		ldr	r0, .L105+8
 1795              	.LBE447:
 1796 04be 0293     		str	r3, [sp, #8]
 1797              	.LVL78:
 1798              	.LBB448:
 1799 04c0 FFF7FEFF 		bl	uart_transmit
 1800 04c4 94F81021 		ldrb	r2, [r4, #272]	@ zero_extendqisi2
 1801 04c8 94F80F31 		ldrb	r3, [r4, #271]	@ zero_extendqisi2
 1802              	.LBE448:
 1803              	.LBB449:
 1804 04cc 9DF80960 		ldrb	r6, [sp, #9]	@ zero_extendqisi2
 1805              	.LVL79:
 1806              	.LBE449:
 1807              	.LBB450:
 1808 04d0 84F80F31 		strb	r3, [r4, #271]
 1809 04d4 9B18     		adds	r3, r3, r2
 1810              	.LBE450:
 1811              	.LBB451:
 1812 04d6 3146     		mov	r1, r6
 1813              	.LBE451:
 1814              	.LBB452:
 1815 04d8 84F81031 		strb	r3, [r4, #272]
 1816              	.LBE452:
 1817              	.LBB453:
 1818 04dc 5548     		ldr	r0, .L105+8
 1819 04de FFF7FEFF 		bl	uart_transmit
 1820 04e2 94F80F31 		ldrb	r3, [r4, #271]	@ zero_extendqisi2
 1821              	.LBE453:
 1822              	.LBB454:
 1823 04e6 5348     		ldr	r0, .L105+8
 1824              	.LBE454:
 1825              	.LBB455:
 1826 04e8 F618     		adds	r6, r6, r3
 1827              	.LVL80:
 1828 04ea 94F81031 		ldrb	r3, [r4, #272]	@ zero_extendqisi2
 1829 04ee F6B2     		uxtb	r6, r6
 1830 04f0 84F80F61 		strb	r6, [r4, #271]
 1831 04f4 F618     		adds	r6, r6, r3
 1832 04f6 84F81061 		strb	r6, [r4, #272]
 1833              	.LBE455:
 1834              	.LBB456:
 1835 04fa 9DF80A60 		ldrb	r6, [sp, #10]	@ zero_extendqisi2
 1836              	.LVL81:
 1837 04fe 3146     		mov	r1, r6
 1838 0500 FFF7FEFF 		bl	uart_transmit
 1839 0504 94F80F31 		ldrb	r3, [r4, #271]	@ zero_extendqisi2
 1840              	.LBE456:
 1841              	.LBB457:
 1842 0508 4A48     		ldr	r0, .L105+8
 1843              	.LBE457:
 1844              	.LBB458:
 1845 050a F618     		adds	r6, r6, r3
 1846              	.LVL82:
 1847 050c 94F81031 		ldrb	r3, [r4, #272]	@ zero_extendqisi2
 1848 0510 F6B2     		uxtb	r6, r6
 1849 0512 84F80F61 		strb	r6, [r4, #271]
 1850 0516 F618     		adds	r6, r6, r3
 1851 0518 84F81061 		strb	r6, [r4, #272]
 1852              	.LBE458:
 1853              	.LBB459:
 1854 051c 9DF80B60 		ldrb	r6, [sp, #11]	@ zero_extendqisi2
 1855              	.LVL83:
 1856 0520 3146     		mov	r1, r6
 1857 0522 FFF7FEFF 		bl	uart_transmit
 1858 0526 94F80F31 		ldrb	r3, [r4, #271]	@ zero_extendqisi2
 1859              	.LBE459:
 1860              	.LBB460:
 1861 052a 4248     		ldr	r0, .L105+8
 1862              	.LBE460:
 1863              	.LBB461:
 1864 052c F618     		adds	r6, r6, r3
 1865              	.LVL84:
 1866 052e 94F81031 		ldrb	r3, [r4, #272]	@ zero_extendqisi2
 1867 0532 F6B2     		uxtb	r6, r6
 1868 0534 84F80F61 		strb	r6, [r4, #271]
 1869 0538 F618     		adds	r6, r6, r3
 1870 053a 84F81061 		strb	r6, [r4, #272]
 1871              	.LBE461:
 1872 053e 0126     		movs	r6, #1
 1873              	.LBB462:
 1874 0540 3146     		mov	r1, r6
 1875              	.LBE462:
 1876 0542 ADF81C60 		strh	r6, [sp, #28]	@ movhi
 1877              	.LVL85:
 1878              	.LBB463:
 1879 0546 FFF7FEFF 		bl	uart_transmit
 1880 054a 94F80F31 		ldrb	r3, [r4, #271]	@ zero_extendqisi2
 1881 054e 94F81021 		ldrb	r2, [r4, #272]	@ zero_extendqisi2
 1882 0552 F318     		adds	r3, r6, r3
 1883              	.LBE463:
 1884              	.LBB464:
 1885 0554 9DF81D70 		ldrb	r7, [sp, #29]	@ zero_extendqisi2
 1886              	.LVL86:
 1887              	.LBE464:
 1888              	.LBB465:
 1889 0558 DBB2     		uxtb	r3, r3
 1890 055a 84F80F31 		strb	r3, [r4, #271]
 1891 055e 9B18     		adds	r3, r3, r2
 1892              	.LBE465:
 1893              	.LBB466:
 1894 0560 3946     		mov	r1, r7
 1895              	.LBE466:
 1896              	.LBB467:
 1897 0562 84F81031 		strb	r3, [r4, #272]
 1898              	.LBE467:
 1899              	.LBB468:
 1900 0566 3348     		ldr	r0, .L105+8
 1901 0568 FFF7FEFF 		bl	uart_transmit
 1902 056c 94F80F31 		ldrb	r3, [r4, #271]	@ zero_extendqisi2
 1903              	.LBE468:
 1904              	.LBB469:
 1905 0570 3146     		mov	r1, r6
 1906              	.LBE469:
 1907              	.LBB470:
 1908 0572 FF18     		adds	r7, r7, r3
 1909              	.LVL87:
 1910 0574 94F81031 		ldrb	r3, [r4, #272]	@ zero_extendqisi2
 1911 0578 FFB2     		uxtb	r7, r7
 1912 057a 84F80F71 		strb	r7, [r4, #271]
 1913 057e FF18     		adds	r7, r7, r3
 1914              	.LBE470:
 1915              	.LBB471:
 1916 0580 2C48     		ldr	r0, .L105+8
 1917              	.LBE471:
 1918              	.LBB472:
 1919 0582 84F81071 		strb	r7, [r4, #272]
 1920              	.LBE472:
 1921 0586 ADF81E60 		strh	r6, [sp, #30]	@ movhi
 1922              	.LVL88:
 1923              	.LBB473:
 1924 058a FFF7FEFF 		bl	uart_transmit
 1925 058e 94F80F31 		ldrb	r3, [r4, #271]	@ zero_extendqisi2
 1926              	.LBE473:
 1927              	.LBB474:
 1928 0592 2848     		ldr	r0, .L105+8
 1929              	.LBE474:
 1930              	.LBB475:
 1931 0594 F618     		adds	r6, r6, r3
 1932              	.LVL89:
 1933 0596 94F81031 		ldrb	r3, [r4, #272]	@ zero_extendqisi2
 1934 059a F6B2     		uxtb	r6, r6
 1935 059c 84F80F61 		strb	r6, [r4, #271]
 1936 05a0 F618     		adds	r6, r6, r3
 1937 05a2 84F81061 		strb	r6, [r4, #272]
 1938              	.LBE475:
 1939              	.LBB476:
 1940 05a6 9DF81F60 		ldrb	r6, [sp, #31]	@ zero_extendqisi2
 1941              	.LVL90:
 1942 05aa 3146     		mov	r1, r6
 1943 05ac FFF7FEFF 		bl	uart_transmit
 1944 05b0 94F80F31 		ldrb	r3, [r4, #271]	@ zero_extendqisi2
 1945              	.LBE476:
 1946              	.LBB477:
 1947 05b4 2946     		mov	r1, r5
 1948              	.LBE477:
 1949              	.LBB478:
 1950 05b6 F618     		adds	r6, r6, r3
 1951              	.LVL91:
 1952 05b8 94F81031 		ldrb	r3, [r4, #272]	@ zero_extendqisi2
 1953 05bc F6B2     		uxtb	r6, r6
 1954 05be 84F80F61 		strb	r6, [r4, #271]
 1955 05c2 F618     		adds	r6, r6, r3
 1956 05c4 84F81061 		strb	r6, [r4, #272]
 1957              	.LBE478:
 1958              	.LBB479:
 1959 05c8 1A48     		ldr	r0, .L105+8
 1960              	.LBE479:
 1961 05ca ADF82050 		strh	r5, [sp, #32]	@ movhi
 1962              	.LVL92:
 1963              	.LBB480:
 1964 05ce FFF7FEFF 		bl	uart_transmit
 1965 05d2 94F81021 		ldrb	r2, [r4, #272]	@ zero_extendqisi2
 1966 05d6 94F80F31 		ldrb	r3, [r4, #271]	@ zero_extendqisi2
 1967              	.LBE480:
 1968              	.LBB481:
 1969 05da 9DF82160 		ldrb	r6, [sp, #33]	@ zero_extendqisi2
 1970              	.LVL93:
 1971              	.LBE481:
 1972              	.LBB482:
 1973 05de 84F80F31 		strb	r3, [r4, #271]
 1974 05e2 9B18     		adds	r3, r3, r2
 1975              	.LBE482:
 1976              	.LBB483:
 1977 05e4 3146     		mov	r1, r6
 1978              	.LBE483:
 1979              	.LBB484:
 1980 05e6 84F81031 		strb	r3, [r4, #272]
 1981              	.LBE484:
 1982              	.LBB485:
 1983 05ea 1248     		ldr	r0, .L105+8
 1984 05ec FFF7FEFF 		bl	uart_transmit
 1985 05f0 94F80F31 		ldrb	r3, [r4, #271]	@ zero_extendqisi2
 1986              	.LBE485:
 1987              	.LBB486:
 1988 05f4 2946     		mov	r1, r5
 1989              	.LBE486:
 1990              	.LBB487:
 1991 05f6 F618     		adds	r6, r6, r3
 1992              	.LVL94:
 1993 05f8 94F81031 		ldrb	r3, [r4, #272]	@ zero_extendqisi2
 1994 05fc F6B2     		uxtb	r6, r6
 1995 05fe 84F80F61 		strb	r6, [r4, #271]
 1996 0602 F618     		adds	r6, r6, r3
 1997 0604 84F81061 		strb	r6, [r4, #272]
 1998              	.LBE487:
 1999              	.LBB488:
 2000 0608 0A48     		ldr	r0, .L105+8
 2001              	.LBE488:
 2002 060a ADF82250 		strh	r5, [sp, #34]	@ movhi
 2003              	.LVL95:
 2004              	.LBB489:
 2005 060e FFF7FEFF 		bl	uart_transmit
 2006 0612 94F80F31 		ldrb	r3, [r4, #271]	@ zero_extendqisi2
 2007 0616 94F81021 		ldrb	r2, [r4, #272]	@ zero_extendqisi2
 2008 061a 84F80F31 		strb	r3, [r4, #271]
 2009 061e 9B18     		adds	r3, r3, r2
 2010 0620 84F81031 		strb	r3, [r4, #272]
 2011              	.LBE489:
 2012              	.LBB490:
 2013 0624 9DF82350 		ldrb	r5, [sp, #35]	@ zero_extendqisi2
 2014              	.LVL96:
 2015 0628 00F0F1BE 		b	.L96
 2016              	.L106:
 2017              		.align	2
 2018              	.L105:
 2019 062c 00000000 		.word	downlink_nb_ovrn
 2020 0630 00000000 		.word	.LANCHOR0
 2021 0634 00000000 		.word	uart3
 2022              	.LVL97:
 2023              	.L70:
 2024              	.LBE490:
 2025              	.LBE403:
 2026              	.LBE402:
 356:./modules/gps/gps_ubx_ucenter.c **** 
 357:./modules/gps/gps_ubx_ucenter.c ****     //////////////////////////////////
 358:./modules/gps/gps_ubx_ucenter.c ****     // Actual configuration start
 359:./modules/gps/gps_ubx_ucenter.c **** 
 360:./modules/gps/gps_ubx_ucenter.c ****     // Use old baudrate to issue a baudrate change command
 361:./modules/gps/gps_ubx_ucenter.c ****     gps_ubx_ucenter_config_port();
 362:./modules/gps/gps_ubx_ucenter.c ****     break;
 363:./modules/gps/gps_ubx_ucenter.c ****   case 6:
 364:./modules/gps/gps_ubx_ucenter.c ****     // Now the GPS baudrate should have changed
 365:./modules/gps/gps_ubx_ucenter.c ****     GpsUartSetBaudrate(B38400);
 2027              		.loc 1 365 0
 2028 0638 DB48     		ldr	r0, .L107
 2029 063a 4FF41641 		mov	r1, #38400
 2030 063e FFF7FEFF 		bl	uart_periph_set_baudrate
 2031              	.LVL98:
 366:./modules/gps/gps_ubx_ucenter.c ****     gps_ubx_ucenter.baud_run = 38400;
 2032              		.loc 1 366 0
 2033 0642 4FF41643 		mov	r3, #38400
 2034 0646 E380     		strh	r3, [r4, #6]	@ movhi
 2035              	.LBB491:
 2036              	.LBB492:
 248:./modules/gps/gps_ubx_ucenter.c ****     if (gps_ubx_ucenter.sw_ver_h < 5)
 2037              		.loc 1 248 0
 2038 0648 237A     		ldrb	r3, [r4, #8]	@ zero_extendqisi2
 2039              	.LBB493:
 250:./modules/gps/gps_ubx_ucenter.c ****       UbxSend_CFG_NAV(NAV_DYN_AIRBORNE_2G, 3, 16, 24, 20, 5, 0, 0x3C, 0x3C, 0x14, 0x03E8 ,0x0000, 0
 2040              		.loc 1 250 0
 2041 064a B521     		movs	r1, #181
 2042              	.LBE493:
 248:./modules/gps/gps_ubx_ucenter.c ****     if (gps_ubx_ucenter.sw_ver_h < 5)
 2043              		.loc 1 248 0
 2044 064c 042B     		cmp	r3, #4
 2045              	.LBB597:
 250:./modules/gps/gps_ubx_ucenter.c ****       UbxSend_CFG_NAV(NAV_DYN_AIRBORNE_2G, 3, 16, 24, 20, 5, 0, 0x3C, 0x3C, 0x14, 0x03E8 ,0x0000, 0
 2046              		.loc 1 250 0
 2047 064e D648     		ldr	r0, .L107
 2048 0650 D64C     		ldr	r4, .L107+4
 2049              	.LBE597:
 248:./modules/gps/gps_ubx_ucenter.c ****     if (gps_ubx_ucenter.sw_ver_h < 5)
 2050              		.loc 1 248 0
 2051 0652 00F20D82 		bhi	.L85
 2052              	.LBB598:
 250:./modules/gps/gps_ubx_ucenter.c ****       UbxSend_CFG_NAV(NAV_DYN_AIRBORNE_2G, 3, 16, 24, 20, 5, 0, 0x3C, 0x3C, 0x14, 0x03E8 ,0x0000, 0
 2053              		.loc 1 250 0
 2054 0656 0025     		movs	r5, #0
 2055 0658 FFF7FEFF 		bl	uart_transmit
 2056 065c 6221     		movs	r1, #98
 2057 065e D248     		ldr	r0, .L107
 2058 0660 FFF7FEFF 		bl	uart_transmit
 2059              	.LBB494:
 2060 0664 0621     		movs	r1, #6
 2061 0666 D048     		ldr	r0, .L107
 2062              	.LBE494:
 2063 0668 84F81051 		strb	r5, [r4, #272]
 2064 066c 84F80F51 		strb	r5, [r4, #271]
 2065              	.LVL99:
 2066              	.LBB495:
 2067 0670 FFF7FEFF 		bl	uart_transmit
 2068 0674 94F80F31 		ldrb	r3, [r4, #271]	@ zero_extendqisi2
 2069 0678 94F81021 		ldrb	r2, [r4, #272]	@ zero_extendqisi2
 2070 067c 0633     		adds	r3, r3, #6
 2071 067e DBB2     		uxtb	r3, r3
 2072 0680 84F80F31 		strb	r3, [r4, #271]
 2073 0684 9B18     		adds	r3, r3, r2
 2074              	.LBE495:
 2075              	.LBB496:
 2076 0686 0321     		movs	r1, #3
 2077              	.LBE496:
 2078              	.LBB497:
 2079 0688 84F81031 		strb	r3, [r4, #272]
 2080              	.LVL100:
 2081              	.LBE497:
 2082              	.LBB498:
 2083 068c C648     		ldr	r0, .L107
 2084 068e FFF7FEFF 		bl	uart_transmit
 2085 0692 94F80F31 		ldrb	r3, [r4, #271]	@ zero_extendqisi2
 2086 0696 94F81021 		ldrb	r2, [r4, #272]	@ zero_extendqisi2
 2087 069a 0333     		adds	r3, r3, #3
 2088 069c DBB2     		uxtb	r3, r3
 2089 069e 84F80F31 		strb	r3, [r4, #271]
 2090 06a2 9B18     		adds	r3, r3, r2
 2091              	.LBE498:
 2092              	.LBB499:
 2093              	.LBB500:
 2094 06a4 1C21     		movs	r1, #28
 2095              	.LBE500:
 2096              	.LBE499:
 2097              	.LBB504:
 2098 06a6 84F81031 		strb	r3, [r4, #272]
 2099              	.LVL101:
 2100              	.LBE504:
 2101              	.LBB505:
 2102              	.LBB501:
 2103 06aa BF48     		ldr	r0, .L107
 2104 06ac FFF7FEFF 		bl	uart_transmit
 2105 06b0 94F80F31 		ldrb	r3, [r4, #271]	@ zero_extendqisi2
 2106 06b4 94F81021 		ldrb	r2, [r4, #272]	@ zero_extendqisi2
 2107 06b8 1C33     		adds	r3, r3, #28
 2108 06ba DBB2     		uxtb	r3, r3
 2109 06bc 84F80F31 		strb	r3, [r4, #271]
 2110 06c0 9B18     		adds	r3, r3, r2
 2111 06c2 84F81031 		strb	r3, [r4, #272]
 2112              	.LVL102:
 2113              	.LBE501:
 2114              	.LBB502:
 2115 06c6 B848     		ldr	r0, .L107
 2116 06c8 2946     		mov	r1, r5
 2117 06ca FFF7FEFF 		bl	uart_transmit
 2118 06ce 94F81021 		ldrb	r2, [r4, #272]	@ zero_extendqisi2
 2119 06d2 94F80F31 		ldrb	r3, [r4, #271]	@ zero_extendqisi2
 2120              	.LBE502:
 2121              	.LBE505:
 2122              	.LBB506:
 2123 06d6 0621     		movs	r1, #6
 2124              	.LBE506:
 2125              	.LBB507:
 2126              	.LBB503:
 2127 06d8 D318     		adds	r3, r2, r3
 2128 06da 84F81031 		strb	r3, [r4, #272]
 2129              	.LVL103:
 2130              	.LBE503:
 2131              	.LBE507:
 2132              	.LBB508:
 2133 06de B248     		ldr	r0, .L107
 2134 06e0 FFF7FEFF 		bl	uart_transmit
 2135 06e4 94F80F31 		ldrb	r3, [r4, #271]	@ zero_extendqisi2
 2136 06e8 94F81021 		ldrb	r2, [r4, #272]	@ zero_extendqisi2
 2137 06ec 0633     		adds	r3, r3, #6
 2138 06ee DBB2     		uxtb	r3, r3
 2139 06f0 84F80F31 		strb	r3, [r4, #271]
 2140 06f4 9B18     		adds	r3, r3, r2
 2141              	.LBE508:
 2142              	.LBB509:
 2143 06f6 0321     		movs	r1, #3
 2144              	.LBE509:
 2145              	.LBB510:
 2146 06f8 84F81031 		strb	r3, [r4, #272]
 2147              	.LVL104:
 2148              	.LBE510:
 2149              	.LBB511:
 2150 06fc AA48     		ldr	r0, .L107
 2151 06fe FFF7FEFF 		bl	uart_transmit
 2152 0702 94F80F31 		ldrb	r3, [r4, #271]	@ zero_extendqisi2
 2153 0706 94F81021 		ldrb	r2, [r4, #272]	@ zero_extendqisi2
 2154 070a 0333     		adds	r3, r3, #3
 2155 070c DBB2     		uxtb	r3, r3
 2156 070e 84F80F31 		strb	r3, [r4, #271]
 2157 0712 9B18     		adds	r3, r3, r2
 2158              	.LBE511:
 2159              	.LBB512:
 2160 0714 1021     		movs	r1, #16
 2161              	.LBE512:
 2162              	.LBB513:
 2163 0716 84F81031 		strb	r3, [r4, #272]
 2164              	.LVL105:
 2165              	.LBE513:
 2166              	.LBB514:
 2167 071a A348     		ldr	r0, .L107
 2168 071c FFF7FEFF 		bl	uart_transmit
 2169 0720 94F80F31 		ldrb	r3, [r4, #271]	@ zero_extendqisi2
 2170 0724 94F81021 		ldrb	r2, [r4, #272]	@ zero_extendqisi2
 2171 0728 1033     		adds	r3, r3, #16
 2172 072a DBB2     		uxtb	r3, r3
 2173 072c 84F80F31 		strb	r3, [r4, #271]
 2174 0730 9B18     		adds	r3, r3, r2
 2175              	.LBE514:
 2176              	.LBB515:
 2177 0732 1821     		movs	r1, #24
 2178              	.LBE515:
 2179              	.LBB516:
 2180 0734 84F81031 		strb	r3, [r4, #272]
 2181              	.LVL106:
 2182              	.LBE516:
 2183              	.LBB517:
 2184 0738 9B48     		ldr	r0, .L107
 2185 073a FFF7FEFF 		bl	uart_transmit
 2186 073e 94F80F31 		ldrb	r3, [r4, #271]	@ zero_extendqisi2
 2187 0742 94F81021 		ldrb	r2, [r4, #272]	@ zero_extendqisi2
 2188 0746 1833     		adds	r3, r3, #24
 2189 0748 DBB2     		uxtb	r3, r3
 2190 074a 84F80F31 		strb	r3, [r4, #271]
 2191 074e 9B18     		adds	r3, r3, r2
 2192              	.LBE517:
 2193              	.LBB518:
 2194 0750 1421     		movs	r1, #20
 2195              	.LBE518:
 2196              	.LBB519:
 2197 0752 84F81031 		strb	r3, [r4, #272]
 2198              	.LVL107:
 2199              	.LBE519:
 2200              	.LBB520:
 2201 0756 9448     		ldr	r0, .L107
 2202 0758 FFF7FEFF 		bl	uart_transmit
 2203 075c 94F80F31 		ldrb	r3, [r4, #271]	@ zero_extendqisi2
 2204 0760 94F81021 		ldrb	r2, [r4, #272]	@ zero_extendqisi2
 2205 0764 1433     		adds	r3, r3, #20
 2206 0766 DBB2     		uxtb	r3, r3
 2207 0768 84F80F31 		strb	r3, [r4, #271]
 2208 076c 9B18     		adds	r3, r3, r2
 2209              	.LBE520:
 2210              	.LBB521:
 2211 076e 0521     		movs	r1, #5
 2212              	.LBE521:
 2213              	.LBB522:
 2214 0770 84F81031 		strb	r3, [r4, #272]
 2215              	.LVL108:
 2216              	.LBE522:
 2217              	.LBB523:
 2218 0774 8C48     		ldr	r0, .L107
 2219 0776 FFF7FEFF 		bl	uart_transmit
 2220 077a 94F80F31 		ldrb	r3, [r4, #271]	@ zero_extendqisi2
 2221 077e 94F81021 		ldrb	r2, [r4, #272]	@ zero_extendqisi2
 2222 0782 0533     		adds	r3, r3, #5
 2223 0784 DBB2     		uxtb	r3, r3
 2224 0786 84F80F31 		strb	r3, [r4, #271]
 2225 078a 9B18     		adds	r3, r3, r2
 2226 078c 84F81031 		strb	r3, [r4, #272]
 2227              	.LVL109:
 2228              	.LBE523:
 2229              	.LBB524:
 2230 0790 8548     		ldr	r0, .L107
 2231 0792 2946     		mov	r1, r5
 2232 0794 FFF7FEFF 		bl	uart_transmit
 2233 0798 94F81021 		ldrb	r2, [r4, #272]	@ zero_extendqisi2
 2234 079c 94F80F31 		ldrb	r3, [r4, #271]	@ zero_extendqisi2
 2235              	.LBE524:
 2236              	.LBB525:
 2237 07a0 3C21     		movs	r1, #60
 2238              	.LBE525:
 2239              	.LBB526:
 2240 07a2 D318     		adds	r3, r2, r3
 2241 07a4 84F81031 		strb	r3, [r4, #272]
 2242              	.LVL110:
 2243              	.LBE526:
 2244              	.LBB527:
 2245 07a8 7F48     		ldr	r0, .L107
 2246 07aa FFF7FEFF 		bl	uart_transmit
 2247 07ae 94F80F31 		ldrb	r3, [r4, #271]	@ zero_extendqisi2
 2248 07b2 94F81021 		ldrb	r2, [r4, #272]	@ zero_extendqisi2
 2249 07b6 3C33     		adds	r3, r3, #60
 2250 07b8 DBB2     		uxtb	r3, r3
 2251 07ba 84F80F31 		strb	r3, [r4, #271]
 2252 07be 9B18     		adds	r3, r3, r2
 2253 07c0 84F81031 		strb	r3, [r4, #272]
 2254              	.LVL111:
 2255              	.LBE527:
 2256              	.LBB528:
 2257 07c4 7848     		ldr	r0, .L107
 2258 07c6 3C21     		movs	r1, #60
 2259 07c8 FFF7FEFF 		bl	uart_transmit
 2260 07cc 94F80F31 		ldrb	r3, [r4, #271]	@ zero_extendqisi2
 2261 07d0 94F81021 		ldrb	r2, [r4, #272]	@ zero_extendqisi2
 2262 07d4 3C33     		adds	r3, r3, #60
 2263 07d6 DBB2     		uxtb	r3, r3
 2264 07d8 84F80F31 		strb	r3, [r4, #271]
 2265 07dc 9B18     		adds	r3, r3, r2
 2266 07de 84F81031 		strb	r3, [r4, #272]
 2267              	.LVL112:
 2268              	.LBE528:
 2269              	.LBB529:
 2270 07e2 7148     		ldr	r0, .L107
 2271 07e4 1421     		movs	r1, #20
 2272 07e6 FFF7FEFF 		bl	uart_transmit
 2273 07ea 94F80F31 		ldrb	r3, [r4, #271]	@ zero_extendqisi2
 2274 07ee 94F81021 		ldrb	r2, [r4, #272]	@ zero_extendqisi2
 2275 07f2 1433     		adds	r3, r3, #20
 2276 07f4 DBB2     		uxtb	r3, r3
 2277              	.LBE529:
 2278 07f6 4FF47A76 		mov	r6, #1000
 2279              	.LBB530:
 2280 07fa 84F80F31 		strb	r3, [r4, #271]
 2281              	.LBE530:
 2282 07fe ADF81E60 		strh	r6, [sp, #30]	@ movhi
 2283              	.LVL113:
 2284              	.LBB531:
 2285 0802 9B18     		adds	r3, r3, r2
 2286              	.LBE531:
 2287              	.LBB532:
 2288 0804 06F0E806 		and	r6, r6, #232
 2289              	.LVL114:
 2290 0808 3146     		mov	r1, r6
 2291              	.LBE532:
 2292              	.LBB533:
 2293 080a 84F81031 		strb	r3, [r4, #272]
 2294              	.LBE533:
 2295              	.LBB534:
 2296 080e 6648     		ldr	r0, .L107
 2297 0810 FFF7FEFF 		bl	uart_transmit
 2298 0814 94F80F31 		ldrb	r3, [r4, #271]	@ zero_extendqisi2
 2299              	.LBE534:
 2300              	.LBB535:
 2301 0818 6348     		ldr	r0, .L107
 2302              	.LBE535:
 2303              	.LBB536:
 2304 081a F618     		adds	r6, r6, r3
 2305              	.LVL115:
 2306 081c 94F81031 		ldrb	r3, [r4, #272]	@ zero_extendqisi2
 2307 0820 F6B2     		uxtb	r6, r6
 2308 0822 84F80F61 		strb	r6, [r4, #271]
 2309 0826 F618     		adds	r6, r6, r3
 2310 0828 84F81061 		strb	r6, [r4, #272]
 2311              	.LBE536:
 2312              	.LBB537:
 2313 082c 9DF81F60 		ldrb	r6, [sp, #31]	@ zero_extendqisi2
 2314              	.LVL116:
 2315 0830 3146     		mov	r1, r6
 2316 0832 FFF7FEFF 		bl	uart_transmit
 2317 0836 94F80F31 		ldrb	r3, [r4, #271]	@ zero_extendqisi2
 2318              	.LBE537:
 2319              	.LBB538:
 2320 083a 5B48     		ldr	r0, .L107
 2321              	.LBE538:
 2322              	.LBB539:
 2323 083c F618     		adds	r6, r6, r3
 2324              	.LVL117:
 2325 083e 94F81031 		ldrb	r3, [r4, #272]	@ zero_extendqisi2
 2326 0842 F6B2     		uxtb	r6, r6
 2327 0844 84F80F61 		strb	r6, [r4, #271]
 2328 0848 F618     		adds	r6, r6, r3
 2329 084a 84F81061 		strb	r6, [r4, #272]
 2330              	.LBE539:
 2331              	.LBB540:
 2332 084e 2946     		mov	r1, r5
 2333              	.LBE540:
 2334 0850 ADF82050 		strh	r5, [sp, #32]	@ movhi
 2335              	.LVL118:
 2336              	.LBB541:
 2337 0854 FFF7FEFF 		bl	uart_transmit
 2338 0858 94F81021 		ldrb	r2, [r4, #272]	@ zero_extendqisi2
 2339 085c 94F80F31 		ldrb	r3, [r4, #271]	@ zero_extendqisi2
 2340              	.LBE541:
 2341              	.LBB542:
 2342 0860 9DF82160 		ldrb	r6, [sp, #33]	@ zero_extendqisi2
 2343              	.LVL119:
 2344              	.LBE542:
 2345              	.LBB543:
 2346 0864 84F80F31 		strb	r3, [r4, #271]
 2347 0868 9B18     		adds	r3, r3, r2
 2348              	.LBE543:
 2349              	.LBB544:
 2350 086a 3146     		mov	r1, r6
 2351              	.LBE544:
 2352              	.LBB545:
 2353 086c 84F81031 		strb	r3, [r4, #272]
 2354              	.LBE545:
 2355              	.LBB546:
 2356 0870 4D48     		ldr	r0, .L107
 2357 0872 FFF7FEFF 		bl	uart_transmit
 2358 0876 94F80F31 		ldrb	r3, [r4, #271]	@ zero_extendqisi2
 2359              	.LBE546:
 2360              	.LBB547:
 2361 087a 4B48     		ldr	r0, .L107
 2362              	.LBE547:
 2363              	.LBB548:
 2364 087c F618     		adds	r6, r6, r3
 2365              	.LVL120:
 2366 087e 94F81031 		ldrb	r3, [r4, #272]	@ zero_extendqisi2
 2367 0882 F6B2     		uxtb	r6, r6
 2368 0884 84F80F61 		strb	r6, [r4, #271]
 2369 0888 F618     		adds	r6, r6, r3
 2370 088a 84F81061 		strb	r6, [r4, #272]
 2371              	.LVL121:
 2372              	.LBE548:
 2373              	.LBB549:
 2374 088e 2946     		mov	r1, r5
 2375 0890 FFF7FEFF 		bl	uart_transmit
 2376 0894 94F81021 		ldrb	r2, [r4, #272]	@ zero_extendqisi2
 2377 0898 94F80F31 		ldrb	r3, [r4, #271]	@ zero_extendqisi2
 2378              	.LBE549:
 2379              	.LBB550:
 2380 089c 4248     		ldr	r0, .L107
 2381              	.LBE550:
 2382              	.LBB551:
 2383 089e D318     		adds	r3, r2, r3
 2384 08a0 84F81031 		strb	r3, [r4, #272]
 2385              	.LVL122:
 2386              	.LBE551:
 2387              	.LBB552:
 2388 08a4 1721     		movs	r1, #23
 2389 08a6 FFF7FEFF 		bl	uart_transmit
 2390 08aa 94F80F31 		ldrb	r3, [r4, #271]	@ zero_extendqisi2
 2391 08ae 94F81021 		ldrb	r2, [r4, #272]	@ zero_extendqisi2
 2392 08b2 1733     		adds	r3, r3, #23
 2393 08b4 DBB2     		uxtb	r3, r3
 2394              	.LBE552:
 2395 08b6 FA26     		movs	r6, #250
 2396              	.LBB553:
 2397 08b8 84F80F31 		strb	r3, [r4, #271]
 2398 08bc 9B18     		adds	r3, r3, r2
 2399              	.LBE553:
 2400              	.LBB554:
 2401 08be 3146     		mov	r1, r6
 2402              	.LBE554:
 2403              	.LBB555:
 2404 08c0 84F81031 		strb	r3, [r4, #272]
 2405              	.LBE555:
 2406              	.LBB556:
 2407 08c4 3848     		ldr	r0, .L107
 2408              	.LBE556:
 2409 08c6 ADF82260 		strh	r6, [sp, #34]	@ movhi
 2410              	.LVL123:
 2411              	.LBB557:
 2412 08ca FFF7FEFF 		bl	uart_transmit
 2413 08ce 94F80F31 		ldrb	r3, [r4, #271]	@ zero_extendqisi2
 2414 08d2 94F81021 		ldrb	r2, [r4, #272]	@ zero_extendqisi2
 2415 08d6 F318     		adds	r3, r6, r3
 2416              	.LBE557:
 2417              	.LBB558:
 2418 08d8 9DF82370 		ldrb	r7, [sp, #35]	@ zero_extendqisi2
 2419              	.LVL124:
 2420              	.LBE558:
 2421              	.LBB559:
 2422 08dc DBB2     		uxtb	r3, r3
 2423 08de 84F80F31 		strb	r3, [r4, #271]
 2424 08e2 9B18     		adds	r3, r3, r2
 2425              	.LBE559:
 2426              	.LBB560:
 2427 08e4 3946     		mov	r1, r7
 2428              	.LBE560:
 2429              	.LBB561:
 2430 08e6 84F81031 		strb	r3, [r4, #272]
 2431              	.LBE561:
 2432              	.LBB562:
 2433 08ea 2F48     		ldr	r0, .L107
 2434 08ec FFF7FEFF 		bl	uart_transmit
 2435 08f0 94F80F31 		ldrb	r3, [r4, #271]	@ zero_extendqisi2
 2436              	.LBE562:
 2437              	.LBB563:
 2438 08f4 3146     		mov	r1, r6
 2439              	.LBE563:
 2440              	.LBB564:
 2441 08f6 FF18     		adds	r7, r7, r3
 2442              	.LVL125:
 2443 08f8 94F81031 		ldrb	r3, [r4, #272]	@ zero_extendqisi2
 2444 08fc FFB2     		uxtb	r7, r7
 2445 08fe 84F80F71 		strb	r7, [r4, #271]
 2446 0902 FF18     		adds	r7, r7, r3
 2447 0904 84F81071 		strb	r7, [r4, #272]
 2448              	.LBE564:
 2449              	.LBB565:
 2450 0908 2748     		ldr	r0, .L107
 2451              	.LBE565:
 2452 090a ADF81C60 		strh	r6, [sp, #28]	@ movhi
 2453              	.LVL126:
 2454              	.LBB566:
 2455 090e FFF7FEFF 		bl	uart_transmit
 2456 0912 94F80F31 		ldrb	r3, [r4, #271]	@ zero_extendqisi2
 2457              	.LBE566:
 2458              	.LBB567:
 2459 0916 2448     		ldr	r0, .L107
 2460              	.LBE567:
 2461              	.LBB568:
 2462 0918 F618     		adds	r6, r6, r3
 2463              	.LVL127:
 2464 091a 94F81031 		ldrb	r3, [r4, #272]	@ zero_extendqisi2
 2465 091e F6B2     		uxtb	r6, r6
 2466 0920 84F80F61 		strb	r6, [r4, #271]
 2467 0924 F618     		adds	r6, r6, r3
 2468 0926 84F81061 		strb	r6, [r4, #272]
 2469              	.LBE568:
 2470              	.LBB569:
 2471 092a 9DF81D60 		ldrb	r6, [sp, #29]	@ zero_extendqisi2
 2472              	.LVL128:
 2473              	.LBE569:
 2474 092e 0F27     		movs	r7, #15
 2475              	.LBB570:
 2476 0930 3146     		mov	r1, r6
 2477 0932 FFF7FEFF 		bl	uart_transmit
 2478 0936 94F80F31 		ldrb	r3, [r4, #271]	@ zero_extendqisi2
 2479              	.LBE570:
 2480              	.LBB571:
 2481 093a 1B48     		ldr	r0, .L107
 2482              	.LBE571:
 2483              	.LBB572:
 2484 093c F618     		adds	r6, r6, r3
 2485              	.LVL129:
 2486 093e 94F81031 		ldrb	r3, [r4, #272]	@ zero_extendqisi2
 2487 0942 F6B2     		uxtb	r6, r6
 2488 0944 84F80F61 		strb	r6, [r4, #271]
 2489 0948 F618     		adds	r6, r6, r3
 2490 094a 84F81061 		strb	r6, [r4, #272]
 2491              	.LBE572:
 2492 094e 6426     		movs	r6, #100
 2493              	.LBB573:
 2494 0950 3146     		mov	r1, r6
 2495              	.LBE573:
 2496 0952 ADF81A60 		strh	r6, [sp, #26]	@ movhi
 2497              	.LVL130:
 2498              	.LBB574:
 2499 0956 FFF7FEFF 		bl	uart_transmit
 2500 095a 94F80F31 		ldrb	r3, [r4, #271]	@ zero_extendqisi2
 2501              	.LBE574:
 2502              	.LBB575:
 2503 095e 1248     		ldr	r0, .L107
 2504              	.LBE575:
 2505              	.LBB576:
 2506 0960 F618     		adds	r6, r6, r3
 2507              	.LVL131:
 2508 0962 94F81031 		ldrb	r3, [r4, #272]	@ zero_extendqisi2
 2509 0966 F6B2     		uxtb	r6, r6
 2510 0968 84F80F61 		strb	r6, [r4, #271]
 2511 096c F618     		adds	r6, r6, r3
 2512 096e 84F81061 		strb	r6, [r4, #272]
 2513              	.LBE576:
 2514              	.LBB577:
 2515 0972 9DF81B60 		ldrb	r6, [sp, #27]	@ zero_extendqisi2
 2516              	.LVL132:
 2517 0976 3146     		mov	r1, r6
 2518 0978 FFF7FEFF 		bl	uart_transmit
 2519 097c 94F80F31 		ldrb	r3, [r4, #271]	@ zero_extendqisi2
 2520              	.LBE577:
 2521              	.LBB578:
 2522 0980 0948     		ldr	r0, .L107
 2523              	.LBE578:
 2524              	.LBB579:
 2525 0982 F618     		adds	r6, r6, r3
 2526              	.LVL133:
 2527 0984 94F81031 		ldrb	r3, [r4, #272]	@ zero_extendqisi2
 2528 0988 F6B2     		uxtb	r6, r6
 2529 098a 84F80F61 		strb	r6, [r4, #271]
 2530 098e F618     		adds	r6, r6, r3
 2531 0990 84F81061 		strb	r6, [r4, #272]
 2532              	.LBE579:
 2533 0994 4FF49676 		mov	r6, #300
 2534 0998 ADF82460 		strh	r6, [sp, #36]	@ movhi
 2535              	.LVL134:
 2536              	.LBB580:
 2537 099c 06F02C06 		and	r6, r6, #44
 2538              	.LVL135:
 2539 09a0 3146     		mov	r1, r6
 2540 09a2 FFF7FEFF 		bl	uart_transmit
 2541 09a6 03E0     		b	.L108
 2542              	.L109:
 2543              		.align	2
 2544              	.L107:
 2545 09a8 00000000 		.word	uart3
 2546 09ac 00000000 		.word	.LANCHOR0
 2547              	.L108:
 2548 09b0 94F80F31 		ldrb	r3, [r4, #271]	@ zero_extendqisi2
 2549              	.LBE580:
 2550              	.LBB581:
 2551 09b4 2D48     		ldr	r0, .L110
 2552              	.LBE581:
 2553              	.LBB582:
 2554 09b6 F618     		adds	r6, r6, r3
 2555              	.LVL136:
 2556 09b8 94F81031 		ldrb	r3, [r4, #272]	@ zero_extendqisi2
 2557 09bc F6B2     		uxtb	r6, r6
 2558 09be 84F80F61 		strb	r6, [r4, #271]
 2559 09c2 F618     		adds	r6, r6, r3
 2560 09c4 84F81061 		strb	r6, [r4, #272]
 2561              	.LBE582:
 2562              	.LBB583:
 2563 09c8 9DF82560 		ldrb	r6, [sp, #37]	@ zero_extendqisi2
 2564              	.LVL137:
 2565 09cc 3146     		mov	r1, r6
 2566 09ce FFF7FEFF 		bl	uart_transmit
 2567 09d2 94F80F31 		ldrb	r3, [r4, #271]	@ zero_extendqisi2
 2568              	.LBE583:
 2569              	.LBB584:
 2570 09d6 3946     		mov	r1, r7
 2571              	.LBE584:
 2572              	.LBB585:
 2573 09d8 F618     		adds	r6, r6, r3
 2574              	.LVL138:
 2575 09da 94F81031 		ldrb	r3, [r4, #272]	@ zero_extendqisi2
 2576 09de F6B2     		uxtb	r6, r6
 2577 09e0 84F80F61 		strb	r6, [r4, #271]
 2578 09e4 F618     		adds	r6, r6, r3
 2579 09e6 84F81061 		strb	r6, [r4, #272]
 2580              	.LBE585:
 2581 09ea 0AAE     		add	r6, sp, #40
 2582 09ec 26F8027D 		strh	r7, [r6, #-2]!	@ movhi
 2583              	.LVL139:
 2584              	.LBB586:
 2585 09f0 1E48     		ldr	r0, .L110
 2586 09f2 FFF7FEFF 		bl	uart_transmit
 2587 09f6 94F80F31 		ldrb	r3, [r4, #271]	@ zero_extendqisi2
 2588              	.LBE586:
 2589              	.LBB587:
 2590 09fa 7678     		ldrb	r6, [r6, #1]	@ zero_extendqisi2
 2591              	.LVL140:
 2592              	.LBE587:
 2593              	.LBB588:
 2594 09fc FF18     		adds	r7, r7, r3
 2595              	.LVL141:
 2596 09fe 94F81031 		ldrb	r3, [r4, #272]	@ zero_extendqisi2
 2597 0a02 FFB2     		uxtb	r7, r7
 2598 0a04 84F80F71 		strb	r7, [r4, #271]
 2599 0a08 FF18     		adds	r7, r7, r3
 2600              	.LBE588:
 2601              	.LBB589:
 2602 0a0a 3146     		mov	r1, r6
 2603              	.LBE589:
 2604              	.LBB590:
 2605 0a0c 84F81071 		strb	r7, [r4, #272]
 2606              	.LBE590:
 2607              	.LBB591:
 2608 0a10 1648     		ldr	r0, .L110
 2609 0a12 FFF7FEFF 		bl	uart_transmit
 2610 0a16 94F80F31 		ldrb	r3, [r4, #271]	@ zero_extendqisi2
 2611 0a1a F618     		adds	r6, r6, r3
 2612              	.LVL142:
 2613 0a1c 94F81031 		ldrb	r3, [r4, #272]	@ zero_extendqisi2
 2614 0a20 F6B2     		uxtb	r6, r6
 2615 0a22 84F80F61 		strb	r6, [r4, #271]
 2616 0a26 F618     		adds	r6, r6, r3
 2617 0a28 84F81061 		strb	r6, [r4, #272]
 2618              	.LVL143:
 2619              	.L97:
 2620              	.LBE591:
 2621              	.LBB592:
 2622 0a2c 0F48     		ldr	r0, .L110
 2623 0a2e 2946     		mov	r1, r5
 2624 0a30 FFF7FEFF 		bl	uart_transmit
 2625 0a34 94F81021 		ldrb	r2, [r4, #272]	@ zero_extendqisi2
 2626 0a38 94F80F31 		ldrb	r3, [r4, #271]	@ zero_extendqisi2
 2627              	.LBE592:
 2628              	.LBB593:
 2629 0a3c 2946     		mov	r1, r5
 2630              	.LBE593:
 2631              	.LBB594:
 2632 0a3e D318     		adds	r3, r2, r3
 2633 0a40 84F81031 		strb	r3, [r4, #272]
 2634              	.LVL144:
 2635              	.LBE594:
 2636              	.LBB595:
 2637 0a44 0948     		ldr	r0, .L110
 2638 0a46 FFF7FEFF 		bl	uart_transmit
 2639 0a4a 94F80F11 		ldrb	r1, [r4, #271]	@ zero_extendqisi2
 2640              	.LVL145:
 2641              	.L92:
 2642 0a4e 94F81031 		ldrb	r3, [r4, #272]	@ zero_extendqisi2
 2643              	.LBE595:
 2644 0a52 0648     		ldr	r0, .L110
 2645              	.LBB596:
 2646 0a54 CB18     		adds	r3, r1, r3
 2647 0a56 84F81031 		strb	r3, [r4, #272]
 2648              	.LBE596:
 2649 0a5a FFF7FEFF 		bl	uart_transmit
 2650 0a5e 0348     		ldr	r0, .L110
 2651 0a60 94F81011 		ldrb	r1, [r4, #272]	@ zero_extendqisi2
 2652 0a64 FFF7FEFF 		bl	uart_transmit
 2653 0a68 00F039BD 		b	.L67
 2654              	.L111:
 2655              		.align	2
 2656              	.L110:
 2657 0a6c 00000000 		.word	uart3
 2658              	.LVL146:
 2659              	.L85:
 2660              	.LBE598:
 2661              	.LBB599:
 254:./modules/gps/gps_ubx_ucenter.c ****       UbxSend_CFG_NAV5(0x05, NAV5_DYN_AIRBORNE_2G, NAV5_3D_ONLY, IGNORED, IGNORED, IGNORED, IGNORED
 2662              		.loc 1 254 0
 2663 0a70 0025     		movs	r5, #0
 2664 0a72 FFF7FEFF 		bl	uart_transmit
 2665 0a76 6221     		movs	r1, #98
 2666 0a78 D848     		ldr	r0, .L112
 2667 0a7a FFF7FEFF 		bl	uart_transmit
 2668              	.LBB600:
 2669 0a7e 0621     		movs	r1, #6
 2670              	.LBE600:
 2671 0a80 84F81051 		strb	r5, [r4, #272]
 2672 0a84 84F80F51 		strb	r5, [r4, #271]
 2673              	.LVL147:
 2674              	.LBB601:
 2675 0a88 D448     		ldr	r0, .L112
 2676 0a8a FFF7FEFF 		bl	uart_transmit
 2677 0a8e 94F80F31 		ldrb	r3, [r4, #271]	@ zero_extendqisi2
 2678 0a92 94F81021 		ldrb	r2, [r4, #272]	@ zero_extendqisi2
 2679 0a96 0633     		adds	r3, r3, #6
 2680 0a98 DBB2     		uxtb	r3, r3
 2681 0a9a 84F80F31 		strb	r3, [r4, #271]
 2682 0a9e 9B18     		adds	r3, r3, r2
 2683              	.LBE601:
 2684              	.LBB602:
 2685 0aa0 2421     		movs	r1, #36
 2686              	.LBE602:
 2687              	.LBB603:
 2688 0aa2 84F81031 		strb	r3, [r4, #272]
 2689              	.LVL148:
 2690              	.LBE603:
 2691              	.LBB604:
 2692 0aa6 CD48     		ldr	r0, .L112
 2693 0aa8 FFF7FEFF 		bl	uart_transmit
 2694 0aac 94F80F31 		ldrb	r3, [r4, #271]	@ zero_extendqisi2
 2695 0ab0 94F81021 		ldrb	r2, [r4, #272]	@ zero_extendqisi2
 2696 0ab4 2433     		adds	r3, r3, #36
 2697 0ab6 DBB2     		uxtb	r3, r3
 2698 0ab8 84F80F31 		strb	r3, [r4, #271]
 2699 0abc 9B18     		adds	r3, r3, r2
 2700              	.LBE604:
 2701              	.LBB605:
 2702              	.LBB606:
 2703 0abe 2421     		movs	r1, #36
 2704              	.LBE606:
 2705              	.LBE605:
 2706              	.LBB613:
 2707 0ac0 84F81031 		strb	r3, [r4, #272]
 2708              	.LVL149:
 2709              	.LBE613:
 2710              	.LBB614:
 2711              	.LBB607:
 2712 0ac4 C548     		ldr	r0, .L112
 2713 0ac6 FFF7FEFF 		bl	uart_transmit
 2714 0aca 94F80F31 		ldrb	r3, [r4, #271]	@ zero_extendqisi2
 2715 0ace 94F81021 		ldrb	r2, [r4, #272]	@ zero_extendqisi2
 2716 0ad2 2433     		adds	r3, r3, #36
 2717 0ad4 DBB2     		uxtb	r3, r3
 2718 0ad6 84F80F31 		strb	r3, [r4, #271]
 2719 0ada 9B18     		adds	r3, r3, r2
 2720              	.LBE607:
 2721              	.LBB608:
 2722 0adc 2946     		mov	r1, r5
 2723              	.LBE608:
 2724              	.LBB609:
 2725 0ade 84F81031 		strb	r3, [r4, #272]
 2726              	.LVL150:
 2727              	.LBE609:
 2728              	.LBB610:
 2729 0ae2 BE48     		ldr	r0, .L112
 2730 0ae4 FFF7FEFF 		bl	uart_transmit
 2731 0ae8 94F81021 		ldrb	r2, [r4, #272]	@ zero_extendqisi2
 2732 0aec 94F80F31 		ldrb	r3, [r4, #271]	@ zero_extendqisi2
 2733              	.LBE610:
 2734              	.LBE614:
 2735 0af0 0527     		movs	r7, #5
 2736              	.LBB615:
 2737              	.LBB611:
 2738 0af2 D318     		adds	r3, r2, r3
 2739              	.LBE611:
 2740              	.LBE615:
 2741 0af4 0AAE     		add	r6, sp, #40
 2742 0af6 26F8027D 		strh	r7, [r6, #-2]!	@ movhi
 2743              	.LVL151:
 2744              	.LBB616:
 2745 0afa 3946     		mov	r1, r7
 2746              	.LBE616:
 2747              	.LBB617:
 2748              	.LBB612:
 2749 0afc 84F81031 		strb	r3, [r4, #272]
 2750              	.LBE612:
 2751              	.LBE617:
 2752              	.LBB618:
 2753 0b00 B648     		ldr	r0, .L112
 2754 0b02 FFF7FEFF 		bl	uart_transmit
 2755 0b06 94F80F31 		ldrb	r3, [r4, #271]	@ zero_extendqisi2
 2756              	.LBE618:
 2757              	.LBB619:
 2758 0b0a 7678     		ldrb	r6, [r6, #1]	@ zero_extendqisi2
 2759              	.LVL152:
 2760              	.LBE619:
 2761              	.LBB620:
 2762 0b0c FF18     		adds	r7, r7, r3
 2763              	.LVL153:
 2764 0b0e 94F81031 		ldrb	r3, [r4, #272]	@ zero_extendqisi2
 2765 0b12 FFB2     		uxtb	r7, r7
 2766 0b14 84F80F71 		strb	r7, [r4, #271]
 2767 0b18 FF18     		adds	r7, r7, r3
 2768              	.LBE620:
 2769              	.LBB621:
 2770 0b1a 3146     		mov	r1, r6
 2771 0b1c AF48     		ldr	r0, .L112
 2772              	.LBE621:
 2773              	.LBB622:
 2774 0b1e 84F81071 		strb	r7, [r4, #272]
 2775              	.LBE622:
 2776              	.LBB623:
 2777 0b22 FFF7FEFF 		bl	uart_transmit
 2778 0b26 94F80F31 		ldrb	r3, [r4, #271]	@ zero_extendqisi2
 2779              	.LBE623:
 2780              	.LBB624:
 2781 0b2a 0721     		movs	r1, #7
 2782              	.LBE624:
 2783              	.LBB625:
 2784 0b2c F618     		adds	r6, r6, r3
 2785              	.LVL154:
 2786 0b2e 94F81031 		ldrb	r3, [r4, #272]	@ zero_extendqisi2
 2787 0b32 F6B2     		uxtb	r6, r6
 2788 0b34 84F80F61 		strb	r6, [r4, #271]
 2789 0b38 F618     		adds	r6, r6, r3
 2790 0b3a 84F81061 		strb	r6, [r4, #272]
 2791              	.LVL155:
 2792              	.LBE625:
 2793              	.LBB626:
 2794 0b3e A748     		ldr	r0, .L112
 2795 0b40 FFF7FEFF 		bl	uart_transmit
 2796 0b44 94F80F31 		ldrb	r3, [r4, #271]	@ zero_extendqisi2
 2797 0b48 94F81021 		ldrb	r2, [r4, #272]	@ zero_extendqisi2
 2798 0b4c 0733     		adds	r3, r3, #7
 2799 0b4e DBB2     		uxtb	r3, r3
 2800 0b50 84F80F31 		strb	r3, [r4, #271]
 2801 0b54 9B18     		adds	r3, r3, r2
 2802              	.LBE626:
 2803              	.LBB627:
 2804 0b56 0221     		movs	r1, #2
 2805              	.LBE627:
 2806              	.LBB628:
 2807 0b58 84F81031 		strb	r3, [r4, #272]
 2808              	.LVL156:
 2809              	.LBE628:
 2810              	.LBB629:
 2811 0b5c 9F48     		ldr	r0, .L112
 2812 0b5e FFF7FEFF 		bl	uart_transmit
 2813 0b62 94F80F31 		ldrb	r3, [r4, #271]	@ zero_extendqisi2
 2814 0b66 94F81021 		ldrb	r2, [r4, #272]	@ zero_extendqisi2
 2815 0b6a 0233     		adds	r3, r3, #2
 2816 0b6c DBB2     		uxtb	r3, r3
 2817 0b6e 84F80F31 		strb	r3, [r4, #271]
 2818 0b72 9B18     		adds	r3, r3, r2
 2819              	.LBE629:
 2820              	.LBB630:
 2821 0b74 2946     		mov	r1, r5
 2822              	.LBE630:
 2823              	.LBB631:
 2824 0b76 84F81031 		strb	r3, [r4, #272]
 2825              	.LBE631:
 2826              	.LBB632:
 2827 0b7a 9848     		ldr	r0, .L112
 2828              	.LBE632:
 2829 0b7c 0395     		str	r5, [sp, #12]
 2830              	.LVL157:
 2831              	.LBB633:
 2832 0b7e FFF7FEFF 		bl	uart_transmit
 2833 0b82 94F81021 		ldrb	r2, [r4, #272]	@ zero_extendqisi2
 2834 0b86 94F80F31 		ldrb	r3, [r4, #271]	@ zero_extendqisi2
 2835              	.LBE633:
 2836              	.LBB634:
 2837 0b8a 9DF80D60 		ldrb	r6, [sp, #13]	@ zero_extendqisi2
 2838              	.LVL158:
 2839              	.LBE634:
 2840              	.LBB635:
 2841 0b8e 84F80F31 		strb	r3, [r4, #271]
 2842 0b92 9B18     		adds	r3, r3, r2
 2843              	.LBE635:
 2844              	.LBB636:
 2845 0b94 3146     		mov	r1, r6
 2846              	.LBE636:
 2847              	.LBB637:
 2848 0b96 84F81031 		strb	r3, [r4, #272]
 2849              	.LBE637:
 2850              	.LBB638:
 2851 0b9a 9048     		ldr	r0, .L112
 2852 0b9c FFF7FEFF 		bl	uart_transmit
 2853 0ba0 94F80F31 		ldrb	r3, [r4, #271]	@ zero_extendqisi2
 2854              	.LBE638:
 2855              	.LBB639:
 2856 0ba4 8D48     		ldr	r0, .L112
 2857              	.LBE639:
 2858              	.LBB640:
 2859 0ba6 F618     		adds	r6, r6, r3
 2860              	.LVL159:
 2861 0ba8 94F81031 		ldrb	r3, [r4, #272]	@ zero_extendqisi2
 2862 0bac F6B2     		uxtb	r6, r6
 2863 0bae 84F80F61 		strb	r6, [r4, #271]
 2864 0bb2 F618     		adds	r6, r6, r3
 2865 0bb4 84F81061 		strb	r6, [r4, #272]
 2866              	.LBE640:
 2867              	.LBB641:
 2868 0bb8 9DF80E60 		ldrb	r6, [sp, #14]	@ zero_extendqisi2
 2869              	.LVL160:
 2870 0bbc 3146     		mov	r1, r6
 2871 0bbe FFF7FEFF 		bl	uart_transmit
 2872 0bc2 94F80F31 		ldrb	r3, [r4, #271]	@ zero_extendqisi2
 2873              	.LBE641:
 2874              	.LBB642:
 2875 0bc6 8548     		ldr	r0, .L112
 2876              	.LBE642:
 2877              	.LBB643:
 2878 0bc8 F618     		adds	r6, r6, r3
 2879              	.LVL161:
 2880 0bca 94F81031 		ldrb	r3, [r4, #272]	@ zero_extendqisi2
 2881 0bce F6B2     		uxtb	r6, r6
 2882 0bd0 84F80F61 		strb	r6, [r4, #271]
 2883 0bd4 F618     		adds	r6, r6, r3
 2884 0bd6 84F81061 		strb	r6, [r4, #272]
 2885              	.LBE643:
 2886              	.LBB644:
 2887 0bda 9DF80F60 		ldrb	r6, [sp, #15]	@ zero_extendqisi2
 2888              	.LVL162:
 2889 0bde 3146     		mov	r1, r6
 2890 0be0 FFF7FEFF 		bl	uart_transmit
 2891 0be4 94F80F31 		ldrb	r3, [r4, #271]	@ zero_extendqisi2
 2892              	.LBE644:
 2893              	.LBB645:
 2894 0be8 2946     		mov	r1, r5
 2895              	.LBE645:
 2896              	.LBB646:
 2897 0bea F618     		adds	r6, r6, r3
 2898              	.LVL163:
 2899 0bec 94F81031 		ldrb	r3, [r4, #272]	@ zero_extendqisi2
 2900 0bf0 F6B2     		uxtb	r6, r6
 2901 0bf2 84F80F61 		strb	r6, [r4, #271]
 2902 0bf6 F618     		adds	r6, r6, r3
 2903 0bf8 84F81061 		strb	r6, [r4, #272]
 2904              	.LBE646:
 2905              	.LBB647:
 2906 0bfc 7748     		ldr	r0, .L112
 2907              	.LBE647:
 2908 0bfe 0195     		str	r5, [sp, #4]
 2909              	.LVL164:
 2910              	.LBB648:
 2911 0c00 FFF7FEFF 		bl	uart_transmit
 2912 0c04 94F81021 		ldrb	r2, [r4, #272]	@ zero_extendqisi2
 2913 0c08 94F80F31 		ldrb	r3, [r4, #271]	@ zero_extendqisi2
 2914              	.LBE648:
 2915              	.LBB649:
 2916 0c0c 9DF80560 		ldrb	r6, [sp, #5]	@ zero_extendqisi2
 2917              	.LVL165:
 2918              	.LBE649:
 2919              	.LBB650:
 2920 0c10 84F80F31 		strb	r3, [r4, #271]
 2921 0c14 9B18     		adds	r3, r3, r2
 2922              	.LBE650:
 2923              	.LBB651:
 2924 0c16 3146     		mov	r1, r6
 2925              	.LBE651:
 2926              	.LBB652:
 2927 0c18 84F81031 		strb	r3, [r4, #272]
 2928              	.LBE652:
 2929              	.LBB653:
 2930 0c1c 6F48     		ldr	r0, .L112
 2931 0c1e FFF7FEFF 		bl	uart_transmit
 2932 0c22 94F80F31 		ldrb	r3, [r4, #271]	@ zero_extendqisi2
 2933              	.LBE653:
 2934              	.LBB654:
 2935 0c26 6D48     		ldr	r0, .L112
 2936              	.LBE654:
 2937              	.LBB655:
 2938 0c28 F618     		adds	r6, r6, r3
 2939              	.LVL166:
 2940 0c2a 94F81031 		ldrb	r3, [r4, #272]	@ zero_extendqisi2
 2941 0c2e F6B2     		uxtb	r6, r6
 2942 0c30 84F80F61 		strb	r6, [r4, #271]
 2943 0c34 F618     		adds	r6, r6, r3
 2944 0c36 84F81061 		strb	r6, [r4, #272]
 2945              	.LBE655:
 2946              	.LBB656:
 2947 0c3a 9DF80660 		ldrb	r6, [sp, #6]	@ zero_extendqisi2
 2948              	.LVL167:
 2949 0c3e 3146     		mov	r1, r6
 2950 0c40 FFF7FEFF 		bl	uart_transmit
 2951 0c44 94F80F31 		ldrb	r3, [r4, #271]	@ zero_extendqisi2
 2952              	.LBE656:
 2953              	.LBB657:
 2954 0c48 6448     		ldr	r0, .L112
 2955              	.LBE657:
 2956              	.LBB658:
 2957 0c4a F618     		adds	r6, r6, r3
 2958              	.LVL168:
 2959 0c4c 94F81031 		ldrb	r3, [r4, #272]	@ zero_extendqisi2
 2960 0c50 F6B2     		uxtb	r6, r6
 2961 0c52 84F80F61 		strb	r6, [r4, #271]
 2962 0c56 F618     		adds	r6, r6, r3
 2963 0c58 84F81061 		strb	r6, [r4, #272]
 2964              	.LBE658:
 2965              	.LBB659:
 2966 0c5c 9DF80760 		ldrb	r6, [sp, #7]	@ zero_extendqisi2
 2967              	.LVL169:
 2968 0c60 3146     		mov	r1, r6
 2969 0c62 FFF7FEFF 		bl	uart_transmit
 2970 0c66 94F80F31 		ldrb	r3, [r4, #271]	@ zero_extendqisi2
 2971              	.LBE659:
 2972              	.LBB660:
 2973 0c6a 2946     		mov	r1, r5
 2974              	.LBE660:
 2975              	.LBB661:
 2976 0c6c F618     		adds	r6, r6, r3
 2977              	.LVL170:
 2978 0c6e 94F81031 		ldrb	r3, [r4, #272]	@ zero_extendqisi2
 2979 0c72 F6B2     		uxtb	r6, r6
 2980 0c74 84F80F61 		strb	r6, [r4, #271]
 2981 0c78 F618     		adds	r6, r6, r3
 2982 0c7a 84F81061 		strb	r6, [r4, #272]
 2983              	.LVL171:
 2984              	.LBE661:
 2985              	.LBB662:
 2986 0c7e 5748     		ldr	r0, .L112
 2987 0c80 FFF7FEFF 		bl	uart_transmit
 2988 0c84 94F81021 		ldrb	r2, [r4, #272]	@ zero_extendqisi2
 2989 0c88 94F80F31 		ldrb	r3, [r4, #271]	@ zero_extendqisi2
 2990              	.LBE662:
 2991              	.LBB663:
 2992 0c8c 2946     		mov	r1, r5
 2993              	.LBE663:
 2994              	.LBB664:
 2995 0c8e D318     		adds	r3, r2, r3
 2996 0c90 84F81031 		strb	r3, [r4, #272]
 2997              	.LVL172:
 2998              	.LBE664:
 2999              	.LBB665:
 3000 0c94 5148     		ldr	r0, .L112
 3001 0c96 FFF7FEFF 		bl	uart_transmit
 3002 0c9a 94F81021 		ldrb	r2, [r4, #272]	@ zero_extendqisi2
 3003 0c9e 94F80F31 		ldrb	r3, [r4, #271]	@ zero_extendqisi2
 3004              	.LBE665:
 3005              	.LBB666:
 3006 0ca2 2946     		mov	r1, r5
 3007              	.LBE666:
 3008              	.LBB667:
 3009 0ca4 D318     		adds	r3, r2, r3
 3010 0ca6 84F81031 		strb	r3, [r4, #272]
 3011              	.LBE667:
 3012              	.LBB668:
 3013 0caa 4C48     		ldr	r0, .L112
 3014              	.LBE668:
 3015 0cac ADF82450 		strh	r5, [sp, #36]	@ movhi
 3016              	.LVL173:
 3017              	.LBB669:
 3018 0cb0 FFF7FEFF 		bl	uart_transmit
 3019 0cb4 94F81021 		ldrb	r2, [r4, #272]	@ zero_extendqisi2
 3020 0cb8 94F80F31 		ldrb	r3, [r4, #271]	@ zero_extendqisi2
 3021              	.LBE669:
 3022              	.LBB670:
 3023 0cbc 9DF82560 		ldrb	r6, [sp, #37]	@ zero_extendqisi2
 3024              	.LVL174:
 3025              	.LBE670:
 3026              	.LBB671:
 3027 0cc0 84F80F31 		strb	r3, [r4, #271]
 3028 0cc4 9B18     		adds	r3, r3, r2
 3029              	.LBE671:
 3030              	.LBB672:
 3031 0cc6 3146     		mov	r1, r6
 3032              	.LBE672:
 3033              	.LBB673:
 3034 0cc8 84F81031 		strb	r3, [r4, #272]
 3035              	.LBE673:
 3036              	.LBB674:
 3037 0ccc 4348     		ldr	r0, .L112
 3038 0cce FFF7FEFF 		bl	uart_transmit
 3039 0cd2 94F80F31 		ldrb	r3, [r4, #271]	@ zero_extendqisi2
 3040              	.LBE674:
 3041              	.LBB675:
 3042 0cd6 2946     		mov	r1, r5
 3043              	.LBE675:
 3044              	.LBB676:
 3045 0cd8 F618     		adds	r6, r6, r3
 3046              	.LVL175:
 3047 0cda 94F81031 		ldrb	r3, [r4, #272]	@ zero_extendqisi2
 3048 0cde F6B2     		uxtb	r6, r6
 3049 0ce0 84F80F61 		strb	r6, [r4, #271]
 3050 0ce4 F618     		adds	r6, r6, r3
 3051 0ce6 84F81061 		strb	r6, [r4, #272]
 3052              	.LBE676:
 3053              	.LBB677:
 3054 0cea 3C48     		ldr	r0, .L112
 3055              	.LBE677:
 3056 0cec ADF81A50 		strh	r5, [sp, #26]	@ movhi
 3057              	.LVL176:
 3058              	.LBB678:
 3059 0cf0 FFF7FEFF 		bl	uart_transmit
 3060 0cf4 94F81021 		ldrb	r2, [r4, #272]	@ zero_extendqisi2
 3061 0cf8 94F80F31 		ldrb	r3, [r4, #271]	@ zero_extendqisi2
 3062              	.LBE678:
 3063              	.LBB679:
 3064 0cfc 9DF81B60 		ldrb	r6, [sp, #27]	@ zero_extendqisi2
 3065              	.LVL177:
 3066              	.LBE679:
 3067              	.LBB680:
 3068 0d00 84F80F31 		strb	r3, [r4, #271]
 3069 0d04 9B18     		adds	r3, r3, r2
 3070              	.LBE680:
 3071              	.LBB681:
 3072 0d06 3146     		mov	r1, r6
 3073              	.LBE681:
 3074              	.LBB682:
 3075 0d08 84F81031 		strb	r3, [r4, #272]
 3076              	.LBE682:
 3077              	.LBB683:
 3078 0d0c 3348     		ldr	r0, .L112
 3079 0d0e FFF7FEFF 		bl	uart_transmit
 3080 0d12 94F80F31 		ldrb	r3, [r4, #271]	@ zero_extendqisi2
 3081              	.LBE683:
 3082              	.LBB684:
 3083 0d16 2946     		mov	r1, r5
 3084              	.LBE684:
 3085              	.LBB685:
 3086 0d18 F618     		adds	r6, r6, r3
 3087              	.LVL178:
 3088 0d1a 94F81031 		ldrb	r3, [r4, #272]	@ zero_extendqisi2
 3089 0d1e F6B2     		uxtb	r6, r6
 3090 0d20 84F80F61 		strb	r6, [r4, #271]
 3091 0d24 F618     		adds	r6, r6, r3
 3092 0d26 84F81061 		strb	r6, [r4, #272]
 3093              	.LBE685:
 3094              	.LBB686:
 3095 0d2a 2C48     		ldr	r0, .L112
 3096              	.LBE686:
 3097 0d2c ADF81C50 		strh	r5, [sp, #28]	@ movhi
 3098              	.LVL179:
 3099              	.LBB687:
 3100 0d30 FFF7FEFF 		bl	uart_transmit
 3101 0d34 94F81021 		ldrb	r2, [r4, #272]	@ zero_extendqisi2
 3102 0d38 94F80F31 		ldrb	r3, [r4, #271]	@ zero_extendqisi2
 3103              	.LBE687:
 3104              	.LBB688:
 3105 0d3c 9DF81D60 		ldrb	r6, [sp, #29]	@ zero_extendqisi2
 3106              	.LVL180:
 3107              	.LBE688:
 3108              	.LBB689:
 3109 0d40 84F80F31 		strb	r3, [r4, #271]
 3110 0d44 9B18     		adds	r3, r3, r2
 3111              	.LBE689:
 3112              	.LBB690:
 3113 0d46 3146     		mov	r1, r6
 3114              	.LBE690:
 3115              	.LBB691:
 3116 0d48 84F81031 		strb	r3, [r4, #272]
 3117              	.LBE691:
 3118              	.LBB692:
 3119 0d4c 2348     		ldr	r0, .L112
 3120 0d4e FFF7FEFF 		bl	uart_transmit
 3121 0d52 94F80F31 		ldrb	r3, [r4, #271]	@ zero_extendqisi2
 3122              	.LBE692:
 3123              	.LBB693:
 3124 0d56 2946     		mov	r1, r5
 3125              	.LBE693:
 3126              	.LBB694:
 3127 0d58 F618     		adds	r6, r6, r3
 3128              	.LVL181:
 3129 0d5a 94F81031 		ldrb	r3, [r4, #272]	@ zero_extendqisi2
 3130 0d5e F6B2     		uxtb	r6, r6
 3131 0d60 84F80F61 		strb	r6, [r4, #271]
 3132 0d64 F618     		adds	r6, r6, r3
 3133 0d66 84F81061 		strb	r6, [r4, #272]
 3134              	.LBE694:
 3135              	.LBB695:
 3136 0d6a 1C48     		ldr	r0, .L112
 3137              	.LBE695:
 3138 0d6c ADF82250 		strh	r5, [sp, #34]	@ movhi
 3139              	.LVL182:
 3140              	.LBB696:
 3141 0d70 FFF7FEFF 		bl	uart_transmit
 3142 0d74 94F81021 		ldrb	r2, [r4, #272]	@ zero_extendqisi2
 3143 0d78 94F80F31 		ldrb	r3, [r4, #271]	@ zero_extendqisi2
 3144              	.LBE696:
 3145              	.LBB697:
 3146 0d7c 9DF82360 		ldrb	r6, [sp, #35]	@ zero_extendqisi2
 3147              	.LVL183:
 3148              	.LBE697:
 3149              	.LBB698:
 3150 0d80 84F80F31 		strb	r3, [r4, #271]
 3151 0d84 9B18     		adds	r3, r3, r2
 3152              	.LBE698:
 3153              	.LBB699:
 3154 0d86 3146     		mov	r1, r6
 3155              	.LBE699:
 3156              	.LBB700:
 3157 0d88 84F81031 		strb	r3, [r4, #272]
 3158              	.LBE700:
 3159              	.LBB701:
 3160 0d8c 1348     		ldr	r0, .L112
 3161 0d8e FFF7FEFF 		bl	uart_transmit
 3162 0d92 94F80F31 		ldrb	r3, [r4, #271]	@ zero_extendqisi2
 3163              	.LBE701:
 3164              	.LBB702:
 3165 0d96 2946     		mov	r1, r5
 3166              	.LBE702:
 3167              	.LBB703:
 3168 0d98 F618     		adds	r6, r6, r3
 3169              	.LVL184:
 3170 0d9a 94F81031 		ldrb	r3, [r4, #272]	@ zero_extendqisi2
 3171 0d9e F6B2     		uxtb	r6, r6
 3172 0da0 84F80F61 		strb	r6, [r4, #271]
 3173 0da4 F618     		adds	r6, r6, r3
 3174 0da6 84F81061 		strb	r6, [r4, #272]
 3175              	.LVL185:
 3176              	.LBE703:
 3177              	.LBB704:
 3178 0daa 0C48     		ldr	r0, .L112
 3179 0dac FFF7FEFF 		bl	uart_transmit
 3180 0db0 94F81021 		ldrb	r2, [r4, #272]	@ zero_extendqisi2
 3181 0db4 94F80F31 		ldrb	r3, [r4, #271]	@ zero_extendqisi2
 3182              	.LBE704:
 3183              	.LBB705:
 3184 0db8 2946     		mov	r1, r5
 3185              	.LBE705:
 3186              	.LBB706:
 3187 0dba D318     		adds	r3, r2, r3
 3188 0dbc 84F81031 		strb	r3, [r4, #272]
 3189              	.LVL186:
 3190              	.LBE706:
 3191              	.LBB707:
 3192 0dc0 0648     		ldr	r0, .L112
 3193 0dc2 FFF7FEFF 		bl	uart_transmit
 3194 0dc6 94F81021 		ldrb	r2, [r4, #272]	@ zero_extendqisi2
 3195 0dca 94F80F31 		ldrb	r3, [r4, #271]	@ zero_extendqisi2
 3196              	.LBE707:
 3197              	.LBB708:
 3198 0dce 2946     		mov	r1, r5
 3199              	.LBE708:
 3200              	.LBB709:
 3201 0dd0 D318     		adds	r3, r2, r3
 3202 0dd2 84F81031 		strb	r3, [r4, #272]
 3203              	.LBE709:
 3204              	.LBB710:
 3205 0dd6 0148     		ldr	r0, .L112
 3206              	.LBE710:
 3207 0dd8 0295     		str	r5, [sp, #8]
 3208 0dda 01E0     		b	.L113
 3209              	.L114:
 3210              		.align	2
 3211              	.L112:
 3212 0ddc 00000000 		.word	uart3
 3213              	.L113:
 3214              	.LVL187:
 3215              	.LBB711:
 3216 0de0 FFF7FEFF 		bl	uart_transmit
 3217 0de4 94F81021 		ldrb	r2, [r4, #272]	@ zero_extendqisi2
 3218 0de8 94F80F31 		ldrb	r3, [r4, #271]	@ zero_extendqisi2
 3219              	.LBE711:
 3220              	.LBB712:
 3221 0dec 9DF80960 		ldrb	r6, [sp, #9]	@ zero_extendqisi2
 3222              	.LVL188:
 3223              	.LBE712:
 3224              	.LBB713:
 3225 0df0 84F80F31 		strb	r3, [r4, #271]
 3226 0df4 9B18     		adds	r3, r3, r2
 3227              	.LBE713:
 3228              	.LBB714:
 3229 0df6 3146     		mov	r1, r6
 3230              	.LBE714:
 3231              	.LBB715:
 3232 0df8 84F81031 		strb	r3, [r4, #272]
 3233              	.LBE715:
 3234              	.LBB716:
 3235 0dfc B348     		ldr	r0, .L115
 3236 0dfe FFF7FEFF 		bl	uart_transmit
 3237 0e02 94F80F31 		ldrb	r3, [r4, #271]	@ zero_extendqisi2
 3238              	.LBE716:
 3239              	.LBB717:
 3240 0e06 B148     		ldr	r0, .L115
 3241              	.LBE717:
 3242              	.LBB718:
 3243 0e08 F618     		adds	r6, r6, r3
 3244              	.LVL189:
 3245 0e0a 94F81031 		ldrb	r3, [r4, #272]	@ zero_extendqisi2
 3246 0e0e F6B2     		uxtb	r6, r6
 3247 0e10 84F80F61 		strb	r6, [r4, #271]
 3248 0e14 F618     		adds	r6, r6, r3
 3249 0e16 84F81061 		strb	r6, [r4, #272]
 3250              	.LBE718:
 3251              	.LBB719:
 3252 0e1a 9DF80A60 		ldrb	r6, [sp, #10]	@ zero_extendqisi2
 3253              	.LVL190:
 3254 0e1e 3146     		mov	r1, r6
 3255 0e20 FFF7FEFF 		bl	uart_transmit
 3256 0e24 94F80F31 		ldrb	r3, [r4, #271]	@ zero_extendqisi2
 3257              	.LBE719:
 3258              	.LBB720:
 3259 0e28 A848     		ldr	r0, .L115
 3260              	.LBE720:
 3261              	.LBB721:
 3262 0e2a F618     		adds	r6, r6, r3
 3263              	.LVL191:
 3264 0e2c 94F81031 		ldrb	r3, [r4, #272]	@ zero_extendqisi2
 3265 0e30 F6B2     		uxtb	r6, r6
 3266 0e32 84F80F61 		strb	r6, [r4, #271]
 3267 0e36 F618     		adds	r6, r6, r3
 3268 0e38 84F81061 		strb	r6, [r4, #272]
 3269              	.LBE721:
 3270              	.LBB722:
 3271 0e3c 9DF80B60 		ldrb	r6, [sp, #11]	@ zero_extendqisi2
 3272              	.LVL192:
 3273 0e40 3146     		mov	r1, r6
 3274 0e42 FFF7FEFF 		bl	uart_transmit
 3275 0e46 94F80F31 		ldrb	r3, [r4, #271]	@ zero_extendqisi2
 3276              	.LBE722:
 3277              	.LBB723:
 3278 0e4a 2946     		mov	r1, r5
 3279              	.LBE723:
 3280              	.LBB724:
 3281 0e4c F618     		adds	r6, r6, r3
 3282              	.LVL193:
 3283 0e4e 94F81031 		ldrb	r3, [r4, #272]	@ zero_extendqisi2
 3284 0e52 F6B2     		uxtb	r6, r6
 3285 0e54 84F80F61 		strb	r6, [r4, #271]
 3286 0e58 F618     		adds	r6, r6, r3
 3287 0e5a 84F81061 		strb	r6, [r4, #272]
 3288              	.LBE724:
 3289              	.LBB725:
 3290 0e5e 9B48     		ldr	r0, .L115
 3291              	.LBE725:
 3292 0e60 0495     		str	r5, [sp, #16]
 3293              	.LVL194:
 3294              	.LBB726:
 3295 0e62 FFF7FEFF 		bl	uart_transmit
 3296 0e66 94F81021 		ldrb	r2, [r4, #272]	@ zero_extendqisi2
 3297 0e6a 94F80F31 		ldrb	r3, [r4, #271]	@ zero_extendqisi2
 3298              	.LBE726:
 3299              	.LBB727:
 3300 0e6e 9DF81160 		ldrb	r6, [sp, #17]	@ zero_extendqisi2
 3301              	.LVL195:
 3302              	.LBE727:
 3303              	.LBB728:
 3304 0e72 84F80F31 		strb	r3, [r4, #271]
 3305 0e76 9B18     		adds	r3, r3, r2
 3306              	.LBE728:
 3307              	.LBB729:
 3308 0e78 3146     		mov	r1, r6
 3309              	.LBE729:
 3310              	.LBB730:
 3311 0e7a 84F81031 		strb	r3, [r4, #272]
 3312              	.LBE730:
 3313              	.LBB731:
 3314 0e7e 9348     		ldr	r0, .L115
 3315 0e80 FFF7FEFF 		bl	uart_transmit
 3316 0e84 94F80F31 		ldrb	r3, [r4, #271]	@ zero_extendqisi2
 3317              	.LBE731:
 3318              	.LBB732:
 3319 0e88 9048     		ldr	r0, .L115
 3320              	.LBE732:
 3321              	.LBB733:
 3322 0e8a F618     		adds	r6, r6, r3
 3323              	.LVL196:
 3324 0e8c 94F81031 		ldrb	r3, [r4, #272]	@ zero_extendqisi2
 3325 0e90 F6B2     		uxtb	r6, r6
 3326 0e92 84F80F61 		strb	r6, [r4, #271]
 3327 0e96 F618     		adds	r6, r6, r3
 3328 0e98 84F81061 		strb	r6, [r4, #272]
 3329              	.LBE733:
 3330              	.LBB734:
 3331 0e9c 9DF81260 		ldrb	r6, [sp, #18]	@ zero_extendqisi2
 3332              	.LVL197:
 3333 0ea0 3146     		mov	r1, r6
 3334 0ea2 FFF7FEFF 		bl	uart_transmit
 3335 0ea6 94F80F31 		ldrb	r3, [r4, #271]	@ zero_extendqisi2
 3336              	.LBE734:
 3337              	.LBB735:
 3338 0eaa 8848     		ldr	r0, .L115
 3339              	.LBE735:
 3340              	.LBB736:
 3341 0eac F618     		adds	r6, r6, r3
 3342              	.LVL198:
 3343 0eae 94F81031 		ldrb	r3, [r4, #272]	@ zero_extendqisi2
 3344 0eb2 F6B2     		uxtb	r6, r6
 3345 0eb4 84F80F61 		strb	r6, [r4, #271]
 3346 0eb8 F618     		adds	r6, r6, r3
 3347 0eba 84F81061 		strb	r6, [r4, #272]
 3348              	.LBE736:
 3349              	.LBB737:
 3350 0ebe 9DF81360 		ldrb	r6, [sp, #19]	@ zero_extendqisi2
 3351              	.LVL199:
 3352 0ec2 3146     		mov	r1, r6
 3353 0ec4 FFF7FEFF 		bl	uart_transmit
 3354 0ec8 94F80F31 		ldrb	r3, [r4, #271]	@ zero_extendqisi2
 3355              	.LBE737:
 3356              	.LBB738:
 3357 0ecc 2946     		mov	r1, r5
 3358              	.LBE738:
 3359              	.LBB739:
 3360 0ece F618     		adds	r6, r6, r3
 3361              	.LVL200:
 3362 0ed0 94F81031 		ldrb	r3, [r4, #272]	@ zero_extendqisi2
 3363 0ed4 F6B2     		uxtb	r6, r6
 3364 0ed6 84F80F61 		strb	r6, [r4, #271]
 3365 0eda F618     		adds	r6, r6, r3
 3366              	.LBE739:
 3367              	.LBB740:
 3368 0edc 7B48     		ldr	r0, .L115
 3369              	.LBE740:
 3370              	.LBB741:
 3371 0ede 84F81061 		strb	r6, [r4, #272]
 3372              	.LBE741:
 3373 0ee2 0595     		str	r5, [sp, #20]
 3374              	.LVL201:
 3375              	.LBB742:
 3376 0ee4 FFF7FEFF 		bl	uart_transmit
 3377 0ee8 94F81021 		ldrb	r2, [r4, #272]	@ zero_extendqisi2
 3378 0eec 94F80F31 		ldrb	r3, [r4, #271]	@ zero_extendqisi2
 3379              	.LBE742:
 3380              	.LBB743:
 3381 0ef0 9DF81550 		ldrb	r5, [sp, #21]	@ zero_extendqisi2
 3382              	.LVL202:
 3383              	.LBE743:
 3384              	.LBB744:
 3385 0ef4 84F80F31 		strb	r3, [r4, #271]
 3386 0ef8 9B18     		adds	r3, r3, r2
 3387              	.LBE744:
 3388              	.LBB745:
 3389 0efa 2946     		mov	r1, r5
 3390              	.LBE745:
 3391              	.LBB746:
 3392 0efc 84F81031 		strb	r3, [r4, #272]
 3393              	.LBE746:
 3394              	.LBB747:
 3395 0f00 7248     		ldr	r0, .L115
 3396 0f02 FFF7FEFF 		bl	uart_transmit
 3397 0f06 94F80F31 		ldrb	r3, [r4, #271]	@ zero_extendqisi2
 3398              	.LBE747:
 3399              	.LBB748:
 3400 0f0a 7048     		ldr	r0, .L115
 3401              	.LBE748:
 3402              	.LBB749:
 3403 0f0c ED18     		adds	r5, r5, r3
 3404              	.LVL203:
 3405 0f0e 94F81031 		ldrb	r3, [r4, #272]	@ zero_extendqisi2
 3406 0f12 EDB2     		uxtb	r5, r5
 3407 0f14 84F80F51 		strb	r5, [r4, #271]
 3408 0f18 ED18     		adds	r5, r5, r3
 3409 0f1a 84F81051 		strb	r5, [r4, #272]
 3410              	.LBE749:
 3411              	.LBB750:
 3412 0f1e 9DF81650 		ldrb	r5, [sp, #22]	@ zero_extendqisi2
 3413              	.LVL204:
 3414 0f22 2946     		mov	r1, r5
 3415 0f24 FFF7FEFF 		bl	uart_transmit
 3416 0f28 94F80F31 		ldrb	r3, [r4, #271]	@ zero_extendqisi2
 3417 0f2c ED18     		adds	r5, r5, r3
 3418              	.LVL205:
 3419 0f2e 94F81031 		ldrb	r3, [r4, #272]	@ zero_extendqisi2
 3420 0f32 EDB2     		uxtb	r5, r5
 3421 0f34 84F80F51 		strb	r5, [r4, #271]
 3422 0f38 ED18     		adds	r5, r5, r3
 3423 0f3a 84F81051 		strb	r5, [r4, #272]
 3424              	.LBE750:
 3425              	.LBB751:
 3426 0f3e 9DF81750 		ldrb	r5, [sp, #23]	@ zero_extendqisi2
 3427              	.LVL206:
 3428 0f42 64E2     		b	.L96
 3429              	.LVL207:
 3430              	.L71:
 3431              	.LBE751:
 3432              	.LBE599:
 3433              	.LBE492:
 3434              	.LBE491:
 367:./modules/gps/gps_ubx_ucenter.c ****     gps_ubx_ucenter_config_nav();
 368:./modules/gps/gps_ubx_ucenter.c ****     break;
 369:./modules/gps/gps_ubx_ucenter.c ****   case 7:
 370:./modules/gps/gps_ubx_ucenter.c ****     gps_ubx_ucenter_enable_msg(UBX_NAV_ID, UBX_NAV_POSLLH_ID,1);
 3435              		.loc 1 370 0
 3436 0f44 0220     		movs	r0, #2
 3437 0f46 02E0     		b	.L98
 3438              	.L72:
 371:./modules/gps/gps_ubx_ucenter.c ****     break;
 372:./modules/gps/gps_ubx_ucenter.c ****   case 8:
 373:./modules/gps/gps_ubx_ucenter.c ****     gps_ubx_ucenter_enable_msg(UBX_NAV_ID, UBX_NAV_VELNED_ID, 1);
 3439              		.loc 1 373 0
 3440 0f48 1220     		movs	r0, #18
 3441 0f4a 00E0     		b	.L98
 3442              	.L73:
 374:./modules/gps/gps_ubx_ucenter.c ****     break;
 375:./modules/gps/gps_ubx_ucenter.c ****   case 9:
 376:./modules/gps/gps_ubx_ucenter.c ****     gps_ubx_ucenter_enable_msg(UBX_NAV_ID, UBX_NAV_STATUS_ID, 1);
 3443              		.loc 1 376 0
 3444 0f4c 0320     		movs	r0, #3
 3445              	.L98:
 3446 0f4e 0121     		movs	r1, #1
 3447 0f50 07E0     		b	.L93
 3448              	.L74:
 377:./modules/gps/gps_ubx_ucenter.c ****     break;
 378:./modules/gps/gps_ubx_ucenter.c ****   case 10:
 379:./modules/gps/gps_ubx_ucenter.c ****     gps_ubx_ucenter_enable_msg(UBX_NAV_ID, UBX_NAV_SVINFO_ID, 4);
 3449              		.loc 1 379 0
 3450 0f52 3020     		movs	r0, #48
 3451 0f54 0421     		movs	r1, #4
 3452 0f56 04E0     		b	.L93
 3453              	.L75:
 380:./modules/gps/gps_ubx_ucenter.c ****     break;
 381:./modules/gps/gps_ubx_ucenter.c ****   case 11:
 382:./modules/gps/gps_ubx_ucenter.c ****     gps_ubx_ucenter_enable_msg(UBX_NAV_ID, UBX_NAV_SOL_ID, 8);
 3454              		.loc 1 382 0
 3455 0f58 0620     		movs	r0, #6
 3456 0f5a 0821     		movs	r1, #8
 3457 0f5c 01E0     		b	.L93
 3458              	.L76:
 383:./modules/gps/gps_ubx_ucenter.c ****     break;
 384:./modules/gps/gps_ubx_ucenter.c ****   case 12:
 385:./modules/gps/gps_ubx_ucenter.c ****     // Disable UTM on old Lea4P
 386:./modules/gps/gps_ubx_ucenter.c ****     gps_ubx_ucenter_enable_msg(UBX_NAV_ID, UBX_NAV_POSUTM_ID, 0);
 3459              		.loc 1 386 0
 3460 0f5e 0820     		movs	r0, #8
 3461 0f60 0021     		movs	r1, #0
 3462              	.L93:
 3463 0f62 FFF7FEFF 		bl	gps_ubx_ucenter_enable_msg.constprop.0
 3464              	.LVL208:
 3465 0f66 BAE2     		b	.L67
 3466              	.LVL209:
 3467              	.L77:
 3468              	.LBB752:
 3469              	.LBB753:
 3470              	.LBB754:
 303:./modules/gps/gps_ubx_ucenter.c ****   UbxSend_CFG_SBAS(GPS_SBAS_ENABLED, GPS_SBAS_RANGING | GPS_SBAS_CORRECTIONS | GPS_SBAS_INTEGRITY, 
 3471              		.loc 1 303 0
 3472 0f68 594C     		ldr	r4, .L115+4
 3473 0f6a 5848     		ldr	r0, .L115
 3474 0f6c B521     		movs	r1, #181
 3475 0f6e 0025     		movs	r5, #0
 3476 0f70 FFF7FEFF 		bl	uart_transmit
 3477              	.LVL210:
 3478 0f74 5548     		ldr	r0, .L115
 3479 0f76 6221     		movs	r1, #98
 3480 0f78 FFF7FEFF 		bl	uart_transmit
 3481 0f7c 84F81051 		strb	r5, [r4, #272]
 3482 0f80 84F80F51 		strb	r5, [r4, #271]
 3483              	.LVL211:
 3484              	.LBB755:
 3485 0f84 5148     		ldr	r0, .L115
 3486 0f86 0621     		movs	r1, #6
 3487 0f88 FFF7FEFF 		bl	uart_transmit
 3488 0f8c 94F80F31 		ldrb	r3, [r4, #271]	@ zero_extendqisi2
 3489 0f90 94F81021 		ldrb	r2, [r4, #272]	@ zero_extendqisi2
 3490 0f94 0633     		adds	r3, r3, #6
 3491 0f96 DBB2     		uxtb	r3, r3
 3492 0f98 84F80F31 		strb	r3, [r4, #271]
 3493 0f9c 9B18     		adds	r3, r3, r2
 3494 0f9e 84F81031 		strb	r3, [r4, #272]
 3495              	.LVL212:
 3496              	.LBE755:
 3497              	.LBB756:
 3498 0fa2 4A48     		ldr	r0, .L115
 3499 0fa4 1621     		movs	r1, #22
 3500 0fa6 FFF7FEFF 		bl	uart_transmit
 3501 0faa 94F80F31 		ldrb	r3, [r4, #271]	@ zero_extendqisi2
 3502 0fae 94F81021 		ldrb	r2, [r4, #272]	@ zero_extendqisi2
 3503 0fb2 1633     		adds	r3, r3, #22
 3504 0fb4 DBB2     		uxtb	r3, r3
 3505 0fb6 84F80F31 		strb	r3, [r4, #271]
 3506 0fba 9B18     		adds	r3, r3, r2
 3507 0fbc 84F81031 		strb	r3, [r4, #272]
 3508              	.LVL213:
 3509              	.LBE756:
 3510              	.LBB757:
 3511              	.LBB758:
 3512 0fc0 4248     		ldr	r0, .L115
 3513 0fc2 0821     		movs	r1, #8
 3514 0fc4 FFF7FEFF 		bl	uart_transmit
 3515 0fc8 94F80F31 		ldrb	r3, [r4, #271]	@ zero_extendqisi2
 3516 0fcc 94F81021 		ldrb	r2, [r4, #272]	@ zero_extendqisi2
 3517 0fd0 0833     		adds	r3, r3, #8
 3518 0fd2 DBB2     		uxtb	r3, r3
 3519 0fd4 84F80F31 		strb	r3, [r4, #271]
 3520 0fd8 9B18     		adds	r3, r3, r2
 3521              	.LBE758:
 3522              	.LBB759:
 3523 0fda 2946     		mov	r1, r5
 3524              	.LBE759:
 3525              	.LBB760:
 3526 0fdc 84F81031 		strb	r3, [r4, #272]
 3527              	.LVL214:
 3528              	.LBE760:
 3529              	.LBB761:
 3530 0fe0 3A48     		ldr	r0, .L115
 3531 0fe2 FFF7FEFF 		bl	uart_transmit
 3532 0fe6 94F81021 		ldrb	r2, [r4, #272]	@ zero_extendqisi2
 3533 0fea 94F80F31 		ldrb	r3, [r4, #271]	@ zero_extendqisi2
 3534              	.LBE761:
 3535              	.LBE757:
 3536              	.LBB763:
 3537 0fee 3748     		ldr	r0, .L115
 3538              	.LBE763:
 3539              	.LBB764:
 3540              	.LBB762:
 3541 0ff0 D318     		adds	r3, r2, r3
 3542 0ff2 84F81031 		strb	r3, [r4, #272]
 3543              	.LVL215:
 3544              	.LBE762:
 3545              	.LBE764:
 3546              	.LBB765:
 3547 0ff6 0121     		movs	r1, #1
 3548 0ff8 FFF7FEFF 		bl	uart_transmit
 3549 0ffc 94F80F31 		ldrb	r3, [r4, #271]	@ zero_extendqisi2
 3550 1000 94F81021 		ldrb	r2, [r4, #272]	@ zero_extendqisi2
 3551 1004 0133     		adds	r3, r3, #1
 3552 1006 DBB2     		uxtb	r3, r3
 3553 1008 84F80F31 		strb	r3, [r4, #271]
 3554 100c 9B18     		adds	r3, r3, r2
 3555 100e 84F81031 		strb	r3, [r4, #272]
 3556              	.LVL216:
 3557              	.LBE765:
 3558              	.LBB766:
 3559 1012 2E48     		ldr	r0, .L115
 3560 1014 0721     		movs	r1, #7
 3561 1016 FFF7FEFF 		bl	uart_transmit
 3562 101a 94F80F31 		ldrb	r3, [r4, #271]	@ zero_extendqisi2
 3563 101e 94F81021 		ldrb	r2, [r4, #272]	@ zero_extendqisi2
 3564 1022 0733     		adds	r3, r3, #7
 3565 1024 DBB2     		uxtb	r3, r3
 3566 1026 84F80F31 		strb	r3, [r4, #271]
 3567 102a 9B18     		adds	r3, r3, r2
 3568 102c 84F81031 		strb	r3, [r4, #272]
 3569              	.LVL217:
 3570              	.LBE766:
 3571              	.LBB767:
 3572 1030 2648     		ldr	r0, .L115
 3573 1032 0121     		movs	r1, #1
 3574 1034 FFF7FEFF 		bl	uart_transmit
 3575 1038 94F80F31 		ldrb	r3, [r4, #271]	@ zero_extendqisi2
 3576 103c 94F81021 		ldrb	r2, [r4, #272]	@ zero_extendqisi2
 3577 1040 0133     		adds	r3, r3, #1
 3578 1042 DBB2     		uxtb	r3, r3
 3579 1044 84F80F31 		strb	r3, [r4, #271]
 3580 1048 9B18     		adds	r3, r3, r2
 3581              	.LBE767:
 3582              	.LBB768:
 3583 104a 2946     		mov	r1, r5
 3584              	.LBE768:
 3585              	.LBB769:
 3586 104c 84F81031 		strb	r3, [r4, #272]
 3587              	.LVL218:
 3588              	.LBE769:
 3589              	.LBB770:
 3590 1050 1E48     		ldr	r0, .L115
 3591 1052 FFF7FEFF 		bl	uart_transmit
 3592 1056 94F81021 		ldrb	r2, [r4, #272]	@ zero_extendqisi2
 3593 105a 94F80F31 		ldrb	r3, [r4, #271]	@ zero_extendqisi2
 3594              	.LBE770:
 3595              	.LBB771:
 3596 105e 2946     		mov	r1, r5
 3597              	.LBE771:
 3598              	.LBB772:
 3599 1060 D318     		adds	r3, r2, r3
 3600 1062 84F81031 		strb	r3, [r4, #272]
 3601              	.LBE772:
 3602              	.LBB773:
 3603 1066 1948     		ldr	r0, .L115
 3604              	.LBE773:
 3605 1068 0195     		str	r5, [sp, #4]
 3606              	.LVL219:
 3607              	.LBB774:
 3608 106a FFF7FEFF 		bl	uart_transmit
 3609 106e 94F81021 		ldrb	r2, [r4, #272]	@ zero_extendqisi2
 3610 1072 94F80F31 		ldrb	r3, [r4, #271]	@ zero_extendqisi2
 3611              	.LBE774:
 3612              	.LBB775:
 3613 1076 9DF80550 		ldrb	r5, [sp, #5]	@ zero_extendqisi2
 3614              	.LVL220:
 3615              	.LBE775:
 3616              	.LBB776:
 3617 107a 84F80F31 		strb	r3, [r4, #271]
 3618 107e 9B18     		adds	r3, r3, r2
 3619              	.LBE776:
 3620              	.LBB777:
 3621 1080 2946     		mov	r1, r5
 3622              	.LBE777:
 3623              	.LBB778:
 3624 1082 84F81031 		strb	r3, [r4, #272]
 3625              	.LBE778:
 3626              	.LBB779:
 3627 1086 1148     		ldr	r0, .L115
 3628 1088 FFF7FEFF 		bl	uart_transmit
 3629 108c 94F80F31 		ldrb	r3, [r4, #271]	@ zero_extendqisi2
 3630              	.LBE779:
 3631              	.LBB780:
 3632 1090 0E48     		ldr	r0, .L115
 3633              	.LBE780:
 3634              	.LBB781:
 3635 1092 ED18     		adds	r5, r5, r3
 3636              	.LVL221:
 3637 1094 94F81031 		ldrb	r3, [r4, #272]	@ zero_extendqisi2
 3638 1098 EDB2     		uxtb	r5, r5
 3639 109a 84F80F51 		strb	r5, [r4, #271]
 3640 109e ED18     		adds	r5, r5, r3
 3641 10a0 84F81051 		strb	r5, [r4, #272]
 3642              	.LBE781:
 3643              	.LBB782:
 3644 10a4 9DF80650 		ldrb	r5, [sp, #6]	@ zero_extendqisi2
 3645              	.LVL222:
 3646 10a8 2946     		mov	r1, r5
 3647 10aa FFF7FEFF 		bl	uart_transmit
 3648 10ae 94F80F31 		ldrb	r3, [r4, #271]	@ zero_extendqisi2
 3649 10b2 ED18     		adds	r5, r5, r3
 3650              	.LVL223:
 3651 10b4 94F81031 		ldrb	r3, [r4, #272]	@ zero_extendqisi2
 3652 10b8 EDB2     		uxtb	r5, r5
 3653 10ba 84F80F51 		strb	r5, [r4, #271]
 3654 10be ED18     		adds	r5, r5, r3
 3655 10c0 84F81051 		strb	r5, [r4, #272]
 3656              	.LBE782:
 3657              	.LBB783:
 3658 10c4 9DF80750 		ldrb	r5, [sp, #7]	@ zero_extendqisi2
 3659              	.LVL224:
 3660 10c8 A1E1     		b	.L96
 3661              	.L116:
 3662 10ca 00BF     		.align	2
 3663              	.L115:
 3664 10cc 00000000 		.word	uart3
 3665 10d0 00000000 		.word	.LANCHOR0
 3666              	.LVL225:
 3667              	.L78:
 3668              	.LBE783:
 3669              	.LBE754:
 3670              	.LBE753:
 3671              	.LBE752:
 3672              	.LBB784:
 387:./modules/gps/gps_ubx_ucenter.c ****     break;
 388:./modules/gps/gps_ubx_ucenter.c ****   case 13:
 389:./modules/gps/gps_ubx_ucenter.c ****     gps_ubx_ucenter_config_sbas();
 390:./modules/gps/gps_ubx_ucenter.c ****     break;
 391:./modules/gps/gps_ubx_ucenter.c ****   case 14:
 392:./modules/gps/gps_ubx_ucenter.c ****     UbxSend_CFG_RATE(0x00FA, 0x0001, 0x0000);
 3673              		.loc 1 392 0
 3674 10d4 D44C     		ldr	r4, .L117
 3675 10d6 D548     		ldr	r0, .L117+4
 3676 10d8 B521     		movs	r1, #181
 3677 10da 0025     		movs	r5, #0
 3678 10dc FFF7FEFF 		bl	uart_transmit
 3679              	.LVL226:
 3680 10e0 D248     		ldr	r0, .L117+4
 3681 10e2 6221     		movs	r1, #98
 3682 10e4 FFF7FEFF 		bl	uart_transmit
 3683 10e8 84F81051 		strb	r5, [r4, #272]
 3684 10ec 84F80F51 		strb	r5, [r4, #271]
 3685              	.LVL227:
 3686              	.LBB785:
 3687 10f0 CE48     		ldr	r0, .L117+4
 3688 10f2 0621     		movs	r1, #6
 3689 10f4 FFF7FEFF 		bl	uart_transmit
 3690 10f8 94F80F31 		ldrb	r3, [r4, #271]	@ zero_extendqisi2
 3691 10fc 94F81021 		ldrb	r2, [r4, #272]	@ zero_extendqisi2
 3692 1100 0633     		adds	r3, r3, #6
 3693 1102 DBB2     		uxtb	r3, r3
 3694 1104 84F80F31 		strb	r3, [r4, #271]
 3695 1108 9B18     		adds	r3, r3, r2
 3696 110a 84F81031 		strb	r3, [r4, #272]
 3697              	.LVL228:
 3698              	.LBE785:
 3699              	.LBB786:
 3700 110e C748     		ldr	r0, .L117+4
 3701 1110 0821     		movs	r1, #8
 3702 1112 FFF7FEFF 		bl	uart_transmit
 3703 1116 94F80F31 		ldrb	r3, [r4, #271]	@ zero_extendqisi2
 3704 111a 94F81021 		ldrb	r2, [r4, #272]	@ zero_extendqisi2
 3705 111e 0833     		adds	r3, r3, #8
 3706 1120 DBB2     		uxtb	r3, r3
 3707 1122 84F80F31 		strb	r3, [r4, #271]
 3708 1126 9B18     		adds	r3, r3, r2
 3709 1128 84F81031 		strb	r3, [r4, #272]
 3710              	.LVL229:
 3711              	.LBE786:
 3712              	.LBB787:
 3713              	.LBB788:
 3714 112c BF48     		ldr	r0, .L117+4
 3715 112e 0621     		movs	r1, #6
 3716 1130 FFF7FEFF 		bl	uart_transmit
 3717 1134 94F80F31 		ldrb	r3, [r4, #271]	@ zero_extendqisi2
 3718 1138 94F81021 		ldrb	r2, [r4, #272]	@ zero_extendqisi2
 3719 113c 0633     		adds	r3, r3, #6
 3720 113e DBB2     		uxtb	r3, r3
 3721 1140 84F80F31 		strb	r3, [r4, #271]
 3722 1144 9B18     		adds	r3, r3, r2
 3723              	.LBE788:
 3724              	.LBB789:
 3725 1146 2946     		mov	r1, r5
 3726              	.LBE789:
 3727              	.LBB790:
 3728 1148 84F81031 		strb	r3, [r4, #272]
 3729              	.LVL230:
 3730              	.LBE790:
 3731              	.LBB791:
 3732 114c B748     		ldr	r0, .L117+4
 3733 114e FFF7FEFF 		bl	uart_transmit
 3734 1152 94F81021 		ldrb	r2, [r4, #272]	@ zero_extendqisi2
 3735 1156 94F80F31 		ldrb	r3, [r4, #271]	@ zero_extendqisi2
 3736              	.LBE791:
 3737              	.LBE787:
 3738 115a FA26     		movs	r6, #250
 3739              	.LBB794:
 3740              	.LBB792:
 3741 115c D318     		adds	r3, r2, r3
 3742              	.LBE792:
 3743              	.LBE794:
 3744              	.LBB795:
 3745 115e 3146     		mov	r1, r6
 3746              	.LBE795:
 3747              	.LBB796:
 3748              	.LBB793:
 3749 1160 84F81031 		strb	r3, [r4, #272]
 3750              	.LBE793:
 3751              	.LBE796:
 3752              	.LBB797:
 3753 1164 B148     		ldr	r0, .L117+4
 3754              	.LBE797:
 3755 1166 ADF82260 		strh	r6, [sp, #34]	@ movhi
 3756              	.LVL231:
 3757              	.LBB798:
 3758 116a FFF7FEFF 		bl	uart_transmit
 3759 116e 94F80F31 		ldrb	r3, [r4, #271]	@ zero_extendqisi2
 3760              	.LBE798:
 3761              	.LBB799:
 3762 1172 AE48     		ldr	r0, .L117+4
 3763              	.LBE799:
 3764              	.LBB800:
 3765 1174 F618     		adds	r6, r6, r3
 3766              	.LVL232:
 3767 1176 94F81031 		ldrb	r3, [r4, #272]	@ zero_extendqisi2
 3768 117a F6B2     		uxtb	r6, r6
 3769 117c 84F80F61 		strb	r6, [r4, #271]
 3770 1180 F618     		adds	r6, r6, r3
 3771 1182 84F81061 		strb	r6, [r4, #272]
 3772              	.LBE800:
 3773              	.LBB801:
 3774 1186 9DF82360 		ldrb	r6, [sp, #35]	@ zero_extendqisi2
 3775              	.LVL233:
 3776 118a 3146     		mov	r1, r6
 3777 118c FFF7FEFF 		bl	uart_transmit
 3778 1190 94F80F31 		ldrb	r3, [r4, #271]	@ zero_extendqisi2
 3779              	.LBE801:
 3780              	.LBB802:
 3781 1194 A548     		ldr	r0, .L117+4
 3782              	.LBE802:
 3783              	.LBB803:
 3784 1196 F618     		adds	r6, r6, r3
 3785              	.LVL234:
 3786 1198 94F81031 		ldrb	r3, [r4, #272]	@ zero_extendqisi2
 3787 119c F6B2     		uxtb	r6, r6
 3788 119e 84F80F61 		strb	r6, [r4, #271]
 3789 11a2 F618     		adds	r6, r6, r3
 3790 11a4 84F81061 		strb	r6, [r4, #272]
 3791              	.LBE803:
 3792 11a8 0126     		movs	r6, #1
 3793              	.LBB804:
 3794 11aa 3146     		mov	r1, r6
 3795              	.LBE804:
 3796 11ac ADF82060 		strh	r6, [sp, #32]	@ movhi
 3797              	.LVL235:
 3798              	.LBB805:
 3799 11b0 FFF7FEFF 		bl	uart_transmit
 3800 11b4 94F80F31 		ldrb	r3, [r4, #271]	@ zero_extendqisi2
 3801              	.LBE805:
 3802              	.LBB806:
 3803 11b8 9C48     		ldr	r0, .L117+4
 3804              	.LBE806:
 3805              	.LBB807:
 3806 11ba F618     		adds	r6, r6, r3
 3807              	.LVL236:
 3808 11bc 94F81031 		ldrb	r3, [r4, #272]	@ zero_extendqisi2
 3809 11c0 F6B2     		uxtb	r6, r6
 3810 11c2 84F80F61 		strb	r6, [r4, #271]
 3811 11c6 F618     		adds	r6, r6, r3
 3812 11c8 84F81061 		strb	r6, [r4, #272]
 3813              	.LBE807:
 3814              	.LBB808:
 3815 11cc 9DF82160 		ldrb	r6, [sp, #33]	@ zero_extendqisi2
 3816              	.LVL237:
 3817 11d0 3146     		mov	r1, r6
 3818 11d2 FFF7FEFF 		bl	uart_transmit
 3819 11d6 94F80F31 		ldrb	r3, [r4, #271]	@ zero_extendqisi2
 3820              	.LBE808:
 3821              	.LBB809:
 3822 11da 2946     		mov	r1, r5
 3823              	.LBE809:
 3824              	.LBB810:
 3825 11dc F618     		adds	r6, r6, r3
 3826              	.LVL238:
 3827 11de 94F81031 		ldrb	r3, [r4, #272]	@ zero_extendqisi2
 3828 11e2 F6B2     		uxtb	r6, r6
 3829 11e4 84F80F61 		strb	r6, [r4, #271]
 3830 11e8 F618     		adds	r6, r6, r3
 3831 11ea 84F81061 		strb	r6, [r4, #272]
 3832              	.LBE810:
 3833              	.LBB811:
 3834 11ee 8F48     		ldr	r0, .L117+4
 3835              	.LBE811:
 3836 11f0 ADF81E50 		strh	r5, [sp, #30]	@ movhi
 3837              	.LVL239:
 3838              	.LBB812:
 3839 11f4 FFF7FEFF 		bl	uart_transmit
 3840 11f8 94F80F31 		ldrb	r3, [r4, #271]	@ zero_extendqisi2
 3841 11fc 94F81021 		ldrb	r2, [r4, #272]	@ zero_extendqisi2
 3842 1200 84F80F31 		strb	r3, [r4, #271]
 3843 1204 9B18     		adds	r3, r3, r2
 3844 1206 84F81031 		strb	r3, [r4, #272]
 3845              	.LBE812:
 3846              	.LBB813:
 3847 120a 9DF81F50 		ldrb	r5, [sp, #31]	@ zero_extendqisi2
 3848              	.LVL240:
 3849 120e FEE0     		b	.L96
 3850              	.LVL241:
 3851              	.L79:
 3852              	.LBE813:
 3853              	.LBE784:
 3854              	.LBB814:
 393:./modules/gps/gps_ubx_ucenter.c ****     break;
 394:./modules/gps/gps_ubx_ucenter.c ****   case 15:
 395:./modules/gps/gps_ubx_ucenter.c ****     // Try to save on non-ROM devices...
 396:./modules/gps/gps_ubx_ucenter.c ****     UbxSend_CFG_CFG(0x00000000,0xffffffff,0x00000000);
 3855              		.loc 1 396 0
 3856 1210 854C     		ldr	r4, .L117
 3857 1212 8648     		ldr	r0, .L117+4
 3858 1214 B521     		movs	r1, #181
 3859 1216 0025     		movs	r5, #0
 3860 1218 FFF7FEFF 		bl	uart_transmit
 3861              	.LVL242:
 3862 121c 8348     		ldr	r0, .L117+4
 3863 121e 6221     		movs	r1, #98
 3864 1220 FFF7FEFF 		bl	uart_transmit
 3865 1224 84F81051 		strb	r5, [r4, #272]
 3866 1228 84F80F51 		strb	r5, [r4, #271]
 3867              	.LVL243:
 3868              	.LBB815:
 3869 122c 7F48     		ldr	r0, .L117+4
 3870 122e 0621     		movs	r1, #6
 3871 1230 FFF7FEFF 		bl	uart_transmit
 3872 1234 94F80F31 		ldrb	r3, [r4, #271]	@ zero_extendqisi2
 3873 1238 94F81021 		ldrb	r2, [r4, #272]	@ zero_extendqisi2
 3874 123c 0633     		adds	r3, r3, #6
 3875 123e DBB2     		uxtb	r3, r3
 3876 1240 84F80F31 		strb	r3, [r4, #271]
 3877 1244 9B18     		adds	r3, r3, r2
 3878 1246 84F81031 		strb	r3, [r4, #272]
 3879              	.LVL244:
 3880              	.LBE815:
 3881              	.LBB816:
 3882 124a 7848     		ldr	r0, .L117+4
 3883 124c 0921     		movs	r1, #9
 3884 124e FFF7FEFF 		bl	uart_transmit
 3885 1252 94F80F31 		ldrb	r3, [r4, #271]	@ zero_extendqisi2
 3886 1256 94F81021 		ldrb	r2, [r4, #272]	@ zero_extendqisi2
 3887 125a 0933     		adds	r3, r3, #9
 3888 125c DBB2     		uxtb	r3, r3
 3889 125e 84F80F31 		strb	r3, [r4, #271]
 3890 1262 9B18     		adds	r3, r3, r2
 3891 1264 84F81031 		strb	r3, [r4, #272]
 3892              	.LVL245:
 3893              	.LBE816:
 3894              	.LBB817:
 3895              	.LBB818:
 3896 1268 7048     		ldr	r0, .L117+4
 3897 126a 0C21     		movs	r1, #12
 3898 126c FFF7FEFF 		bl	uart_transmit
 3899 1270 94F80F31 		ldrb	r3, [r4, #271]	@ zero_extendqisi2
 3900 1274 94F81021 		ldrb	r2, [r4, #272]	@ zero_extendqisi2
 3901 1278 0C33     		adds	r3, r3, #12
 3902 127a DBB2     		uxtb	r3, r3
 3903 127c 84F80F31 		strb	r3, [r4, #271]
 3904 1280 9B18     		adds	r3, r3, r2
 3905              	.LBE818:
 3906              	.LBB819:
 3907 1282 2946     		mov	r1, r5
 3908              	.LBE819:
 3909              	.LBB820:
 3910 1284 84F81031 		strb	r3, [r4, #272]
 3911              	.LVL246:
 3912              	.LBE820:
 3913              	.LBB821:
 3914 1288 6848     		ldr	r0, .L117+4
 3915 128a FFF7FEFF 		bl	uart_transmit
 3916 128e 94F81021 		ldrb	r2, [r4, #272]	@ zero_extendqisi2
 3917 1292 94F80F31 		ldrb	r3, [r4, #271]	@ zero_extendqisi2
 3918              	.LBE821:
 3919              	.LBE817:
 3920              	.LBB823:
 3921 1296 2946     		mov	r1, r5
 3922              	.LBE823:
 3923              	.LBB824:
 3924              	.LBB822:
 3925 1298 D318     		adds	r3, r2, r3
 3926 129a 84F81031 		strb	r3, [r4, #272]
 3927              	.LBE822:
 3928              	.LBE824:
 3929              	.LBB825:
 3930 129e 6348     		ldr	r0, .L117+4
 3931              	.LBE825:
 3932 12a0 0295     		str	r5, [sp, #8]
 3933              	.LVL247:
 3934              	.LBB826:
 3935 12a2 FFF7FEFF 		bl	uart_transmit
 3936 12a6 94F81021 		ldrb	r2, [r4, #272]	@ zero_extendqisi2
 3937 12aa 94F80F31 		ldrb	r3, [r4, #271]	@ zero_extendqisi2
 3938              	.LBE826:
 3939              	.LBB827:
 3940 12ae 9DF80960 		ldrb	r6, [sp, #9]	@ zero_extendqisi2
 3941              	.LVL248:
 3942              	.LBE827:
 3943              	.LBB828:
 3944 12b2 84F80F31 		strb	r3, [r4, #271]
 3945 12b6 9B18     		adds	r3, r3, r2
 3946              	.LBE828:
 3947              	.LBB829:
 3948 12b8 3146     		mov	r1, r6
 3949              	.LBE829:
 3950              	.LBB830:
 3951 12ba 84F81031 		strb	r3, [r4, #272]
 3952              	.LBE830:
 3953              	.LBB831:
 3954 12be 5B48     		ldr	r0, .L117+4
 3955 12c0 FFF7FEFF 		bl	uart_transmit
 3956 12c4 94F80F31 		ldrb	r3, [r4, #271]	@ zero_extendqisi2
 3957              	.LBE831:
 3958              	.LBB832:
 3959 12c8 5848     		ldr	r0, .L117+4
 3960              	.LBE832:
 3961              	.LBB833:
 3962 12ca F618     		adds	r6, r6, r3
 3963              	.LVL249:
 3964 12cc 94F81031 		ldrb	r3, [r4, #272]	@ zero_extendqisi2
 3965 12d0 F6B2     		uxtb	r6, r6
 3966 12d2 84F80F61 		strb	r6, [r4, #271]
 3967 12d6 F618     		adds	r6, r6, r3
 3968 12d8 84F81061 		strb	r6, [r4, #272]
 3969              	.LBE833:
 3970              	.LBB834:
 3971 12dc 9DF80A60 		ldrb	r6, [sp, #10]	@ zero_extendqisi2
 3972              	.LVL250:
 3973 12e0 3146     		mov	r1, r6
 3974 12e2 FFF7FEFF 		bl	uart_transmit
 3975 12e6 94F80F31 		ldrb	r3, [r4, #271]	@ zero_extendqisi2
 3976              	.LBE834:
 3977              	.LBB835:
 3978 12ea 5048     		ldr	r0, .L117+4
 3979              	.LBE835:
 3980              	.LBB836:
 3981 12ec F618     		adds	r6, r6, r3
 3982              	.LVL251:
 3983 12ee 94F81031 		ldrb	r3, [r4, #272]	@ zero_extendqisi2
 3984 12f2 F6B2     		uxtb	r6, r6
 3985 12f4 84F80F61 		strb	r6, [r4, #271]
 3986 12f8 F618     		adds	r6, r6, r3
 3987 12fa 84F81061 		strb	r6, [r4, #272]
 3988              	.LBE836:
 3989              	.LBB837:
 3990 12fe 9DF80B60 		ldrb	r6, [sp, #11]	@ zero_extendqisi2
 3991              	.LVL252:
 3992 1302 3146     		mov	r1, r6
 3993 1304 FFF7FEFF 		bl	uart_transmit
 3994 1308 94F80F31 		ldrb	r3, [r4, #271]	@ zero_extendqisi2
 3995              	.LBE837:
 3996              	.LBB838:
 3997 130c 4748     		ldr	r0, .L117+4
 3998              	.LBE838:
 3999              	.LBB839:
 4000 130e F618     		adds	r6, r6, r3
 4001              	.LVL253:
 4002 1310 94F81031 		ldrb	r3, [r4, #272]	@ zero_extendqisi2
 4003 1314 F6B2     		uxtb	r6, r6
 4004 1316 84F80F61 		strb	r6, [r4, #271]
 4005 131a F618     		adds	r6, r6, r3
 4006 131c 84F81061 		strb	r6, [r4, #272]
 4007              	.LBE839:
 4008 1320 4FF0FF36 		mov	r6, #-1
 4009 1324 0196     		str	r6, [sp, #4]
 4010              	.LVL254:
 4011              	.LBB840:
 4012 1326 F6B2     		uxtb	r6, r6
 4013              	.LVL255:
 4014 1328 3146     		mov	r1, r6
 4015 132a FFF7FEFF 		bl	uart_transmit
 4016 132e 94F80F31 		ldrb	r3, [r4, #271]	@ zero_extendqisi2
 4017              	.LBE840:
 4018              	.LBB841:
 4019 1332 3E48     		ldr	r0, .L117+4
 4020              	.LBE841:
 4021              	.LBB842:
 4022 1334 F618     		adds	r6, r6, r3
 4023              	.LVL256:
 4024 1336 94F81031 		ldrb	r3, [r4, #272]	@ zero_extendqisi2
 4025 133a F6B2     		uxtb	r6, r6
 4026 133c 84F80F61 		strb	r6, [r4, #271]
 4027 1340 F618     		adds	r6, r6, r3
 4028 1342 84F81061 		strb	r6, [r4, #272]
 4029              	.LBE842:
 4030              	.LBB843:
 4031 1346 9DF80560 		ldrb	r6, [sp, #5]	@ zero_extendqisi2
 4032              	.LVL257:
 4033 134a 3146     		mov	r1, r6
 4034 134c FFF7FEFF 		bl	uart_transmit
 4035 1350 94F80F31 		ldrb	r3, [r4, #271]	@ zero_extendqisi2
 4036              	.LBE843:
 4037              	.LBB844:
 4038 1354 3548     		ldr	r0, .L117+4
 4039              	.LBE844:
 4040              	.LBB845:
 4041 1356 F618     		adds	r6, r6, r3
 4042              	.LVL258:
 4043 1358 94F81031 		ldrb	r3, [r4, #272]	@ zero_extendqisi2
 4044 135c F6B2     		uxtb	r6, r6
 4045 135e 84F80F61 		strb	r6, [r4, #271]
 4046 1362 F618     		adds	r6, r6, r3
 4047 1364 84F81061 		strb	r6, [r4, #272]
 4048              	.LBE845:
 4049              	.LBB846:
 4050 1368 9DF80660 		ldrb	r6, [sp, #6]	@ zero_extendqisi2
 4051              	.LVL259:
 4052 136c 3146     		mov	r1, r6
 4053 136e FFF7FEFF 		bl	uart_transmit
 4054 1372 94F80F31 		ldrb	r3, [r4, #271]	@ zero_extendqisi2
 4055              	.LBE846:
 4056              	.LBB847:
 4057 1376 2D48     		ldr	r0, .L117+4
 4058              	.LBE847:
 4059              	.LBB848:
 4060 1378 F618     		adds	r6, r6, r3
 4061              	.LVL260:
 4062 137a 94F81031 		ldrb	r3, [r4, #272]	@ zero_extendqisi2
 4063 137e F6B2     		uxtb	r6, r6
 4064 1380 84F80F61 		strb	r6, [r4, #271]
 4065 1384 F618     		adds	r6, r6, r3
 4066 1386 84F81061 		strb	r6, [r4, #272]
 4067              	.LBE848:
 4068              	.LBB849:
 4069 138a 9DF80760 		ldrb	r6, [sp, #7]	@ zero_extendqisi2
 4070              	.LVL261:
 4071 138e 3146     		mov	r1, r6
 4072 1390 FFF7FEFF 		bl	uart_transmit
 4073 1394 94F80F31 		ldrb	r3, [r4, #271]	@ zero_extendqisi2
 4074              	.LBE849:
 4075              	.LBB850:
 4076 1398 2946     		mov	r1, r5
 4077              	.LBE850:
 4078              	.LBB851:
 4079 139a F618     		adds	r6, r6, r3
 4080              	.LVL262:
 4081 139c 94F81031 		ldrb	r3, [r4, #272]	@ zero_extendqisi2
 4082 13a0 F6B2     		uxtb	r6, r6
 4083 13a2 84F80F61 		strb	r6, [r4, #271]
 4084 13a6 F618     		adds	r6, r6, r3
 4085              	.LBE851:
 4086              	.LBB852:
 4087 13a8 2048     		ldr	r0, .L117+4
 4088              	.LBE852:
 4089              	.LBB853:
 4090 13aa 84F81061 		strb	r6, [r4, #272]
 4091              	.LBE853:
 4092 13ae 0395     		str	r5, [sp, #12]
 4093              	.LVL263:
 4094              	.LBB854:
 4095 13b0 FFF7FEFF 		bl	uart_transmit
 4096 13b4 94F81021 		ldrb	r2, [r4, #272]	@ zero_extendqisi2
 4097 13b8 94F80F31 		ldrb	r3, [r4, #271]	@ zero_extendqisi2
 4098              	.LBE854:
 4099              	.LBB855:
 4100 13bc 9DF80D50 		ldrb	r5, [sp, #13]	@ zero_extendqisi2
 4101              	.LVL264:
 4102              	.LBE855:
 4103              	.LBB856:
 4104 13c0 84F80F31 		strb	r3, [r4, #271]
 4105 13c4 9B18     		adds	r3, r3, r2
 4106              	.LBE856:
 4107              	.LBB857:
 4108 13c6 2946     		mov	r1, r5
 4109              	.LBE857:
 4110              	.LBB858:
 4111 13c8 84F81031 		strb	r3, [r4, #272]
 4112              	.LBE858:
 4113              	.LBB859:
 4114 13cc 1748     		ldr	r0, .L117+4
 4115 13ce FFF7FEFF 		bl	uart_transmit
 4116 13d2 94F80F31 		ldrb	r3, [r4, #271]	@ zero_extendqisi2
 4117              	.LBE859:
 4118              	.LBB860:
 4119 13d6 1548     		ldr	r0, .L117+4
 4120              	.LBE860:
 4121              	.LBB861:
 4122 13d8 ED18     		adds	r5, r5, r3
 4123              	.LVL265:
 4124 13da 94F81031 		ldrb	r3, [r4, #272]	@ zero_extendqisi2
 4125 13de EDB2     		uxtb	r5, r5
 4126 13e0 84F80F51 		strb	r5, [r4, #271]
 4127 13e4 ED18     		adds	r5, r5, r3
 4128 13e6 84F81051 		strb	r5, [r4, #272]
 4129              	.LBE861:
 4130              	.LBB862:
 4131 13ea 9DF80E50 		ldrb	r5, [sp, #14]	@ zero_extendqisi2
 4132              	.LVL266:
 4133 13ee 2946     		mov	r1, r5
 4134 13f0 FFF7FEFF 		bl	uart_transmit
 4135 13f4 94F80F31 		ldrb	r3, [r4, #271]	@ zero_extendqisi2
 4136 13f8 ED18     		adds	r5, r5, r3
 4137              	.LVL267:
 4138 13fa 94F81031 		ldrb	r3, [r4, #272]	@ zero_extendqisi2
 4139 13fe EDB2     		uxtb	r5, r5
 4140 1400 84F80F51 		strb	r5, [r4, #271]
 4141 1404 ED18     		adds	r5, r5, r3
 4142 1406 84F81051 		strb	r5, [r4, #272]
 4143              	.LBE862:
 4144              	.LBB863:
 4145 140a 9DF80F50 		ldrb	r5, [sp, #15]	@ zero_extendqisi2
 4146              	.LVL268:
 4147              	.L96:
 4148 140e 2946     		mov	r1, r5
 4149 1410 0648     		ldr	r0, .L117+4
 4150 1412 FFF7FEFF 		bl	uart_transmit
 4151 1416 94F80F11 		ldrb	r1, [r4, #271]	@ zero_extendqisi2
 4152 141a 6D18     		adds	r5, r5, r1
 4153              	.LVL269:
 4154 141c E9B2     		uxtb	r1, r5
 4155 141e 84F80F11 		strb	r1, [r4, #271]
 4156 1422 FFF714BB 		b	.L92
 4157              	.L118:
 4158 1426 00BF     		.align	2
 4159              	.L117:
 4160 1428 00000000 		.word	.LANCHOR0
 4161 142c 00000000 		.word	uart3
 4162              	.LVL270:
 4163              	.L80:
 4164              	.LBE863:
 4165              	.LBE814:
 397:./modules/gps/gps_ubx_ucenter.c ****     break;
 398:./modules/gps/gps_ubx_ucenter.c ****   case 16:
 399:./modules/gps/gps_ubx_ucenter.c ****     // Debug Downlink the result of all configuration steps: see messages
 400:./modules/gps/gps_ubx_ucenter.c ****     DOWNLINK_SEND_DEBUG(DefaultChannel, DefaultDevice,GPS_UBX_UCENTER_CONFIG_STEPS,gps_ubx_ucenter.
 4166              		.loc 1 400 0
 4167 1430 3248     		ldr	r0, .L119
 4168 1432 1821     		movs	r1, #24
 4169 1434 FFF7FEFF 		bl	uart_check_free_space
 4170              	.LVL271:
 4171 1438 0028     		cmp	r0, #0
 4172 143a 4BD0     		beq	.L86
 4173 143c 304B     		ldr	r3, .L119+4
 4174              	.LBB864:
 4175 143e 2F48     		ldr	r0, .L119
 4176              	.LBE864:
 4177 1440 1A88     		ldrh	r2, [r3, #0]
 4178              	.LBB865:
 4179 1442 9921     		movs	r1, #153
 4180              	.LBE865:
 4181 1444 1832     		adds	r2, r2, #24
 4182 1446 1A80     		strh	r2, [r3, #0]	@ movhi
 4183 1448 2E4B     		ldr	r3, .L119+8
 4184 144a 2F4D     		ldr	r5, .L119+12
 4185 144c 1A88     		ldrh	r2, [r3, #0]
 4186 144e 2F4C     		ldr	r4, .L119+16
 4187 1450 0132     		adds	r2, r2, #1
 4188 1452 1A80     		strh	r2, [r3, #0]	@ movhi
 4189              	.LBB866:
 4190 1454 FFF7FEFF 		bl	uart_transmit
 4191              	.LVL272:
 4192 1458 2848     		ldr	r0, .L119
 4193 145a 1821     		movs	r1, #24
 4194 145c FFF7FEFF 		bl	uart_transmit
 4195              	.LBE866:
 4196 1460 1923     		movs	r3, #25
 4197 1462 2B70     		strb	r3, [r5, #0]
 4198 1464 3123     		movs	r3, #49
 4199 1466 2370     		strb	r3, [r4, #0]
 4200 1468 2448     		ldr	r0, .L119
 4201 146a 0121     		movs	r1, #1
 4202 146c FFF7FEFF 		bl	uart_transmit
 4203 1470 2B78     		ldrb	r3, [r5, #0]	@ zero_extendqisi2
 4204 1472 2278     		ldrb	r2, [r4, #0]	@ zero_extendqisi2
 4205 1474 1A33     		adds	r3, r3, #26
 4206 1476 DBB2     		uxtb	r3, r3
 4207 1478 2B70     		strb	r3, [r5, #0]
 4208 147a 9B18     		adds	r3, r3, r2
 4209 147c 2370     		strb	r3, [r4, #0]
 4210 147e 1F48     		ldr	r0, .L119
 4211 1480 1A21     		movs	r1, #26
 4212 1482 FFF7FEFF 		bl	uart_transmit
 4213              	.LBB867:
 4214 1486 2B78     		ldrb	r3, [r5, #0]	@ zero_extendqisi2
 4215 1488 2278     		ldrb	r2, [r4, #0]	@ zero_extendqisi2
 4216 148a 1133     		adds	r3, r3, #17
 4217 148c DBB2     		uxtb	r3, r3
 4218              	.LVL273:
 4219 148e 2B70     		strb	r3, [r5, #0]
 4220 1490 9B18     		adds	r3, r3, r2
 4221              	.LVL274:
 4222 1492 2370     		strb	r3, [r4, #0]
 4223 1494 1948     		ldr	r0, .L119
 4224 1496 1121     		movs	r1, #17
 4225 1498 FFF7FEFF 		bl	uart_transmit
 4226              	.LVL275:
 4227 149c 1C4E     		ldr	r6, .L119+20
  76:./modules/gps/gps_ubx_ucenter.c **** void gps_ubx_ucenter_periodic(void)
 4228              		.loc 1 76 0
 4229 149e 06F11107 		add	r7, r6, #17
 4230              	.LVL276:
 4231              	.L87:
 4232              	.LBB868:
 4233              		.loc 1 400 0
 4234 14a2 B17B     		ldrb	r1, [r6, #14]	@ zero_extendqisi2
 4235              	.LVL277:
 4236 14a4 2B78     		ldrb	r3, [r5, #0]	@ zero_extendqisi2
 4237 14a6 2278     		ldrb	r2, [r4, #0]	@ zero_extendqisi2
 4238 14a8 CB18     		adds	r3, r1, r3
 4239 14aa DBB2     		uxtb	r3, r3
 4240              	.LVL278:
 4241 14ac 2B70     		strb	r3, [r5, #0]
 4242 14ae 9B18     		adds	r3, r3, r2
 4243              	.LVL279:
 4244 14b0 2370     		strb	r3, [r4, #0]
 4245 14b2 1248     		ldr	r0, .L119
 4246 14b4 0136     		adds	r6, r6, #1
 4247 14b6 FFF7FEFF 		bl	uart_transmit
 4248              	.LVL280:
 4249              	.LBE868:
 4250 14ba BE42     		cmp	r6, r7
 4251 14bc F1D1     		bne	.L87
 4252              	.LBE867:
 4253 14be 124B     		ldr	r3, .L119+12
 4254 14c0 0E48     		ldr	r0, .L119
 4255 14c2 1978     		ldrb	r1, [r3, #0]	@ zero_extendqisi2
 4256 14c4 FFF7FEFF 		bl	uart_transmit
 4257 14c8 104B     		ldr	r3, .L119+16
 4258 14ca 0C48     		ldr	r0, .L119
 4259 14cc 1978     		ldrb	r1, [r3, #0]	@ zero_extendqisi2
 4260 14ce FFF7FEFF 		bl	uart_transmit
 4261 14d2 0DE0     		b	.L88
 4262              	.LVL281:
 4263              	.L86:
 4264 14d4 0F4B     		ldr	r3, .L119+24
 4265 14d6 1A78     		ldrb	r2, [r3, #0]	@ zero_extendqisi2
 4266 14d8 0132     		adds	r2, r2, #1
 4267 14da 1A70     		strb	r2, [r3, #0]
 4268 14dc 08E0     		b	.L88
 4269              	.LVL282:
 4270              	.L67:
 4271              	.LBE393:
 4272              	.LBE392:
 104:./modules/gps/gps_ubx_ucenter.c ****         gps_ubx_ucenter.cnt++;
 4273              		.loc 1 104 0
 4274 14de 0C4B     		ldr	r3, .L119+20
 4275 14e0 9A78     		ldrb	r2, [r3, #2]	@ zero_extendqisi2
 4276 14e2 0132     		adds	r2, r2, #1
 4277 14e4 07E0     		b	.L95
 4278              	.LVL283:
 4279              	.L62:
  87:./modules/gps/gps_ubx_ucenter.c ****         gps_ubx_ucenter.status = GPS_UBX_UCENTER_STATUS_CONFIG;
 4280              		.loc 1 87 0
 4281 14e6 0A4B     		ldr	r3, .L119+20
 4282 14e8 0222     		movs	r2, #2
 4283 14ea 1A70     		strb	r2, [r3, #0]
  88:./modules/gps/gps_ubx_ucenter.c ****         gps_ubx_ucenter.cnt = 0;
 4284              		.loc 1 88 0
 4285 14ec 0022     		movs	r2, #0
 4286 14ee 02E0     		b	.L95
 4287              	.L88:
  99:./modules/gps/gps_ubx_ucenter.c ****         gps_ubx_ucenter.status = GPS_UBX_UCENTER_STATUS_STOPPED;
 4288              		.loc 1 99 0
 4289 14f0 074B     		ldr	r3, .L119+20
 4290 14f2 0022     		movs	r2, #0
 4291 14f4 1A70     		strb	r2, [r3, #0]
 4292              	.LVL284:
 4293              	.L95:
 100:./modules/gps/gps_ubx_ucenter.c ****         gps_ubx_ucenter.cnt = 0;
 4294              		.loc 1 100 0
 4295 14f6 9A70     		strb	r2, [r3, #2]
 4296              	.L50:
 112:./modules/gps/gps_ubx_ucenter.c **** }
 4297              		.loc 1 112 0
 4298 14f8 0BB0     		add	sp, sp, #44
 4299 14fa F0BD     		pop	{r4, r5, r6, r7, pc}
 4300              	.L120:
 4301              		.align	2
 4302              	.L119:
 4303 14fc 00000000 		.word	uart2
 4304 1500 00000000 		.word	downlink_nb_bytes
 4305 1504 00000000 		.word	downlink_nb_msgs
 4306 1508 00000000 		.word	ck_a
 4307 150c 00000000 		.word	ck_b
 4308 1510 00000000 		.word	.LANCHOR1
 4309 1514 00000000 		.word	downlink_nb_ovrn
 4310              		.cfi_endproc
 4311              	.LFE31:
 4313              		.section	.text.gps_ubx_ucenter_event,"ax",%progbits
 4314              		.align	1
 4315              		.global	gps_ubx_ucenter_event
 4316              		.thumb
 4317              		.thumb_func
 4319              	gps_ubx_ucenter_event:
 4320              	.LFB32:
 119:./modules/gps/gps_ubx_ucenter.c **** {
 4321              		.loc 1 119 0
 4322              		.cfi_startproc
 4323              		@ args = 0, pretend = 0, frame = 0
 4324              		@ frame_needed = 0, uses_anonymous_args = 0
 4325 0000 10B5     		push	{r4, lr}
 4326              	.LCFI6:
 4327              		.cfi_def_cfa_offset 8
 4328              		.cfi_offset 14, -4
 4329              		.cfi_offset 4, -8
 121:./modules/gps/gps_ubx_ucenter.c ****   if (gps_ubx_ucenter.status == GPS_UBX_UCENTER_STATUS_STOPPED)
 4330              		.loc 1 121 0
 4331 0002 194A     		ldr	r2, .L126
 4332 0004 1378     		ldrb	r3, [r2, #0]	@ zero_extendqisi2
 4333 0006 73B3     		cbz	r3, .L121
 125:./modules/gps/gps_ubx_ucenter.c ****   if (gps_ubx.msg_class == UBX_ACK_ID) {
 4334              		.loc 1 125 0
 4335 0008 184B     		ldr	r3, .L126+4
 4336 000a 93F80811 		ldrb	r1, [r3, #264]	@ zero_extendqisi2
 4337 000e 0529     		cmp	r1, #5
 4338 0010 06D1     		bne	.L123
 126:./modules/gps/gps_ubx_ucenter.c ****     if (gps_ubx.msg_id == UBX_ACK_ACK_ID) {
 4339              		.loc 1 126 0
 4340 0012 93F80731 		ldrb	r3, [r3, #263]	@ zero_extendqisi2
 4341 0016 012B     		cmp	r3, #1
 131:./modules/gps/gps_ubx_ucenter.c ****       gps_ubx_ucenter.reply = GPS_UBX_UCENTER_REPLY_NACK;
 4342              		.loc 1 131 0
 4343 0018 18BF     		it	ne
 4344 001a 0223     		movne	r3, #2
 4345 001c 5370     		strb	r3, [r2, #1]
 4346 001e 10BD     		pop	{r4, pc}
 4347              	.L123:
 135:./modules/gps/gps_ubx_ucenter.c ****   else if (gps_ubx.msg_class == UBX_MON_ID) {
 4348              		.loc 1 135 0
 4349 0020 0A29     		cmp	r1, #10
 4350 0022 20D1     		bne	.L121
 136:./modules/gps/gps_ubx_ucenter.c ****     if (gps_ubx.msg_id == UBX_MON_VER_ID ) {
 4351              		.loc 1 136 0
 4352 0024 93F80701 		ldrb	r0, [r3, #263]	@ zero_extendqisi2
 4353 0028 0428     		cmp	r0, #4
 4354 002a 1CD1     		bne	.L121
 137:./modules/gps/gps_ubx_ucenter.c ****       gps_ubx_ucenter.reply = GPS_UBX_UCENTER_REPLY_VERSION;
 4355              		.loc 1 137 0
 4356 002c 0320     		movs	r0, #3
 4357 002e 5070     		strb	r0, [r2, #1]
 138:./modules/gps/gps_ubx_ucenter.c ****       gps_ubx_ucenter.sw_ver_h = UBX_MON_VER_c(gps_ubx.msg_buf,0) - '0';
 4358              		.loc 1 138 0
 4359 0030 187A     		ldrb	r0, [r3, #8]	@ zero_extendqisi2
 139:./modules/gps/gps_ubx_ucenter.c ****       gps_ubx_ucenter.sw_ver_l = 10*(UBX_MON_VER_c(gps_ubx.msg_buf,2) - '0');
 4360              		.loc 1 139 0
 4361 0032 9C7A     		ldrb	r4, [r3, #10]	@ zero_extendqisi2
 138:./modules/gps/gps_ubx_ucenter.c ****       gps_ubx_ucenter.sw_ver_h = UBX_MON_VER_c(gps_ubx.msg_buf,0) - '0';
 4362              		.loc 1 138 0
 4363 0034 3038     		subs	r0, r0, #48
 4364 0036 1072     		strb	r0, [r2, #8]
 140:./modules/gps/gps_ubx_ucenter.c ****       gps_ubx_ucenter.sw_ver_l += UBX_MON_VER_c(gps_ubx.msg_buf,3) - '0';
 4365              		.loc 1 140 0
 4366 0038 D87A     		ldrb	r0, [r3, #11]	@ zero_extendqisi2
 4367 003a 1038     		subs	r0, r0, #16
 4368 003c 01FB0400 		mla	r0, r1, r4, r0
 4369 0040 5072     		strb	r0, [r2, #9]
 141:./modules/gps/gps_ubx_ucenter.c ****       gps_ubx_ucenter.hw_ver_h = UBX_MON_VER_c(gps_ubx.msg_buf,33) - '0';
 4370              		.loc 1 141 0
 4371 0042 93F82900 		ldrb	r0, [r3, #41]	@ zero_extendqisi2
 142:./modules/gps/gps_ubx_ucenter.c ****       gps_ubx_ucenter.hw_ver_h += 10*(UBX_MON_VER_c(gps_ubx.msg_buf,32) - '0');
 4372              		.loc 1 142 0
 4373 0046 93F82840 		ldrb	r4, [r3, #40]	@ zero_extendqisi2
 4374 004a A0F50470 		sub	r0, r0, #528
 4375 004e 01FB0400 		mla	r0, r1, r4, r0
 4376 0052 5081     		strh	r0, [r2, #10]	@ movhi
 143:./modules/gps/gps_ubx_ucenter.c ****       gps_ubx_ucenter.hw_ver_l = UBX_MON_VER_c(gps_ubx.msg_buf,37) - '0';
 4377              		.loc 1 143 0
 4378 0054 93F82D00 		ldrb	r0, [r3, #45]	@ zero_extendqisi2
 144:./modules/gps/gps_ubx_ucenter.c ****       gps_ubx_ucenter.hw_ver_l += 10*(UBX_MON_VER_c(gps_ubx.msg_buf,36) - '0');
 4379              		.loc 1 144 0
 4380 0058 93F82C30 		ldrb	r3, [r3, #44]	@ zero_extendqisi2
 4381 005c A0F50470 		sub	r0, r0, #528
 4382 0060 01FB0301 		mla	r1, r1, r3, r0
 4383 0064 9181     		strh	r1, [r2, #12]	@ movhi
 4384              	.L121:
 4385 0066 10BD     		pop	{r4, pc}
 4386              	.L127:
 4387              		.align	2
 4388              	.L126:
 4389 0068 00000000 		.word	.LANCHOR1
 4390 006c 00000000 		.word	.LANCHOR0
 4391              		.cfi_endproc
 4392              	.LFE32:
 4394              		.section	.text.ubxsend_cfg_rst,"ax",%progbits
 4395              		.align	1
 4396              		.global	ubxsend_cfg_rst
 4397              		.thumb
 4398              		.thumb_func
 4400              	ubxsend_cfg_rst:
 4401              	.LFB43:
 269:subsystems/gps/gps_ubx.c ****   return;
 270:subsystems/gps/gps_ubx.c **** }
 271:subsystems/gps/gps_ubx.c **** 
 272:subsystems/gps/gps_ubx.c **** #ifdef GPS_UBX_UCENTER
 273:subsystems/gps/gps_ubx.c **** #include GPS_UBX_UCENTER
 274:subsystems/gps/gps_ubx.c **** #endif
 275:subsystems/gps/gps_ubx.c **** 
 276:subsystems/gps/gps_ubx.c **** 
 277:subsystems/gps/gps_ubx.c **** void ubxsend_cfg_rst(uint16_t bbr , uint8_t reset_mode) {
 4402              		.loc 2 277 0
 4403              		.cfi_startproc
 4404              		@ args = 0, pretend = 0, frame = 8
 4405              		@ frame_needed = 0, uses_anonymous_args = 0
 4406              	.LVL285:
 4407 0000 2DE9F743 		push	{r0, r1, r2, r4, r5, r6, r7, r8, r9, lr}
 4408              	.LCFI7:
 4409              		.cfi_def_cfa_offset 40
 4410              		.cfi_offset 14, -4
 4411              		.cfi_offset 9, -8
 4412              		.cfi_offset 8, -12
 4413              		.cfi_offset 7, -16
 4414              		.cfi_offset 6, -20
 4415              		.cfi_offset 5, -24
 4416              		.cfi_offset 4, -28
 4417              		.cfi_offset 2, -32
 4418              		.cfi_offset 1, -36
 4419              		.cfi_offset 0, -40
 4420              	.LBB869:
 278:subsystems/gps/gps_ubx.c **** #ifdef GPS_LINK
 279:subsystems/gps/gps_ubx.c ****   UbxSend_CFG_RST(bbr, reset_mode, 0x00);
 4421              		.loc 2 279 0
 4422 0004 494D     		ldr	r5, .L129
 4423              	.LBE869:
 277:subsystems/gps/gps_ubx.c **** void ubxsend_cfg_rst(uint16_t bbr , uint8_t reset_mode) {
 4424              		.loc 2 277 0
 4425 0006 8146     		mov	r9, r0
 4426 0008 8846     		mov	r8, r1
 4427              	.LBB916:
 4428              		.loc 2 279 0
 4429 000a 2846     		mov	r0, r5
 4430              	.LVL286:
 4431 000c B521     		movs	r1, #181
 4432              	.LVL287:
 4433 000e 484C     		ldr	r4, .L129+4
 4434 0010 FFF7FEFF 		bl	uart_transmit
 4435 0014 2846     		mov	r0, r5
 4436 0016 6221     		movs	r1, #98
 4437 0018 FFF7FEFF 		bl	uart_transmit
 4438 001c 0026     		movs	r6, #0
 4439              	.LBB870:
 4440 001e 2846     		mov	r0, r5
 4441 0020 0621     		movs	r1, #6
 4442              	.LBE870:
 4443 0022 84F81061 		strb	r6, [r4, #272]
 4444 0026 84F80F61 		strb	r6, [r4, #271]
 4445              	.LVL288:
 4446              	.LBB871:
 4447 002a FFF7FEFF 		bl	uart_transmit
 4448 002e 94F80F31 		ldrb	r3, [r4, #271]	@ zero_extendqisi2
 4449 0032 94F81021 		ldrb	r2, [r4, #272]	@ zero_extendqisi2
 4450 0036 0633     		adds	r3, r3, #6
 4451 0038 DBB2     		uxtb	r3, r3
 4452 003a 84F80F31 		strb	r3, [r4, #271]
 4453              	.LBE871:
 4454              	.LBB872:
 4455 003e 2846     		mov	r0, r5
 4456              	.LBE872:
 4457              	.LBB873:
 4458 0040 9B18     		adds	r3, r3, r2
 4459              	.LBE873:
 4460              	.LBB874:
 4461 0042 0421     		movs	r1, #4
 4462              	.LBE874:
 4463              	.LBB875:
 4464 0044 84F81031 		strb	r3, [r4, #272]
 4465              	.LVL289:
 4466              	.LBE875:
 4467              	.LBB876:
 4468 0048 FFF7FEFF 		bl	uart_transmit
 4469 004c 94F80F31 		ldrb	r3, [r4, #271]	@ zero_extendqisi2
 4470 0050 94F81021 		ldrb	r2, [r4, #272]	@ zero_extendqisi2
 4471 0054 0433     		adds	r3, r3, #4
 4472 0056 DBB2     		uxtb	r3, r3
 4473 0058 84F80F31 		strb	r3, [r4, #271]
 4474              	.LBE876:
 4475              	.LBB877:
 4476              	.LBB878:
 4477 005c 2846     		mov	r0, r5
 4478              	.LBE878:
 4479              	.LBE877:
 4480              	.LBB888:
 4481 005e 9B18     		adds	r3, r3, r2
 4482              	.LBE888:
 4483              	.LBB889:
 4484              	.LBB879:
 4485 0060 0421     		movs	r1, #4
 4486              	.LBE879:
 4487              	.LBE889:
 4488              	.LBB890:
 4489 0062 84F81031 		strb	r3, [r4, #272]
 4490              	.LVL290:
 4491              	.LBE890:
 4492              	.LBB891:
 4493              	.LBB880:
 4494 0066 FFF7FEFF 		bl	uart_transmit
 4495 006a 94F80F31 		ldrb	r3, [r4, #271]	@ zero_extendqisi2
 4496 006e 94F81021 		ldrb	r2, [r4, #272]	@ zero_extendqisi2
 4497 0072 0433     		adds	r3, r3, #4
 4498 0074 DBB2     		uxtb	r3, r3
 4499 0076 84F80F31 		strb	r3, [r4, #271]
 4500              	.LBE880:
 4501              	.LBB881:
 4502 007a 2846     		mov	r0, r5
 4503              	.LBE881:
 4504              	.LBB882:
 4505 007c 9B18     		adds	r3, r3, r2
 4506              	.LBE882:
 4507              	.LBB883:
 4508 007e 3146     		mov	r1, r6
 4509              	.LBE883:
 4510              	.LBB884:
 4511 0080 84F81031 		strb	r3, [r4, #272]
 4512              	.LVL291:
 4513              	.LBE884:
 4514              	.LBE891:
 4515 0084 02AF     		add	r7, sp, #8
 4516              	.LBB892:
 4517              	.LBB885:
 4518 0086 FFF7FEFF 		bl	uart_transmit
 4519 008a 94F81021 		ldrb	r2, [r4, #272]	@ zero_extendqisi2
 4520 008e 94F80F31 		ldrb	r3, [r4, #271]	@ zero_extendqisi2
 4521              	.LBE885:
 4522              	.LBE892:
 4523 0092 27F8029D 		strh	r9, [r7, #-2]!	@ movhi
 4524              	.LVL292:
 4525              	.LBB893:
 4526 0096 5FFA89F9 		uxtb	r9, r9
 4527              	.LVL293:
 4528              	.LBE893:
 4529              	.LBB894:
 4530              	.LBB886:
 4531 009a D318     		adds	r3, r2, r3
 4532              	.LBE886:
 4533              	.LBE894:
 4534              	.LBB895:
 4535 009c 2846     		mov	r0, r5
 4536 009e 4946     		mov	r1, r9
 4537              	.LBE895:
 4538              	.LBB896:
 4539              	.LBB887:
 4540 00a0 84F81031 		strb	r3, [r4, #272]
 4541              	.LBE887:
 4542              	.LBE896:
 4543              	.LBB897:
 4544 00a4 FFF7FEFF 		bl	uart_transmit
 4545 00a8 94F80F31 		ldrb	r3, [r4, #271]	@ zero_extendqisi2
 4546              	.LBE897:
 4547              	.LBB898:
 4548 00ac 7F78     		ldrb	r7, [r7, #1]	@ zero_extendqisi2
 4549              	.LVL294:
 4550              	.LBE898:
 4551              	.LBB899:
 4552 00ae 9944     		add	r9, r9, r3
 4553              	.LVL295:
 4554 00b0 94F81031 		ldrb	r3, [r4, #272]	@ zero_extendqisi2
 4555 00b4 5FFA89F9 		uxtb	r9, r9
 4556 00b8 84F80F91 		strb	r9, [r4, #271]
 4557              	.LBE899:
 4558              	.LBB900:
 4559 00bc 2846     		mov	r0, r5
 4560              	.LBE900:
 4561              	.LBB901:
 4562 00be 9944     		add	r9, r9, r3
 4563              	.LBE901:
 4564              	.LBB902:
 4565 00c0 3946     		mov	r1, r7
 4566              	.LBE902:
 4567              	.LBB903:
 4568 00c2 84F81091 		strb	r9, [r4, #272]
 4569              	.LBE903:
 4570              	.LBB904:
 4571 00c6 FFF7FEFF 		bl	uart_transmit
 4572 00ca 94F80F31 		ldrb	r3, [r4, #271]	@ zero_extendqisi2
 4573              	.LBE904:
 4574              	.LBB905:
 4575 00ce 2846     		mov	r0, r5
 4576              	.LBE905:
 4577              	.LBB906:
 4578 00d0 FF18     		adds	r7, r7, r3
 4579              	.LVL296:
 4580 00d2 94F81031 		ldrb	r3, [r4, #272]	@ zero_extendqisi2
 4581 00d6 FFB2     		uxtb	r7, r7
 4582 00d8 84F80F71 		strb	r7, [r4, #271]
 4583              	.LBE906:
 4584              	.LBB907:
 4585 00dc 4146     		mov	r1, r8
 4586              	.LBE907:
 4587              	.LBB908:
 4588 00de FF18     		adds	r7, r7, r3
 4589 00e0 84F81071 		strb	r7, [r4, #272]
 4590              	.LVL297:
 4591              	.LBE908:
 4592              	.LBB909:
 4593 00e4 FFF7FEFF 		bl	uart_transmit
 4594 00e8 94F80F31 		ldrb	r3, [r4, #271]	@ zero_extendqisi2
 4595              	.LBE909:
 4596              	.LBB910:
 4597 00ec 2846     		mov	r0, r5
 4598              	.LBE910:
 4599              	.LBB911:
 4600 00ee 9844     		add	r8, r8, r3
 4601              	.LVL298:
 4602 00f0 94F81031 		ldrb	r3, [r4, #272]	@ zero_extendqisi2
 4603 00f4 5FFA88F8 		uxtb	r8, r8
 4604 00f8 84F80F81 		strb	r8, [r4, #271]
 4605              	.LBE911:
 4606              	.LBB912:
 4607 00fc 3146     		mov	r1, r6
 4608              	.LBE912:
 4609              	.LBB913:
 4610 00fe 9844     		add	r8, r8, r3
 4611 0100 84F81081 		strb	r8, [r4, #272]
 4612              	.LVL299:
 4613              	.LBE913:
 4614              	.LBB914:
 4615 0104 FFF7FEFF 		bl	uart_transmit
 4616 0108 94F80F11 		ldrb	r1, [r4, #271]	@ zero_extendqisi2
 4617 010c 94F81031 		ldrb	r3, [r4, #272]	@ zero_extendqisi2
 4618              	.LBE914:
 4619 0110 2846     		mov	r0, r5
 4620              	.LBB915:
 4621 0112 CB18     		adds	r3, r1, r3
 4622 0114 84F81031 		strb	r3, [r4, #272]
 4623              	.LBE915:
 4624 0118 FFF7FEFF 		bl	uart_transmit
 4625 011c 94F81011 		ldrb	r1, [r4, #272]	@ zero_extendqisi2
 4626 0120 2846     		mov	r0, r5
 4627              	.LBE916:
 280:subsystems/gps/gps_ubx.c **** #endif /* else less harmful for HITL */
 281:subsystems/gps/gps_ubx.c **** }
 4628              		.loc 2 281 0
 4629 0122 03B0     		add	sp, sp, #12
 4630 0124 BDE8F043 		pop	{r4, r5, r6, r7, r8, r9, lr}
 4631              	.LBB917:
 279:subsystems/gps/gps_ubx.c ****   UbxSend_CFG_RST(bbr, reset_mode, 0x00);
 4632              		.loc 2 279 0
 4633 0128 FFF7FEBF 		b	uart_transmit
 4634              	.L130:
 4635              		.align	2
 4636              	.L129:
 4637 012c 00000000 		.word	uart3
 4638 0130 00000000 		.word	.LANCHOR0
 4639              	.LBE917:
 4640              		.cfi_endproc
 4641              	.LFE43:
 4643              		.global	gps_ubx_ucenter
 4644              		.global	gps_ubx
 4645              		.section	.bss.gps_ubx_ucenter,"aw",%nobits
 4646              		.align	1
 4647              		.set	.LANCHOR1,. + 0
 4650              	gps_ubx_ucenter:
 4651 0000 00000000 		.space	32
 4651      00000000 
 4651      00000000 
 4651      00000000 
 4651      00000000 
 4652              		.section	.bss.gps_ubx,"aw",%nobits
 4653              		.align	3
 4654              		.set	.LANCHOR0,. + 0
 4657              	gps_ubx:
 4658 0000 00000000 		.space	280
 4658      00000000 
 4658      00000000 
 4658      00000000 
 4658      00000000 
 4659              		.text
 4660              	.Letext0:
 4661              		.file 3 "/opt/paparazzi/arm-multilib/lib/gcc/arm-none-eabi/4.6.2/../../../../arm-none-eabi/include
 4662              		.file 4 "/home/mav/paparazzi/sw/include/std.h"
 4663              		.file 5 "./math/pprz_geodetic_int.h"
 4664              		.file 6 "./mcu_periph/uart.h"
 4665              		.file 7 "./subsystems/gps/gps_ubx.h"
 4666              		.file 8 "./subsystems/gps.h"
 4667              		.file 9 "./math/pprz_geodetic_float.h"
 4668              		.file 10 "./modules/gps/gps_ubx_ucenter.h"
 4669              		.file 11 "./subsystems/navigation/common_nav.h"
 4670              		.file 12 "./subsystems/datalink/datalink.h"
 4671              		.file 13 "./subsystems/datalink/pprz_transport.h"
 4672              		.file 14 "./subsystems/datalink/xbee.h"
 4673              		.file 15 "./subsystems/datalink/downlink.h"
DEFINED SYMBOLS
                            *ABS*:00000000 gps_ubx.c
     /tmp/ccx9mqTP.s:18     .text.gps_ubx_ucenter_enable_msg.constprop.0:00000000 $t
     /tmp/ccx9mqTP.s:22     .text.gps_ubx_ucenter_enable_msg.constprop.0:00000000 gps_ubx_ucenter_enable_msg.constprop.0
     /tmp/ccx9mqTP.s:279    .text.gps_ubx_ucenter_enable_msg.constprop.0:00000148 $d
     /tmp/ccx9mqTP.s:286    .text.gps_impl_init:00000000 $t
     /tmp/ccx9mqTP.s:291    .text.gps_impl_init:00000000 gps_impl_init
     /tmp/ccx9mqTP.s:316    .text.gps_impl_init:00000018 $d
     /tmp/ccx9mqTP.s:330    .text.gps_ubx_read_message:00000000 $t
     /tmp/ccx9mqTP.s:335    .text.gps_ubx_read_message:00000000 gps_ubx_read_message
     /tmp/ccx9mqTP.s:702    .text.gps_ubx_read_message:00000308 $d
     /tmp/ccx9mqTP.s:712    .text.gps_ubx_read_message:00000328 $t
     /tmp/ccx9mqTP.s:789    .text.gps_ubx_read_message:00000394 $d
     /tmp/ccx9mqTP.s:794    .text.gps_ubx_parse:00000000 $t
     /tmp/ccx9mqTP.s:799    .text.gps_ubx_parse:00000000 gps_ubx_parse
     /tmp/ccx9mqTP.s:833    .text.gps_ubx_parse:0000002a $d
     /tmp/ccx9mqTP.s:996    .text.gps_ubx_parse:00000100 $d
     /tmp/ccx9mqTP.s:1001   .text.gps_ubx_ucenter_init:00000000 $t
     /tmp/ccx9mqTP.s:1006   .text.gps_ubx_ucenter_init:00000000 gps_ubx_ucenter_init
     /tmp/ccx9mqTP.s:1058   .text.gps_ubx_ucenter_init:00000028 $d
     /tmp/ccx9mqTP.s:1063   .text.gps_ubx_ucenter_periodic:00000000 $t
     /tmp/ccx9mqTP.s:1068   .text.gps_ubx_ucenter_periodic:00000000 gps_ubx_ucenter_periodic
     /tmp/ccx9mqTP.s:1106   .text.gps_ubx_ucenter_periodic:00000022 $d
     /tmp/ccx9mqTP.s:1354   .text.gps_ubx_ucenter_periodic:000001c2 $d
     /tmp/ccx9mqTP.s:1373   .text.gps_ubx_ucenter_periodic:000001e4 $t
     /tmp/ccx9mqTP.s:1410   .text.gps_ubx_ucenter_periodic:00000230 $d
     /tmp/ccx9mqTP.s:1417   .text.gps_ubx_ucenter_periodic:0000023c $t
     /tmp/ccx9mqTP.s:1543   .text.gps_ubx_ucenter_periodic:0000030c $d
     /tmp/ccx9mqTP.s:1552   .text.gps_ubx_ucenter_periodic:00000328 $t
     /tmp/ccx9mqTP.s:2019   .text.gps_ubx_ucenter_periodic:0000062c $d
     /tmp/ccx9mqTP.s:2028   .text.gps_ubx_ucenter_periodic:00000638 $t
     /tmp/ccx9mqTP.s:2545   .text.gps_ubx_ucenter_periodic:000009a8 $d
     /tmp/ccx9mqTP.s:2548   .text.gps_ubx_ucenter_periodic:000009b0 $t
     /tmp/ccx9mqTP.s:2657   .text.gps_ubx_ucenter_periodic:00000a6c $d
     /tmp/ccx9mqTP.s:2663   .text.gps_ubx_ucenter_periodic:00000a70 $t
     /tmp/ccx9mqTP.s:3212   .text.gps_ubx_ucenter_periodic:00000ddc $d
     /tmp/ccx9mqTP.s:3216   .text.gps_ubx_ucenter_periodic:00000de0 $t
     /tmp/ccx9mqTP.s:3664   .text.gps_ubx_ucenter_periodic:000010cc $d
     /tmp/ccx9mqTP.s:3674   .text.gps_ubx_ucenter_periodic:000010d4 $t
     /tmp/ccx9mqTP.s:4160   .text.gps_ubx_ucenter_periodic:00001428 $d
     /tmp/ccx9mqTP.s:4167   .text.gps_ubx_ucenter_periodic:00001430 $t
     /tmp/ccx9mqTP.s:4303   .text.gps_ubx_ucenter_periodic:000014fc $d
     /tmp/ccx9mqTP.s:4314   .text.gps_ubx_ucenter_event:00000000 $t
     /tmp/ccx9mqTP.s:4319   .text.gps_ubx_ucenter_event:00000000 gps_ubx_ucenter_event
     /tmp/ccx9mqTP.s:4389   .text.gps_ubx_ucenter_event:00000068 $d
     /tmp/ccx9mqTP.s:4395   .text.ubxsend_cfg_rst:00000000 $t
     /tmp/ccx9mqTP.s:4400   .text.ubxsend_cfg_rst:00000000 ubxsend_cfg_rst
     /tmp/ccx9mqTP.s:4637   .text.ubxsend_cfg_rst:0000012c $d
     /tmp/ccx9mqTP.s:4650   .bss.gps_ubx_ucenter:00000000 gps_ubx_ucenter
     /tmp/ccx9mqTP.s:4657   .bss.gps_ubx:00000000 gps_ubx
     /tmp/ccx9mqTP.s:4646   .bss.gps_ubx_ucenter:00000000 $d
     /tmp/ccx9mqTP.s:4653   .bss.gps_ubx:00000000 $d
                     .debug_frame:00000010 $d
     /tmp/ccx9mqTP.s:842    .text.gps_ubx_parse:00000033 $d
     /tmp/ccx9mqTP.s:842    .text.gps_ubx_parse:00000034 $t
     /tmp/ccx9mqTP.s:1111   .text.gps_ubx_ucenter_periodic:00000027 $d
     /tmp/ccx9mqTP.s:1111   .text.gps_ubx_ucenter_periodic:00000028 $t

UNDEFINED SYMBOLS
uart_transmit
uart3
__aeabi_i2d
__aeabi_dmul
__aeabi_d2iz
__aeabi_i2f
__aeabi_fdiv
__aeabi_fmul
__aeabi_f2iz
__aeabi_ui2d
__aeabi_d2uiz
utm_of_lla_f
gps
nav_utm_zone0
uart_periph_set_baudrate
uart_check_free_space
uart2
downlink_nb_bytes
downlink_nb_msgs
ck_a
ck_b
downlink_nb_ovrn
