   1              		.syntax unified
   2              		.cpu cortex-m3
   3              		.fpu softvfp
   4              		.eabi_attribute 20, 1
   5              		.eabi_attribute 21, 1
   6              		.eabi_attribute 23, 3
   7              		.eabi_attribute 24, 1
   8              		.eabi_attribute 25, 1
   9              		.eabi_attribute 26, 1
  10              		.eabi_attribute 30, 4
  11              		.eabi_attribute 18, 4
  12              		.thumb
  13              		.file	"main_ap.c"
  14              		.text
  15              	.Ltext0:
  16              		.cfi_sections	.debug_frame
  17              		.section	.text.init_ap,"ax",%progbits
  18              		.align	1
  19              		.global	init_ap
  20              		.thumb
  21              		.thumb_func
  23              	init_ap:
  24              	.LFB49:
  25              		.file 1 "firmwares/fixedwing/main_ap.c"
   1:firmwares/fixedwing/main_ap.c **** /*
   2:firmwares/fixedwing/main_ap.c ****  * $Id$
   3:firmwares/fixedwing/main_ap.c ****  *
   4:firmwares/fixedwing/main_ap.c ****  * Copyright (C) 2003-2010  The Paparazzi Team
   5:firmwares/fixedwing/main_ap.c ****  *
   6:firmwares/fixedwing/main_ap.c ****  * This file is part of paparazzi.
   7:firmwares/fixedwing/main_ap.c ****  *
   8:firmwares/fixedwing/main_ap.c ****  * paparazzi is free software; you can redistribute it and/or modify
   9:firmwares/fixedwing/main_ap.c ****  * it under the terms of the GNU General Public License as published by
  10:firmwares/fixedwing/main_ap.c ****  * the Free Software Foundation; either version 2, or (at your option)
  11:firmwares/fixedwing/main_ap.c ****  * any later version.
  12:firmwares/fixedwing/main_ap.c ****  *
  13:firmwares/fixedwing/main_ap.c ****  * paparazzi is distributed in the hope that it will be useful,
  14:firmwares/fixedwing/main_ap.c ****  * but WITHOUT ANY WARRANTY; without even the implied warranty of
  15:firmwares/fixedwing/main_ap.c ****  * MERCHANTABILITY or FITNESS FOR A PARTICULAR PURPOSE.  See the
  16:firmwares/fixedwing/main_ap.c ****  * GNU General Public License for more details.
  17:firmwares/fixedwing/main_ap.c ****  *
  18:firmwares/fixedwing/main_ap.c ****  * You should have received a copy of the GNU General Public License
  19:firmwares/fixedwing/main_ap.c ****  * along with paparazzi; see the file COPYING.  If not, write to
  20:firmwares/fixedwing/main_ap.c ****  * the Free Software Foundation, 59 Temple Place - Suite 330,
  21:firmwares/fixedwing/main_ap.c ****  * Boston, MA 02111-1307, USA.
  22:firmwares/fixedwing/main_ap.c ****  *
  23:firmwares/fixedwing/main_ap.c ****  */
  24:firmwares/fixedwing/main_ap.c **** 
  25:firmwares/fixedwing/main_ap.c **** /**
  26:firmwares/fixedwing/main_ap.c ****  * @file main_ap.c
  27:firmwares/fixedwing/main_ap.c ****  * AP ( AutoPilot ) tasks
  28:firmwares/fixedwing/main_ap.c ****  *
  29:firmwares/fixedwing/main_ap.c ****  * This process is reponsible for the collecting the different sensors data, fusing them to obtain
  30:firmwares/fixedwing/main_ap.c ****  * aircraft attitude and running the different control loops
  31:firmwares/fixedwing/main_ap.c ****  */
  32:firmwares/fixedwing/main_ap.c **** 
  33:firmwares/fixedwing/main_ap.c **** #define MODULES_C
  34:firmwares/fixedwing/main_ap.c **** 
  35:firmwares/fixedwing/main_ap.c **** #include <math.h>
  36:firmwares/fixedwing/main_ap.c **** 
  37:firmwares/fixedwing/main_ap.c **** #include "firmwares/fixedwing/main_ap.h"
  38:firmwares/fixedwing/main_ap.c **** #include "mcu.h"
  39:firmwares/fixedwing/main_ap.c **** #include "mcu_periph/sys_time.h"
  40:firmwares/fixedwing/main_ap.c **** 
  41:firmwares/fixedwing/main_ap.c **** #include "link_mcu.h"
  42:firmwares/fixedwing/main_ap.c **** 
  43:firmwares/fixedwing/main_ap.c **** // Sensors
  44:firmwares/fixedwing/main_ap.c **** #if USE_GPS
  45:firmwares/fixedwing/main_ap.c **** #include "subsystems/gps.h"
  46:firmwares/fixedwing/main_ap.c **** #endif
  47:firmwares/fixedwing/main_ap.c **** #if USE_IMU
  48:firmwares/fixedwing/main_ap.c **** #include "subsystems/imu.h"
  49:firmwares/fixedwing/main_ap.c **** #endif
  50:firmwares/fixedwing/main_ap.c **** #if USE_AHRS
  51:firmwares/fixedwing/main_ap.c **** #include "subsystems/ahrs.h"
  52:firmwares/fixedwing/main_ap.c **** #endif
  53:firmwares/fixedwing/main_ap.c **** #if USE_AHRS_ALIGNER
  54:firmwares/fixedwing/main_ap.c **** #include "subsystems/ahrs/ahrs_aligner.h"
  55:firmwares/fixedwing/main_ap.c **** #endif
  56:firmwares/fixedwing/main_ap.c **** 
  57:firmwares/fixedwing/main_ap.c **** // autopilot & control
  58:firmwares/fixedwing/main_ap.c **** #include "firmwares/fixedwing/autopilot.h"
  59:firmwares/fixedwing/main_ap.c **** #include "estimator.h"
  60:firmwares/fixedwing/main_ap.c **** #include "firmwares/fixedwing/stabilization/stabilization_attitude.h"
  61:firmwares/fixedwing/main_ap.c **** #include "firmwares/fixedwing/guidance/guidance_v.h"
  62:firmwares/fixedwing/main_ap.c **** #include "subsystems/nav.h"
  63:firmwares/fixedwing/main_ap.c **** #include "generated/flight_plan.h"
  64:firmwares/fixedwing/main_ap.c **** #ifdef TRAFFIC_INFO
  65:firmwares/fixedwing/main_ap.c **** #include "subsystems/navigation/traffic_info.h"
  66:firmwares/fixedwing/main_ap.c **** #endif
  67:firmwares/fixedwing/main_ap.c **** 
  68:firmwares/fixedwing/main_ap.c **** // datalink & telemetry
  69:firmwares/fixedwing/main_ap.c **** #include "subsystems/datalink/datalink.h"
  70:firmwares/fixedwing/main_ap.c **** #include "subsystems/settings.h"
  71:firmwares/fixedwing/main_ap.c **** #include "subsystems/datalink/xbee.h"
  72:firmwares/fixedwing/main_ap.c **** #include "firmwares/fixedwing/ap_downlink.h"
  73:firmwares/fixedwing/main_ap.c **** 
  74:firmwares/fixedwing/main_ap.c **** // modules & settings
  75:firmwares/fixedwing/main_ap.c **** #include "generated/modules.h"
  76:firmwares/fixedwing/main_ap.c **** #include "generated/settings.h"
  77:firmwares/fixedwing/main_ap.c **** #if defined RADIO_CONTROL || defined RADIO_CONTROL_AUTO1
  78:firmwares/fixedwing/main_ap.c **** #include "rc_settings.h"
  79:firmwares/fixedwing/main_ap.c **** #endif
  80:firmwares/fixedwing/main_ap.c **** 
  81:firmwares/fixedwing/main_ap.c **** #include "gpio.h"
  82:firmwares/fixedwing/main_ap.c **** #include "led.h"
  83:firmwares/fixedwing/main_ap.c **** 
  84:firmwares/fixedwing/main_ap.c **** #if defined RADIO_CONTROL
  85:firmwares/fixedwing/main_ap.c **** #pragma message "CAUTION! radio control roll channel input has been changed to follow aerospace sig
  86:firmwares/fixedwing/main_ap.c **** #endif
  87:firmwares/fixedwing/main_ap.c **** 
  88:firmwares/fixedwing/main_ap.c **** 
  89:firmwares/fixedwing/main_ap.c **** 
  90:firmwares/fixedwing/main_ap.c **** #if USE_AHRS
  91:firmwares/fixedwing/main_ap.c **** #if USE_IMU
  92:firmwares/fixedwing/main_ap.c **** static inline void on_gyro_event( void );
  93:firmwares/fixedwing/main_ap.c **** static inline void on_accel_event( void );
  94:firmwares/fixedwing/main_ap.c **** static inline void on_mag_event( void );
  95:firmwares/fixedwing/main_ap.c **** volatile uint8_t ahrs_timeout_counter = 0;
  96:firmwares/fixedwing/main_ap.c **** #else
  97:firmwares/fixedwing/main_ap.c **** static inline void on_ahrs_event(void);
  98:firmwares/fixedwing/main_ap.c **** #endif // USE_IMU
  99:firmwares/fixedwing/main_ap.c **** #endif // USE_AHRS
 100:firmwares/fixedwing/main_ap.c **** 
 101:firmwares/fixedwing/main_ap.c **** #if USE_GPS
 102:firmwares/fixedwing/main_ap.c **** static inline void on_gps_solution( void );
 103:firmwares/fixedwing/main_ap.c **** #endif
 104:firmwares/fixedwing/main_ap.c **** 
 105:firmwares/fixedwing/main_ap.c **** 
 106:firmwares/fixedwing/main_ap.c **** bool_t power_switch;
 107:firmwares/fixedwing/main_ap.c **** 
 108:firmwares/fixedwing/main_ap.c **** // what version is this ????
 109:firmwares/fixedwing/main_ap.c **** static const uint16_t version = 1;
 110:firmwares/fixedwing/main_ap.c **** 
 111:firmwares/fixedwing/main_ap.c **** uint8_t pprz_mode = PPRZ_MODE_AUTO2;
 112:firmwares/fixedwing/main_ap.c **** uint8_t lateral_mode = LATERAL_MODE_MANUAL;
 113:firmwares/fixedwing/main_ap.c **** 
 114:firmwares/fixedwing/main_ap.c **** static uint8_t  mcu1_status;
 115:firmwares/fixedwing/main_ap.c **** 
 116:firmwares/fixedwing/main_ap.c **** #if defined RADIO_CONTROL || defined RADIO_CONTROL_AUTO1
 117:firmwares/fixedwing/main_ap.c **** static uint8_t  mcu1_ppm_cpt;
 118:firmwares/fixedwing/main_ap.c **** #endif
 119:firmwares/fixedwing/main_ap.c **** 
 120:firmwares/fixedwing/main_ap.c **** bool_t kill_throttle = FALSE;
 121:firmwares/fixedwing/main_ap.c **** 
 122:firmwares/fixedwing/main_ap.c **** bool_t launch = FALSE;
 123:firmwares/fixedwing/main_ap.c **** 
 124:firmwares/fixedwing/main_ap.c **** 
 125:firmwares/fixedwing/main_ap.c **** /** Supply voltage in deciVolt.
 126:firmwares/fixedwing/main_ap.c ****  * This the ap copy of the measurement from fbw
 127:firmwares/fixedwing/main_ap.c ****  */
 128:firmwares/fixedwing/main_ap.c **** uint8_t vsupply;
 129:firmwares/fixedwing/main_ap.c **** 
 130:firmwares/fixedwing/main_ap.c **** /** Supply current in milliAmpere.
 131:firmwares/fixedwing/main_ap.c ****  * This the ap copy of the measurement from fbw
 132:firmwares/fixedwing/main_ap.c ****  */
 133:firmwares/fixedwing/main_ap.c **** static int32_t current;	// milliAmpere
 134:firmwares/fixedwing/main_ap.c **** 
 135:firmwares/fixedwing/main_ap.c **** /** Fuel consumption (mAh)
 136:firmwares/fixedwing/main_ap.c ****  * TODO: move to electrical subsystem
 137:firmwares/fixedwing/main_ap.c ****  */
 138:firmwares/fixedwing/main_ap.c **** float energy;
 139:firmwares/fixedwing/main_ap.c **** 
 140:firmwares/fixedwing/main_ap.c **** bool_t gps_lost = FALSE;
 141:firmwares/fixedwing/main_ap.c **** 
 142:firmwares/fixedwing/main_ap.c **** 
 143:firmwares/fixedwing/main_ap.c **** tid_t modules_tid;     ///< id for modules_periodic_task() timer
 144:firmwares/fixedwing/main_ap.c **** tid_t telemetry_tid;   ///< id for telemetry_periodic() timer
 145:firmwares/fixedwing/main_ap.c **** tid_t sensors_tid;     ///< id for sensors_task() timer
 146:firmwares/fixedwing/main_ap.c **** tid_t attitude_tid;    ///< id for attitude_loop() timer
 147:firmwares/fixedwing/main_ap.c **** tid_t navigation_tid;  ///< id for navigation_task() timer
 148:firmwares/fixedwing/main_ap.c **** tid_t monitor_tid;     ///< id for monitor_task() timer
 149:firmwares/fixedwing/main_ap.c **** 
 150:firmwares/fixedwing/main_ap.c **** #ifndef CONTROL_FREQUENCY
 151:firmwares/fixedwing/main_ap.c **** #ifdef  CONTROL_RATE
 152:firmwares/fixedwing/main_ap.c **** #define CONTROL_FREQUENCY CONTROL_RATE
 153:firmwares/fixedwing/main_ap.c **** //#warning "CONTROL_RATE deprecated. Renamed into CONTROL_FREQUENCY (in airframe file)"
 154:firmwares/fixedwing/main_ap.c **** #else
 155:firmwares/fixedwing/main_ap.c **** #define CONTROL_FREQUENCY 20
 156:firmwares/fixedwing/main_ap.c **** #endif
 157:firmwares/fixedwing/main_ap.c **** #endif
 158:firmwares/fixedwing/main_ap.c **** 
 159:firmwares/fixedwing/main_ap.c **** #ifndef NAVIGATION_FREQUENCY
 160:firmwares/fixedwing/main_ap.c **** #define NAVIGATION_FREQUENCY 4
 161:firmwares/fixedwing/main_ap.c **** #endif
 162:firmwares/fixedwing/main_ap.c **** 
 163:firmwares/fixedwing/main_ap.c **** #ifndef MODULES_FREQUENCY
 164:firmwares/fixedwing/main_ap.c **** #define MODULES_FREQUENCY 60
 165:firmwares/fixedwing/main_ap.c **** #endif
 166:firmwares/fixedwing/main_ap.c **** 
 167:firmwares/fixedwing/main_ap.c **** void init_ap( void ) {
  26              		.loc 1 167 0
  27              		.cfi_startproc
  28              		@ args = 0, pretend = 0, frame = 0
  29              		@ frame_needed = 0, uses_anonymous_args = 0
  30 0000 10B5     		push	{r4, lr}
  31              	.LCFI0:
  32              		.cfi_def_cfa_offset 8
  33              		.cfi_offset 14, -4
  34              		.cfi_offset 4, -8
 168:firmwares/fixedwing/main_ap.c **** #ifndef SINGLE_MCU /** init done in main_fbw in single MCU */
 169:firmwares/fixedwing/main_ap.c ****   mcu_init();
 170:firmwares/fixedwing/main_ap.c **** #endif /* SINGLE_MCU */
 171:firmwares/fixedwing/main_ap.c **** 
 172:firmwares/fixedwing/main_ap.c ****   /************* Sensors initialization ***************/
 173:firmwares/fixedwing/main_ap.c **** #if USE_GPS
 174:firmwares/fixedwing/main_ap.c ****   gps_init();
  35              		.loc 1 174 0
  36 0002 FFF7FEFF 		bl	gps_init
 175:firmwares/fixedwing/main_ap.c **** #endif
 176:firmwares/fixedwing/main_ap.c **** 
 177:firmwares/fixedwing/main_ap.c **** #ifdef USE_GPIO
 178:firmwares/fixedwing/main_ap.c ****   GpioInit();
 179:firmwares/fixedwing/main_ap.c **** #endif
 180:firmwares/fixedwing/main_ap.c **** 
 181:firmwares/fixedwing/main_ap.c **** #if USE_IMU
 182:firmwares/fixedwing/main_ap.c ****   imu_init();
  37              		.loc 1 182 0
  38 0006 FFF7FEFF 		bl	imu_init
 183:firmwares/fixedwing/main_ap.c **** #endif
 184:firmwares/fixedwing/main_ap.c **** 
 185:firmwares/fixedwing/main_ap.c **** #if USE_AHRS_ALIGNER
 186:firmwares/fixedwing/main_ap.c ****   ahrs_aligner_init();
  39              		.loc 1 186 0
  40 000a FFF7FEFF 		bl	ahrs_aligner_init
 187:firmwares/fixedwing/main_ap.c **** #endif
 188:firmwares/fixedwing/main_ap.c **** 
 189:firmwares/fixedwing/main_ap.c **** #if USE_AHRS
 190:firmwares/fixedwing/main_ap.c ****   ahrs_init();
  41              		.loc 1 190 0
  42 000e FFF7FEFF 		bl	ahrs_init
 191:firmwares/fixedwing/main_ap.c **** #endif
 192:firmwares/fixedwing/main_ap.c **** 
 193:firmwares/fixedwing/main_ap.c ****   /************* Links initialization ***************/
 194:firmwares/fixedwing/main_ap.c **** #if defined MCU_SPI_LINK
 195:firmwares/fixedwing/main_ap.c ****   link_mcu_init();
 196:firmwares/fixedwing/main_ap.c **** #endif
 197:firmwares/fixedwing/main_ap.c **** #if USE_AUDIO_TELEMETRY
 198:firmwares/fixedwing/main_ap.c ****   audio_telemetry_init();
 199:firmwares/fixedwing/main_ap.c **** #endif
 200:firmwares/fixedwing/main_ap.c **** 
 201:firmwares/fixedwing/main_ap.c ****   /************ Internal status ***************/
 202:firmwares/fixedwing/main_ap.c ****   h_ctl_init();
  43              		.loc 1 202 0
  44 0012 FFF7FEFF 		bl	h_ctl_init
 203:firmwares/fixedwing/main_ap.c ****   v_ctl_init();
  45              		.loc 1 203 0
  46 0016 FFF7FEFF 		bl	v_ctl_init
 204:firmwares/fixedwing/main_ap.c ****   estimator_init();
  47              		.loc 1 204 0
  48 001a FFF7FEFF 		bl	estimator_init
 205:firmwares/fixedwing/main_ap.c **** #ifdef ALT_KALMAN
 206:firmwares/fixedwing/main_ap.c ****   alt_kalman_init();
 207:firmwares/fixedwing/main_ap.c **** #endif
 208:firmwares/fixedwing/main_ap.c ****   nav_init();
  49              		.loc 1 208 0
  50 001e FFF7FEFF 		bl	nav_init
  51              	.LBB101:
  52              	.LBB102:
  53              		.file 2 "/home/mav/paparazzi/var/Radian/generated/modules.h"
   1:/home/mav/paparazzi/var/Radian/generated/modules.h **** /* This file has been generated from /home/mav/paparazzi/conf/airframes/UniversityOfArizona/radian_
   2:/home/mav/paparazzi/var/Radian/generated/modules.h **** /* Please DO NOT EDIT */
   3:/home/mav/paparazzi/var/Radian/generated/modules.h **** 
   4:/home/mav/paparazzi/var/Radian/generated/modules.h **** #ifndef MODULES_H
   5:/home/mav/paparazzi/var/Radian/generated/modules.h **** #define MODULES_H
   6:/home/mav/paparazzi/var/Radian/generated/modules.h **** 
   7:/home/mav/paparazzi/var/Radian/generated/modules.h **** #define MODULES_IDLE  0
   8:/home/mav/paparazzi/var/Radian/generated/modules.h **** #define MODULES_RUN   1
   9:/home/mav/paparazzi/var/Radian/generated/modules.h **** #define MODULES_START 2
  10:/home/mav/paparazzi/var/Radian/generated/modules.h **** #define MODULES_STOP  3
  11:/home/mav/paparazzi/var/Radian/generated/modules.h **** 
  12:/home/mav/paparazzi/var/Radian/generated/modules.h **** #ifdef MODULES_C
  13:/home/mav/paparazzi/var/Radian/generated/modules.h **** #define EXTERN_MODULES
  14:/home/mav/paparazzi/var/Radian/generated/modules.h **** #else
  15:/home/mav/paparazzi/var/Radian/generated/modules.h **** #define EXTERN_MODULES extern
  16:/home/mav/paparazzi/var/Radian/generated/modules.h **** #endif
  17:/home/mav/paparazzi/var/Radian/generated/modules.h **** #include "std.h"
  18:/home/mav/paparazzi/var/Radian/generated/modules.h **** #include "gps/gps_ubx_ucenter.h"
  19:/home/mav/paparazzi/var/Radian/generated/modules.h **** 
  20:/home/mav/paparazzi/var/Radian/generated/modules.h **** #define GPS_UBX_UCENTER_PERIODIC_PERIOD 0.250000
  21:/home/mav/paparazzi/var/Radian/generated/modules.h **** #define GPS_UBX_UCENTER_PERIODIC_FREQ 4.000000
  22:/home/mav/paparazzi/var/Radian/generated/modules.h **** 
  23:/home/mav/paparazzi/var/Radian/generated/modules.h **** EXTERN_MODULES uint8_t gps_ubx_gps_ubx_ucenter_periodic_status;
  24:/home/mav/paparazzi/var/Radian/generated/modules.h **** 
  25:/home/mav/paparazzi/var/Radian/generated/modules.h **** #ifdef MODULES_C
  26:/home/mav/paparazzi/var/Radian/generated/modules.h **** 
  27:/home/mav/paparazzi/var/Radian/generated/modules.h **** static inline void modules_init(void) {
  28:/home/mav/paparazzi/var/Radian/generated/modules.h ****   gps_ubx_ucenter_init();
  54              		.loc 2 28 0
  55 0022 FFF7FEFF 		bl	gps_ubx_ucenter_init
  29:/home/mav/paparazzi/var/Radian/generated/modules.h ****   gps_ubx_gps_ubx_ucenter_periodic_status = MODULES_START;
  56              		.loc 2 29 0
  57 0026 194B     		ldr	r3, .L2
  58 0028 0222     		movs	r2, #2
  59              	.LBE102:
  60              	.LBE101:
 209:firmwares/fixedwing/main_ap.c **** 
 210:firmwares/fixedwing/main_ap.c ****   modules_init();
 211:firmwares/fixedwing/main_ap.c **** 
 212:firmwares/fixedwing/main_ap.c ****   settings_init();
 213:firmwares/fixedwing/main_ap.c **** 
 214:firmwares/fixedwing/main_ap.c ****   /**** start timers for periodic functions *****/
 215:firmwares/fixedwing/main_ap.c ****   sensors_tid = sys_time_register_timer(1./PERIODIC_FREQUENCY, NULL);
  61              		.loc 1 215 0
  62 002a 194C     		ldr	r4, .L2+4
  63              	.LBB104:
  64              	.LBB103:
  65              		.loc 2 29 0
  66 002c 1A70     		strb	r2, [r3, #0]
  67              	.LBE103:
  68              	.LBE104:
 212:firmwares/fixedwing/main_ap.c ****   settings_init();
  69              		.loc 1 212 0
  70 002e FFF7FEFF 		bl	settings_init
  71              		.loc 1 215 0
  72 0032 0021     		movs	r1, #0
  73 0034 2046     		mov	r0, r4
  74 0036 FFF7FEFF 		bl	sys_time_register_timer
  75 003a 164B     		ldr	r3, .L2+8
 216:firmwares/fixedwing/main_ap.c ****   navigation_tid = sys_time_register_timer(1./NAVIGATION_FREQUENCY, NULL);
  76              		.loc 1 216 0
  77 003c 0021     		movs	r1, #0
 215:firmwares/fixedwing/main_ap.c ****   sensors_tid = sys_time_register_timer(1./PERIODIC_FREQUENCY, NULL);
  78              		.loc 1 215 0
  79 003e 1870     		strb	r0, [r3, #0]
  80              		.loc 1 216 0
  81 0040 4FF07A50 		mov	r0, #1048576000
  82 0044 FFF7FEFF 		bl	sys_time_register_timer
  83 0048 134B     		ldr	r3, .L2+12
 217:firmwares/fixedwing/main_ap.c ****   attitude_tid = sys_time_register_timer(1./CONTROL_FREQUENCY, NULL);
  84              		.loc 1 217 0
  85 004a 0021     		movs	r1, #0
 216:firmwares/fixedwing/main_ap.c ****   navigation_tid = sys_time_register_timer(1./NAVIGATION_FREQUENCY, NULL);
  86              		.loc 1 216 0
  87 004c 1870     		strb	r0, [r3, #0]
  88              		.loc 1 217 0
  89 004e 2046     		mov	r0, r4
  90 0050 FFF7FEFF 		bl	sys_time_register_timer
  91 0054 114B     		ldr	r3, .L2+16
 218:firmwares/fixedwing/main_ap.c ****   modules_tid = sys_time_register_timer(1./MODULES_FREQUENCY, NULL);
  92              		.loc 1 218 0
  93 0056 0021     		movs	r1, #0
 217:firmwares/fixedwing/main_ap.c ****   attitude_tid = sys_time_register_timer(1./CONTROL_FREQUENCY, NULL);
  94              		.loc 1 217 0
  95 0058 1870     		strb	r0, [r3, #0]
  96              		.loc 1 218 0
  97 005a 2046     		mov	r0, r4
  98 005c FFF7FEFF 		bl	sys_time_register_timer
  99 0060 0F4B     		ldr	r3, .L2+20
 219:firmwares/fixedwing/main_ap.c ****   telemetry_tid = sys_time_register_timer(1./60, NULL);
 100              		.loc 1 219 0
 101 0062 0021     		movs	r1, #0
 218:firmwares/fixedwing/main_ap.c ****   modules_tid = sys_time_register_timer(1./MODULES_FREQUENCY, NULL);
 102              		.loc 1 218 0
 103 0064 1870     		strb	r0, [r3, #0]
 104              		.loc 1 219 0
 105 0066 2046     		mov	r0, r4
 106 0068 FFF7FEFF 		bl	sys_time_register_timer
 107 006c 0D4B     		ldr	r3, .L2+24
 220:firmwares/fixedwing/main_ap.c ****   monitor_tid = sys_time_register_timer(1.0, NULL);
 108              		.loc 1 220 0
 109 006e 0021     		movs	r1, #0
 219:firmwares/fixedwing/main_ap.c ****   telemetry_tid = sys_time_register_timer(1./60, NULL);
 110              		.loc 1 219 0
 111 0070 1870     		strb	r0, [r3, #0]
 112              		.loc 1 220 0
 113 0072 4FF07E50 		mov	r0, #1065353216
 114 0076 FFF7FEFF 		bl	sys_time_register_timer
 115 007a 0B4B     		ldr	r3, .L2+28
 221:firmwares/fixedwing/main_ap.c **** 
 222:firmwares/fixedwing/main_ap.c ****   /** - start interrupt task */
 223:firmwares/fixedwing/main_ap.c ****   mcu_int_enable();
 224:firmwares/fixedwing/main_ap.c **** 
 225:firmwares/fixedwing/main_ap.c **** #if defined DATALINK
 226:firmwares/fixedwing/main_ap.c **** #if DATALINK == XBEE
 227:firmwares/fixedwing/main_ap.c ****   xbee_init();
 228:firmwares/fixedwing/main_ap.c **** #endif
 229:firmwares/fixedwing/main_ap.c **** #endif /* DATALINK */
 230:firmwares/fixedwing/main_ap.c **** 
 231:firmwares/fixedwing/main_ap.c **** #if defined AEROCOMM_DATA_PIN
 232:firmwares/fixedwing/main_ap.c ****   IO0DIR |= _BV(AEROCOMM_DATA_PIN);
 233:firmwares/fixedwing/main_ap.c ****   IO0SET = _BV(AEROCOMM_DATA_PIN);
 234:firmwares/fixedwing/main_ap.c **** #endif
 235:firmwares/fixedwing/main_ap.c **** 
 236:firmwares/fixedwing/main_ap.c ****   power_switch = FALSE;
 116              		.loc 1 236 0
 117 007c 0022     		movs	r2, #0
 220:firmwares/fixedwing/main_ap.c ****   monitor_tid = sys_time_register_timer(1.0, NULL);
 118              		.loc 1 220 0
 119 007e 1870     		strb	r0, [r3, #0]
 120              		.loc 1 236 0
 121 0080 0A4B     		ldr	r3, .L2+32
 122 0082 1A70     		strb	r2, [r3, #0]
 237:firmwares/fixedwing/main_ap.c **** 
 238:firmwares/fixedwing/main_ap.c ****   /************ Multi-uavs status ***************/
 239:firmwares/fixedwing/main_ap.c **** 
 240:firmwares/fixedwing/main_ap.c **** #ifdef TRAFFIC_INFO
 241:firmwares/fixedwing/main_ap.c ****   traffic_info_init();
 242:firmwares/fixedwing/main_ap.c **** #endif
 243:firmwares/fixedwing/main_ap.c **** }
 123              		.loc 1 243 0
 124 0084 BDE81040 		pop	{r4, lr}
 241:firmwares/fixedwing/main_ap.c ****   traffic_info_init();
 125              		.loc 1 241 0
 126 0088 FFF7FEBF 		b	traffic_info_init
 127              	.L3:
 128              		.align	2
 129              	.L2:
 130 008c 00000000 		.word	.LANCHOR0
 131 0090 8988883C 		.word	1015580809
 132 0094 00000000 		.word	.LANCHOR1
 133 0098 00000000 		.word	.LANCHOR2
 134 009c 00000000 		.word	.LANCHOR3
 135 00a0 00000000 		.word	.LANCHOR4
 136 00a4 00000000 		.word	.LANCHOR5
 137 00a8 00000000 		.word	.LANCHOR6
 138 00ac 00000000 		.word	.LANCHOR7
 139              		.cfi_endproc
 140              	.LFE49:
 142              		.global	__aeabi_i2d
 143              		.global	__aeabi_dmul
 144              		.global	__aeabi_ddiv
 145              		.global	__aeabi_d2iz
 146              		.global	__aeabi_i2f
 147              		.global	__aeabi_fadd
 148              		.global	__aeabi_fmul
 149              		.global	__aeabi_f2d
 150              		.global	__aeabi_d2uiz
 151              		.global	__aeabi_f2iz
 152              		.global	__aeabi_ui2f
 153              		.global	__aeabi_fdiv
 154              		.section	.text.reporting_task,"ax",%progbits
 155              		.align	1
 156              		.global	reporting_task
 157              		.thumb
 158              		.thumb_func
 160              	reporting_task:
 161              	.LFB55:
 244:firmwares/fixedwing/main_ap.c **** 
 245:firmwares/fixedwing/main_ap.c **** 
 246:firmwares/fixedwing/main_ap.c **** void handle_periodic_tasks_ap(void) {
 247:firmwares/fixedwing/main_ap.c **** 
 248:firmwares/fixedwing/main_ap.c ****   if (sys_time_check_and_ack_timer(sensors_tid))
 249:firmwares/fixedwing/main_ap.c ****     sensors_task();
 250:firmwares/fixedwing/main_ap.c **** 
 251:firmwares/fixedwing/main_ap.c ****   if (sys_time_check_and_ack_timer(navigation_tid))
 252:firmwares/fixedwing/main_ap.c ****     navigation_task();
 253:firmwares/fixedwing/main_ap.c **** 
 254:firmwares/fixedwing/main_ap.c **** #ifndef AHRS_TRIGGERED_ATTITUDE_LOOP
 255:firmwares/fixedwing/main_ap.c ****   if (sys_time_check_and_ack_timer(attitude_tid))
 256:firmwares/fixedwing/main_ap.c ****     attitude_loop();
 257:firmwares/fixedwing/main_ap.c **** #endif
 258:firmwares/fixedwing/main_ap.c **** 
 259:firmwares/fixedwing/main_ap.c ****   if (sys_time_check_and_ack_timer(modules_tid))
 260:firmwares/fixedwing/main_ap.c ****     modules_periodic_task();
 261:firmwares/fixedwing/main_ap.c **** 
 262:firmwares/fixedwing/main_ap.c ****   if (sys_time_check_and_ack_timer(monitor_tid))
 263:firmwares/fixedwing/main_ap.c ****     monitor_task();
 264:firmwares/fixedwing/main_ap.c **** 
 265:firmwares/fixedwing/main_ap.c ****   if (sys_time_check_and_ack_timer(telemetry_tid)) {
 266:firmwares/fixedwing/main_ap.c ****     reporting_task();
 267:firmwares/fixedwing/main_ap.c ****     LED_PERIODIC();
 268:firmwares/fixedwing/main_ap.c ****   }
 269:firmwares/fixedwing/main_ap.c **** 
 270:firmwares/fixedwing/main_ap.c **** }
 271:firmwares/fixedwing/main_ap.c **** 
 272:firmwares/fixedwing/main_ap.c **** 
 273:firmwares/fixedwing/main_ap.c **** /******************** Interaction with FBW *****************************/
 274:firmwares/fixedwing/main_ap.c **** 
 275:firmwares/fixedwing/main_ap.c **** /** Update paparazzi mode.
 276:firmwares/fixedwing/main_ap.c ****  */
 277:firmwares/fixedwing/main_ap.c **** #if defined RADIO_CONTROL || defined RADIO_CONTROL_AUTO1
 278:firmwares/fixedwing/main_ap.c **** static inline uint8_t pprz_mode_update( void ) {
 279:firmwares/fixedwing/main_ap.c ****   if ((pprz_mode != PPRZ_MODE_HOME &&
 280:firmwares/fixedwing/main_ap.c ****        pprz_mode != PPRZ_MODE_GPS_OUT_OF_ORDER)
 281:firmwares/fixedwing/main_ap.c **** #ifdef UNLOCKED_HOME_MODE
 282:firmwares/fixedwing/main_ap.c ****       || TRUE
 283:firmwares/fixedwing/main_ap.c **** #endif
 284:firmwares/fixedwing/main_ap.c ****       ) {
 285:firmwares/fixedwing/main_ap.c ****     return ModeUpdate(pprz_mode, PPRZ_MODE_OF_PULSE(fbw_state->channels[RADIO_MODE]));
 286:firmwares/fixedwing/main_ap.c ****   } else
 287:firmwares/fixedwing/main_ap.c ****     return FALSE;
 288:firmwares/fixedwing/main_ap.c **** }
 289:firmwares/fixedwing/main_ap.c **** #else // not RADIO_CONTROL
 290:firmwares/fixedwing/main_ap.c **** static inline uint8_t pprz_mode_update( void ) {
 291:firmwares/fixedwing/main_ap.c ****   return FALSE;
 292:firmwares/fixedwing/main_ap.c **** }
 293:firmwares/fixedwing/main_ap.c **** #endif
 294:firmwares/fixedwing/main_ap.c **** 
 295:firmwares/fixedwing/main_ap.c **** static inline uint8_t mcu1_status_update( void ) {
 296:firmwares/fixedwing/main_ap.c ****   uint8_t new_status = fbw_state->status;
 297:firmwares/fixedwing/main_ap.c ****   if (mcu1_status != new_status) {
 298:firmwares/fixedwing/main_ap.c ****     bool_t changed = ((mcu1_status&MASK_FBW_CHANGED) != (new_status&MASK_FBW_CHANGED));
 299:firmwares/fixedwing/main_ap.c ****     mcu1_status = new_status;
 300:firmwares/fixedwing/main_ap.c ****     return changed;
 301:firmwares/fixedwing/main_ap.c ****   }
 302:firmwares/fixedwing/main_ap.c ****   return FALSE;
 303:firmwares/fixedwing/main_ap.c **** }
 304:firmwares/fixedwing/main_ap.c **** 
 305:firmwares/fixedwing/main_ap.c **** 
 306:firmwares/fixedwing/main_ap.c **** /** Send back uncontrolled channels.
 307:firmwares/fixedwing/main_ap.c ****  */
 308:firmwares/fixedwing/main_ap.c **** static inline void copy_from_to_fbw ( void ) {
 309:firmwares/fixedwing/main_ap.c **** #ifdef SetAutoCommandsFromRC
 310:firmwares/fixedwing/main_ap.c ****   SetAutoCommandsFromRC(ap_state->commands, fbw_state->channels);
 311:firmwares/fixedwing/main_ap.c **** #elif defined RADIO_YAW && defined COMMAND_YAW
 312:firmwares/fixedwing/main_ap.c ****   ap_state->commands[COMMAND_YAW] = fbw_state->channels[RADIO_YAW];
 313:firmwares/fixedwing/main_ap.c **** #endif
 314:firmwares/fixedwing/main_ap.c **** }
 315:firmwares/fixedwing/main_ap.c **** 
 316:firmwares/fixedwing/main_ap.c **** /** mode to enter when RC is lost in PPRZ_MODE_MANUAL or PPRZ_MODE_AUTO1 */
 317:firmwares/fixedwing/main_ap.c **** #ifndef RC_LOST_MODE
 318:firmwares/fixedwing/main_ap.c **** #define RC_LOST_MODE PPRZ_MODE_HOME
 319:firmwares/fixedwing/main_ap.c **** #endif
 320:firmwares/fixedwing/main_ap.c **** 
 321:firmwares/fixedwing/main_ap.c **** /**
 322:firmwares/fixedwing/main_ap.c ****  * Function to be called when a message from FBW is available
 323:firmwares/fixedwing/main_ap.c ****  */
 324:firmwares/fixedwing/main_ap.c **** static inline void telecommand_task( void ) {
 325:firmwares/fixedwing/main_ap.c ****   uint8_t mode_changed = FALSE;
 326:firmwares/fixedwing/main_ap.c ****   copy_from_to_fbw();
 327:firmwares/fixedwing/main_ap.c **** 
 328:firmwares/fixedwing/main_ap.c ****   uint8_t really_lost = bit_is_set(fbw_state->status, STATUS_RADIO_REALLY_LOST) && (pprz_mode == PP
 329:firmwares/fixedwing/main_ap.c ****   if (pprz_mode != PPRZ_MODE_HOME && pprz_mode != PPRZ_MODE_GPS_OUT_OF_ORDER && launch) {
 330:firmwares/fixedwing/main_ap.c ****     if  (too_far_from_home) {
 331:firmwares/fixedwing/main_ap.c ****       pprz_mode = PPRZ_MODE_HOME;
 332:firmwares/fixedwing/main_ap.c ****       mode_changed = TRUE;
 333:firmwares/fixedwing/main_ap.c ****     }
 334:firmwares/fixedwing/main_ap.c ****     if  (really_lost) {
 335:firmwares/fixedwing/main_ap.c ****       pprz_mode = RC_LOST_MODE;
 336:firmwares/fixedwing/main_ap.c ****       mode_changed = TRUE;
 337:firmwares/fixedwing/main_ap.c ****     }
 338:firmwares/fixedwing/main_ap.c ****   }
 339:firmwares/fixedwing/main_ap.c ****   if (bit_is_set(fbw_state->status, AVERAGED_CHANNELS_SENT)) {
 340:firmwares/fixedwing/main_ap.c ****     bool_t pprz_mode_changed = pprz_mode_update();
 341:firmwares/fixedwing/main_ap.c ****     mode_changed |= pprz_mode_changed;
 342:firmwares/fixedwing/main_ap.c **** #if defined RADIO_CALIB && defined RADIO_CONTROL_SETTINGS
 343:firmwares/fixedwing/main_ap.c ****     bool_t calib_mode_changed = RcSettingsModeUpdate(fbw_state->channels);
 344:firmwares/fixedwing/main_ap.c ****     rc_settings(calib_mode_changed || pprz_mode_changed);
 345:firmwares/fixedwing/main_ap.c ****     mode_changed |= calib_mode_changed;
 346:firmwares/fixedwing/main_ap.c **** #endif
 347:firmwares/fixedwing/main_ap.c ****   }
 348:firmwares/fixedwing/main_ap.c ****   mode_changed |= mcu1_status_update();
 349:firmwares/fixedwing/main_ap.c ****   if ( mode_changed )
 350:firmwares/fixedwing/main_ap.c ****     PERIODIC_SEND_PPRZ_MODE(DefaultChannel, DefaultDevice);
 351:firmwares/fixedwing/main_ap.c **** 
 352:firmwares/fixedwing/main_ap.c **** #if defined RADIO_CONTROL || defined RADIO_CONTROL_AUTO1
 353:firmwares/fixedwing/main_ap.c ****   /** In AUTO1 mode, compute roll setpoint and pitch setpoint from
 354:firmwares/fixedwing/main_ap.c ****    * \a RADIO_ROLL and \a RADIO_PITCH \n
 355:firmwares/fixedwing/main_ap.c ****    */
 356:firmwares/fixedwing/main_ap.c ****   if (pprz_mode == PPRZ_MODE_AUTO1) {
 357:firmwares/fixedwing/main_ap.c ****     /** Roll is bounded between [-AUTO1_MAX_ROLL;AUTO1_MAX_ROLL] */
 358:firmwares/fixedwing/main_ap.c ****     h_ctl_roll_setpoint = FLOAT_OF_PPRZ(fbw_state->channels[RADIO_ROLL], 0., AUTO1_MAX_ROLL);
 359:firmwares/fixedwing/main_ap.c **** 
 360:firmwares/fixedwing/main_ap.c ****     /** Pitch is bounded between [-AUTO1_MAX_PITCH;AUTO1_MAX_PITCH] */
 361:firmwares/fixedwing/main_ap.c ****     h_ctl_pitch_setpoint = FLOAT_OF_PPRZ(fbw_state->channels[RADIO_PITCH], 0., AUTO1_MAX_PITCH);
 362:firmwares/fixedwing/main_ap.c ****   } /** Else asynchronously set by \a h_ctl_course_loop() */
 363:firmwares/fixedwing/main_ap.c **** 
 364:firmwares/fixedwing/main_ap.c ****   /** In AUTO1, throttle comes from RADIO_THROTTLE
 365:firmwares/fixedwing/main_ap.c ****       In MANUAL, the value is copied to get it in the telemetry */
 366:firmwares/fixedwing/main_ap.c ****   if (pprz_mode == PPRZ_MODE_MANUAL || pprz_mode == PPRZ_MODE_AUTO1) {
 367:firmwares/fixedwing/main_ap.c ****     v_ctl_throttle_setpoint = fbw_state->channels[RADIO_THROTTLE];
 368:firmwares/fixedwing/main_ap.c ****   }
 369:firmwares/fixedwing/main_ap.c ****   /** else asynchronously set by v_ctl_climb_loop(); */
 370:firmwares/fixedwing/main_ap.c **** 
 371:firmwares/fixedwing/main_ap.c ****   mcu1_ppm_cpt = fbw_state->ppm_cpt;
 372:firmwares/fixedwing/main_ap.c **** #endif // RADIO_CONTROL
 373:firmwares/fixedwing/main_ap.c **** 
 374:firmwares/fixedwing/main_ap.c **** 
 375:firmwares/fixedwing/main_ap.c ****   vsupply = fbw_state->vsupply;
 376:firmwares/fixedwing/main_ap.c ****   current = fbw_state->current;
 377:firmwares/fixedwing/main_ap.c **** 
 378:firmwares/fixedwing/main_ap.c **** #ifdef RADIO_CONTROL
 379:firmwares/fixedwing/main_ap.c ****   if (!estimator_flight_time) {
 380:firmwares/fixedwing/main_ap.c ****     if (pprz_mode == PPRZ_MODE_AUTO2 && fbw_state->channels[RADIO_THROTTLE] > THROTTLE_THRESHOLD_TA
 381:firmwares/fixedwing/main_ap.c ****       launch = TRUE;
 382:firmwares/fixedwing/main_ap.c ****     }
 383:firmwares/fixedwing/main_ap.c ****   }
 384:firmwares/fixedwing/main_ap.c **** #endif
 385:firmwares/fixedwing/main_ap.c **** }
 386:firmwares/fixedwing/main_ap.c **** 
 387:firmwares/fixedwing/main_ap.c **** 
 388:firmwares/fixedwing/main_ap.c **** /**************************** Periodic tasks ***********************************/
 389:firmwares/fixedwing/main_ap.c **** 
 390:firmwares/fixedwing/main_ap.c **** /**
 391:firmwares/fixedwing/main_ap.c ****  * Send a series of initialisation messages followed by a stream of periodic ones.
 392:firmwares/fixedwing/main_ap.c ****  * Called at 60Hz.
 393:firmwares/fixedwing/main_ap.c ****  */
 394:firmwares/fixedwing/main_ap.c **** void reporting_task( void ) {
 162              		.loc 1 394 0
 163              		.cfi_startproc
 164              		@ args = 0, pretend = 0, frame = 40
 165              		@ frame_needed = 0, uses_anonymous_args = 0
 166 0000 2DE9F041 		push	{r4, r5, r6, r7, r8, lr}
 167              	.LCFI1:
 168              		.cfi_def_cfa_offset 24
 169              		.cfi_offset 14, -4
 170              		.cfi_offset 8, -8
 171              		.cfi_offset 7, -12
 172              		.cfi_offset 6, -16
 173              		.cfi_offset 5, -20
 174              		.cfi_offset 4, -24
 395:firmwares/fixedwing/main_ap.c ****   static uint8_t boot = TRUE;
 396:firmwares/fixedwing/main_ap.c **** 
 397:firmwares/fixedwing/main_ap.c ****   /** initialisation phase during boot */
 398:firmwares/fixedwing/main_ap.c ****   if (boot) {
 175              		.loc 1 398 0
 176 0004 2B4B     		ldr	r3, .L363
 394:firmwares/fixedwing/main_ap.c **** void reporting_task( void ) {
 177              		.loc 1 394 0
 178 0006 8AB0     		sub	sp, sp, #40
 179              	.LCFI2:
 180              		.cfi_def_cfa_offset 64
 181              		.loc 1 398 0
 182 0008 1B78     		ldrb	r3, [r3, #0]	@ zero_extendqisi2
 183 000a 002B     		cmp	r3, #0
 184 000c 62D0     		beq	.L5
 399:firmwares/fixedwing/main_ap.c ****     DOWNLINK_SEND_BOOT(DefaultChannel, DefaultDevice, &version);
 185              		.loc 1 399 0
 186 000e 2A48     		ldr	r0, .L363+4
 187 0010 0821     		movs	r1, #8
 188 0012 FFF7FEFF 		bl	uart_check_free_space
 189 0016 0028     		cmp	r0, #0
 190 0018 44D0     		beq	.L6
 191              		.loc 1 399 0 is_stmt 0 discriminator 1
 192 001a 284B     		ldr	r3, .L363+8
 193              	.LBB105:
 194 001c 9921     		movs	r1, #153
 195              	.LBE105:
 196 001e 1A88     		ldrh	r2, [r3, #0]
 197              	.LBB106:
 198 0020 2548     		ldr	r0, .L363+4
 199              	.LBE106:
 200 0022 0832     		adds	r2, r2, #8
 201 0024 1A80     		strh	r2, [r3, #0]	@ movhi
 202 0026 264B     		ldr	r3, .L363+12
 203 0028 264D     		ldr	r5, .L363+16
 204 002a 1A88     		ldrh	r2, [r3, #0]
 205 002c 264C     		ldr	r4, .L363+20
 206 002e 0132     		adds	r2, r2, #1
 207 0030 1A80     		strh	r2, [r3, #0]	@ movhi
 208              	.LBB107:
 209 0032 FFF7FEFF 		bl	uart_transmit
 210              	.LVL0:
 211 0036 0821     		movs	r1, #8
 212 0038 1F48     		ldr	r0, .L363+4
 213 003a FFF7FEFF 		bl	uart_transmit
 214              	.LBE107:
 215 003e 0923     		movs	r3, #9
 216 0040 2B70     		strb	r3, [r5, #0]
 217 0042 1123     		movs	r3, #17
 218 0044 2370     		strb	r3, [r4, #0]
 219 0046 0121     		movs	r1, #1
 220 0048 1B48     		ldr	r0, .L363+4
 221 004a FFF7FEFF 		bl	uart_transmit
 222 004e 2B78     		ldrb	r3, [r5, #0]	@ zero_extendqisi2
 223 0050 2278     		ldrb	r2, [r4, #0]	@ zero_extendqisi2
 224 0052 0133     		adds	r3, r3, #1
 225 0054 DBB2     		uxtb	r3, r3
 226              	.LVL1:
 227 0056 2B70     		strb	r3, [r5, #0]
 228              	.LBB108:
 229 0058 1C4E     		ldr	r6, .L363+24
 230              	.LBE108:
 231 005a 9B18     		adds	r3, r3, r2
 232              	.LVL2:
 233 005c 2370     		strb	r3, [r4, #0]
 234 005e 0121     		movs	r1, #1
 235 0060 1548     		ldr	r0, .L363+4
 236 0062 FFF7FEFF 		bl	uart_transmit
 237              	.LBB109:
 238 0066 3178     		ldrb	r1, [r6, #0]	@ zero_extendqisi2
 239              	.LVL3:
 240 0068 2B78     		ldrb	r3, [r5, #0]	@ zero_extendqisi2
 241 006a 2278     		ldrb	r2, [r4, #0]	@ zero_extendqisi2
 242 006c CB18     		adds	r3, r1, r3
 243 006e DBB2     		uxtb	r3, r3
 244              	.LVL4:
 245 0070 2B70     		strb	r3, [r5, #0]
 246 0072 9B18     		adds	r3, r3, r2
 247              	.LVL5:
 248 0074 2370     		strb	r3, [r4, #0]
 249 0076 1048     		ldr	r0, .L363+4
 250 0078 FFF7FEFF 		bl	uart_transmit
 251              	.LVL6:
 252              	.LBE109:
 253              	.LBB110:
 254 007c 7178     		ldrb	r1, [r6, #1]	@ zero_extendqisi2
 255              	.LVL7:
 256 007e 2B78     		ldrb	r3, [r5, #0]	@ zero_extendqisi2
 257 0080 2278     		ldrb	r2, [r4, #0]	@ zero_extendqisi2
 258 0082 CB18     		adds	r3, r1, r3
 259 0084 DBB2     		uxtb	r3, r3
 260              	.LVL8:
 261 0086 2B70     		strb	r3, [r5, #0]
 262 0088 9B18     		adds	r3, r3, r2
 263              	.LVL9:
 264 008a 2370     		strb	r3, [r4, #0]
 265 008c 0A48     		ldr	r0, .L363+4
 266 008e FFF7FEFF 		bl	uart_transmit
 267              	.LVL10:
 268              	.LBE110:
 269 0092 2978     		ldrb	r1, [r5, #0]	@ zero_extendqisi2
 270 0094 0848     		ldr	r0, .L363+4
 271 0096 FFF7FEFF 		bl	uart_transmit
 272 009a 0748     		ldr	r0, .L363+4
 273 009c 2178     		ldrb	r1, [r4, #0]	@ zero_extendqisi2
 274 009e FFF7FEFF 		bl	uart_transmit
 275 00a2 03E0     		b	.L7
 276              	.LVL11:
 277              	.L6:
 278              		.loc 1 399 0 discriminator 2
 279 00a4 0A4B     		ldr	r3, .L363+28
 280 00a6 1A78     		ldrb	r2, [r3, #0]	@ zero_extendqisi2
 281 00a8 0132     		adds	r2, r2, #1
 282 00aa 1A70     		strb	r2, [r3, #0]
 283              	.L7:
 400:firmwares/fixedwing/main_ap.c ****     boot = FALSE;
 284              		.loc 1 400 0 is_stmt 1
 285 00ac 0022     		movs	r2, #0
 286 00ae 014B     		ldr	r3, .L363
 287 00b0 09F041B8 		b	.L356
 288              	.L364:
 289              		.align	2
 290              	.L363:
 291 00b4 00000000 		.word	.LANCHOR9
 292 00b8 00000000 		.word	uart2
 293 00bc 00000000 		.word	downlink_nb_bytes
 294 00c0 00000000 		.word	downlink_nb_msgs
 295 00c4 00000000 		.word	ck_a
 296 00c8 00000000 		.word	ck_b
 297 00cc 00000000 		.word	.LANCHOR10
 298 00d0 00000000 		.word	downlink_nb_ovrn
 299              	.L5:
 401:firmwares/fixedwing/main_ap.c ****   }
 402:firmwares/fixedwing/main_ap.c ****   /** then report periodicly */
 403:firmwares/fixedwing/main_ap.c ****   else {
 404:firmwares/fixedwing/main_ap.c ****     PeriodicSendAp(DefaultChannel, DefaultDevice);
 300              		.loc 1 404 0
 301 00d4 9B4B     		ldr	r3, .L365
 302 00d6 1A78     		ldrb	r2, [r3, #0]	@ zero_extendqisi2
 303 00d8 002A     		cmp	r2, #0
 304 00da 42F0C585 		bne	.L9
 305              	.LBB111:
 306              		.loc 1 404 0 is_stmt 0 discriminator 1
 307 00de 9A4B     		ldr	r3, .L365+4
 308 00e0 1978     		ldrb	r1, [r3, #0]	@ zero_extendqisi2
 309 00e2 0131     		adds	r1, r1, #1
 310 00e4 C9B2     		uxtb	r1, r1
 311 00e6 0529     		cmp	r1, #5
 312 00e8 1970     		strb	r1, [r3, #0]
 313 00ea 88BF     		it	hi
 314 00ec 1A70     		strbhi	r2, [r3, #0]
 315 00ee 974B     		ldr	r3, .L365+8
 316 00f0 1A78     		ldrb	r2, [r3, #0]	@ zero_extendqisi2
 317 00f2 0132     		adds	r2, r2, #1
 318 00f4 D2B2     		uxtb	r2, r2
 319 00f6 0B2A     		cmp	r2, #11
 320 00f8 1A70     		strb	r2, [r3, #0]
 321 00fa 01D9     		bls	.L11
 322              		.loc 1 404 0 discriminator 5
 323 00fc 0022     		movs	r2, #0
 324 00fe 1A70     		strb	r2, [r3, #0]
 325              	.L11:
 326              		.loc 1 404 0 discriminator 6
 327 0100 934B     		ldr	r3, .L365+12
 328 0102 1A78     		ldrb	r2, [r3, #0]	@ zero_extendqisi2
 329 0104 0132     		adds	r2, r2, #1
 330 0106 D2B2     		uxtb	r2, r2
 331 0108 0E2A     		cmp	r2, #14
 332 010a 1A70     		strb	r2, [r3, #0]
 333 010c 01D9     		bls	.L12
 334              		.loc 1 404 0 discriminator 7
 335 010e 0022     		movs	r2, #0
 336 0110 1A70     		strb	r2, [r3, #0]
 337              	.L12:
 338              		.loc 1 404 0 discriminator 8
 339 0112 904B     		ldr	r3, .L365+16
 340 0114 1A78     		ldrb	r2, [r3, #0]	@ zero_extendqisi2
 341 0116 0132     		adds	r2, r2, #1
 342 0118 D2B2     		uxtb	r2, r2
 343 011a 1D2A     		cmp	r2, #29
 344 011c 1A70     		strb	r2, [r3, #0]
 345 011e 01D9     		bls	.L13
 346              		.loc 1 404 0 discriminator 9
 347 0120 0022     		movs	r2, #0
 348 0122 1A70     		strb	r2, [r3, #0]
 349              	.L13:
 350              		.loc 1 404 0 discriminator 10
 351 0124 8C4B     		ldr	r3, .L365+20
 352 0126 1A78     		ldrb	r2, [r3, #0]	@ zero_extendqisi2
 353 0128 0132     		adds	r2, r2, #1
 354 012a D2B2     		uxtb	r2, r2
 355 012c 232A     		cmp	r2, #35
 356 012e 1A70     		strb	r2, [r3, #0]
 357 0130 01D9     		bls	.L14
 358              		.loc 1 404 0 discriminator 11
 359 0132 0022     		movs	r2, #0
 360 0134 1A70     		strb	r2, [r3, #0]
 361              	.L14:
 362              		.loc 1 404 0 discriminator 12
 363 0136 894B     		ldr	r3, .L365+24
 364 0138 1A78     		ldrb	r2, [r3, #0]	@ zero_extendqisi2
 365 013a 0132     		adds	r2, r2, #1
 366 013c D2B2     		uxtb	r2, r2
 367 013e 2F2A     		cmp	r2, #47
 368 0140 1A70     		strb	r2, [r3, #0]
 369 0142 01D9     		bls	.L15
 370              		.loc 1 404 0 discriminator 13
 371 0144 0022     		movs	r2, #0
 372 0146 1A70     		strb	r2, [r3, #0]
 373              	.L15:
 374              		.loc 1 404 0 discriminator 14
 375 0148 854B     		ldr	r3, .L365+28
 376 014a 1A78     		ldrb	r2, [r3, #0]	@ zero_extendqisi2
 377 014c 0132     		adds	r2, r2, #1
 378 014e D2B2     		uxtb	r2, r2
 379 0150 3B2A     		cmp	r2, #59
 380 0152 1A70     		strb	r2, [r3, #0]
 381 0154 01D9     		bls	.L16
 382              		.loc 1 404 0 discriminator 15
 383 0156 0022     		movs	r2, #0
 384 0158 1A70     		strb	r2, [r3, #0]
 385              	.L16:
 386              		.loc 1 404 0 discriminator 16
 387 015a 824B     		ldr	r3, .L365+32
 388 015c 1A78     		ldrb	r2, [r3, #0]	@ zero_extendqisi2
 389 015e 0132     		adds	r2, r2, #1
 390 0160 D2B2     		uxtb	r2, r2
 391 0162 3E2A     		cmp	r2, #62
 392 0164 1A70     		strb	r2, [r3, #0]
 393 0166 01D9     		bls	.L17
 394              		.loc 1 404 0 discriminator 17
 395 0168 0022     		movs	r2, #0
 396 016a 1A70     		strb	r2, [r3, #0]
 397              	.L17:
 398              		.loc 1 404 0 discriminator 18
 399 016c 7E4B     		ldr	r3, .L365+36
 400 016e 1A78     		ldrb	r2, [r3, #0]	@ zero_extendqisi2
 401 0170 0132     		adds	r2, r2, #1
 402 0172 D2B2     		uxtb	r2, r2
 403 0174 412A     		cmp	r2, #65
 404 0176 1A70     		strb	r2, [r3, #0]
 405 0178 01D9     		bls	.L18
 406              		.loc 1 404 0 discriminator 19
 407 017a 0022     		movs	r2, #0
 408 017c 1A70     		strb	r2, [r3, #0]
 409              	.L18:
 410              		.loc 1 404 0 discriminator 20
 411 017e 7B4B     		ldr	r3, .L365+40
 412 0180 1A78     		ldrb	r2, [r3, #0]	@ zero_extendqisi2
 413 0182 0132     		adds	r2, r2, #1
 414 0184 D2B2     		uxtb	r2, r2
 415 0186 472A     		cmp	r2, #71
 416 0188 1A70     		strb	r2, [r3, #0]
 417 018a 01D9     		bls	.L19
 418              		.loc 1 404 0 discriminator 21
 419 018c 0022     		movs	r2, #0
 420 018e 1A70     		strb	r2, [r3, #0]
 421              	.L19:
 422              		.loc 1 404 0 discriminator 22
 423 0190 774B     		ldr	r3, .L365+44
 424 0192 1A78     		ldrb	r2, [r3, #0]	@ zero_extendqisi2
 425 0194 0132     		adds	r2, r2, #1
 426 0196 D2B2     		uxtb	r2, r2
 427 0198 4D2A     		cmp	r2, #77
 428 019a 1A70     		strb	r2, [r3, #0]
 429 019c 01D9     		bls	.L20
 430              		.loc 1 404 0 discriminator 23
 431 019e 0022     		movs	r2, #0
 432 01a0 1A70     		strb	r2, [r3, #0]
 433              	.L20:
 434              		.loc 1 404 0 discriminator 24
 435 01a2 744B     		ldr	r3, .L365+48
 436 01a4 1A78     		ldrb	r2, [r3, #0]	@ zero_extendqisi2
 437 01a6 0132     		adds	r2, r2, #1
 438 01a8 D2B2     		uxtb	r2, r2
 439 01aa 592A     		cmp	r2, #89
 440 01ac 1A70     		strb	r2, [r3, #0]
 441 01ae 01D9     		bls	.L21
 442              		.loc 1 404 0 discriminator 25
 443 01b0 0022     		movs	r2, #0
 444 01b2 1A70     		strb	r2, [r3, #0]
 445              	.L21:
 446              		.loc 1 404 0 discriminator 26
 447 01b4 704B     		ldr	r3, .L365+52
 448 01b6 1A78     		ldrb	r2, [r3, #0]	@ zero_extendqisi2
 449 01b8 0132     		adds	r2, r2, #1
 450 01ba D2B2     		uxtb	r2, r2
 451 01bc 772A     		cmp	r2, #119
 452 01be 1A70     		strb	r2, [r3, #0]
 453 01c0 01D9     		bls	.L22
 454              		.loc 1 404 0 discriminator 27
 455 01c2 0022     		movs	r2, #0
 456 01c4 1A70     		strb	r2, [r3, #0]
 457              	.L22:
 458              		.loc 1 404 0 discriminator 28
 459 01c6 6D4B     		ldr	r3, .L365+56
 460 01c8 1A78     		ldrb	r2, [r3, #0]	@ zero_extendqisi2
 461 01ca 0132     		adds	r2, r2, #1
 462 01cc D2B2     		uxtb	r2, r2
 463 01ce 7D2A     		cmp	r2, #125
 464 01d0 1A70     		strb	r2, [r3, #0]
 465 01d2 01D9     		bls	.L23
 466              		.loc 1 404 0 discriminator 29
 467 01d4 0022     		movs	r2, #0
 468 01d6 1A70     		strb	r2, [r3, #0]
 469              	.L23:
 470              		.loc 1 404 0 discriminator 30
 471 01d8 694B     		ldr	r3, .L365+60
 472 01da 1A78     		ldrb	r2, [r3, #0]	@ zero_extendqisi2
 473 01dc 0132     		adds	r2, r2, #1
 474 01de D2B2     		uxtb	r2, r2
 475 01e0 832A     		cmp	r2, #131
 476 01e2 1A70     		strb	r2, [r3, #0]
 477 01e4 01D9     		bls	.L24
 478              		.loc 1 404 0 discriminator 31
 479 01e6 0022     		movs	r2, #0
 480 01e8 1A70     		strb	r2, [r3, #0]
 481              	.L24:
 482              		.loc 1 404 0 discriminator 32
 483 01ea 664B     		ldr	r3, .L365+64
 484 01ec 1A78     		ldrb	r2, [r3, #0]	@ zero_extendqisi2
 485 01ee 0132     		adds	r2, r2, #1
 486 01f0 D2B2     		uxtb	r2, r2
 487 01f2 952A     		cmp	r2, #149
 488 01f4 1A70     		strb	r2, [r3, #0]
 489 01f6 01D9     		bls	.L25
 490              		.loc 1 404 0 discriminator 33
 491 01f8 0022     		movs	r2, #0
 492 01fa 1A70     		strb	r2, [r3, #0]
 493              	.L25:
 494              		.loc 1 404 0 discriminator 34
 495 01fc 624B     		ldr	r3, .L365+68
 496 01fe 1A88     		ldrh	r2, [r3, #0]
 497 0200 0132     		adds	r2, r2, #1
 498 0202 92B2     		uxth	r2, r2
 499 0204 B2F5967F 		cmp	r2, #300
 500 0208 1A80     		strh	r2, [r3, #0]	@ movhi
 501 020a 01D3     		bcc	.L26
 502              		.loc 1 404 0 discriminator 35
 503 020c 0022     		movs	r2, #0
 504 020e 1A80     		strh	r2, [r3, #0]	@ movhi
 505              	.L26:
 506              		.loc 1 404 0 discriminator 36
 507 0210 5E4B     		ldr	r3, .L365+72
 508 0212 1A88     		ldrh	r2, [r3, #0]
 509 0214 0132     		adds	r2, r2, #1
 510 0216 92B2     		uxth	r2, r2
 511 0218 B2F5997F 		cmp	r2, #306
 512 021c 1A80     		strh	r2, [r3, #0]	@ movhi
 513 021e 01D3     		bcc	.L27
 514              		.loc 1 404 0 discriminator 37
 515 0220 0022     		movs	r2, #0
 516 0222 1A80     		strh	r2, [r3, #0]	@ movhi
 517              	.L27:
 518              		.loc 1 404 0 discriminator 38
 519 0224 5A4B     		ldr	r3, .L365+76
 520 0226 1A88     		ldrh	r2, [r3, #0]
 521 0228 0132     		adds	r2, r2, #1
 522 022a 92B2     		uxth	r2, r2
 523 022c B2F5077F 		cmp	r2, #540
 524 0230 1A80     		strh	r2, [r3, #0]	@ movhi
 525 0232 01D3     		bcc	.L28
 526              		.loc 1 404 0 discriminator 39
 527 0234 0022     		movs	r2, #0
 528 0236 1A80     		strh	r2, [r3, #0]	@ movhi
 529              	.L28:
 530              		.loc 1 404 0 discriminator 40
 531 0238 434B     		ldr	r3, .L365+4
 532 023a 1B78     		ldrb	r3, [r3, #0]	@ zero_extendqisi2
 533 023c 002B     		cmp	r3, #0
 534 023e 40F0FB80 		bne	.L29
 535              		.loc 1 404 0 discriminator 41
 536 0242 5448     		ldr	r0, .L365+80
 537 0244 1221     		movs	r1, #18
 538 0246 FFF7FEFF 		bl	uart_check_free_space
 539 024a 0028     		cmp	r0, #0
 540 024c 00F0F080 		beq	.L30
 541              		.loc 1 404 0 discriminator 43
 542 0250 514B     		ldr	r3, .L365+84
 543              	.LBB112:
 544 0252 9921     		movs	r1, #153
 545              	.LBE112:
 546 0254 1A88     		ldrh	r2, [r3, #0]
 547              	.LBB113:
 548 0256 4F48     		ldr	r0, .L365+80
 549              	.LBE113:
 550 0258 1232     		adds	r2, r2, #18
 551 025a 1A80     		strh	r2, [r3, #0]	@ movhi
 552 025c 4F4B     		ldr	r3, .L365+88
 553 025e 504D     		ldr	r5, .L365+92
 554 0260 1A88     		ldrh	r2, [r3, #0]
 555 0262 504C     		ldr	r4, .L365+96
 556 0264 0132     		adds	r2, r2, #1
 557 0266 1A80     		strh	r2, [r3, #0]	@ movhi
 558              	.LBB114:
 559 0268 FFF7FEFF 		bl	uart_transmit
 560              	.LVL12:
 561 026c 1221     		movs	r1, #18
 562 026e 4948     		ldr	r0, .L365+80
 563 0270 FFF7FEFF 		bl	uart_transmit
 564              	.LBE114:
 565 0274 1323     		movs	r3, #19
 566 0276 2B70     		strb	r3, [r5, #0]
 567 0278 2523     		movs	r3, #37
 568 027a 2370     		strb	r3, [r4, #0]
 569 027c 0121     		movs	r1, #1
 570 027e 4548     		ldr	r0, .L365+80
 571 0280 FFF7FEFF 		bl	uart_transmit
 572 0284 2B78     		ldrb	r3, [r5, #0]	@ zero_extendqisi2
 573 0286 2278     		ldrb	r2, [r4, #0]	@ zero_extendqisi2
 574 0288 0633     		adds	r3, r3, #6
 575 028a DBB2     		uxtb	r3, r3
 576              	.LBB115:
 577 028c 464E     		ldr	r6, .L365+100
 578              	.LBE115:
 579 028e 2B70     		strb	r3, [r5, #0]
 580 0290 9B18     		adds	r3, r3, r2
 581 0292 2370     		strb	r3, [r4, #0]
 582 0294 0621     		movs	r1, #6
 583 0296 3F48     		ldr	r0, .L365+80
 584 0298 FFF7FEFF 		bl	uart_transmit
 585              	.LBB116:
 586 029c 3178     		ldrb	r1, [r6, #0]	@ zero_extendqisi2
 587              	.LVL13:
 588 029e 2B78     		ldrb	r3, [r5, #0]	@ zero_extendqisi2
 589 02a0 2278     		ldrb	r2, [r4, #0]	@ zero_extendqisi2
 590 02a2 CB18     		adds	r3, r1, r3
 591 02a4 DBB2     		uxtb	r3, r3
 592              	.LVL14:
 593 02a6 2B70     		strb	r3, [r5, #0]
 594 02a8 9B18     		adds	r3, r3, r2
 595              	.LVL15:
 596 02aa 2370     		strb	r3, [r4, #0]
 597 02ac 3948     		ldr	r0, .L365+80
 598 02ae FFF7FEFF 		bl	uart_transmit
 599              	.LVL16:
 600              	.LBE116:
 601              	.LBB117:
 602 02b2 7178     		ldrb	r1, [r6, #1]	@ zero_extendqisi2
 603              	.LVL17:
 604 02b4 2B78     		ldrb	r3, [r5, #0]	@ zero_extendqisi2
 605 02b6 2278     		ldrb	r2, [r4, #0]	@ zero_extendqisi2
 606 02b8 CB18     		adds	r3, r1, r3
 607 02ba DBB2     		uxtb	r3, r3
 608              	.LVL18:
 609 02bc 2B70     		strb	r3, [r5, #0]
 610 02be 9B18     		adds	r3, r3, r2
 611              	.LVL19:
 612 02c0 2370     		strb	r3, [r4, #0]
 613 02c2 3448     		ldr	r0, .L365+80
 614 02c4 FFF7FEFF 		bl	uart_transmit
 615              	.LVL20:
 616              	.LBE117:
 617              	.LBB118:
 618 02c8 B178     		ldrb	r1, [r6, #2]	@ zero_extendqisi2
 619              	.LVL21:
 620 02ca 2B78     		ldrb	r3, [r5, #0]	@ zero_extendqisi2
 621 02cc 2278     		ldrb	r2, [r4, #0]	@ zero_extendqisi2
 622 02ce CB18     		adds	r3, r1, r3
 623 02d0 DBB2     		uxtb	r3, r3
 624              	.LVL22:
 625 02d2 2B70     		strb	r3, [r5, #0]
 626 02d4 9B18     		adds	r3, r3, r2
 627              	.LVL23:
 628 02d6 2370     		strb	r3, [r4, #0]
 629 02d8 2E48     		ldr	r0, .L365+80
 630 02da FFF7FEFF 		bl	uart_transmit
 631              	.LVL24:
 632              	.LBE118:
 633              	.LBB119:
 634 02de F178     		ldrb	r1, [r6, #3]	@ zero_extendqisi2
 635              	.LVL25:
 636 02e0 2B78     		ldrb	r3, [r5, #0]	@ zero_extendqisi2
 637 02e2 2278     		ldrb	r2, [r4, #0]	@ zero_extendqisi2
 638 02e4 CB18     		adds	r3, r1, r3
 639 02e6 DBB2     		uxtb	r3, r3
 640              	.LBE119:
 641              	.LBB120:
 642 02e8 304E     		ldr	r6, .L365+104
 643              	.LVL26:
 644              	.LBE120:
 645              	.LBB121:
 646 02ea 2B70     		strb	r3, [r5, #0]
 647 02ec 9B18     		adds	r3, r3, r2
 648              	.LVL27:
 649 02ee 2370     		strb	r3, [r4, #0]
 650 02f0 2848     		ldr	r0, .L365+80
 651 02f2 FFF7FEFF 		bl	uart_transmit
 652              	.LVL28:
 653              	.LBE121:
 654              	.LBB122:
 655 02f6 3178     		ldrb	r1, [r6, #0]	@ zero_extendqisi2
 656              	.LVL29:
 657 02f8 2B78     		ldrb	r3, [r5, #0]	@ zero_extendqisi2
 658 02fa 2278     		ldrb	r2, [r4, #0]	@ zero_extendqisi2
 659 02fc CB18     		adds	r3, r1, r3
 660 02fe DBB2     		uxtb	r3, r3
 661              	.LVL30:
 662 0300 2B70     		strb	r3, [r5, #0]
 663 0302 9B18     		adds	r3, r3, r2
 664              	.LVL31:
 665 0304 2370     		strb	r3, [r4, #0]
 666 0306 2348     		ldr	r0, .L365+80
 667 0308 FFF7FEFF 		bl	uart_transmit
 668              	.LVL32:
 669              	.LBE122:
 670              	.LBB123:
 671 030c 7178     		ldrb	r1, [r6, #1]	@ zero_extendqisi2
 672              	.LVL33:
 673 030e 2B78     		ldrb	r3, [r5, #0]	@ zero_extendqisi2
 674 0310 2278     		ldrb	r2, [r4, #0]	@ zero_extendqisi2
 675 0312 CB18     		adds	r3, r1, r3
 676 0314 DBB2     		uxtb	r3, r3
 677              	.LVL34:
 678 0316 2B70     		strb	r3, [r5, #0]
 679 0318 9B18     		adds	r3, r3, r2
 680              	.LVL35:
 681 031a 2370     		strb	r3, [r4, #0]
 682 031c 1D48     		ldr	r0, .L365+80
 683 031e FFF7FEFF 		bl	uart_transmit
 684              	.LVL36:
 685              	.LBE123:
 686              	.LBB124:
 687 0322 B178     		ldrb	r1, [r6, #2]	@ zero_extendqisi2
 688              	.LVL37:
 689 0324 2B78     		ldrb	r3, [r5, #0]	@ zero_extendqisi2
 690 0326 2278     		ldrb	r2, [r4, #0]	@ zero_extendqisi2
 691 0328 CB18     		adds	r3, r1, r3
 692 032a DBB2     		uxtb	r3, r3
 693              	.LVL38:
 694 032c 2B70     		strb	r3, [r5, #0]
 695 032e 9B18     		adds	r3, r3, r2
 696              	.LVL39:
 697 0330 2370     		strb	r3, [r4, #0]
 698 0332 1848     		ldr	r0, .L365+80
 699 0334 FFF7FEFF 		bl	uart_transmit
 700              	.LVL40:
 701              	.LBE124:
 702              	.LBB125:
 703 0338 F178     		ldrb	r1, [r6, #3]	@ zero_extendqisi2
 704              	.LVL41:
 705 033a 2B78     		ldrb	r3, [r5, #0]	@ zero_extendqisi2
 706 033c 2278     		ldrb	r2, [r4, #0]	@ zero_extendqisi2
 707 033e CB18     		adds	r3, r1, r3
 708 0340 DBB2     		uxtb	r3, r3
 709 0342 35E0     		b	.L366
 710              	.L367:
 711              		.align	2
 712              	.L365:
 713 0344 00000000 		.word	telemetry_mode_Ap
 714 0348 00000000 		.word	.LANCHOR11
 715 034c 00000000 		.word	.LANCHOR12
 716 0350 00000000 		.word	.LANCHOR13
 717 0354 00000000 		.word	.LANCHOR14
 718 0358 00000000 		.word	.LANCHOR15
 719 035c 00000000 		.word	.LANCHOR16
 720 0360 00000000 		.word	.LANCHOR17
 721 0364 00000000 		.word	.LANCHOR18
 722 0368 00000000 		.word	.LANCHOR19
 723 036c 00000000 		.word	.LANCHOR20
 724 0370 00000000 		.word	.LANCHOR21
 725 0374 00000000 		.word	.LANCHOR22
 726 0378 00000000 		.word	.LANCHOR23
 727 037c 00000000 		.word	.LANCHOR24
 728 0380 00000000 		.word	.LANCHOR25
 729 0384 00000000 		.word	.LANCHOR26
 730 0388 00000000 		.word	.LANCHOR27
 731 038c 00000000 		.word	.LANCHOR28
 732 0390 00000000 		.word	.LANCHOR29
 733 0394 00000000 		.word	uart2
 734 0398 00000000 		.word	downlink_nb_bytes
 735 039c 00000000 		.word	downlink_nb_msgs
 736 03a0 00000000 		.word	ck_a
 737 03a4 00000000 		.word	ck_b
 738 03a8 00000000 		.word	estimator_phi
 739 03ac 00000000 		.word	estimator_psi
 740              	.L366:
 741              	.LBE125:
 742              	.LBB126:
 743 03b0 1D4E     		ldr	r6, .L368
 744              	.LVL42:
 745              	.LBE126:
 746              	.LBB127:
 747 03b2 2B70     		strb	r3, [r5, #0]
 748 03b4 9B18     		adds	r3, r3, r2
 749              	.LVL43:
 750 03b6 2370     		strb	r3, [r4, #0]
 751 03b8 1C48     		ldr	r0, .L368+4
 752 03ba FFF7FEFF 		bl	uart_transmit
 753              	.LVL44:
 754              	.LBE127:
 755              	.LBB128:
 756 03be 3178     		ldrb	r1, [r6, #0]	@ zero_extendqisi2
 757              	.LVL45:
 758 03c0 2B78     		ldrb	r3, [r5, #0]	@ zero_extendqisi2
 759 03c2 2278     		ldrb	r2, [r4, #0]	@ zero_extendqisi2
 760 03c4 CB18     		adds	r3, r1, r3
 761 03c6 DBB2     		uxtb	r3, r3
 762              	.LVL46:
 763 03c8 2B70     		strb	r3, [r5, #0]
 764 03ca 9B18     		adds	r3, r3, r2
 765              	.LVL47:
 766 03cc 2370     		strb	r3, [r4, #0]
 767 03ce 1748     		ldr	r0, .L368+4
 768 03d0 FFF7FEFF 		bl	uart_transmit
 769              	.LVL48:
 770              	.LBE128:
 771              	.LBB129:
 772 03d4 7178     		ldrb	r1, [r6, #1]	@ zero_extendqisi2
 773              	.LVL49:
 774 03d6 2B78     		ldrb	r3, [r5, #0]	@ zero_extendqisi2
 775 03d8 2278     		ldrb	r2, [r4, #0]	@ zero_extendqisi2
 776 03da CB18     		adds	r3, r1, r3
 777 03dc DBB2     		uxtb	r3, r3
 778              	.LVL50:
 779 03de 2B70     		strb	r3, [r5, #0]
 780 03e0 9B18     		adds	r3, r3, r2
 781              	.LVL51:
 782 03e2 2370     		strb	r3, [r4, #0]
 783 03e4 1148     		ldr	r0, .L368+4
 784 03e6 FFF7FEFF 		bl	uart_transmit
 785              	.LVL52:
 786              	.LBE129:
 787              	.LBB130:
 788 03ea B178     		ldrb	r1, [r6, #2]	@ zero_extendqisi2
 789              	.LVL53:
 790 03ec 2B78     		ldrb	r3, [r5, #0]	@ zero_extendqisi2
 791 03ee 2278     		ldrb	r2, [r4, #0]	@ zero_extendqisi2
 792 03f0 CB18     		adds	r3, r1, r3
 793 03f2 DBB2     		uxtb	r3, r3
 794              	.LVL54:
 795 03f4 2B70     		strb	r3, [r5, #0]
 796 03f6 9B18     		adds	r3, r3, r2
 797              	.LVL55:
 798 03f8 2370     		strb	r3, [r4, #0]
 799 03fa 0C48     		ldr	r0, .L368+4
 800 03fc FFF7FEFF 		bl	uart_transmit
 801              	.LVL56:
 802              	.LBE130:
 803              	.LBB131:
 804 0400 F178     		ldrb	r1, [r6, #3]	@ zero_extendqisi2
 805              	.LVL57:
 806 0402 2B78     		ldrb	r3, [r5, #0]	@ zero_extendqisi2
 807 0404 2278     		ldrb	r2, [r4, #0]	@ zero_extendqisi2
 808 0406 CB18     		adds	r3, r1, r3
 809 0408 DBB2     		uxtb	r3, r3
 810              	.LVL58:
 811 040a 2B70     		strb	r3, [r5, #0]
 812 040c 9B18     		adds	r3, r3, r2
 813              	.LVL59:
 814 040e 2370     		strb	r3, [r4, #0]
 815 0410 0648     		ldr	r0, .L368+4
 816 0412 FFF7FEFF 		bl	uart_transmit
 817              	.LVL60:
 818              	.LBE131:
 819 0416 2978     		ldrb	r1, [r5, #0]	@ zero_extendqisi2
 820 0418 0448     		ldr	r0, .L368+4
 821 041a FFF7FEFF 		bl	uart_transmit
 822 041e 0348     		ldr	r0, .L368+4
 823 0420 2178     		ldrb	r1, [r4, #0]	@ zero_extendqisi2
 824 0422 FFF7FEFF 		bl	uart_transmit
 825 0426 07E0     		b	.L29
 826              	.L369:
 827              		.align	2
 828              	.L368:
 829 0428 00000000 		.word	estimator_theta
 830 042c 00000000 		.word	uart2
 831              	.LVL61:
 832              	.L30:
 833              		.loc 1 404 0 discriminator 44
 834 0430 9C4B     		ldr	r3, .L370
 835 0432 1A78     		ldrb	r2, [r3, #0]	@ zero_extendqisi2
 836 0434 0132     		adds	r2, r2, #1
 837 0436 1A70     		strb	r2, [r3, #0]
 838              	.L29:
 839              		.loc 1 404 0 discriminator 42
 840 0438 9B4B     		ldr	r3, .L370+4
 841 043a 1B78     		ldrb	r3, [r3, #0]	@ zero_extendqisi2
 842 043c 062B     		cmp	r3, #6
 843 043e 40F09381 		bne	.L31
 844              		.loc 1 404 0 discriminator 45
 845 0442 9A48     		ldr	r0, .L370+8
 846 0444 2221     		movs	r1, #34
 847 0446 FFF7FEFF 		bl	uart_check_free_space
 848 044a 0028     		cmp	r0, #0
 849 044c 00F08881 		beq	.L32
 850              		.loc 1 404 0 discriminator 47
 851 0450 974B     		ldr	r3, .L370+12
 852              	.LBB132:
 853 0452 9921     		movs	r1, #153
 854              	.LBE132:
 855 0454 1A88     		ldrh	r2, [r3, #0]
 856              	.LBB133:
 857 0456 9548     		ldr	r0, .L370+8
 858              	.LBE133:
 859 0458 2232     		adds	r2, r2, #34
 860 045a 1A80     		strh	r2, [r3, #0]	@ movhi
 861 045c 954B     		ldr	r3, .L370+16
 862 045e 964D     		ldr	r5, .L370+20
 863 0460 1A88     		ldrh	r2, [r3, #0]
 864 0462 964C     		ldr	r4, .L370+24
 865 0464 0132     		adds	r2, r2, #1
 866 0466 1A80     		strh	r2, [r3, #0]	@ movhi
 867              	.LBB134:
 868 0468 FFF7FEFF 		bl	uart_transmit
 869              	.LVL62:
 870 046c 2221     		movs	r1, #34
 871 046e 8F48     		ldr	r0, .L370+8
 872 0470 FFF7FEFF 		bl	uart_transmit
 873              	.LBE134:
 874 0474 2323     		movs	r3, #35
 875 0476 2B70     		strb	r3, [r5, #0]
 876 0478 4523     		movs	r3, #69
 877 047a 2370     		strb	r3, [r4, #0]
 878 047c 0121     		movs	r1, #1
 879 047e 8B48     		ldr	r0, .L370+8
 880 0480 FFF7FEFF 		bl	uart_transmit
 881 0484 2B78     		ldrb	r3, [r5, #0]	@ zero_extendqisi2
 882 0486 2278     		ldrb	r2, [r4, #0]	@ zero_extendqisi2
 883 0488 1033     		adds	r3, r3, #16
 884 048a DBB2     		uxtb	r3, r3
 885              	.LBB135:
 886 048c 8C4E     		ldr	r6, .L370+28
 887              	.LBE135:
 888 048e 2B70     		strb	r3, [r5, #0]
 889 0490 9B18     		adds	r3, r3, r2
 890 0492 2370     		strb	r3, [r4, #0]
 891 0494 1021     		movs	r1, #16
 892 0496 8548     		ldr	r0, .L370+8
 893 0498 FFF7FEFF 		bl	uart_transmit
 894              	.LBB136:
 895 049c 3178     		ldrb	r1, [r6, #0]	@ zero_extendqisi2
 896              	.LVL63:
 897 049e 2B78     		ldrb	r3, [r5, #0]	@ zero_extendqisi2
 898 04a0 2278     		ldrb	r2, [r4, #0]	@ zero_extendqisi2
 899 04a2 CB18     		adds	r3, r1, r3
 900 04a4 DBB2     		uxtb	r3, r3
 901              	.LVL64:
 902 04a6 2B70     		strb	r3, [r5, #0]
 903 04a8 9B18     		adds	r3, r3, r2
 904              	.LVL65:
 905 04aa 2370     		strb	r3, [r4, #0]
 906 04ac 7F48     		ldr	r0, .L370+8
 907 04ae FFF7FEFF 		bl	uart_transmit
 908              	.LVL66:
 909              	.LBE136:
 910              	.LBB137:
 911 04b2 7178     		ldrb	r1, [r6, #1]	@ zero_extendqisi2
 912              	.LVL67:
 913 04b4 2B78     		ldrb	r3, [r5, #0]	@ zero_extendqisi2
 914 04b6 2278     		ldrb	r2, [r4, #0]	@ zero_extendqisi2
 915 04b8 CB18     		adds	r3, r1, r3
 916 04ba DBB2     		uxtb	r3, r3
 917              	.LVL68:
 918 04bc 2B70     		strb	r3, [r5, #0]
 919 04be 9B18     		adds	r3, r3, r2
 920              	.LVL69:
 921 04c0 2370     		strb	r3, [r4, #0]
 922 04c2 7A48     		ldr	r0, .L370+8
 923 04c4 FFF7FEFF 		bl	uart_transmit
 924              	.LVL70:
 925              	.LBE137:
 926              	.LBB138:
 927 04c8 B178     		ldrb	r1, [r6, #2]	@ zero_extendqisi2
 928              	.LVL71:
 929 04ca 2B78     		ldrb	r3, [r5, #0]	@ zero_extendqisi2
 930 04cc 2278     		ldrb	r2, [r4, #0]	@ zero_extendqisi2
 931 04ce CB18     		adds	r3, r1, r3
 932 04d0 DBB2     		uxtb	r3, r3
 933              	.LVL72:
 934 04d2 2B70     		strb	r3, [r5, #0]
 935 04d4 9B18     		adds	r3, r3, r2
 936              	.LVL73:
 937 04d6 2370     		strb	r3, [r4, #0]
 938 04d8 7448     		ldr	r0, .L370+8
 939 04da FFF7FEFF 		bl	uart_transmit
 940              	.LVL74:
 941              	.LBE138:
 942              	.LBB139:
 943 04de F178     		ldrb	r1, [r6, #3]	@ zero_extendqisi2
 944              	.LVL75:
 945 04e0 2B78     		ldrb	r3, [r5, #0]	@ zero_extendqisi2
 946 04e2 2278     		ldrb	r2, [r4, #0]	@ zero_extendqisi2
 947 04e4 CB18     		adds	r3, r1, r3
 948 04e6 DBB2     		uxtb	r3, r3
 949              	.LBE139:
 950              	.LBB140:
 951 04e8 764E     		ldr	r6, .L370+32
 952              	.LVL76:
 953              	.LBE140:
 954              	.LBB141:
 955 04ea 2B70     		strb	r3, [r5, #0]
 956 04ec 9B18     		adds	r3, r3, r2
 957              	.LVL77:
 958 04ee 2370     		strb	r3, [r4, #0]
 959 04f0 6E48     		ldr	r0, .L370+8
 960 04f2 FFF7FEFF 		bl	uart_transmit
 961              	.LVL78:
 962              	.LBE141:
 963              	.LBB142:
 964 04f6 3178     		ldrb	r1, [r6, #0]	@ zero_extendqisi2
 965              	.LVL79:
 966 04f8 2B78     		ldrb	r3, [r5, #0]	@ zero_extendqisi2
 967 04fa 2278     		ldrb	r2, [r4, #0]	@ zero_extendqisi2
 968 04fc CB18     		adds	r3, r1, r3
 969 04fe DBB2     		uxtb	r3, r3
 970              	.LVL80:
 971 0500 2B70     		strb	r3, [r5, #0]
 972 0502 9B18     		adds	r3, r3, r2
 973              	.LVL81:
 974 0504 2370     		strb	r3, [r4, #0]
 975 0506 6948     		ldr	r0, .L370+8
 976 0508 FFF7FEFF 		bl	uart_transmit
 977              	.LVL82:
 978              	.LBE142:
 979              	.LBB143:
 980 050c 7178     		ldrb	r1, [r6, #1]	@ zero_extendqisi2
 981              	.LVL83:
 982 050e 2B78     		ldrb	r3, [r5, #0]	@ zero_extendqisi2
 983 0510 2278     		ldrb	r2, [r4, #0]	@ zero_extendqisi2
 984 0512 CB18     		adds	r3, r1, r3
 985 0514 DBB2     		uxtb	r3, r3
 986              	.LVL84:
 987 0516 2B70     		strb	r3, [r5, #0]
 988 0518 9B18     		adds	r3, r3, r2
 989              	.LVL85:
 990 051a 2370     		strb	r3, [r4, #0]
 991 051c 6348     		ldr	r0, .L370+8
 992 051e FFF7FEFF 		bl	uart_transmit
 993              	.LVL86:
 994              	.LBE143:
 995              	.LBB144:
 996 0522 B178     		ldrb	r1, [r6, #2]	@ zero_extendqisi2
 997              	.LVL87:
 998 0524 2B78     		ldrb	r3, [r5, #0]	@ zero_extendqisi2
 999 0526 2278     		ldrb	r2, [r4, #0]	@ zero_extendqisi2
 1000 0528 CB18     		adds	r3, r1, r3
 1001 052a DBB2     		uxtb	r3, r3
 1002              	.LVL88:
 1003 052c 2B70     		strb	r3, [r5, #0]
 1004 052e 9B18     		adds	r3, r3, r2
 1005              	.LVL89:
 1006 0530 2370     		strb	r3, [r4, #0]
 1007 0532 5E48     		ldr	r0, .L370+8
 1008 0534 FFF7FEFF 		bl	uart_transmit
 1009              	.LVL90:
 1010              	.LBE144:
 1011              	.LBB145:
 1012 0538 F178     		ldrb	r1, [r6, #3]	@ zero_extendqisi2
 1013              	.LVL91:
 1014 053a 2B78     		ldrb	r3, [r5, #0]	@ zero_extendqisi2
 1015 053c 2278     		ldrb	r2, [r4, #0]	@ zero_extendqisi2
 1016 053e CB18     		adds	r3, r1, r3
 1017 0540 DBB2     		uxtb	r3, r3
 1018              	.LBE145:
 1019              	.LBB146:
 1020 0542 614E     		ldr	r6, .L370+36
 1021              	.LVL92:
 1022              	.LBE146:
 1023              	.LBB147:
 1024 0544 2B70     		strb	r3, [r5, #0]
 1025 0546 9B18     		adds	r3, r3, r2
 1026              	.LVL93:
 1027 0548 2370     		strb	r3, [r4, #0]
 1028 054a 5848     		ldr	r0, .L370+8
 1029 054c FFF7FEFF 		bl	uart_transmit
 1030              	.LVL94:
 1031              	.LBE147:
 1032              	.LBB148:
 1033 0550 3178     		ldrb	r1, [r6, #0]	@ zero_extendqisi2
 1034              	.LVL95:
 1035 0552 2B78     		ldrb	r3, [r5, #0]	@ zero_extendqisi2
 1036 0554 2278     		ldrb	r2, [r4, #0]	@ zero_extendqisi2
 1037 0556 CB18     		adds	r3, r1, r3
 1038 0558 DBB2     		uxtb	r3, r3
 1039              	.LVL96:
 1040 055a 2B70     		strb	r3, [r5, #0]
 1041 055c 9B18     		adds	r3, r3, r2
 1042              	.LVL97:
 1043 055e 2370     		strb	r3, [r4, #0]
 1044 0560 5248     		ldr	r0, .L370+8
 1045 0562 FFF7FEFF 		bl	uart_transmit
 1046              	.LVL98:
 1047              	.LBE148:
 1048              	.LBB149:
 1049 0566 7178     		ldrb	r1, [r6, #1]	@ zero_extendqisi2
 1050              	.LVL99:
 1051 0568 2B78     		ldrb	r3, [r5, #0]	@ zero_extendqisi2
 1052 056a 2278     		ldrb	r2, [r4, #0]	@ zero_extendqisi2
 1053 056c CB18     		adds	r3, r1, r3
 1054 056e DBB2     		uxtb	r3, r3
 1055              	.LVL100:
 1056 0570 2B70     		strb	r3, [r5, #0]
 1057 0572 9B18     		adds	r3, r3, r2
 1058              	.LVL101:
 1059 0574 2370     		strb	r3, [r4, #0]
 1060 0576 4D48     		ldr	r0, .L370+8
 1061 0578 FFF7FEFF 		bl	uart_transmit
 1062              	.LVL102:
 1063              	.LBE149:
 1064              	.LBB150:
 1065 057c B178     		ldrb	r1, [r6, #2]	@ zero_extendqisi2
 1066              	.LVL103:
 1067 057e 2B78     		ldrb	r3, [r5, #0]	@ zero_extendqisi2
 1068 0580 2278     		ldrb	r2, [r4, #0]	@ zero_extendqisi2
 1069 0582 CB18     		adds	r3, r1, r3
 1070 0584 DBB2     		uxtb	r3, r3
 1071              	.LVL104:
 1072 0586 2B70     		strb	r3, [r5, #0]
 1073 0588 9B18     		adds	r3, r3, r2
 1074              	.LVL105:
 1075 058a 2370     		strb	r3, [r4, #0]
 1076 058c 4748     		ldr	r0, .L370+8
 1077 058e FFF7FEFF 		bl	uart_transmit
 1078              	.LVL106:
 1079              	.LBE150:
 1080              	.LBB151:
 1081 0592 F178     		ldrb	r1, [r6, #3]	@ zero_extendqisi2
 1082              	.LVL107:
 1083 0594 2B78     		ldrb	r3, [r5, #0]	@ zero_extendqisi2
 1084 0596 2278     		ldrb	r2, [r4, #0]	@ zero_extendqisi2
 1085 0598 CB18     		adds	r3, r1, r3
 1086 059a DBB2     		uxtb	r3, r3
 1087              	.LBE151:
 1088              	.LBB152:
 1089 059c 4B4E     		ldr	r6, .L370+40
 1090              	.LVL108:
 1091              	.LBE152:
 1092              	.LBB153:
 1093 059e 2B70     		strb	r3, [r5, #0]
 1094 05a0 9B18     		adds	r3, r3, r2
 1095              	.LVL109:
 1096 05a2 2370     		strb	r3, [r4, #0]
 1097 05a4 4148     		ldr	r0, .L370+8
 1098 05a6 FFF7FEFF 		bl	uart_transmit
 1099              	.LVL110:
 1100              	.LBE153:
 1101              	.LBB154:
 1102 05aa 3178     		ldrb	r1, [r6, #0]	@ zero_extendqisi2
 1103              	.LVL111:
 1104 05ac 2B78     		ldrb	r3, [r5, #0]	@ zero_extendqisi2
 1105 05ae 2278     		ldrb	r2, [r4, #0]	@ zero_extendqisi2
 1106 05b0 CB18     		adds	r3, r1, r3
 1107 05b2 DBB2     		uxtb	r3, r3
 1108              	.LVL112:
 1109 05b4 2B70     		strb	r3, [r5, #0]
 1110 05b6 9B18     		adds	r3, r3, r2
 1111              	.LVL113:
 1112 05b8 2370     		strb	r3, [r4, #0]
 1113 05ba 3C48     		ldr	r0, .L370+8
 1114 05bc FFF7FEFF 		bl	uart_transmit
 1115              	.LVL114:
 1116              	.LBE154:
 1117              	.LBB155:
 1118 05c0 7178     		ldrb	r1, [r6, #1]	@ zero_extendqisi2
 1119              	.LVL115:
 1120 05c2 2B78     		ldrb	r3, [r5, #0]	@ zero_extendqisi2
 1121 05c4 2278     		ldrb	r2, [r4, #0]	@ zero_extendqisi2
 1122 05c6 CB18     		adds	r3, r1, r3
 1123 05c8 DBB2     		uxtb	r3, r3
 1124              	.LVL116:
 1125 05ca 2B70     		strb	r3, [r5, #0]
 1126 05cc 9B18     		adds	r3, r3, r2
 1127              	.LVL117:
 1128 05ce 2370     		strb	r3, [r4, #0]
 1129 05d0 3648     		ldr	r0, .L370+8
 1130 05d2 FFF7FEFF 		bl	uart_transmit
 1131              	.LVL118:
 1132              	.LBE155:
 1133              	.LBB156:
 1134 05d6 B178     		ldrb	r1, [r6, #2]	@ zero_extendqisi2
 1135              	.LVL119:
 1136 05d8 2B78     		ldrb	r3, [r5, #0]	@ zero_extendqisi2
 1137 05da 2278     		ldrb	r2, [r4, #0]	@ zero_extendqisi2
 1138 05dc CB18     		adds	r3, r1, r3
 1139 05de DBB2     		uxtb	r3, r3
 1140              	.LVL120:
 1141 05e0 2B70     		strb	r3, [r5, #0]
 1142 05e2 9B18     		adds	r3, r3, r2
 1143              	.LVL121:
 1144 05e4 2370     		strb	r3, [r4, #0]
 1145 05e6 3148     		ldr	r0, .L370+8
 1146 05e8 FFF7FEFF 		bl	uart_transmit
 1147              	.LVL122:
 1148              	.LBE156:
 1149              	.LBB157:
 1150 05ec F178     		ldrb	r1, [r6, #3]	@ zero_extendqisi2
 1151              	.LVL123:
 1152 05ee 2B78     		ldrb	r3, [r5, #0]	@ zero_extendqisi2
 1153 05f0 2278     		ldrb	r2, [r4, #0]	@ zero_extendqisi2
 1154 05f2 CB18     		adds	r3, r1, r3
 1155 05f4 DBB2     		uxtb	r3, r3
 1156              	.LBE157:
 1157              	.LBB158:
 1158 05f6 364E     		ldr	r6, .L370+44
 1159              	.LVL124:
 1160              	.LBE158:
 1161              	.LBB159:
 1162 05f8 2B70     		strb	r3, [r5, #0]
 1163 05fa 9B18     		adds	r3, r3, r2
 1164              	.LVL125:
 1165 05fc 2370     		strb	r3, [r4, #0]
 1166 05fe 2B48     		ldr	r0, .L370+8
 1167 0600 FFF7FEFF 		bl	uart_transmit
 1168              	.LVL126:
 1169              	.LBE159:
 1170              	.LBB160:
 1171 0604 3178     		ldrb	r1, [r6, #0]	@ zero_extendqisi2
 1172              	.LVL127:
 1173 0606 2B78     		ldrb	r3, [r5, #0]	@ zero_extendqisi2
 1174 0608 2278     		ldrb	r2, [r4, #0]	@ zero_extendqisi2
 1175 060a CB18     		adds	r3, r1, r3
 1176 060c DBB2     		uxtb	r3, r3
 1177              	.LVL128:
 1178 060e 2B70     		strb	r3, [r5, #0]
 1179 0610 9B18     		adds	r3, r3, r2
 1180              	.LVL129:
 1181 0612 2370     		strb	r3, [r4, #0]
 1182 0614 2548     		ldr	r0, .L370+8
 1183 0616 FFF7FEFF 		bl	uart_transmit
 1184              	.LVL130:
 1185              	.LBE160:
 1186              	.LBB161:
 1187 061a 7178     		ldrb	r1, [r6, #1]	@ zero_extendqisi2
 1188              	.LVL131:
 1189 061c 2B78     		ldrb	r3, [r5, #0]	@ zero_extendqisi2
 1190 061e 2278     		ldrb	r2, [r4, #0]	@ zero_extendqisi2
 1191 0620 CB18     		adds	r3, r1, r3
 1192 0622 DBB2     		uxtb	r3, r3
 1193              	.LVL132:
 1194 0624 2B70     		strb	r3, [r5, #0]
 1195 0626 9B18     		adds	r3, r3, r2
 1196              	.LVL133:
 1197 0628 2370     		strb	r3, [r4, #0]
 1198 062a 2048     		ldr	r0, .L370+8
 1199 062c FFF7FEFF 		bl	uart_transmit
 1200              	.LVL134:
 1201              	.LBE161:
 1202              	.LBB162:
 1203 0630 B178     		ldrb	r1, [r6, #2]	@ zero_extendqisi2
 1204              	.LVL135:
 1205 0632 2B78     		ldrb	r3, [r5, #0]	@ zero_extendqisi2
 1206 0634 2278     		ldrb	r2, [r4, #0]	@ zero_extendqisi2
 1207 0636 CB18     		adds	r3, r1, r3
 1208 0638 DBB2     		uxtb	r3, r3
 1209              	.LVL136:
 1210 063a 2B70     		strb	r3, [r5, #0]
 1211 063c 9B18     		adds	r3, r3, r2
 1212              	.LVL137:
 1213 063e 2370     		strb	r3, [r4, #0]
 1214 0640 1A48     		ldr	r0, .L370+8
 1215 0642 FFF7FEFF 		bl	uart_transmit
 1216              	.LVL138:
 1217              	.LBE162:
 1218              	.LBB163:
 1219 0646 F178     		ldrb	r1, [r6, #3]	@ zero_extendqisi2
 1220              	.LVL139:
 1221 0648 2B78     		ldrb	r3, [r5, #0]	@ zero_extendqisi2
 1222 064a 2278     		ldrb	r2, [r4, #0]	@ zero_extendqisi2
 1223 064c CB18     		adds	r3, r1, r3
 1224 064e DBB2     		uxtb	r3, r3
 1225              	.LBE163:
 1226              	.LBB164:
 1227 0650 204E     		ldr	r6, .L370+48
 1228              	.LVL140:
 1229              	.LBE164:
 1230              	.LBB165:
 1231 0652 2B70     		strb	r3, [r5, #0]
 1232 0654 9B18     		adds	r3, r3, r2
 1233              	.LVL141:
 1234 0656 2370     		strb	r3, [r4, #0]
 1235 0658 1448     		ldr	r0, .L370+8
 1236 065a FFF7FEFF 		bl	uart_transmit
 1237              	.LVL142:
 1238              	.LBE165:
 1239              	.LBB166:
 1240 065e 3178     		ldrb	r1, [r6, #0]	@ zero_extendqisi2
 1241              	.LVL143:
 1242 0660 2B78     		ldrb	r3, [r5, #0]	@ zero_extendqisi2
 1243 0662 2278     		ldrb	r2, [r4, #0]	@ zero_extendqisi2
 1244 0664 CB18     		adds	r3, r1, r3
 1245 0666 DBB2     		uxtb	r3, r3
 1246              	.LVL144:
 1247 0668 2B70     		strb	r3, [r5, #0]
 1248 066a 9B18     		adds	r3, r3, r2
 1249              	.LVL145:
 1250 066c 2370     		strb	r3, [r4, #0]
 1251 066e 0F48     		ldr	r0, .L370+8
 1252 0670 FFF7FEFF 		bl	uart_transmit
 1253              	.LVL146:
 1254              	.LBE166:
 1255              	.LBB167:
 1256 0674 7178     		ldrb	r1, [r6, #1]	@ zero_extendqisi2
 1257              	.LVL147:
 1258 0676 2B78     		ldrb	r3, [r5, #0]	@ zero_extendqisi2
 1259 0678 2278     		ldrb	r2, [r4, #0]	@ zero_extendqisi2
 1260 067a CB18     		adds	r3, r1, r3
 1261 067c DBB2     		uxtb	r3, r3
 1262              	.LVL148:
 1263 067e 2B70     		strb	r3, [r5, #0]
 1264 0680 9B18     		adds	r3, r3, r2
 1265              	.LVL149:
 1266 0682 2370     		strb	r3, [r4, #0]
 1267 0684 0948     		ldr	r0, .L370+8
 1268 0686 FFF7FEFF 		bl	uart_transmit
 1269              	.LVL150:
 1270              	.LBE167:
 1271              	.LBB168:
 1272 068a B178     		ldrb	r1, [r6, #2]	@ zero_extendqisi2
 1273              	.LVL151:
 1274 068c 2B78     		ldrb	r3, [r5, #0]	@ zero_extendqisi2
 1275 068e 2278     		ldrb	r2, [r4, #0]	@ zero_extendqisi2
 1276 0690 CB18     		adds	r3, r1, r3
 1277 0692 DBB2     		uxtb	r3, r3
 1278              	.LVL152:
 1279 0694 2B70     		strb	r3, [r5, #0]
 1280 0696 9B18     		adds	r3, r3, r2
 1281              	.LVL153:
 1282 0698 2370     		strb	r3, [r4, #0]
 1283 069a 0448     		ldr	r0, .L370+8
 1284 069c FFF7FEFF 		bl	uart_transmit
 1285              	.LVL154:
 1286              	.LBE168:
 1287              	.LBB169:
 1288 06a0 F178     		ldrb	r1, [r6, #3]	@ zero_extendqisi2
 1289 06a2 19E0     		b	.L371
 1290              	.L372:
 1291              		.align	2
 1292              	.L370:
 1293 06a4 00000000 		.word	downlink_nb_ovrn
 1294 06a8 00000000 		.word	.LANCHOR12
 1295 06ac 00000000 		.word	uart2
 1296 06b0 00000000 		.word	downlink_nb_bytes
 1297 06b4 00000000 		.word	downlink_nb_msgs
 1298 06b8 00000000 		.word	ck_a
 1299 06bc 00000000 		.word	ck_b
 1300 06c0 00000000 		.word	h_ctl_roll_setpoint
 1301 06c4 00000000 		.word	h_ctl_pitch_loop_setpoint
 1302 06c8 00000000 		.word	h_ctl_course_setpoint
 1303 06cc 00000000 		.word	desired_x
 1304 06d0 00000000 		.word	desired_y
 1305 06d4 00000000 		.word	v_ctl_altitude_setpoint
 1306              	.L371:
 1307              	.LVL155:
 1308 06d8 2B78     		ldrb	r3, [r5, #0]	@ zero_extendqisi2
 1309 06da 2278     		ldrb	r2, [r4, #0]	@ zero_extendqisi2
 1310 06dc CB18     		adds	r3, r1, r3
 1311 06de DBB2     		uxtb	r3, r3
 1312              	.LBE169:
 1313              	.LBB170:
 1314 06e0 1D4E     		ldr	r6, .L373
 1315              	.LVL156:
 1316              	.LBE170:
 1317              	.LBB171:
 1318 06e2 2B70     		strb	r3, [r5, #0]
 1319 06e4 9B18     		adds	r3, r3, r2
 1320              	.LVL157:
 1321 06e6 2370     		strb	r3, [r4, #0]
 1322 06e8 1C48     		ldr	r0, .L373+4
 1323 06ea FFF7FEFF 		bl	uart_transmit
 1324              	.LVL158:
 1325              	.LBE171:
 1326              	.LBB172:
 1327 06ee 3178     		ldrb	r1, [r6, #0]	@ zero_extendqisi2
 1328              	.LVL159:
 1329 06f0 2B78     		ldrb	r3, [r5, #0]	@ zero_extendqisi2
 1330 06f2 2278     		ldrb	r2, [r4, #0]	@ zero_extendqisi2
 1331 06f4 CB18     		adds	r3, r1, r3
 1332 06f6 DBB2     		uxtb	r3, r3
 1333              	.LVL160:
 1334 06f8 2B70     		strb	r3, [r5, #0]
 1335 06fa 9B18     		adds	r3, r3, r2
 1336              	.LVL161:
 1337 06fc 2370     		strb	r3, [r4, #0]
 1338 06fe 1748     		ldr	r0, .L373+4
 1339 0700 FFF7FEFF 		bl	uart_transmit
 1340              	.LVL162:
 1341              	.LBE172:
 1342              	.LBB173:
 1343 0704 7178     		ldrb	r1, [r6, #1]	@ zero_extendqisi2
 1344              	.LVL163:
 1345 0706 2B78     		ldrb	r3, [r5, #0]	@ zero_extendqisi2
 1346 0708 2278     		ldrb	r2, [r4, #0]	@ zero_extendqisi2
 1347 070a CB18     		adds	r3, r1, r3
 1348 070c DBB2     		uxtb	r3, r3
 1349              	.LVL164:
 1350 070e 2B70     		strb	r3, [r5, #0]
 1351 0710 9B18     		adds	r3, r3, r2
 1352              	.LVL165:
 1353 0712 2370     		strb	r3, [r4, #0]
 1354 0714 1148     		ldr	r0, .L373+4
 1355 0716 FFF7FEFF 		bl	uart_transmit
 1356              	.LVL166:
 1357              	.LBE173:
 1358              	.LBB174:
 1359 071a B178     		ldrb	r1, [r6, #2]	@ zero_extendqisi2
 1360              	.LVL167:
 1361 071c 2B78     		ldrb	r3, [r5, #0]	@ zero_extendqisi2
 1362 071e 2278     		ldrb	r2, [r4, #0]	@ zero_extendqisi2
 1363 0720 CB18     		adds	r3, r1, r3
 1364 0722 DBB2     		uxtb	r3, r3
 1365              	.LVL168:
 1366 0724 2B70     		strb	r3, [r5, #0]
 1367 0726 9B18     		adds	r3, r3, r2
 1368              	.LVL169:
 1369 0728 2370     		strb	r3, [r4, #0]
 1370 072a 0C48     		ldr	r0, .L373+4
 1371 072c FFF7FEFF 		bl	uart_transmit
 1372              	.LVL170:
 1373              	.LBE174:
 1374              	.LBB175:
 1375 0730 F178     		ldrb	r1, [r6, #3]	@ zero_extendqisi2
 1376              	.LVL171:
 1377 0732 2B78     		ldrb	r3, [r5, #0]	@ zero_extendqisi2
 1378 0734 2278     		ldrb	r2, [r4, #0]	@ zero_extendqisi2
 1379 0736 CB18     		adds	r3, r1, r3
 1380 0738 DBB2     		uxtb	r3, r3
 1381              	.LVL172:
 1382 073a 2B70     		strb	r3, [r5, #0]
 1383 073c 9B18     		adds	r3, r3, r2
 1384              	.LVL173:
 1385 073e 2370     		strb	r3, [r4, #0]
 1386 0740 0648     		ldr	r0, .L373+4
 1387 0742 FFF7FEFF 		bl	uart_transmit
 1388              	.LVL174:
 1389              	.LBE175:
 1390 0746 2978     		ldrb	r1, [r5, #0]	@ zero_extendqisi2
 1391 0748 0448     		ldr	r0, .L373+4
 1392 074a FFF7FEFF 		bl	uart_transmit
 1393 074e 0348     		ldr	r0, .L373+4
 1394 0750 2178     		ldrb	r1, [r4, #0]	@ zero_extendqisi2
 1395 0752 FFF7FEFF 		bl	uart_transmit
 1396 0756 07E0     		b	.L31
 1397              	.L374:
 1398              		.align	2
 1399              	.L373:
 1400 0758 00000000 		.word	v_ctl_climb_setpoint
 1401 075c 00000000 		.word	uart2
 1402              	.LVL175:
 1403              	.L32:
 1404              		.loc 1 404 0 discriminator 48
 1405 0760 A94B     		ldr	r3, .L375+16
 1406 0762 1A78     		ldrb	r2, [r3, #0]	@ zero_extendqisi2
 1407 0764 0132     		adds	r2, r2, #1
 1408 0766 1A70     		strb	r2, [r3, #0]
 1409              	.L31:
 1410              		.loc 1 404 0 discriminator 46
 1411 0768 A84B     		ldr	r3, .L375+20
 1412 076a 1B78     		ldrb	r3, [r3, #0]	@ zero_extendqisi2
 1413 076c 0C2B     		cmp	r3, #12
 1414 076e 40F08B82 		bne	.L33
 1415              	.LBB176:
 1416              		.loc 1 404 0 discriminator 1
 1417 0772 A74C     		ldr	r4, .L375+24
 1418 0774 236C     		ldr	r3, [r4, #64]
 1419 0776 A06C     		ldr	r0, [r4, #72]
 1420 0778 5B42     		negs	r3, r3
 1421 077a ADF82430 		strh	r3, [sp, #36]	@ movhi
 1422              	.LVL176:
 1423 077e FFF7FEFF 		bl	__aeabi_i2d
 1424 0782 9DA3     		adr	r3, .L375
 1425 0784 D3E90023 		ldrd	r2, [r3]
 1426 0788 FFF7FEFF 		bl	__aeabi_dmul
 1427 078c 9CA3     		adr	r3, .L375+8
 1428 078e D3E90023 		ldrd	r2, [r3]
 1429 0792 FFF7FEFF 		bl	__aeabi_ddiv
 1430 0796 FFF7FEFF 		bl	__aeabi_d2iz
 1431 079a 2121     		movs	r1, #33
 1432 079c ADF82600 		strh	r0, [sp, #38]	@ movhi
 1433              	.LVL177:
 1434 07a0 9C48     		ldr	r0, .L375+28
 1435 07a2 FFF7FEFF 		bl	uart_check_free_space
 1436 07a6 0028     		cmp	r0, #0
 1437 07a8 00F08681 		beq	.L34
 1438              		.loc 1 404 0 discriminator 3
 1439 07ac 9A4B     		ldr	r3, .L375+32
 1440              	.LBB177:
 1441 07ae 9921     		movs	r1, #153
 1442              	.LBE177:
 1443 07b0 1A88     		ldrh	r2, [r3, #0]
 1444              	.LBB178:
 1445 07b2 9848     		ldr	r0, .L375+28
 1446              	.LBE178:
 1447 07b4 2132     		adds	r2, r2, #33
 1448 07b6 1A80     		strh	r2, [r3, #0]	@ movhi
 1449 07b8 984B     		ldr	r3, .L375+36
 1450 07ba 994E     		ldr	r6, .L375+40
 1451 07bc 1A88     		ldrh	r2, [r3, #0]
 1452 07be 994D     		ldr	r5, .L375+44
 1453 07c0 0132     		adds	r2, r2, #1
 1454 07c2 1A80     		strh	r2, [r3, #0]	@ movhi
 1455              	.LBB179:
 1456 07c4 FFF7FEFF 		bl	uart_transmit
 1457              	.LVL178:
 1458 07c8 2121     		movs	r1, #33
 1459 07ca 9248     		ldr	r0, .L375+28
 1460 07cc FFF7FEFF 		bl	uart_transmit
 1461              	.LBE179:
 1462 07d0 2223     		movs	r3, #34
 1463 07d2 3370     		strb	r3, [r6, #0]
 1464 07d4 4323     		movs	r3, #67
 1465 07d6 2B70     		strb	r3, [r5, #0]
 1466 07d8 0121     		movs	r1, #1
 1467 07da 8E48     		ldr	r0, .L375+28
 1468 07dc FFF7FEFF 		bl	uart_transmit
 1469 07e0 3378     		ldrb	r3, [r6, #0]	@ zero_extendqisi2
 1470 07e2 2A78     		ldrb	r2, [r5, #0]	@ zero_extendqisi2
 1471 07e4 0833     		adds	r3, r3, #8
 1472 07e6 DBB2     		uxtb	r3, r3
 1473 07e8 3370     		strb	r3, [r6, #0]
 1474 07ea 9B18     		adds	r3, r3, r2
 1475 07ec 2B70     		strb	r3, [r5, #0]
 1476 07ee 0821     		movs	r1, #8
 1477 07f0 8848     		ldr	r0, .L375+28
 1478 07f2 FFF7FEFF 		bl	uart_transmit
 1479              	.LBB180:
 1480 07f6 94F85B10 		ldrb	r1, [r4, #91]	@ zero_extendqisi2
 1481              	.LVL179:
 1482 07fa 3378     		ldrb	r3, [r6, #0]	@ zero_extendqisi2
 1483 07fc 2A78     		ldrb	r2, [r5, #0]	@ zero_extendqisi2
 1484 07fe CB18     		adds	r3, r1, r3
 1485 0800 DBB2     		uxtb	r3, r3
 1486              	.LVL180:
 1487 0802 3370     		strb	r3, [r6, #0]
 1488 0804 9B18     		adds	r3, r3, r2
 1489              	.LVL181:
 1490 0806 2B70     		strb	r3, [r5, #0]
 1491 0808 8248     		ldr	r0, .L375+28
 1492 080a FFF7FEFF 		bl	uart_transmit
 1493              	.LVL182:
 1494              	.LBE180:
 1495              	.LBB181:
 1496 080e 217F     		ldrb	r1, [r4, #28]	@ zero_extendqisi2
 1497              	.LVL183:
 1498 0810 3378     		ldrb	r3, [r6, #0]	@ zero_extendqisi2
 1499 0812 2A78     		ldrb	r2, [r5, #0]	@ zero_extendqisi2
 1500 0814 CB18     		adds	r3, r1, r3
 1501 0816 DBB2     		uxtb	r3, r3
 1502              	.LVL184:
 1503 0818 3370     		strb	r3, [r6, #0]
 1504 081a 9B18     		adds	r3, r3, r2
 1505              	.LVL185:
 1506 081c 2B70     		strb	r3, [r5, #0]
 1507 081e 7D48     		ldr	r0, .L375+28
 1508 0820 FFF7FEFF 		bl	uart_transmit
 1509              	.LVL186:
 1510              	.LBE181:
 1511              	.LBB182:
 1512 0824 617F     		ldrb	r1, [r4, #29]	@ zero_extendqisi2
 1513              	.LVL187:
 1514 0826 3378     		ldrb	r3, [r6, #0]	@ zero_extendqisi2
 1515 0828 2A78     		ldrb	r2, [r5, #0]	@ zero_extendqisi2
 1516 082a CB18     		adds	r3, r1, r3
 1517 082c DBB2     		uxtb	r3, r3
 1518              	.LVL188:
 1519 082e 3370     		strb	r3, [r6, #0]
 1520 0830 9B18     		adds	r3, r3, r2
 1521              	.LVL189:
 1522 0832 2B70     		strb	r3, [r5, #0]
 1523 0834 7748     		ldr	r0, .L375+28
 1524 0836 FFF7FEFF 		bl	uart_transmit
 1525              	.LVL190:
 1526              	.LBE182:
 1527              	.LBB183:
 1528 083a A17F     		ldrb	r1, [r4, #30]	@ zero_extendqisi2
 1529              	.LVL191:
 1530 083c 3378     		ldrb	r3, [r6, #0]	@ zero_extendqisi2
 1531 083e 2A78     		ldrb	r2, [r5, #0]	@ zero_extendqisi2
 1532 0840 CB18     		adds	r3, r1, r3
 1533 0842 DBB2     		uxtb	r3, r3
 1534              	.LVL192:
 1535 0844 3370     		strb	r3, [r6, #0]
 1536 0846 9B18     		adds	r3, r3, r2
 1537              	.LVL193:
 1538 0848 2B70     		strb	r3, [r5, #0]
 1539 084a 7248     		ldr	r0, .L375+28
 1540 084c FFF7FEFF 		bl	uart_transmit
 1541              	.LVL194:
 1542              	.LBE183:
 1543              	.LBB184:
 1544 0850 E17F     		ldrb	r1, [r4, #31]	@ zero_extendqisi2
 1545              	.LVL195:
 1546 0852 3378     		ldrb	r3, [r6, #0]	@ zero_extendqisi2
 1547 0854 2A78     		ldrb	r2, [r5, #0]	@ zero_extendqisi2
 1548 0856 CB18     		adds	r3, r1, r3
 1549 0858 DBB2     		uxtb	r3, r3
 1550              	.LVL196:
 1551 085a 3370     		strb	r3, [r6, #0]
 1552 085c 9B18     		adds	r3, r3, r2
 1553              	.LVL197:
 1554 085e 2B70     		strb	r3, [r5, #0]
 1555 0860 6C48     		ldr	r0, .L375+28
 1556 0862 FFF7FEFF 		bl	uart_transmit
 1557              	.LVL198:
 1558              	.LBE184:
 1559              	.LBB185:
 1560 0866 217E     		ldrb	r1, [r4, #24]	@ zero_extendqisi2
 1561              	.LVL199:
 1562 0868 3378     		ldrb	r3, [r6, #0]	@ zero_extendqisi2
 1563 086a 2A78     		ldrb	r2, [r5, #0]	@ zero_extendqisi2
 1564 086c CB18     		adds	r3, r1, r3
 1565 086e DBB2     		uxtb	r3, r3
 1566              	.LVL200:
 1567 0870 3370     		strb	r3, [r6, #0]
 1568 0872 9B18     		adds	r3, r3, r2
 1569              	.LVL201:
 1570 0874 2B70     		strb	r3, [r5, #0]
 1571 0876 6748     		ldr	r0, .L375+28
 1572 0878 FFF7FEFF 		bl	uart_transmit
 1573              	.LVL202:
 1574              	.LBE185:
 1575              	.LBB186:
 1576 087c 617E     		ldrb	r1, [r4, #25]	@ zero_extendqisi2
 1577              	.LVL203:
 1578 087e 3378     		ldrb	r3, [r6, #0]	@ zero_extendqisi2
 1579 0880 2A78     		ldrb	r2, [r5, #0]	@ zero_extendqisi2
 1580 0882 CB18     		adds	r3, r1, r3
 1581 0884 DBB2     		uxtb	r3, r3
 1582              	.LVL204:
 1583 0886 3370     		strb	r3, [r6, #0]
 1584 0888 9B18     		adds	r3, r3, r2
 1585              	.LVL205:
 1586 088a 2B70     		strb	r3, [r5, #0]
 1587 088c 6148     		ldr	r0, .L375+28
 1588 088e FFF7FEFF 		bl	uart_transmit
 1589              	.LVL206:
 1590              	.LBE186:
 1591              	.LBB187:
 1592 0892 A17E     		ldrb	r1, [r4, #26]	@ zero_extendqisi2
 1593              	.LVL207:
 1594 0894 3378     		ldrb	r3, [r6, #0]	@ zero_extendqisi2
 1595 0896 2A78     		ldrb	r2, [r5, #0]	@ zero_extendqisi2
 1596 0898 CB18     		adds	r3, r1, r3
 1597 089a DBB2     		uxtb	r3, r3
 1598              	.LVL208:
 1599 089c 3370     		strb	r3, [r6, #0]
 1600 089e 9B18     		adds	r3, r3, r2
 1601              	.LVL209:
 1602 08a0 2B70     		strb	r3, [r5, #0]
 1603 08a2 5C48     		ldr	r0, .L375+28
 1604 08a4 FFF7FEFF 		bl	uart_transmit
 1605              	.LVL210:
 1606              	.LBE187:
 1607              	.LBB188:
 1608 08a8 E17E     		ldrb	r1, [r4, #27]	@ zero_extendqisi2
 1609              	.LVL211:
 1610 08aa 3378     		ldrb	r3, [r6, #0]	@ zero_extendqisi2
 1611 08ac 2A78     		ldrb	r2, [r5, #0]	@ zero_extendqisi2
 1612 08ae CB18     		adds	r3, r1, r3
 1613 08b0 DBB2     		uxtb	r3, r3
 1614              	.LVL212:
 1615 08b2 3370     		strb	r3, [r6, #0]
 1616 08b4 9B18     		adds	r3, r3, r2
 1617              	.LVL213:
 1618 08b6 2B70     		strb	r3, [r5, #0]
 1619 08b8 5648     		ldr	r0, .L375+28
 1620 08ba FFF7FEFF 		bl	uart_transmit
 1621              	.LVL214:
 1622              	.LBE188:
 1623              	.LBB189:
 1624 08be 9DF82610 		ldrb	r1, [sp, #38]	@ zero_extendqisi2
 1625              	.LVL215:
 1626 08c2 3378     		ldrb	r3, [r6, #0]	@ zero_extendqisi2
 1627 08c4 2A78     		ldrb	r2, [r5, #0]	@ zero_extendqisi2
 1628 08c6 CB18     		adds	r3, r1, r3
 1629 08c8 DBB2     		uxtb	r3, r3
 1630              	.LVL216:
 1631 08ca 3370     		strb	r3, [r6, #0]
 1632 08cc 9B18     		adds	r3, r3, r2
 1633              	.LVL217:
 1634 08ce 2B70     		strb	r3, [r5, #0]
 1635 08d0 5048     		ldr	r0, .L375+28
 1636 08d2 FFF7FEFF 		bl	uart_transmit
 1637              	.LVL218:
 1638              	.LBE189:
 1639              	.LBB190:
 1640 08d6 9DF82710 		ldrb	r1, [sp, #39]	@ zero_extendqisi2
 1641              	.LVL219:
 1642 08da 3378     		ldrb	r3, [r6, #0]	@ zero_extendqisi2
 1643 08dc 2A78     		ldrb	r2, [r5, #0]	@ zero_extendqisi2
 1644 08de CB18     		adds	r3, r1, r3
 1645 08e0 DBB2     		uxtb	r3, r3
 1646              	.LVL220:
 1647 08e2 3370     		strb	r3, [r6, #0]
 1648 08e4 9B18     		adds	r3, r3, r2
 1649              	.LVL221:
 1650 08e6 2B70     		strb	r3, [r5, #0]
 1651 08e8 4A48     		ldr	r0, .L375+28
 1652 08ea FFF7FEFF 		bl	uart_transmit
 1653              	.LVL222:
 1654              	.LBE190:
 1655              	.LBB191:
 1656 08ee 94F82810 		ldrb	r1, [r4, #40]	@ zero_extendqisi2
 1657              	.LVL223:
 1658 08f2 3378     		ldrb	r3, [r6, #0]	@ zero_extendqisi2
 1659 08f4 2A78     		ldrb	r2, [r5, #0]	@ zero_extendqisi2
 1660 08f6 CB18     		adds	r3, r1, r3
 1661 08f8 DBB2     		uxtb	r3, r3
 1662              	.LVL224:
 1663 08fa 3370     		strb	r3, [r6, #0]
 1664 08fc 9B18     		adds	r3, r3, r2
 1665              	.LVL225:
 1666 08fe 2B70     		strb	r3, [r5, #0]
 1667 0900 4448     		ldr	r0, .L375+28
 1668 0902 FFF7FEFF 		bl	uart_transmit
 1669              	.LVL226:
 1670              	.LBE191:
 1671              	.LBB192:
 1672 0906 94F82910 		ldrb	r1, [r4, #41]	@ zero_extendqisi2
 1673              	.LVL227:
 1674 090a 3378     		ldrb	r3, [r6, #0]	@ zero_extendqisi2
 1675 090c 2A78     		ldrb	r2, [r5, #0]	@ zero_extendqisi2
 1676 090e CB18     		adds	r3, r1, r3
 1677 0910 DBB2     		uxtb	r3, r3
 1678              	.LVL228:
 1679 0912 3370     		strb	r3, [r6, #0]
 1680 0914 9B18     		adds	r3, r3, r2
 1681              	.LVL229:
 1682 0916 2B70     		strb	r3, [r5, #0]
 1683 0918 3E48     		ldr	r0, .L375+28
 1684 091a FFF7FEFF 		bl	uart_transmit
 1685              	.LVL230:
 1686              	.LBE192:
 1687              	.LBB193:
 1688 091e 94F82A10 		ldrb	r1, [r4, #42]	@ zero_extendqisi2
 1689              	.LVL231:
 1690 0922 3378     		ldrb	r3, [r6, #0]	@ zero_extendqisi2
 1691 0924 2A78     		ldrb	r2, [r5, #0]	@ zero_extendqisi2
 1692 0926 CB18     		adds	r3, r1, r3
 1693 0928 DBB2     		uxtb	r3, r3
 1694              	.LVL232:
 1695 092a 3370     		strb	r3, [r6, #0]
 1696 092c 9B18     		adds	r3, r3, r2
 1697              	.LVL233:
 1698 092e 2B70     		strb	r3, [r5, #0]
 1699 0930 3848     		ldr	r0, .L375+28
 1700 0932 FFF7FEFF 		bl	uart_transmit
 1701              	.LVL234:
 1702              	.LBE193:
 1703              	.LBB194:
 1704 0936 94F82B10 		ldrb	r1, [r4, #43]	@ zero_extendqisi2
 1705              	.LVL235:
 1706 093a 3378     		ldrb	r3, [r6, #0]	@ zero_extendqisi2
 1707 093c 2A78     		ldrb	r2, [r5, #0]	@ zero_extendqisi2
 1708 093e CB18     		adds	r3, r1, r3
 1709 0940 DBB2     		uxtb	r3, r3
 1710              	.LVL236:
 1711 0942 3370     		strb	r3, [r6, #0]
 1712 0944 9B18     		adds	r3, r3, r2
 1713              	.LVL237:
 1714 0946 2B70     		strb	r3, [r5, #0]
 1715 0948 3248     		ldr	r0, .L375+28
 1716 094a FFF7FEFF 		bl	uart_transmit
 1717              	.LVL238:
 1718              	.LBE194:
 1719              	.LBB195:
 1720 094e 94F84410 		ldrb	r1, [r4, #68]	@ zero_extendqisi2
 1721              	.LVL239:
 1722 0952 3378     		ldrb	r3, [r6, #0]	@ zero_extendqisi2
 1723 0954 2A78     		ldrb	r2, [r5, #0]	@ zero_extendqisi2
 1724 0956 CB18     		adds	r3, r1, r3
 1725 0958 DBB2     		uxtb	r3, r3
 1726              	.LVL240:
 1727 095a 3370     		strb	r3, [r6, #0]
 1728 095c 9B18     		adds	r3, r3, r2
 1729              	.LVL241:
 1730 095e 2B70     		strb	r3, [r5, #0]
 1731 0960 2C48     		ldr	r0, .L375+28
 1732 0962 FFF7FEFF 		bl	uart_transmit
 1733              	.LVL242:
 1734              	.LBE195:
 1735              	.LBB196:
 1736 0966 94F84510 		ldrb	r1, [r4, #69]	@ zero_extendqisi2
 1737              	.LVL243:
 1738 096a 3378     		ldrb	r3, [r6, #0]	@ zero_extendqisi2
 1739 096c 2A78     		ldrb	r2, [r5, #0]	@ zero_extendqisi2
 1740 096e CB18     		adds	r3, r1, r3
 1741 0970 DBB2     		uxtb	r3, r3
 1742              	.LVL244:
 1743 0972 3370     		strb	r3, [r6, #0]
 1744 0974 9B18     		adds	r3, r3, r2
 1745              	.LVL245:
 1746 0976 2B70     		strb	r3, [r5, #0]
 1747 0978 2648     		ldr	r0, .L375+28
 1748 097a FFF7FEFF 		bl	uart_transmit
 1749              	.LVL246:
 1750              	.LBE196:
 1751              	.LBB197:
 1752 097e 9DF82410 		ldrb	r1, [sp, #36]	@ zero_extendqisi2
 1753              	.LVL247:
 1754 0982 3378     		ldrb	r3, [r6, #0]	@ zero_extendqisi2
 1755 0984 2A78     		ldrb	r2, [r5, #0]	@ zero_extendqisi2
 1756 0986 CB18     		adds	r3, r1, r3
 1757 0988 DBB2     		uxtb	r3, r3
 1758              	.LVL248:
 1759 098a 3370     		strb	r3, [r6, #0]
 1760 098c 9B18     		adds	r3, r3, r2
 1761              	.LVL249:
 1762 098e 2B70     		strb	r3, [r5, #0]
 1763 0990 2048     		ldr	r0, .L375+28
 1764 0992 FFF7FEFF 		bl	uart_transmit
 1765              	.LVL250:
 1766              	.LBE197:
 1767              	.LBB198:
 1768 0996 9DF82510 		ldrb	r1, [sp, #37]	@ zero_extendqisi2
 1769              	.LVL251:
 1770 099a 3378     		ldrb	r3, [r6, #0]	@ zero_extendqisi2
 1771 099c 2A78     		ldrb	r2, [r5, #0]	@ zero_extendqisi2
 1772 099e CB18     		adds	r3, r1, r3
 1773 09a0 DBB2     		uxtb	r3, r3
 1774              	.LVL252:
 1775 09a2 3370     		strb	r3, [r6, #0]
 1776 09a4 9B18     		adds	r3, r3, r2
 1777              	.LVL253:
 1778 09a6 2B70     		strb	r3, [r5, #0]
 1779 09a8 1A48     		ldr	r0, .L375+28
 1780 09aa FFF7FEFF 		bl	uart_transmit
 1781              	.LVL254:
 1782              	.LBE198:
 1783              	.LBB199:
 1784 09ae 94F85C10 		ldrb	r1, [r4, #92]	@ zero_extendqisi2
 1785              	.LVL255:
 1786 09b2 3378     		ldrb	r3, [r6, #0]	@ zero_extendqisi2
 1787 09b4 2A78     		ldrb	r2, [r5, #0]	@ zero_extendqisi2
 1788 09b6 CB18     		adds	r3, r1, r3
 1789 09b8 DBB2     		uxtb	r3, r3
 1790              	.LVL256:
 1791 09ba 3370     		strb	r3, [r6, #0]
 1792 09bc 9B18     		adds	r3, r3, r2
 1793              	.LVL257:
 1794 09be 2B70     		strb	r3, [r5, #0]
 1795 09c0 1448     		ldr	r0, .L375+28
 1796 09c2 FFF7FEFF 		bl	uart_transmit
 1797              	.LVL258:
 1798              	.LBE199:
 1799              	.LBB200:
 1800 09c6 94F85D10 		ldrb	r1, [r4, #93]	@ zero_extendqisi2
 1801              	.LVL259:
 1802 09ca 3378     		ldrb	r3, [r6, #0]	@ zero_extendqisi2
 1803 09cc 2A78     		ldrb	r2, [r5, #0]	@ zero_extendqisi2
 1804 09ce CB18     		adds	r3, r1, r3
 1805 09d0 DBB2     		uxtb	r3, r3
 1806              	.LVL260:
 1807 09d2 3370     		strb	r3, [r6, #0]
 1808 09d4 9B18     		adds	r3, r3, r2
 1809              	.LVL261:
 1810 09d6 2B70     		strb	r3, [r5, #0]
 1811 09d8 0E48     		ldr	r0, .L375+28
 1812 09da FFF7FEFF 		bl	uart_transmit
 1813              	.LVL262:
 1814              	.LBE200:
 1815              	.LBB201:
 1816 09de 94F86010 		ldrb	r1, [r4, #96]	@ zero_extendqisi2
 1817              	.LVL263:
 1818 09e2 3378     		ldrb	r3, [r6, #0]	@ zero_extendqisi2
 1819 09e4 2A78     		ldrb	r2, [r5, #0]	@ zero_extendqisi2
 1820 09e6 CB18     		adds	r3, r1, r3
 1821 09e8 DBB2     		uxtb	r3, r3
 1822              	.LVL264:
 1823 09ea 3370     		strb	r3, [r6, #0]
 1824 09ec 9B18     		adds	r3, r3, r2
 1825              	.LVL265:
 1826 09ee 2B70     		strb	r3, [r5, #0]
 1827 09f0 1AE0     		b	.L376
 1828              	.L377:
 1829 09f2 00BFAFF3 		.align	3
 1829      0080
 1830              	.L375:
 1831 09f8 F8C1631A 		.word	442745336
 1832 09fc DCA54C40 		.word	1078765020
 1833 0a00 00000000 		.word	0
 1834 0a04 80842E41 		.word	1093567616
 1835 0a08 00000000 		.word	downlink_nb_ovrn
 1836 0a0c 00000000 		.word	.LANCHOR13
 1837 0a10 00000000 		.word	gps
 1838 0a14 00000000 		.word	uart2
 1839 0a18 00000000 		.word	downlink_nb_bytes
 1840 0a1c 00000000 		.word	downlink_nb_msgs
 1841 0a20 00000000 		.word	ck_a
 1842 0a24 00000000 		.word	ck_b
 1843              	.L376:
 1844 0a28 8B48     		ldr	r0, .L378
 1845 0a2a FFF7FEFF 		bl	uart_transmit
 1846              	.LVL266:
 1847              	.LBE201:
 1848              	.LBB202:
 1849 0a2e 94F86110 		ldrb	r1, [r4, #97]	@ zero_extendqisi2
 1850              	.LVL267:
 1851 0a32 3378     		ldrb	r3, [r6, #0]	@ zero_extendqisi2
 1852 0a34 2A78     		ldrb	r2, [r5, #0]	@ zero_extendqisi2
 1853 0a36 CB18     		adds	r3, r1, r3
 1854 0a38 DBB2     		uxtb	r3, r3
 1855              	.LVL268:
 1856 0a3a 3370     		strb	r3, [r6, #0]
 1857 0a3c 9B18     		adds	r3, r3, r2
 1858              	.LVL269:
 1859 0a3e 2B70     		strb	r3, [r5, #0]
 1860 0a40 8548     		ldr	r0, .L378
 1861 0a42 FFF7FEFF 		bl	uart_transmit
 1862              	.LVL270:
 1863              	.LBE202:
 1864              	.LBB203:
 1865 0a46 94F86210 		ldrb	r1, [r4, #98]	@ zero_extendqisi2
 1866              	.LVL271:
 1867 0a4a 3378     		ldrb	r3, [r6, #0]	@ zero_extendqisi2
 1868 0a4c 2A78     		ldrb	r2, [r5, #0]	@ zero_extendqisi2
 1869 0a4e CB18     		adds	r3, r1, r3
 1870 0a50 DBB2     		uxtb	r3, r3
 1871              	.LVL272:
 1872 0a52 3370     		strb	r3, [r6, #0]
 1873 0a54 9B18     		adds	r3, r3, r2
 1874              	.LVL273:
 1875 0a56 2B70     		strb	r3, [r5, #0]
 1876 0a58 7F48     		ldr	r0, .L378
 1877 0a5a FFF7FEFF 		bl	uart_transmit
 1878              	.LVL274:
 1879              	.LBE203:
 1880              	.LBB204:
 1881 0a5e 94F86310 		ldrb	r1, [r4, #99]	@ zero_extendqisi2
 1882              	.LVL275:
 1883 0a62 3378     		ldrb	r3, [r6, #0]	@ zero_extendqisi2
 1884 0a64 2A78     		ldrb	r2, [r5, #0]	@ zero_extendqisi2
 1885 0a66 CB18     		adds	r3, r1, r3
 1886 0a68 DBB2     		uxtb	r3, r3
 1887              	.LVL276:
 1888 0a6a 3370     		strb	r3, [r6, #0]
 1889 0a6c 9B18     		adds	r3, r3, r2
 1890              	.LVL277:
 1891 0a6e 2B70     		strb	r3, [r5, #0]
 1892 0a70 7948     		ldr	r0, .L378
 1893 0a72 FFF7FEFF 		bl	uart_transmit
 1894              	.LVL278:
 1895              	.LBE204:
 1896              	.LBB205:
 1897 0a76 94F82410 		ldrb	r1, [r4, #36]	@ zero_extendqisi2
 1898              	.LVL279:
 1899 0a7a 3378     		ldrb	r3, [r6, #0]	@ zero_extendqisi2
 1900 0a7c 2A78     		ldrb	r2, [r5, #0]	@ zero_extendqisi2
 1901 0a7e CB18     		adds	r3, r1, r3
 1902 0a80 DBB2     		uxtb	r3, r3
 1903              	.LVL280:
 1904 0a82 3370     		strb	r3, [r6, #0]
 1905 0a84 9B18     		adds	r3, r3, r2
 1906              	.LVL281:
 1907 0a86 2B70     		strb	r3, [r5, #0]
 1908 0a88 7348     		ldr	r0, .L378
 1909 0a8a FFF7FEFF 		bl	uart_transmit
 1910              	.LVL282:
 1911              	.LBE205:
 1912              	.LBB206:
 1913 0a8e 734B     		ldr	r3, .L378+4
 1914 0a90 2A78     		ldrb	r2, [r5, #0]	@ zero_extendqisi2
 1915 0a92 1978     		ldrb	r1, [r3, #0]	@ zero_extendqisi2
 1916              	.LVL283:
 1917 0a94 3378     		ldrb	r3, [r6, #0]	@ zero_extendqisi2
 1918 0a96 7048     		ldr	r0, .L378
 1919 0a98 CB18     		adds	r3, r1, r3
 1920 0a9a DBB2     		uxtb	r3, r3
 1921              	.LVL284:
 1922 0a9c 3370     		strb	r3, [r6, #0]
 1923 0a9e 9B18     		adds	r3, r3, r2
 1924              	.LVL285:
 1925 0aa0 2B70     		strb	r3, [r5, #0]
 1926 0aa2 FFF7FEFF 		bl	uart_transmit
 1927              	.LVL286:
 1928              	.LBE206:
 1929 0aa6 3178     		ldrb	r1, [r6, #0]	@ zero_extendqisi2
 1930 0aa8 6B48     		ldr	r0, .L378
 1931 0aaa FFF7FEFF 		bl	uart_transmit
 1932 0aae 6A48     		ldr	r0, .L378
 1933 0ab0 2978     		ldrb	r1, [r5, #0]	@ zero_extendqisi2
 1934 0ab2 FFF7FEFF 		bl	uart_transmit
 1935 0ab6 03E0     		b	.L35
 1936              	.LVL287:
 1937              	.L34:
 1938              		.loc 1 404 0 discriminator 4
 1939 0ab8 694B     		ldr	r3, .L378+8
 1940 0aba 1A78     		ldrb	r2, [r3, #0]	@ zero_extendqisi2
 1941 0abc 0132     		adds	r2, r2, #1
 1942 0abe 1A70     		strb	r2, [r3, #0]
 1943              	.L35:
 1944              		.loc 1 404 0 discriminator 5
 1945 0ac0 684A     		ldr	r2, .L378+12
 1946 0ac2 92F85B30 		ldrb	r3, [r2, #91]	@ zero_extendqisi2
 1947 0ac6 032B     		cmp	r3, #3
 1948 0ac8 644B     		ldr	r3, .L378+4
 1949 0aca 06D0     		beq	.L36
 1950              		.loc 1 404 0 discriminator 6
 1951 0acc 1878     		ldrb	r0, [r3, #0]	@ zero_extendqisi2
 1952 0ace 92F86410 		ldrb	r1, [r2, #100]	@ zero_extendqisi2
 1953 0ad2 8842     		cmp	r0, r1
 1954 0ad4 01D3     		bcc	.L36
 1955              		.loc 1 404 0 discriminator 8
 1956 0ad6 0021     		movs	r1, #0
 1957 0ad8 1970     		strb	r1, [r3, #0]
 1958              	.L36:
 1959              		.loc 1 404 0 discriminator 7
 1960 0ada 92F86420 		ldrb	r2, [r2, #100]	@ zero_extendqisi2
 1961 0ade 1B78     		ldrb	r3, [r3, #0]	@ zero_extendqisi2
 1962 0ae0 B3EB420F 		cmp	r3, r2, lsl #1
 1963 0ae4 02DB     		blt	.L37
 1964              		.loc 1 404 0 discriminator 9
 1965 0ae6 5D4B     		ldr	r3, .L378+4
 1966 0ae8 0021     		movs	r1, #0
 1967 0aea 1970     		strb	r1, [r3, #0]
 1968              	.L37:
 1969              		.loc 1 404 0 discriminator 10
 1970 0aec 5B4E     		ldr	r6, .L378+4
 1971 0aee 3378     		ldrb	r3, [r6, #0]	@ zero_extendqisi2
 1972 0af0 9342     		cmp	r3, r2
 1973 0af2 80F0C580 		bcs	.L38
 1974              		.loc 1 404 0 discriminator 11
 1975 0af6 5B4F     		ldr	r7, .L378+12
 1976 0af8 07EBC303 		add	r3, r7, r3, lsl #3
 1977 0afc 93F86930 		ldrb	r3, [r3, #105]	@ zero_extendqisi2
 1978 0b00 002B     		cmp	r3, #0
 1979 0b02 00F0BD80 		beq	.L38
 1980              		.loc 1 404 0 discriminator 13
 1981 0b06 5448     		ldr	r0, .L378
 1982 0b08 0E21     		movs	r1, #14
 1983 0b0a FFF7FEFF 		bl	uart_check_free_space
 1984 0b0e 0028     		cmp	r0, #0
 1985 0b10 00F0B280 		beq	.L39
 1986              		.loc 1 404 0 discriminator 14
 1987 0b14 544B     		ldr	r3, .L378+16
 1988              	.LBB207:
 1989 0b16 9921     		movs	r1, #153
 1990              	.LBE207:
 1991 0b18 1A88     		ldrh	r2, [r3, #0]
 1992              	.LBB208:
 1993 0b1a 4F48     		ldr	r0, .L378
 1994              	.LBE208:
 1995 0b1c 0E32     		adds	r2, r2, #14
 1996 0b1e 1A80     		strh	r2, [r3, #0]	@ movhi
 1997 0b20 524B     		ldr	r3, .L378+20
 1998 0b22 534D     		ldr	r5, .L378+24
 1999 0b24 1A88     		ldrh	r2, [r3, #0]
 2000 0b26 534C     		ldr	r4, .L378+28
 2001 0b28 0132     		adds	r2, r2, #1
 2002 0b2a 1A80     		strh	r2, [r3, #0]	@ movhi
 2003              	.LBB209:
 2004 0b2c FFF7FEFF 		bl	uart_transmit
 2005              	.LVL288:
 2006 0b30 0E21     		movs	r1, #14
 2007 0b32 4948     		ldr	r0, .L378
 2008 0b34 FFF7FEFF 		bl	uart_transmit
 2009              	.LBE209:
 2010 0b38 0F23     		movs	r3, #15
 2011 0b3a 2B70     		strb	r3, [r5, #0]
 2012 0b3c 1D23     		movs	r3, #29
 2013 0b3e 2370     		strb	r3, [r4, #0]
 2014 0b40 0121     		movs	r1, #1
 2015 0b42 4548     		ldr	r0, .L378
 2016 0b44 FFF7FEFF 		bl	uart_transmit
 2017 0b48 2B78     		ldrb	r3, [r5, #0]	@ zero_extendqisi2
 2018 0b4a 2278     		ldrb	r2, [r4, #0]	@ zero_extendqisi2
 2019 0b4c 1933     		adds	r3, r3, #25
 2020 0b4e DBB2     		uxtb	r3, r3
 2021 0b50 2B70     		strb	r3, [r5, #0]
 2022 0b52 9B18     		adds	r3, r3, r2
 2023 0b54 2370     		strb	r3, [r4, #0]
 2024 0b56 1921     		movs	r1, #25
 2025 0b58 3F48     		ldr	r0, .L378
 2026 0b5a FFF7FEFF 		bl	uart_transmit
 2027              	.LBB210:
 2028 0b5e 3178     		ldrb	r1, [r6, #0]	@ zero_extendqisi2
 2029              	.LVL289:
 2030 0b60 2B78     		ldrb	r3, [r5, #0]	@ zero_extendqisi2
 2031 0b62 2278     		ldrb	r2, [r4, #0]	@ zero_extendqisi2
 2032 0b64 CB18     		adds	r3, r1, r3
 2033 0b66 DBB2     		uxtb	r3, r3
 2034              	.LVL290:
 2035 0b68 2B70     		strb	r3, [r5, #0]
 2036 0b6a 9B18     		adds	r3, r3, r2
 2037              	.LVL291:
 2038 0b6c 2370     		strb	r3, [r4, #0]
 2039 0b6e 3A48     		ldr	r0, .L378
 2040 0b70 FFF7FEFF 		bl	uart_transmit
 2041              	.LVL292:
 2042              	.LBE210:
 2043              	.LBB211:
 2044 0b74 3378     		ldrb	r3, [r6, #0]	@ zero_extendqisi2
 2045 0b76 2278     		ldrb	r2, [r4, #0]	@ zero_extendqisi2
 2046 0b78 07EBC303 		add	r3, r7, r3, lsl #3
 2047 0b7c 93F86610 		ldrb	r1, [r3, #102]	@ zero_extendqisi2
 2048              	.LVL293:
 2049 0b80 2B78     		ldrb	r3, [r5, #0]	@ zero_extendqisi2
 2050 0b82 3548     		ldr	r0, .L378
 2051 0b84 CB18     		adds	r3, r1, r3
 2052 0b86 DBB2     		uxtb	r3, r3
 2053              	.LVL294:
 2054 0b88 2B70     		strb	r3, [r5, #0]
 2055 0b8a 9B18     		adds	r3, r3, r2
 2056              	.LVL295:
 2057 0b8c 2370     		strb	r3, [r4, #0]
 2058 0b8e FFF7FEFF 		bl	uart_transmit
 2059              	.LVL296:
 2060              	.LBE211:
 2061              	.LBB212:
 2062 0b92 3378     		ldrb	r3, [r6, #0]	@ zero_extendqisi2
 2063 0b94 2278     		ldrb	r2, [r4, #0]	@ zero_extendqisi2
 2064 0b96 07EBC303 		add	r3, r7, r3, lsl #3
 2065 0b9a 93F86710 		ldrb	r1, [r3, #103]	@ zero_extendqisi2
 2066              	.LVL297:
 2067 0b9e 2B78     		ldrb	r3, [r5, #0]	@ zero_extendqisi2
 2068 0ba0 2D48     		ldr	r0, .L378
 2069 0ba2 CB18     		adds	r3, r1, r3
 2070 0ba4 DBB2     		uxtb	r3, r3
 2071              	.LVL298:
 2072 0ba6 2B70     		strb	r3, [r5, #0]
 2073 0ba8 9B18     		adds	r3, r3, r2
 2074              	.LVL299:
 2075 0baa 2370     		strb	r3, [r4, #0]
 2076 0bac FFF7FEFF 		bl	uart_transmit
 2077              	.LVL300:
 2078              	.LBE212:
 2079              	.LBB213:
 2080 0bb0 3378     		ldrb	r3, [r6, #0]	@ zero_extendqisi2
 2081 0bb2 2278     		ldrb	r2, [r4, #0]	@ zero_extendqisi2
 2082 0bb4 07EBC303 		add	r3, r7, r3, lsl #3
 2083 0bb8 93F86810 		ldrb	r1, [r3, #104]	@ zero_extendqisi2
 2084              	.LVL301:
 2085 0bbc 2B78     		ldrb	r3, [r5, #0]	@ zero_extendqisi2
 2086 0bbe 2648     		ldr	r0, .L378
 2087 0bc0 CB18     		adds	r3, r1, r3
 2088 0bc2 DBB2     		uxtb	r3, r3
 2089              	.LVL302:
 2090 0bc4 2B70     		strb	r3, [r5, #0]
 2091 0bc6 9B18     		adds	r3, r3, r2
 2092              	.LVL303:
 2093 0bc8 2370     		strb	r3, [r4, #0]
 2094 0bca FFF7FEFF 		bl	uart_transmit
 2095              	.LVL304:
 2096              	.LBE213:
 2097              	.LBB214:
 2098 0bce 3378     		ldrb	r3, [r6, #0]	@ zero_extendqisi2
 2099 0bd0 2278     		ldrb	r2, [r4, #0]	@ zero_extendqisi2
 2100 0bd2 07EBC303 		add	r3, r7, r3, lsl #3
 2101 0bd6 93F86910 		ldrb	r1, [r3, #105]	@ zero_extendqisi2
 2102              	.LVL305:
 2103 0bda 2B78     		ldrb	r3, [r5, #0]	@ zero_extendqisi2
 2104 0bdc 1E48     		ldr	r0, .L378
 2105 0bde CB18     		adds	r3, r1, r3
 2106 0be0 DBB2     		uxtb	r3, r3
 2107              	.LVL306:
 2108 0be2 2B70     		strb	r3, [r5, #0]
 2109 0be4 9B18     		adds	r3, r3, r2
 2110              	.LVL307:
 2111 0be6 2370     		strb	r3, [r4, #0]
 2112 0be8 FFF7FEFF 		bl	uart_transmit
 2113              	.LVL308:
 2114              	.LBE214:
 2115              	.LBB215:
 2116 0bec 3378     		ldrb	r3, [r6, #0]	@ zero_extendqisi2
 2117 0bee 2278     		ldrb	r2, [r4, #0]	@ zero_extendqisi2
 2118 0bf0 07EBC303 		add	r3, r7, r3, lsl #3
 2119 0bf4 93F86A10 		ldrb	r1, [r3, #106]	@ zero_extendqisi2
 2120              	.LVL309:
 2121 0bf8 2B78     		ldrb	r3, [r5, #0]	@ zero_extendqisi2
 2122 0bfa 1748     		ldr	r0, .L378
 2123 0bfc CB18     		adds	r3, r1, r3
 2124 0bfe DBB2     		uxtb	r3, r3
 2125              	.LVL310:
 2126 0c00 2B70     		strb	r3, [r5, #0]
 2127 0c02 9B18     		adds	r3, r3, r2
 2128              	.LVL311:
 2129 0c04 2370     		strb	r3, [r4, #0]
 2130 0c06 FFF7FEFF 		bl	uart_transmit
 2131              	.LVL312:
 2132              	.LBE215:
 2133              	.LBB216:
 2134 0c0a 3378     		ldrb	r3, [r6, #0]	@ zero_extendqisi2
 2135 0c0c 0C37     		adds	r7, r7, #12
 2136 0c0e 0C33     		adds	r3, r3, #12
 2137 0c10 17F83310 		ldrb	r1, [r7, r3, lsl #3]	@ zero_extendqisi2
 2138              	.LVL313:
 2139 0c14 2B78     		ldrb	r3, [r5, #0]	@ zero_extendqisi2
 2140 0c16 2278     		ldrb	r2, [r4, #0]	@ zero_extendqisi2
 2141 0c18 CB18     		adds	r3, r1, r3
 2142 0c1a DBB2     		uxtb	r3, r3
 2143              	.LVL314:
 2144 0c1c 2B70     		strb	r3, [r5, #0]
 2145 0c1e 9B18     		adds	r3, r3, r2
 2146              	.LVL315:
 2147 0c20 2370     		strb	r3, [r4, #0]
 2148 0c22 0D48     		ldr	r0, .L378
 2149 0c24 FFF7FEFF 		bl	uart_transmit
 2150              	.LVL316:
 2151              	.LBE216:
 2152              	.LBB217:
 2153 0c28 3378     		ldrb	r3, [r6, #0]	@ zero_extendqisi2
 2154 0c2a 2278     		ldrb	r2, [r4, #0]	@ zero_extendqisi2
 2155 0c2c 07EBC307 		add	r7, r7, r3, lsl #3
 2156 0c30 97F86110 		ldrb	r1, [r7, #97]	@ zero_extendqisi2
 2157              	.LVL317:
 2158 0c34 2B78     		ldrb	r3, [r5, #0]	@ zero_extendqisi2
 2159 0c36 0848     		ldr	r0, .L378
 2160 0c38 CB18     		adds	r3, r1, r3
 2161 0c3a DBB2     		uxtb	r3, r3
 2162              	.LVL318:
 2163 0c3c 2B70     		strb	r3, [r5, #0]
 2164 0c3e 9B18     		adds	r3, r3, r2
 2165              	.LVL319:
 2166 0c40 2370     		strb	r3, [r4, #0]
 2167 0c42 FFF7FEFF 		bl	uart_transmit
 2168              	.LVL320:
 2169              	.LBE217:
 2170 0c46 2978     		ldrb	r1, [r5, #0]	@ zero_extendqisi2
 2171 0c48 0348     		ldr	r0, .L378
 2172 0c4a FFF7FEFF 		bl	uart_transmit
 2173 0c4e 0248     		ldr	r0, .L378
 2174 0c50 2178     		ldrb	r1, [r4, #0]	@ zero_extendqisi2
 2175 0c52 FFF7FEFF 		bl	uart_transmit
 2176 0c56 13E0     		b	.L38
 2177              	.L379:
 2178              		.align	2
 2179              	.L378:
 2180 0c58 00000000 		.word	uart2
 2181 0c5c 00000000 		.word	.LANCHOR30
 2182 0c60 00000000 		.word	downlink_nb_ovrn
 2183 0c64 00000000 		.word	gps
 2184 0c68 00000000 		.word	downlink_nb_bytes
 2185 0c6c 00000000 		.word	downlink_nb_msgs
 2186 0c70 00000000 		.word	ck_a
 2187 0c74 00000000 		.word	ck_b
 2188              	.LVL321:
 2189              	.L39:
 2190              		.loc 1 404 0 discriminator 15
 2191 0c78 444B     		ldr	r3, .L380
 2192 0c7a 1A78     		ldrb	r2, [r3, #0]	@ zero_extendqisi2
 2193 0c7c 0132     		adds	r2, r2, #1
 2194 0c7e 1A70     		strb	r2, [r3, #0]
 2195              	.L38:
 2196              		.loc 1 404 0 discriminator 12
 2197 0c80 434B     		ldr	r3, .L380+4
 2198 0c82 1A78     		ldrb	r2, [r3, #0]	@ zero_extendqisi2
 2199 0c84 0132     		adds	r2, r2, #1
 2200 0c86 1A70     		strb	r2, [r3, #0]
 2201              	.L33:
 2202              	.LBE176:
 2203              		.loc 1 404 0 discriminator 2
 2204 0c88 424B     		ldr	r3, .L380+8
 2205 0c8a 1B78     		ldrb	r3, [r3, #0]	@ zero_extendqisi2
 2206 0c8c 122B     		cmp	r3, #18
 2207 0c8e 40F09180 		bne	.L40
 2208              		.loc 1 404 0 discriminator 16
 2209 0c92 4148     		ldr	r0, .L380+12
 2210 0c94 0E21     		movs	r1, #14
 2211 0c96 FFF7FEFF 		bl	uart_check_free_space
 2212 0c9a 0028     		cmp	r0, #0
 2213 0c9c 00F0B081 		beq	.L44
 2214              		.loc 1 404 0 discriminator 18
 2215 0ca0 3E4B     		ldr	r3, .L380+16
 2216              	.LBB218:
 2217 0ca2 3D48     		ldr	r0, .L380+12
 2218              	.LBE218:
 2219 0ca4 1A88     		ldrh	r2, [r3, #0]
 2220              	.LBB219:
 2221 0ca6 9921     		movs	r1, #153
 2222              	.LBE219:
 2223 0ca8 0E32     		adds	r2, r2, #14
 2224 0caa 1A80     		strh	r2, [r3, #0]	@ movhi
 2225 0cac 3C4B     		ldr	r3, .L380+20
 2226 0cae 3D4D     		ldr	r5, .L380+24
 2227 0cb0 1A88     		ldrh	r2, [r3, #0]
 2228 0cb2 3D4C     		ldr	r4, .L380+28
 2229 0cb4 0132     		adds	r2, r2, #1
 2230 0cb6 1A80     		strh	r2, [r3, #0]	@ movhi
 2231              	.LBB220:
 2232 0cb8 FFF7FEFF 		bl	uart_transmit
 2233              	.LVL322:
 2234 0cbc 3648     		ldr	r0, .L380+12
 2235 0cbe 0E21     		movs	r1, #14
 2236 0cc0 FFF7FEFF 		bl	uart_transmit
 2237              	.LBE220:
 2238 0cc4 0F23     		movs	r3, #15
 2239 0cc6 2B70     		strb	r3, [r5, #0]
 2240 0cc8 1D23     		movs	r3, #29
 2241 0cca 2370     		strb	r3, [r4, #0]
 2242 0ccc 3248     		ldr	r0, .L380+12
 2243 0cce 0121     		movs	r1, #1
 2244 0cd0 FFF7FEFF 		bl	uart_transmit
 2245 0cd4 2B78     		ldrb	r3, [r5, #0]	@ zero_extendqisi2
 2246 0cd6 2278     		ldrb	r2, [r4, #0]	@ zero_extendqisi2
 2247 0cd8 2A33     		adds	r3, r3, #42
 2248 0cda DBB2     		uxtb	r3, r3
 2249              	.LBB221:
 2250 0cdc 334E     		ldr	r6, .L380+32
 2251              	.LBE221:
 2252 0cde 2B70     		strb	r3, [r5, #0]
 2253 0ce0 9B18     		adds	r3, r3, r2
 2254 0ce2 2370     		strb	r3, [r4, #0]
 2255 0ce4 2C48     		ldr	r0, .L380+12
 2256 0ce6 2A21     		movs	r1, #42
 2257 0ce8 FFF7FEFF 		bl	uart_transmit
 2258              	.LBB222:
 2259 0cec 3178     		ldrb	r1, [r6, #0]	@ zero_extendqisi2
 2260              	.LVL323:
 2261 0cee 2B78     		ldrb	r3, [r5, #0]	@ zero_extendqisi2
 2262 0cf0 2278     		ldrb	r2, [r4, #0]	@ zero_extendqisi2
 2263 0cf2 CB18     		adds	r3, r1, r3
 2264 0cf4 DBB2     		uxtb	r3, r3
 2265              	.LVL324:
 2266 0cf6 2B70     		strb	r3, [r5, #0]
 2267 0cf8 9B18     		adds	r3, r3, r2
 2268              	.LVL325:
 2269 0cfa 2370     		strb	r3, [r4, #0]
 2270 0cfc 2648     		ldr	r0, .L380+12
 2271 0cfe FFF7FEFF 		bl	uart_transmit
 2272              	.LVL326:
 2273              	.LBE222:
 2274              	.LBB223:
 2275 0d02 7178     		ldrb	r1, [r6, #1]	@ zero_extendqisi2
 2276              	.LVL327:
 2277 0d04 2B78     		ldrb	r3, [r5, #0]	@ zero_extendqisi2
 2278 0d06 2278     		ldrb	r2, [r4, #0]	@ zero_extendqisi2
 2279 0d08 CB18     		adds	r3, r1, r3
 2280 0d0a DBB2     		uxtb	r3, r3
 2281              	.LVL328:
 2282 0d0c 2B70     		strb	r3, [r5, #0]
 2283 0d0e 9B18     		adds	r3, r3, r2
 2284              	.LVL329:
 2285 0d10 2370     		strb	r3, [r4, #0]
 2286 0d12 2148     		ldr	r0, .L380+12
 2287 0d14 FFF7FEFF 		bl	uart_transmit
 2288              	.LVL330:
 2289              	.LBE223:
 2290              	.LBB224:
 2291 0d18 B178     		ldrb	r1, [r6, #2]	@ zero_extendqisi2
 2292              	.LVL331:
 2293 0d1a 2B78     		ldrb	r3, [r5, #0]	@ zero_extendqisi2
 2294 0d1c 2278     		ldrb	r2, [r4, #0]	@ zero_extendqisi2
 2295 0d1e CB18     		adds	r3, r1, r3
 2296 0d20 DBB2     		uxtb	r3, r3
 2297              	.LVL332:
 2298 0d22 2B70     		strb	r3, [r5, #0]
 2299 0d24 9B18     		adds	r3, r3, r2
 2300              	.LVL333:
 2301 0d26 2370     		strb	r3, [r4, #0]
 2302 0d28 1B48     		ldr	r0, .L380+12
 2303 0d2a FFF7FEFF 		bl	uart_transmit
 2304              	.LVL334:
 2305              	.LBE224:
 2306              	.LBB225:
 2307 0d2e F178     		ldrb	r1, [r6, #3]	@ zero_extendqisi2
 2308              	.LVL335:
 2309 0d30 2B78     		ldrb	r3, [r5, #0]	@ zero_extendqisi2
 2310 0d32 2278     		ldrb	r2, [r4, #0]	@ zero_extendqisi2
 2311 0d34 CB18     		adds	r3, r1, r3
 2312 0d36 DBB2     		uxtb	r3, r3
 2313              	.LBE225:
 2314              	.LBB226:
 2315 0d38 1D4E     		ldr	r6, .L380+36
 2316              	.LVL336:
 2317              	.LBE226:
 2318              	.LBB227:
 2319 0d3a 2B70     		strb	r3, [r5, #0]
 2320 0d3c 9B18     		adds	r3, r3, r2
 2321              	.LVL337:
 2322 0d3e 2370     		strb	r3, [r4, #0]
 2323 0d40 1548     		ldr	r0, .L380+12
 2324 0d42 FFF7FEFF 		bl	uart_transmit
 2325              	.LVL338:
 2326              	.LBE227:
 2327              	.LBB228:
 2328 0d46 3178     		ldrb	r1, [r6, #0]	@ zero_extendqisi2
 2329              	.LVL339:
 2330 0d48 2B78     		ldrb	r3, [r5, #0]	@ zero_extendqisi2
 2331 0d4a 2278     		ldrb	r2, [r4, #0]	@ zero_extendqisi2
 2332 0d4c CB18     		adds	r3, r1, r3
 2333 0d4e DBB2     		uxtb	r3, r3
 2334              	.LVL340:
 2335 0d50 2B70     		strb	r3, [r5, #0]
 2336 0d52 9B18     		adds	r3, r3, r2
 2337              	.LVL341:
 2338 0d54 2370     		strb	r3, [r4, #0]
 2339 0d56 1048     		ldr	r0, .L380+12
 2340 0d58 FFF7FEFF 		bl	uart_transmit
 2341              	.LVL342:
 2342              	.LBE228:
 2343              	.LBB229:
 2344 0d5c 7178     		ldrb	r1, [r6, #1]	@ zero_extendqisi2
 2345              	.LVL343:
 2346 0d5e 2B78     		ldrb	r3, [r5, #0]	@ zero_extendqisi2
 2347 0d60 2278     		ldrb	r2, [r4, #0]	@ zero_extendqisi2
 2348 0d62 CB18     		adds	r3, r1, r3
 2349 0d64 DBB2     		uxtb	r3, r3
 2350              	.LVL344:
 2351 0d66 2B70     		strb	r3, [r5, #0]
 2352 0d68 9B18     		adds	r3, r3, r2
 2353              	.LVL345:
 2354 0d6a 2370     		strb	r3, [r4, #0]
 2355 0d6c 0A48     		ldr	r0, .L380+12
 2356 0d6e FFF7FEFF 		bl	uart_transmit
 2357              	.LVL346:
 2358              	.LBE229:
 2359              	.LBB230:
 2360 0d72 B178     		ldrb	r1, [r6, #2]	@ zero_extendqisi2
 2361              	.LVL347:
 2362 0d74 2B78     		ldrb	r3, [r5, #0]	@ zero_extendqisi2
 2363 0d76 2278     		ldrb	r2, [r4, #0]	@ zero_extendqisi2
 2364 0d78 CB18     		adds	r3, r1, r3
 2365 0d7a DBB2     		uxtb	r3, r3
 2366              	.LVL348:
 2367 0d7c 2B70     		strb	r3, [r5, #0]
 2368 0d7e 9B18     		adds	r3, r3, r2
 2369              	.LVL349:
 2370 0d80 2370     		strb	r3, [r4, #0]
 2371 0d82 0548     		ldr	r0, .L380+12
 2372 0d84 FFF7FEFF 		bl	uart_transmit
 2373              	.LVL350:
 2374              	.LBE230:
 2375              	.LBB231:
 2376 0d88 F178     		ldrb	r1, [r6, #3]	@ zero_extendqisi2
 2377              	.LVL351:
 2378 0d8a 0FE1     		b	.L336
 2379              	.L381:
 2380              		.align	2
 2381              	.L380:
 2382 0d8c 00000000 		.word	downlink_nb_ovrn
 2383 0d90 00000000 		.word	.LANCHOR30
 2384 0d94 00000000 		.word	.LANCHOR14
 2385 0d98 00000000 		.word	uart2
 2386 0d9c 00000000 		.word	downlink_nb_bytes
 2387 0da0 00000000 		.word	downlink_nb_msgs
 2388 0da4 00000000 		.word	ck_a
 2389 0da8 00000000 		.word	ck_b
 2390 0dac 00000000 		.word	estimator_z
 2391 0db0 00000000 		.word	estimator_z_dot
 2392              	.LVL352:
 2393              	.L40:
 2394              	.LBE231:
 2395              		.loc 1 404 0 discriminator 17
 2396 0db4 182B     		cmp	r3, #24
 2397 0db6 40F02781 		bne	.L42
 2398              	.LBB232:
 2399              		.loc 1 404 0 discriminator 20
 2400 0dba 864B     		ldr	r3, .L382
 2401 0dbc 8649     		ldr	r1, .L382+4
 2402 0dbe 1A78     		ldrb	r2, [r3, #0]	@ zero_extendqisi2
 2403 0dc0 0978     		ldrb	r1, [r1, #0]	@ zero_extendqisi2
 2404 0dc2 0132     		adds	r2, r2, #1
 2405 0dc4 D2B2     		uxtb	r2, r2
 2406 0dc6 9142     		cmp	r1, r2
 2407 0dc8 1A70     		strb	r2, [r3, #0]
 2408 0dca 01D8     		bhi	.L43
 2409              		.loc 1 404 0 discriminator 22
 2410 0dcc 0022     		movs	r2, #0
 2411 0dce 1A70     		strb	r2, [r3, #0]
 2412              	.L43:
 2413              	.LBB233:
 2414              		.loc 1 404 0 discriminator 23
 2415 0dd0 1C78     		ldrb	r4, [r3, #0]	@ zero_extendqisi2
 2416 0dd2 824B     		ldr	r3, .L382+8
 2417 0dd4 0C27     		movs	r7, #12
 2418 0dd6 1868     		ldr	r0, [r3, #0]
 2419 0dd8 FFF7FEFF 		bl	__aeabi_i2f
 2420 0ddc 07FB04F3 		mul	r3, r7, r4
 2421 0de0 7F4E     		ldr	r6, .L382+12
 2422 0de2 DFF8F081 		ldr	r8, .L382
 2423 0de6 F158     		ldr	r1, [r6, r3]	@ float
 2424 0de8 F418     		adds	r4, r6, r3
 2425 0dea FFF7FEFF 		bl	__aeabi_fadd
 2426 0dee 7D4B     		ldr	r3, .L382+16
 2427 0df0 0690     		str	r0, [sp, #24]	@ float
 2428              	.LVL353:
 2429 0df2 1868     		ldr	r0, [r3, #0]
 2430 0df4 FFF7FEFF 		bl	__aeabi_i2f
 2431 0df8 6168     		ldr	r1, [r4, #4]	@ float
 2432 0dfa FFF7FEFF 		bl	__aeabi_fadd
 2433 0dfe 1421     		movs	r1, #20
 2434 0e00 0790     		str	r0, [sp, #28]	@ float
 2435              	.LVL354:
 2436 0e02 7948     		ldr	r0, .L382+20
 2437 0e04 FFF7FEFF 		bl	uart_check_free_space
 2438 0e08 0028     		cmp	r0, #0
 2439 0e0a 00F0F980 		beq	.L44
 2440              		.loc 1 404 0 discriminator 24
 2441 0e0e 774B     		ldr	r3, .L382+24
 2442              	.LBB234:
 2443 0e10 7548     		ldr	r0, .L382+20
 2444              	.LBE234:
 2445 0e12 1A88     		ldrh	r2, [r3, #0]
 2446              	.LBB235:
 2447 0e14 9921     		movs	r1, #153
 2448              	.LBE235:
 2449 0e16 1432     		adds	r2, r2, #20
 2450 0e18 1A80     		strh	r2, [r3, #0]	@ movhi
 2451 0e1a 754B     		ldr	r3, .L382+28
 2452 0e1c 754D     		ldr	r5, .L382+32
 2453 0e1e 1A88     		ldrh	r2, [r3, #0]
 2454 0e20 754C     		ldr	r4, .L382+36
 2455 0e22 0132     		adds	r2, r2, #1
 2456 0e24 1A80     		strh	r2, [r3, #0]	@ movhi
 2457              	.LBB236:
 2458 0e26 FFF7FEFF 		bl	uart_transmit
 2459              	.LVL355:
 2460 0e2a 6F48     		ldr	r0, .L382+20
 2461 0e2c 1421     		movs	r1, #20
 2462 0e2e FFF7FEFF 		bl	uart_transmit
 2463              	.LBE236:
 2464 0e32 1523     		movs	r3, #21
 2465 0e34 2B70     		strb	r3, [r5, #0]
 2466 0e36 2923     		movs	r3, #41
 2467 0e38 2370     		strb	r3, [r4, #0]
 2468 0e3a 6B48     		ldr	r0, .L382+20
 2469 0e3c 0121     		movs	r1, #1
 2470 0e3e FFF7FEFF 		bl	uart_transmit
 2471 0e42 2B78     		ldrb	r3, [r5, #0]	@ zero_extendqisi2
 2472 0e44 2278     		ldrb	r2, [r4, #0]	@ zero_extendqisi2
 2473 0e46 2333     		adds	r3, r3, #35
 2474 0e48 DBB2     		uxtb	r3, r3
 2475 0e4a 2B70     		strb	r3, [r5, #0]
 2476 0e4c 9B18     		adds	r3, r3, r2
 2477 0e4e 2370     		strb	r3, [r4, #0]
 2478 0e50 6548     		ldr	r0, .L382+20
 2479 0e52 2321     		movs	r1, #35
 2480 0e54 FFF7FEFF 		bl	uart_transmit
 2481              	.LBB237:
 2482 0e58 98F80010 		ldrb	r1, [r8, #0]	@ zero_extendqisi2
 2483              	.LVL356:
 2484 0e5c 2B78     		ldrb	r3, [r5, #0]	@ zero_extendqisi2
 2485 0e5e 2278     		ldrb	r2, [r4, #0]	@ zero_extendqisi2
 2486 0e60 CB18     		adds	r3, r1, r3
 2487 0e62 DBB2     		uxtb	r3, r3
 2488              	.LVL357:
 2489 0e64 2B70     		strb	r3, [r5, #0]
 2490 0e66 9B18     		adds	r3, r3, r2
 2491              	.LVL358:
 2492 0e68 2370     		strb	r3, [r4, #0]
 2493 0e6a 5F48     		ldr	r0, .L382+20
 2494 0e6c FFF7FEFF 		bl	uart_transmit
 2495              	.LVL359:
 2496              	.LBE237:
 2497              	.LBB238:
 2498 0e70 9DF81810 		ldrb	r1, [sp, #24]	@ zero_extendqisi2
 2499              	.LVL360:
 2500 0e74 2B78     		ldrb	r3, [r5, #0]	@ zero_extendqisi2
 2501 0e76 2278     		ldrb	r2, [r4, #0]	@ zero_extendqisi2
 2502 0e78 CB18     		adds	r3, r1, r3
 2503 0e7a DBB2     		uxtb	r3, r3
 2504              	.LVL361:
 2505 0e7c 2B70     		strb	r3, [r5, #0]
 2506 0e7e 9B18     		adds	r3, r3, r2
 2507              	.LVL362:
 2508 0e80 2370     		strb	r3, [r4, #0]
 2509 0e82 5948     		ldr	r0, .L382+20
 2510 0e84 FFF7FEFF 		bl	uart_transmit
 2511              	.LVL363:
 2512              	.LBE238:
 2513              	.LBB239:
 2514 0e88 9DF81910 		ldrb	r1, [sp, #25]	@ zero_extendqisi2
 2515              	.LVL364:
 2516 0e8c 2B78     		ldrb	r3, [r5, #0]	@ zero_extendqisi2
 2517 0e8e 2278     		ldrb	r2, [r4, #0]	@ zero_extendqisi2
 2518 0e90 CB18     		adds	r3, r1, r3
 2519 0e92 DBB2     		uxtb	r3, r3
 2520              	.LVL365:
 2521 0e94 2B70     		strb	r3, [r5, #0]
 2522 0e96 9B18     		adds	r3, r3, r2
 2523              	.LVL366:
 2524 0e98 2370     		strb	r3, [r4, #0]
 2525 0e9a 5348     		ldr	r0, .L382+20
 2526 0e9c FFF7FEFF 		bl	uart_transmit
 2527              	.LVL367:
 2528              	.LBE239:
 2529              	.LBB240:
 2530 0ea0 9DF81A10 		ldrb	r1, [sp, #26]	@ zero_extendqisi2
 2531              	.LVL368:
 2532 0ea4 2B78     		ldrb	r3, [r5, #0]	@ zero_extendqisi2
 2533 0ea6 2278     		ldrb	r2, [r4, #0]	@ zero_extendqisi2
 2534 0ea8 CB18     		adds	r3, r1, r3
 2535 0eaa DBB2     		uxtb	r3, r3
 2536              	.LVL369:
 2537 0eac 2B70     		strb	r3, [r5, #0]
 2538 0eae 9B18     		adds	r3, r3, r2
 2539              	.LVL370:
 2540 0eb0 2370     		strb	r3, [r4, #0]
 2541 0eb2 4D48     		ldr	r0, .L382+20
 2542 0eb4 FFF7FEFF 		bl	uart_transmit
 2543              	.LVL371:
 2544              	.LBE240:
 2545              	.LBB241:
 2546 0eb8 9DF81B10 		ldrb	r1, [sp, #27]	@ zero_extendqisi2
 2547              	.LVL372:
 2548 0ebc 2B78     		ldrb	r3, [r5, #0]	@ zero_extendqisi2
 2549 0ebe 2278     		ldrb	r2, [r4, #0]	@ zero_extendqisi2
 2550 0ec0 CB18     		adds	r3, r1, r3
 2551 0ec2 DBB2     		uxtb	r3, r3
 2552              	.LVL373:
 2553 0ec4 2B70     		strb	r3, [r5, #0]
 2554 0ec6 9B18     		adds	r3, r3, r2
 2555              	.LVL374:
 2556 0ec8 2370     		strb	r3, [r4, #0]
 2557 0eca 4748     		ldr	r0, .L382+20
 2558 0ecc FFF7FEFF 		bl	uart_transmit
 2559              	.LVL375:
 2560              	.LBE241:
 2561              	.LBB242:
 2562 0ed0 9DF81C10 		ldrb	r1, [sp, #28]	@ zero_extendqisi2
 2563              	.LVL376:
 2564 0ed4 2B78     		ldrb	r3, [r5, #0]	@ zero_extendqisi2
 2565 0ed6 2278     		ldrb	r2, [r4, #0]	@ zero_extendqisi2
 2566 0ed8 CB18     		adds	r3, r1, r3
 2567 0eda DBB2     		uxtb	r3, r3
 2568              	.LVL377:
 2569 0edc 2B70     		strb	r3, [r5, #0]
 2570 0ede 9B18     		adds	r3, r3, r2
 2571              	.LVL378:
 2572 0ee0 2370     		strb	r3, [r4, #0]
 2573 0ee2 4148     		ldr	r0, .L382+20
 2574 0ee4 FFF7FEFF 		bl	uart_transmit
 2575              	.LVL379:
 2576              	.LBE242:
 2577              	.LBB243:
 2578 0ee8 9DF81D10 		ldrb	r1, [sp, #29]	@ zero_extendqisi2
 2579              	.LVL380:
 2580 0eec 2B78     		ldrb	r3, [r5, #0]	@ zero_extendqisi2
 2581 0eee 2278     		ldrb	r2, [r4, #0]	@ zero_extendqisi2
 2582 0ef0 CB18     		adds	r3, r1, r3
 2583 0ef2 DBB2     		uxtb	r3, r3
 2584              	.LVL381:
 2585 0ef4 2B70     		strb	r3, [r5, #0]
 2586 0ef6 9B18     		adds	r3, r3, r2
 2587              	.LVL382:
 2588 0ef8 2370     		strb	r3, [r4, #0]
 2589 0efa 3B48     		ldr	r0, .L382+20
 2590 0efc FFF7FEFF 		bl	uart_transmit
 2591              	.LVL383:
 2592              	.LBE243:
 2593              	.LBB244:
 2594 0f00 9DF81E10 		ldrb	r1, [sp, #30]	@ zero_extendqisi2
 2595              	.LVL384:
 2596 0f04 2B78     		ldrb	r3, [r5, #0]	@ zero_extendqisi2
 2597 0f06 2278     		ldrb	r2, [r4, #0]	@ zero_extendqisi2
 2598 0f08 CB18     		adds	r3, r1, r3
 2599 0f0a DBB2     		uxtb	r3, r3
 2600              	.LVL385:
 2601 0f0c 2B70     		strb	r3, [r5, #0]
 2602 0f0e 9B18     		adds	r3, r3, r2
 2603              	.LVL386:
 2604 0f10 2370     		strb	r3, [r4, #0]
 2605 0f12 3548     		ldr	r0, .L382+20
 2606 0f14 FFF7FEFF 		bl	uart_transmit
 2607              	.LVL387:
 2608              	.LBE244:
 2609              	.LBB245:
 2610 0f18 9DF81F10 		ldrb	r1, [sp, #31]	@ zero_extendqisi2
 2611              	.LVL388:
 2612 0f1c 2B78     		ldrb	r3, [r5, #0]	@ zero_extendqisi2
 2613 0f1e 2278     		ldrb	r2, [r4, #0]	@ zero_extendqisi2
 2614 0f20 CB18     		adds	r3, r1, r3
 2615 0f22 DBB2     		uxtb	r3, r3
 2616              	.LVL389:
 2617 0f24 2B70     		strb	r3, [r5, #0]
 2618 0f26 9B18     		adds	r3, r3, r2
 2619              	.LVL390:
 2620 0f28 2370     		strb	r3, [r4, #0]
 2621 0f2a 2F48     		ldr	r0, .L382+20
 2622 0f2c FFF7FEFF 		bl	uart_transmit
 2623              	.LVL391:
 2624              	.LBE245:
 2625              	.LBB246:
 2626 0f30 98F80030 		ldrb	r3, [r8, #0]	@ zero_extendqisi2
 2627 0f34 2278     		ldrb	r2, [r4, #0]	@ zero_extendqisi2
 2628 0f36 07FB0363 		mla	r3, r7, r3, r6
 2629 0f3a 197A     		ldrb	r1, [r3, #8]	@ zero_extendqisi2
 2630              	.LVL392:
 2631 0f3c 2B78     		ldrb	r3, [r5, #0]	@ zero_extendqisi2
 2632 0f3e 2A48     		ldr	r0, .L382+20
 2633 0f40 CB18     		adds	r3, r1, r3
 2634 0f42 DBB2     		uxtb	r3, r3
 2635              	.LVL393:
 2636 0f44 2B70     		strb	r3, [r5, #0]
 2637 0f46 9B18     		adds	r3, r3, r2
 2638              	.LVL394:
 2639 0f48 2370     		strb	r3, [r4, #0]
 2640 0f4a FFF7FEFF 		bl	uart_transmit
 2641              	.LVL395:
 2642              	.LBE246:
 2643              	.LBB247:
 2644 0f4e 98F80030 		ldrb	r3, [r8, #0]	@ zero_extendqisi2
 2645 0f52 2278     		ldrb	r2, [r4, #0]	@ zero_extendqisi2
 2646 0f54 07FB0363 		mla	r3, r7, r3, r6
 2647 0f58 597A     		ldrb	r1, [r3, #9]	@ zero_extendqisi2
 2648              	.LVL396:
 2649 0f5a 2B78     		ldrb	r3, [r5, #0]	@ zero_extendqisi2
 2650 0f5c 2248     		ldr	r0, .L382+20
 2651 0f5e CB18     		adds	r3, r1, r3
 2652 0f60 DBB2     		uxtb	r3, r3
 2653              	.LVL397:
 2654 0f62 2B70     		strb	r3, [r5, #0]
 2655 0f64 9B18     		adds	r3, r3, r2
 2656              	.LVL398:
 2657 0f66 2370     		strb	r3, [r4, #0]
 2658 0f68 FFF7FEFF 		bl	uart_transmit
 2659              	.LVL399:
 2660              	.LBE247:
 2661              	.LBB248:
 2662 0f6c 98F80030 		ldrb	r3, [r8, #0]	@ zero_extendqisi2
 2663 0f70 2278     		ldrb	r2, [r4, #0]	@ zero_extendqisi2
 2664 0f72 07FB0363 		mla	r3, r7, r3, r6
 2665 0f76 997A     		ldrb	r1, [r3, #10]	@ zero_extendqisi2
 2666              	.LVL400:
 2667 0f78 2B78     		ldrb	r3, [r5, #0]	@ zero_extendqisi2
 2668 0f7a 1B48     		ldr	r0, .L382+20
 2669 0f7c CB18     		adds	r3, r1, r3
 2670 0f7e DBB2     		uxtb	r3, r3
 2671              	.LVL401:
 2672 0f80 2B70     		strb	r3, [r5, #0]
 2673 0f82 9B18     		adds	r3, r3, r2
 2674              	.LVL402:
 2675 0f84 2370     		strb	r3, [r4, #0]
 2676 0f86 FFF7FEFF 		bl	uart_transmit
 2677              	.LVL403:
 2678              	.LBE248:
 2679              	.LBB249:
 2680 0f8a 98F80030 		ldrb	r3, [r8, #0]	@ zero_extendqisi2
 2681 0f8e 2278     		ldrb	r2, [r4, #0]	@ zero_extendqisi2
 2682 0f90 07FB0366 		mla	r6, r7, r3, r6
 2683 0f94 2B78     		ldrb	r3, [r5, #0]	@ zero_extendqisi2
 2684 0f96 F17A     		ldrb	r1, [r6, #11]	@ zero_extendqisi2
 2685              	.LVL404:
 2686 0f98 1348     		ldr	r0, .L382+20
 2687 0f9a CB18     		adds	r3, r1, r3
 2688 0f9c DBB2     		uxtb	r3, r3
 2689              	.LVL405:
 2690 0f9e 2B70     		strb	r3, [r5, #0]
 2691 0fa0 9B18     		adds	r3, r3, r2
 2692              	.LVL406:
 2693 0fa2 2370     		strb	r3, [r4, #0]
 2694 0fa4 FFF7FEFF 		bl	uart_transmit
 2695              	.LVL407:
 2696              	.LBE249:
 2697              	.LBB250:
 2698 0fa8 144B     		ldr	r3, .L382+40
 2699 0faa 1978     		ldrb	r1, [r3, #0]	@ zero_extendqisi2
 2700              	.LVL408:
 2701              	.L336:
 2702 0fac 2B78     		ldrb	r3, [r5, #0]	@ zero_extendqisi2
 2703 0fae 2278     		ldrb	r2, [r4, #0]	@ zero_extendqisi2
 2704 0fb0 CB18     		adds	r3, r1, r3
 2705 0fb2 DBB2     		uxtb	r3, r3
 2706              	.LVL409:
 2707 0fb4 2B70     		strb	r3, [r5, #0]
 2708 0fb6 9B18     		adds	r3, r3, r2
 2709              	.LVL410:
 2710 0fb8 2370     		strb	r3, [r4, #0]
 2711 0fba 0B48     		ldr	r0, .L382+20
 2712 0fbc FFF7FEFF 		bl	uart_transmit
 2713              	.LVL411:
 2714              	.LBE250:
 2715 0fc0 2978     		ldrb	r1, [r5, #0]	@ zero_extendqisi2
 2716 0fc2 0948     		ldr	r0, .L382+20
 2717 0fc4 FFF7FEFF 		bl	uart_transmit
 2718 0fc8 0748     		ldr	r0, .L382+20
 2719 0fca 2178     		ldrb	r1, [r4, #0]	@ zero_extendqisi2
 2720 0fcc FFF7FEFF 		bl	uart_transmit
 2721 0fd0 1AE0     		b	.L42
 2722              	.L383:
 2723 0fd2 00BF     		.align	2
 2724              	.L382:
 2725 0fd4 00000000 		.word	.LANCHOR31
 2726 0fd8 00000000 		.word	nb_waypoint
 2727 0fdc 00000000 		.word	nav_utm_east0
 2728 0fe0 00000000 		.word	waypoints
 2729 0fe4 00000000 		.word	nav_utm_north0
 2730 0fe8 00000000 		.word	uart2
 2731 0fec 00000000 		.word	downlink_nb_bytes
 2732 0ff0 00000000 		.word	downlink_nb_msgs
 2733 0ff4 00000000 		.word	ck_a
 2734 0ff8 00000000 		.word	ck_b
 2735 0ffc 00000000 		.word	nav_utm_zone0
 2736              	.L44:
 2737              		.loc 1 404 0 discriminator 25
 2738 1000 734B     		ldr	r3, .L384
 2739 1002 1A78     		ldrb	r2, [r3, #0]	@ zero_extendqisi2
 2740 1004 0132     		adds	r2, r2, #1
 2741 1006 1A70     		strb	r2, [r3, #0]
 2742              	.L42:
 2743              	.LBE233:
 2744              	.LBE232:
 2745              		.loc 1 404 0 discriminator 21
 2746 1008 724B     		ldr	r3, .L384+4
 2747 100a 1B78     		ldrb	r3, [r3, #0]	@ zero_extendqisi2
 2748 100c 1E2B     		cmp	r3, #30
 2749 100e 40F0F380 		bne	.L45
 2750              	.LBB251:
 2751              		.loc 1 404 0 discriminator 26
 2752 1012 714C     		ldr	r4, .L384+8
 2753 1014 2068     		ldr	r0, [r4, #0]
 2754 1016 FFF7FEFF 		bl	__aeabi_i2f
 2755 101a 4FF06651 		mov	r1, #964689920
 2756 101e FFF7FEFF 		bl	__aeabi_fmul
 2757 1022 0090     		str	r0, [sp, #0]	@ float
 2758 1024 6068     		ldr	r0, [r4, #4]
 2759 1026 FFF7FEFF 		bl	__aeabi_i2f
 2760 102a 4FF06651 		mov	r1, #964689920
 2761 102e FFF7FEFF 		bl	__aeabi_fmul
 2762 1032 0190     		str	r0, [sp, #4]	@ float
 2763 1034 A068     		ldr	r0, [r4, #8]
 2764 1036 FFF7FEFF 		bl	__aeabi_i2f
 2765 103a 4FF06651 		mov	r1, #964689920
 2766 103e FFF7FEFF 		bl	__aeabi_fmul
 2767 1042 1221     		movs	r1, #18
 2768 1044 0290     		str	r0, [sp, #8]	@ float
 2769 1046 6548     		ldr	r0, .L384+12
 2770 1048 FFF7FEFF 		bl	uart_check_free_space
 2771 104c 0028     		cmp	r0, #0
 2772 104e 00F0CF80 		beq	.L46
 2773              		.loc 1 404 0 discriminator 28
 2774 1052 634B     		ldr	r3, .L384+16
 2775              	.LBB252:
 2776 1054 9921     		movs	r1, #153
 2777              	.LBE252:
 2778 1056 1A88     		ldrh	r2, [r3, #0]
 2779              	.LBB253:
 2780 1058 6048     		ldr	r0, .L384+12
 2781              	.LBE253:
 2782 105a 1232     		adds	r2, r2, #18
 2783 105c 1A80     		strh	r2, [r3, #0]	@ movhi
 2784 105e 614B     		ldr	r3, .L384+20
 2785 1060 614D     		ldr	r5, .L384+24
 2786 1062 1A88     		ldrh	r2, [r3, #0]
 2787 1064 614C     		ldr	r4, .L384+28
 2788 1066 0132     		adds	r2, r2, #1
 2789 1068 1A80     		strh	r2, [r3, #0]	@ movhi
 2790              	.LBB254:
 2791 106a FFF7FEFF 		bl	uart_transmit
 2792              	.LVL412:
 2793 106e 1221     		movs	r1, #18
 2794 1070 5A48     		ldr	r0, .L384+12
 2795 1072 FFF7FEFF 		bl	uart_transmit
 2796              	.LBE254:
 2797 1076 1323     		movs	r3, #19
 2798 1078 2B70     		strb	r3, [r5, #0]
 2799 107a 2523     		movs	r3, #37
 2800 107c 2370     		strb	r3, [r4, #0]
 2801 107e 0121     		movs	r1, #1
 2802 1080 5648     		ldr	r0, .L384+12
 2803 1082 FFF7FEFF 		bl	uart_transmit
 2804 1086 2B78     		ldrb	r3, [r5, #0]	@ zero_extendqisi2
 2805 1088 2278     		ldrb	r2, [r4, #0]	@ zero_extendqisi2
 2806 108a 383B     		subs	r3, r3, #56
 2807 108c DBB2     		uxtb	r3, r3
 2808 108e 2B70     		strb	r3, [r5, #0]
 2809 1090 9B18     		adds	r3, r3, r2
 2810 1092 2370     		strb	r3, [r4, #0]
 2811 1094 C821     		movs	r1, #200
 2812 1096 5148     		ldr	r0, .L384+12
 2813 1098 FFF7FEFF 		bl	uart_transmit
 2814              	.LBB255:
 2815 109c 9DF80010 		ldrb	r1, [sp, #0]	@ zero_extendqisi2
 2816              	.LVL413:
 2817 10a0 2B78     		ldrb	r3, [r5, #0]	@ zero_extendqisi2
 2818 10a2 2278     		ldrb	r2, [r4, #0]	@ zero_extendqisi2
 2819 10a4 CB18     		adds	r3, r1, r3
 2820 10a6 DBB2     		uxtb	r3, r3
 2821              	.LVL414:
 2822 10a8 2B70     		strb	r3, [r5, #0]
 2823 10aa 9B18     		adds	r3, r3, r2
 2824              	.LVL415:
 2825 10ac 2370     		strb	r3, [r4, #0]
 2826 10ae 4B48     		ldr	r0, .L384+12
 2827 10b0 FFF7FEFF 		bl	uart_transmit
 2828              	.LVL416:
 2829              	.LBE255:
 2830              	.LBB256:
 2831 10b4 9DF80110 		ldrb	r1, [sp, #1]	@ zero_extendqisi2
 2832              	.LVL417:
 2833 10b8 2B78     		ldrb	r3, [r5, #0]	@ zero_extendqisi2
 2834 10ba 2278     		ldrb	r2, [r4, #0]	@ zero_extendqisi2
 2835 10bc CB18     		adds	r3, r1, r3
 2836 10be DBB2     		uxtb	r3, r3
 2837              	.LVL418:
 2838 10c0 2B70     		strb	r3, [r5, #0]
 2839 10c2 9B18     		adds	r3, r3, r2
 2840              	.LVL419:
 2841 10c4 2370     		strb	r3, [r4, #0]
 2842 10c6 4548     		ldr	r0, .L384+12
 2843 10c8 FFF7FEFF 		bl	uart_transmit
 2844              	.LVL420:
 2845              	.LBE256:
 2846              	.LBB257:
 2847 10cc 9DF80210 		ldrb	r1, [sp, #2]	@ zero_extendqisi2
 2848              	.LVL421:
 2849 10d0 2B78     		ldrb	r3, [r5, #0]	@ zero_extendqisi2
 2850 10d2 2278     		ldrb	r2, [r4, #0]	@ zero_extendqisi2
 2851 10d4 CB18     		adds	r3, r1, r3
 2852 10d6 DBB2     		uxtb	r3, r3
 2853              	.LVL422:
 2854 10d8 2B70     		strb	r3, [r5, #0]
 2855 10da 9B18     		adds	r3, r3, r2
 2856              	.LVL423:
 2857 10dc 2370     		strb	r3, [r4, #0]
 2858 10de 3F48     		ldr	r0, .L384+12
 2859 10e0 FFF7FEFF 		bl	uart_transmit
 2860              	.LVL424:
 2861              	.LBE257:
 2862              	.LBB258:
 2863 10e4 9DF80310 		ldrb	r1, [sp, #3]	@ zero_extendqisi2
 2864              	.LVL425:
 2865 10e8 2B78     		ldrb	r3, [r5, #0]	@ zero_extendqisi2
 2866 10ea 2278     		ldrb	r2, [r4, #0]	@ zero_extendqisi2
 2867 10ec CB18     		adds	r3, r1, r3
 2868 10ee DBB2     		uxtb	r3, r3
 2869              	.LVL426:
 2870 10f0 2B70     		strb	r3, [r5, #0]
 2871 10f2 9B18     		adds	r3, r3, r2
 2872              	.LVL427:
 2873 10f4 2370     		strb	r3, [r4, #0]
 2874 10f6 3948     		ldr	r0, .L384+12
 2875 10f8 FFF7FEFF 		bl	uart_transmit
 2876              	.LVL428:
 2877              	.LBE258:
 2878              	.LBB259:
 2879 10fc 9DF80410 		ldrb	r1, [sp, #4]	@ zero_extendqisi2
 2880              	.LVL429:
 2881 1100 2B78     		ldrb	r3, [r5, #0]	@ zero_extendqisi2
 2882 1102 2278     		ldrb	r2, [r4, #0]	@ zero_extendqisi2
 2883 1104 CB18     		adds	r3, r1, r3
 2884 1106 DBB2     		uxtb	r3, r3
 2885              	.LVL430:
 2886 1108 2B70     		strb	r3, [r5, #0]
 2887 110a 9B18     		adds	r3, r3, r2
 2888              	.LVL431:
 2889 110c 2370     		strb	r3, [r4, #0]
 2890 110e 3348     		ldr	r0, .L384+12
 2891 1110 FFF7FEFF 		bl	uart_transmit
 2892              	.LVL432:
 2893              	.LBE259:
 2894              	.LBB260:
 2895 1114 9DF80510 		ldrb	r1, [sp, #5]	@ zero_extendqisi2
 2896              	.LVL433:
 2897 1118 2B78     		ldrb	r3, [r5, #0]	@ zero_extendqisi2
 2898 111a 2278     		ldrb	r2, [r4, #0]	@ zero_extendqisi2
 2899 111c CB18     		adds	r3, r1, r3
 2900 111e DBB2     		uxtb	r3, r3
 2901              	.LVL434:
 2902 1120 2B70     		strb	r3, [r5, #0]
 2903 1122 9B18     		adds	r3, r3, r2
 2904              	.LVL435:
 2905 1124 2370     		strb	r3, [r4, #0]
 2906 1126 2D48     		ldr	r0, .L384+12
 2907 1128 FFF7FEFF 		bl	uart_transmit
 2908              	.LVL436:
 2909              	.LBE260:
 2910              	.LBB261:
 2911 112c 9DF80610 		ldrb	r1, [sp, #6]	@ zero_extendqisi2
 2912              	.LVL437:
 2913 1130 2B78     		ldrb	r3, [r5, #0]	@ zero_extendqisi2
 2914 1132 2278     		ldrb	r2, [r4, #0]	@ zero_extendqisi2
 2915 1134 CB18     		adds	r3, r1, r3
 2916 1136 DBB2     		uxtb	r3, r3
 2917              	.LVL438:
 2918 1138 2B70     		strb	r3, [r5, #0]
 2919 113a 9B18     		adds	r3, r3, r2
 2920              	.LVL439:
 2921 113c 2370     		strb	r3, [r4, #0]
 2922 113e 2748     		ldr	r0, .L384+12
 2923 1140 FFF7FEFF 		bl	uart_transmit
 2924              	.LVL440:
 2925              	.LBE261:
 2926              	.LBB262:
 2927 1144 9DF80710 		ldrb	r1, [sp, #7]	@ zero_extendqisi2
 2928              	.LVL441:
 2929 1148 2B78     		ldrb	r3, [r5, #0]	@ zero_extendqisi2
 2930 114a 2278     		ldrb	r2, [r4, #0]	@ zero_extendqisi2
 2931 114c CB18     		adds	r3, r1, r3
 2932 114e DBB2     		uxtb	r3, r3
 2933              	.LVL442:
 2934 1150 2B70     		strb	r3, [r5, #0]
 2935 1152 9B18     		adds	r3, r3, r2
 2936              	.LVL443:
 2937 1154 2370     		strb	r3, [r4, #0]
 2938 1156 2148     		ldr	r0, .L384+12
 2939 1158 FFF7FEFF 		bl	uart_transmit
 2940              	.LVL444:
 2941              	.LBE262:
 2942              	.LBB263:
 2943 115c 9DF80810 		ldrb	r1, [sp, #8]	@ zero_extendqisi2
 2944              	.LVL445:
 2945 1160 2B78     		ldrb	r3, [r5, #0]	@ zero_extendqisi2
 2946 1162 2278     		ldrb	r2, [r4, #0]	@ zero_extendqisi2
 2947 1164 CB18     		adds	r3, r1, r3
 2948 1166 DBB2     		uxtb	r3, r3
 2949              	.LVL446:
 2950 1168 2B70     		strb	r3, [r5, #0]
 2951 116a 9B18     		adds	r3, r3, r2
 2952              	.LVL447:
 2953 116c 2370     		strb	r3, [r4, #0]
 2954 116e 1B48     		ldr	r0, .L384+12
 2955 1170 FFF7FEFF 		bl	uart_transmit
 2956              	.LVL448:
 2957              	.LBE263:
 2958              	.LBB264:
 2959 1174 9DF80910 		ldrb	r1, [sp, #9]	@ zero_extendqisi2
 2960              	.LVL449:
 2961 1178 2B78     		ldrb	r3, [r5, #0]	@ zero_extendqisi2
 2962 117a 2278     		ldrb	r2, [r4, #0]	@ zero_extendqisi2
 2963 117c CB18     		adds	r3, r1, r3
 2964 117e DBB2     		uxtb	r3, r3
 2965              	.LVL450:
 2966 1180 2B70     		strb	r3, [r5, #0]
 2967 1182 9B18     		adds	r3, r3, r2
 2968              	.LVL451:
 2969 1184 2370     		strb	r3, [r4, #0]
 2970 1186 1548     		ldr	r0, .L384+12
 2971 1188 FFF7FEFF 		bl	uart_transmit
 2972              	.LVL452:
 2973              	.LBE264:
 2974              	.LBB265:
 2975 118c 9DF80A10 		ldrb	r1, [sp, #10]	@ zero_extendqisi2
 2976              	.LVL453:
 2977 1190 2B78     		ldrb	r3, [r5, #0]	@ zero_extendqisi2
 2978 1192 2278     		ldrb	r2, [r4, #0]	@ zero_extendqisi2
 2979 1194 CB18     		adds	r3, r1, r3
 2980 1196 DBB2     		uxtb	r3, r3
 2981              	.LVL454:
 2982 1198 2B70     		strb	r3, [r5, #0]
 2983 119a 9B18     		adds	r3, r3, r2
 2984              	.LVL455:
 2985 119c 2370     		strb	r3, [r4, #0]
 2986 119e 0F48     		ldr	r0, .L384+12
 2987 11a0 FFF7FEFF 		bl	uart_transmit
 2988              	.LVL456:
 2989              	.LBE265:
 2990              	.LBB266:
 2991 11a4 9DF80B10 		ldrb	r1, [sp, #11]	@ zero_extendqisi2
 2992              	.LVL457:
 2993 11a8 2B78     		ldrb	r3, [r5, #0]	@ zero_extendqisi2
 2994 11aa 2278     		ldrb	r2, [r4, #0]	@ zero_extendqisi2
 2995 11ac CB18     		adds	r3, r1, r3
 2996 11ae DBB2     		uxtb	r3, r3
 2997              	.LVL458:
 2998 11b0 2B70     		strb	r3, [r5, #0]
 2999 11b2 9B18     		adds	r3, r3, r2
 3000              	.LVL459:
 3001 11b4 2370     		strb	r3, [r4, #0]
 3002 11b6 0948     		ldr	r0, .L384+12
 3003 11b8 FFF7FEFF 		bl	uart_transmit
 3004              	.LVL460:
 3005              	.LBE266:
 3006 11bc 2978     		ldrb	r1, [r5, #0]	@ zero_extendqisi2
 3007 11be 0748     		ldr	r0, .L384+12
 3008 11c0 FFF7FEFF 		bl	uart_transmit
 3009 11c4 0548     		ldr	r0, .L384+12
 3010 11c6 2178     		ldrb	r1, [r4, #0]	@ zero_extendqisi2
 3011 11c8 FFF7FEFF 		bl	uart_transmit
 3012 11cc 14E0     		b	.L45
 3013              	.L385:
 3014 11ce 00BF     		.align	2
 3015              	.L384:
 3016 11d0 00000000 		.word	downlink_nb_ovrn
 3017 11d4 00000000 		.word	.LANCHOR15
 3018 11d8 00000000 		.word	imu
 3019 11dc 00000000 		.word	uart2
 3020 11e0 00000000 		.word	downlink_nb_bytes
 3021 11e4 00000000 		.word	downlink_nb_msgs
 3022 11e8 00000000 		.word	ck_a
 3023 11ec 00000000 		.word	ck_b
 3024              	.LVL461:
 3025              	.L46:
 3026              		.loc 1 404 0 discriminator 29
 3027 11f0 734B     		ldr	r3, .L386
 3028 11f2 1A78     		ldrb	r2, [r3, #0]	@ zero_extendqisi2
 3029 11f4 0132     		adds	r2, r2, #1
 3030 11f6 1A70     		strb	r2, [r3, #0]
 3031              	.L45:
 3032              	.LBE251:
 3033              		.loc 1 404 0 discriminator 27
 3034 11f8 724B     		ldr	r3, .L386+4
 3035 11fa 1B78     		ldrb	r3, [r3, #0]	@ zero_extendqisi2
 3036 11fc 242B     		cmp	r3, #36
 3037 11fe 40F0F380 		bne	.L47
 3038              	.LBB267:
 3039              		.loc 1 404 0 discriminator 30
 3040 1202 714C     		ldr	r4, .L386+8
 3041 1204 E068     		ldr	r0, [r4, #12]
 3042 1206 FFF7FEFF 		bl	__aeabi_i2f
 3043 120a 4FF06A51 		mov	r1, #981467136
 3044 120e FFF7FEFF 		bl	__aeabi_fmul
 3045 1212 0390     		str	r0, [sp, #12]	@ float
 3046 1214 2069     		ldr	r0, [r4, #16]
 3047 1216 FFF7FEFF 		bl	__aeabi_i2f
 3048 121a 4FF06A51 		mov	r1, #981467136
 3049 121e FFF7FEFF 		bl	__aeabi_fmul
 3050 1222 0490     		str	r0, [sp, #16]	@ float
 3051 1224 6069     		ldr	r0, [r4, #20]
 3052 1226 FFF7FEFF 		bl	__aeabi_i2f
 3053 122a 4FF06A51 		mov	r1, #981467136
 3054 122e FFF7FEFF 		bl	__aeabi_fmul
 3055 1232 1221     		movs	r1, #18
 3056 1234 0590     		str	r0, [sp, #20]	@ float
 3057 1236 6548     		ldr	r0, .L386+12
 3058 1238 FFF7FEFF 		bl	uart_check_free_space
 3059 123c 0028     		cmp	r0, #0
 3060 123e 00F0CF80 		beq	.L48
 3061              		.loc 1 404 0 discriminator 32
 3062 1242 634B     		ldr	r3, .L386+16
 3063              	.LBB268:
 3064 1244 9921     		movs	r1, #153
 3065              	.LBE268:
 3066 1246 1A88     		ldrh	r2, [r3, #0]
 3067              	.LBB269:
 3068 1248 6048     		ldr	r0, .L386+12
 3069              	.LBE269:
 3070 124a 1232     		adds	r2, r2, #18
 3071 124c 1A80     		strh	r2, [r3, #0]	@ movhi
 3072 124e 614B     		ldr	r3, .L386+20
 3073 1250 614D     		ldr	r5, .L386+24
 3074 1252 1A88     		ldrh	r2, [r3, #0]
 3075 1254 614C     		ldr	r4, .L386+28
 3076 1256 0132     		adds	r2, r2, #1
 3077 1258 1A80     		strh	r2, [r3, #0]	@ movhi
 3078              	.LBB270:
 3079 125a FFF7FEFF 		bl	uart_transmit
 3080              	.LVL462:
 3081 125e 1221     		movs	r1, #18
 3082 1260 5A48     		ldr	r0, .L386+12
 3083 1262 FFF7FEFF 		bl	uart_transmit
 3084              	.LBE270:
 3085 1266 1323     		movs	r3, #19
 3086 1268 2B70     		strb	r3, [r5, #0]
 3087 126a 2523     		movs	r3, #37
 3088 126c 2370     		strb	r3, [r4, #0]
 3089 126e 0121     		movs	r1, #1
 3090 1270 5648     		ldr	r0, .L386+12
 3091 1272 FFF7FEFF 		bl	uart_transmit
 3092 1276 2B78     		ldrb	r3, [r5, #0]	@ zero_extendqisi2
 3093 1278 2278     		ldrb	r2, [r4, #0]	@ zero_extendqisi2
 3094 127a 363B     		subs	r3, r3, #54
 3095 127c DBB2     		uxtb	r3, r3
 3096 127e 2B70     		strb	r3, [r5, #0]
 3097 1280 9B18     		adds	r3, r3, r2
 3098 1282 2370     		strb	r3, [r4, #0]
 3099 1284 CA21     		movs	r1, #202
 3100 1286 5148     		ldr	r0, .L386+12
 3101 1288 FFF7FEFF 		bl	uart_transmit
 3102              	.LBB271:
 3103 128c 9DF80C10 		ldrb	r1, [sp, #12]	@ zero_extendqisi2
 3104              	.LVL463:
 3105 1290 2B78     		ldrb	r3, [r5, #0]	@ zero_extendqisi2
 3106 1292 2278     		ldrb	r2, [r4, #0]	@ zero_extendqisi2
 3107 1294 CB18     		adds	r3, r1, r3
 3108 1296 DBB2     		uxtb	r3, r3
 3109              	.LVL464:
 3110 1298 2B70     		strb	r3, [r5, #0]
 3111 129a 9B18     		adds	r3, r3, r2
 3112              	.LVL465:
 3113 129c 2370     		strb	r3, [r4, #0]
 3114 129e 4B48     		ldr	r0, .L386+12
 3115 12a0 FFF7FEFF 		bl	uart_transmit
 3116              	.LVL466:
 3117              	.LBE271:
 3118              	.LBB272:
 3119 12a4 9DF80D10 		ldrb	r1, [sp, #13]	@ zero_extendqisi2
 3120              	.LVL467:
 3121 12a8 2B78     		ldrb	r3, [r5, #0]	@ zero_extendqisi2
 3122 12aa 2278     		ldrb	r2, [r4, #0]	@ zero_extendqisi2
 3123 12ac CB18     		adds	r3, r1, r3
 3124 12ae DBB2     		uxtb	r3, r3
 3125              	.LVL468:
 3126 12b0 2B70     		strb	r3, [r5, #0]
 3127 12b2 9B18     		adds	r3, r3, r2
 3128              	.LVL469:
 3129 12b4 2370     		strb	r3, [r4, #0]
 3130 12b6 4548     		ldr	r0, .L386+12
 3131 12b8 FFF7FEFF 		bl	uart_transmit
 3132              	.LVL470:
 3133              	.LBE272:
 3134              	.LBB273:
 3135 12bc 9DF80E10 		ldrb	r1, [sp, #14]	@ zero_extendqisi2
 3136              	.LVL471:
 3137 12c0 2B78     		ldrb	r3, [r5, #0]	@ zero_extendqisi2
 3138 12c2 2278     		ldrb	r2, [r4, #0]	@ zero_extendqisi2
 3139 12c4 CB18     		adds	r3, r1, r3
 3140 12c6 DBB2     		uxtb	r3, r3
 3141              	.LVL472:
 3142 12c8 2B70     		strb	r3, [r5, #0]
 3143 12ca 9B18     		adds	r3, r3, r2
 3144              	.LVL473:
 3145 12cc 2370     		strb	r3, [r4, #0]
 3146 12ce 3F48     		ldr	r0, .L386+12
 3147 12d0 FFF7FEFF 		bl	uart_transmit
 3148              	.LVL474:
 3149              	.LBE273:
 3150              	.LBB274:
 3151 12d4 9DF80F10 		ldrb	r1, [sp, #15]	@ zero_extendqisi2
 3152              	.LVL475:
 3153 12d8 2B78     		ldrb	r3, [r5, #0]	@ zero_extendqisi2
 3154 12da 2278     		ldrb	r2, [r4, #0]	@ zero_extendqisi2
 3155 12dc CB18     		adds	r3, r1, r3
 3156 12de DBB2     		uxtb	r3, r3
 3157              	.LVL476:
 3158 12e0 2B70     		strb	r3, [r5, #0]
 3159 12e2 9B18     		adds	r3, r3, r2
 3160              	.LVL477:
 3161 12e4 2370     		strb	r3, [r4, #0]
 3162 12e6 3948     		ldr	r0, .L386+12
 3163 12e8 FFF7FEFF 		bl	uart_transmit
 3164              	.LVL478:
 3165              	.LBE274:
 3166              	.LBB275:
 3167 12ec 9DF81010 		ldrb	r1, [sp, #16]	@ zero_extendqisi2
 3168              	.LVL479:
 3169 12f0 2B78     		ldrb	r3, [r5, #0]	@ zero_extendqisi2
 3170 12f2 2278     		ldrb	r2, [r4, #0]	@ zero_extendqisi2
 3171 12f4 CB18     		adds	r3, r1, r3
 3172 12f6 DBB2     		uxtb	r3, r3
 3173              	.LVL480:
 3174 12f8 2B70     		strb	r3, [r5, #0]
 3175 12fa 9B18     		adds	r3, r3, r2
 3176              	.LVL481:
 3177 12fc 2370     		strb	r3, [r4, #0]
 3178 12fe 3348     		ldr	r0, .L386+12
 3179 1300 FFF7FEFF 		bl	uart_transmit
 3180              	.LVL482:
 3181              	.LBE275:
 3182              	.LBB276:
 3183 1304 9DF81110 		ldrb	r1, [sp, #17]	@ zero_extendqisi2
 3184              	.LVL483:
 3185 1308 2B78     		ldrb	r3, [r5, #0]	@ zero_extendqisi2
 3186 130a 2278     		ldrb	r2, [r4, #0]	@ zero_extendqisi2
 3187 130c CB18     		adds	r3, r1, r3
 3188 130e DBB2     		uxtb	r3, r3
 3189              	.LVL484:
 3190 1310 2B70     		strb	r3, [r5, #0]
 3191 1312 9B18     		adds	r3, r3, r2
 3192              	.LVL485:
 3193 1314 2370     		strb	r3, [r4, #0]
 3194 1316 2D48     		ldr	r0, .L386+12
 3195 1318 FFF7FEFF 		bl	uart_transmit
 3196              	.LVL486:
 3197              	.LBE276:
 3198              	.LBB277:
 3199 131c 9DF81210 		ldrb	r1, [sp, #18]	@ zero_extendqisi2
 3200              	.LVL487:
 3201 1320 2B78     		ldrb	r3, [r5, #0]	@ zero_extendqisi2
 3202 1322 2278     		ldrb	r2, [r4, #0]	@ zero_extendqisi2
 3203 1324 CB18     		adds	r3, r1, r3
 3204 1326 DBB2     		uxtb	r3, r3
 3205              	.LVL488:
 3206 1328 2B70     		strb	r3, [r5, #0]
 3207 132a 9B18     		adds	r3, r3, r2
 3208              	.LVL489:
 3209 132c 2370     		strb	r3, [r4, #0]
 3210 132e 2748     		ldr	r0, .L386+12
 3211 1330 FFF7FEFF 		bl	uart_transmit
 3212              	.LVL490:
 3213              	.LBE277:
 3214              	.LBB278:
 3215 1334 9DF81310 		ldrb	r1, [sp, #19]	@ zero_extendqisi2
 3216              	.LVL491:
 3217 1338 2B78     		ldrb	r3, [r5, #0]	@ zero_extendqisi2
 3218 133a 2278     		ldrb	r2, [r4, #0]	@ zero_extendqisi2
 3219 133c CB18     		adds	r3, r1, r3
 3220 133e DBB2     		uxtb	r3, r3
 3221              	.LVL492:
 3222 1340 2B70     		strb	r3, [r5, #0]
 3223 1342 9B18     		adds	r3, r3, r2
 3224              	.LVL493:
 3225 1344 2370     		strb	r3, [r4, #0]
 3226 1346 2148     		ldr	r0, .L386+12
 3227 1348 FFF7FEFF 		bl	uart_transmit
 3228              	.LVL494:
 3229              	.LBE278:
 3230              	.LBB279:
 3231 134c 9DF81410 		ldrb	r1, [sp, #20]	@ zero_extendqisi2
 3232              	.LVL495:
 3233 1350 2B78     		ldrb	r3, [r5, #0]	@ zero_extendqisi2
 3234 1352 2278     		ldrb	r2, [r4, #0]	@ zero_extendqisi2
 3235 1354 CB18     		adds	r3, r1, r3
 3236 1356 DBB2     		uxtb	r3, r3
 3237              	.LVL496:
 3238 1358 2B70     		strb	r3, [r5, #0]
 3239 135a 9B18     		adds	r3, r3, r2
 3240              	.LVL497:
 3241 135c 2370     		strb	r3, [r4, #0]
 3242 135e 1B48     		ldr	r0, .L386+12
 3243 1360 FFF7FEFF 		bl	uart_transmit
 3244              	.LVL498:
 3245              	.LBE279:
 3246              	.LBB280:
 3247 1364 9DF81510 		ldrb	r1, [sp, #21]	@ zero_extendqisi2
 3248              	.LVL499:
 3249 1368 2B78     		ldrb	r3, [r5, #0]	@ zero_extendqisi2
 3250 136a 2278     		ldrb	r2, [r4, #0]	@ zero_extendqisi2
 3251 136c CB18     		adds	r3, r1, r3
 3252 136e DBB2     		uxtb	r3, r3
 3253              	.LVL500:
 3254 1370 2B70     		strb	r3, [r5, #0]
 3255 1372 9B18     		adds	r3, r3, r2
 3256              	.LVL501:
 3257 1374 2370     		strb	r3, [r4, #0]
 3258 1376 1548     		ldr	r0, .L386+12
 3259 1378 FFF7FEFF 		bl	uart_transmit
 3260              	.LVL502:
 3261              	.LBE280:
 3262              	.LBB281:
 3263 137c 9DF81610 		ldrb	r1, [sp, #22]	@ zero_extendqisi2
 3264              	.LVL503:
 3265 1380 2B78     		ldrb	r3, [r5, #0]	@ zero_extendqisi2
 3266 1382 2278     		ldrb	r2, [r4, #0]	@ zero_extendqisi2
 3267 1384 CB18     		adds	r3, r1, r3
 3268 1386 DBB2     		uxtb	r3, r3
 3269              	.LVL504:
 3270 1388 2B70     		strb	r3, [r5, #0]
 3271 138a 9B18     		adds	r3, r3, r2
 3272              	.LVL505:
 3273 138c 2370     		strb	r3, [r4, #0]
 3274 138e 0F48     		ldr	r0, .L386+12
 3275 1390 FFF7FEFF 		bl	uart_transmit
 3276              	.LVL506:
 3277              	.LBE281:
 3278              	.LBB282:
 3279 1394 9DF81710 		ldrb	r1, [sp, #23]	@ zero_extendqisi2
 3280              	.LVL507:
 3281 1398 2B78     		ldrb	r3, [r5, #0]	@ zero_extendqisi2
 3282 139a 2278     		ldrb	r2, [r4, #0]	@ zero_extendqisi2
 3283 139c CB18     		adds	r3, r1, r3
 3284 139e DBB2     		uxtb	r3, r3
 3285              	.LVL508:
 3286 13a0 2B70     		strb	r3, [r5, #0]
 3287 13a2 9B18     		adds	r3, r3, r2
 3288              	.LVL509:
 3289 13a4 2370     		strb	r3, [r4, #0]
 3290 13a6 0948     		ldr	r0, .L386+12
 3291 13a8 FFF7FEFF 		bl	uart_transmit
 3292              	.LVL510:
 3293              	.LBE282:
 3294 13ac 2978     		ldrb	r1, [r5, #0]	@ zero_extendqisi2
 3295 13ae 0748     		ldr	r0, .L386+12
 3296 13b0 FFF7FEFF 		bl	uart_transmit
 3297 13b4 0548     		ldr	r0, .L386+12
 3298 13b6 2178     		ldrb	r1, [r4, #0]	@ zero_extendqisi2
 3299 13b8 FFF7FEFF 		bl	uart_transmit
 3300 13bc 14E0     		b	.L47
 3301              	.L387:
 3302 13be 00BF     		.align	2
 3303              	.L386:
 3304 13c0 00000000 		.word	downlink_nb_ovrn
 3305 13c4 00000000 		.word	.LANCHOR16
 3306 13c8 00000000 		.word	imu
 3307 13cc 00000000 		.word	uart2
 3308 13d0 00000000 		.word	downlink_nb_bytes
 3309 13d4 00000000 		.word	downlink_nb_msgs
 3310 13d8 00000000 		.word	ck_a
 3311 13dc 00000000 		.word	ck_b
 3312              	.LVL511:
 3313              	.L48:
 3314              		.loc 1 404 0 discriminator 33
 3315 13e0 9D4B     		ldr	r3, .L388+8
 3316 13e2 1A78     		ldrb	r2, [r3, #0]	@ zero_extendqisi2
 3317 13e4 0132     		adds	r2, r2, #1
 3318 13e6 1A70     		strb	r2, [r3, #0]
 3319              	.L47:
 3320              	.LBE267:
 3321              		.loc 1 404 0 discriminator 31
 3322 13e8 9C4B     		ldr	r3, .L388+12
 3323 13ea 1B78     		ldrb	r3, [r3, #0]	@ zero_extendqisi2
 3324 13ec 2A2B     		cmp	r3, #42
 3325 13ee 00F05581 		beq	.L49
 3326              		.loc 1 404 0 discriminator 34
 3327 13f2 302B     		cmp	r3, #48
 3328 13f4 00F05281 		beq	.L49
 3329              		.loc 1 404 0 discriminator 35
 3330 13f8 362B     		cmp	r3, #54
 3331 13fa 40F04F81 		bne	.L49
 3332              	.LBB283:
 3333              		.loc 1 404 0 discriminator 36
 3334 13fe 984B     		ldr	r3, .L388+16
 3335 1400 9848     		ldr	r0, .L388+20
 3336 1402 1A21     		movs	r1, #26
 3337 1404 1C68     		ldr	r4, [r3, #0]	@ float
 3338              	.LVL512:
 3339 1406 FFF7FEFF 		bl	uart_check_free_space
 3340              	.LVL513:
 3341 140a 0028     		cmp	r0, #0
 3342 140c 00F04281 		beq	.L50
 3343              		.loc 1 404 0 discriminator 38
 3344 1410 24F00040 		bic	r0, r4, #-2147483648
 3345 1414 FFF7FEFF 		bl	__aeabi_f2d
 3346 1418 8DA3     		adr	r3, .L388
 3347 141a D3E90023 		ldrd	r2, [r3]
 3348 141e FFF7FEFF 		bl	__aeabi_ddiv
 3349 1422 FFF7FEFF 		bl	__aeabi_d2uiz
 3350 1426 904B     		ldr	r3, .L388+24
 3351 1428 C7B2     		uxtb	r7, r0
 3352 142a 1A88     		ldrh	r2, [r3, #0]
 3353              	.LBB284:
 3354 142c 9921     		movs	r1, #153
 3355              	.LBE284:
 3356 142e 1A32     		adds	r2, r2, #26
 3357 1430 1A80     		strh	r2, [r3, #0]	@ movhi
 3358 1432 8E4B     		ldr	r3, .L388+28
 3359              	.LBB285:
 3360 1434 8B48     		ldr	r0, .L388+20
 3361              	.LBE285:
 3362 1436 1A88     		ldrh	r2, [r3, #0]
 3363 1438 8D4D     		ldr	r5, .L388+32
 3364 143a 0132     		adds	r2, r2, #1
 3365 143c 1A80     		strh	r2, [r3, #0]	@ movhi
 3366              	.LBB286:
 3367 143e FFF7FEFF 		bl	uart_transmit
 3368              	.LVL514:
 3369 1442 1A21     		movs	r1, #26
 3370 1444 8748     		ldr	r0, .L388+20
 3371              	.LBE286:
 3372 1446 8B4C     		ldr	r4, .L388+36
 3373              	.LVL515:
 3374              	.LBB287:
 3375 1448 FFF7FEFF 		bl	uart_transmit
 3376              	.LBE287:
 3377 144c 1B23     		movs	r3, #27
 3378 144e 2B70     		strb	r3, [r5, #0]
 3379 1450 3523     		movs	r3, #53
 3380 1452 2370     		strb	r3, [r4, #0]
 3381 1454 0121     		movs	r1, #1
 3382 1456 8348     		ldr	r0, .L388+20
 3383 1458 FFF7FEFF 		bl	uart_transmit
 3384 145c 2B78     		ldrb	r3, [r5, #0]	@ zero_extendqisi2
 3385 145e 2278     		ldrb	r2, [r4, #0]	@ zero_extendqisi2
 3386 1460 0A33     		adds	r3, r3, #10
 3387 1462 DBB2     		uxtb	r3, r3
 3388 1464 2B70     		strb	r3, [r5, #0]
 3389 1466 9B18     		adds	r3, r3, r2
 3390 1468 2370     		strb	r3, [r4, #0]
 3391 146a 0A21     		movs	r1, #10
 3392 146c 7D48     		ldr	r0, .L388+20
 3393 146e FFF7FEFF 		bl	uart_transmit
 3394              	.LBB288:
 3395 1472 814B     		ldr	r3, .L388+40
 3396 1474 2278     		ldrb	r2, [r4, #0]	@ zero_extendqisi2
 3397 1476 1978     		ldrb	r1, [r3, #0]	@ zero_extendqisi2
 3398              	.LVL516:
 3399 1478 2B78     		ldrb	r3, [r5, #0]	@ zero_extendqisi2
 3400 147a 7A48     		ldr	r0, .L388+20
 3401 147c CB18     		adds	r3, r1, r3
 3402 147e DBB2     		uxtb	r3, r3
 3403              	.LVL517:
 3404 1480 2B70     		strb	r3, [r5, #0]
 3405 1482 9B18     		adds	r3, r3, r2
 3406              	.LVL518:
 3407 1484 2370     		strb	r3, [r4, #0]
 3408 1486 FFF7FEFF 		bl	uart_transmit
 3409              	.LVL519:
 3410              	.LBE288:
 3411              	.LBB289:
 3412 148a 7C4B     		ldr	r3, .L388+44
 3413 148c 2278     		ldrb	r2, [r4, #0]	@ zero_extendqisi2
 3414 148e 1978     		ldrb	r1, [r3, #0]	@ zero_extendqisi2
 3415              	.LVL520:
 3416 1490 2B78     		ldrb	r3, [r5, #0]	@ zero_extendqisi2
 3417              	.LBE289:
 3418              	.LBB290:
 3419 1492 7B4E     		ldr	r6, .L388+48
 3420              	.LBE290:
 3421              	.LBB291:
 3422 1494 CB18     		adds	r3, r1, r3
 3423 1496 DBB2     		uxtb	r3, r3
 3424              	.LVL521:
 3425 1498 2B70     		strb	r3, [r5, #0]
 3426 149a 9B18     		adds	r3, r3, r2
 3427              	.LVL522:
 3428 149c 2370     		strb	r3, [r4, #0]
 3429 149e 7148     		ldr	r0, .L388+20
 3430 14a0 FFF7FEFF 		bl	uart_transmit
 3431              	.LVL523:
 3432              	.LBE291:
 3433              	.LBB292:
 3434 14a4 3178     		ldrb	r1, [r6, #0]	@ zero_extendqisi2
 3435              	.LVL524:
 3436 14a6 2B78     		ldrb	r3, [r5, #0]	@ zero_extendqisi2
 3437 14a8 2278     		ldrb	r2, [r4, #0]	@ zero_extendqisi2
 3438 14aa CB18     		adds	r3, r1, r3
 3439 14ac DBB2     		uxtb	r3, r3
 3440              	.LVL525:
 3441 14ae 2B70     		strb	r3, [r5, #0]
 3442 14b0 9B18     		adds	r3, r3, r2
 3443              	.LVL526:
 3444 14b2 2370     		strb	r3, [r4, #0]
 3445 14b4 6B48     		ldr	r0, .L388+20
 3446 14b6 FFF7FEFF 		bl	uart_transmit
 3447              	.LVL527:
 3448              	.LBE292:
 3449              	.LBB293:
 3450 14ba 7178     		ldrb	r1, [r6, #1]	@ zero_extendqisi2
 3451              	.LVL528:
 3452 14bc 2B78     		ldrb	r3, [r5, #0]	@ zero_extendqisi2
 3453 14be 2278     		ldrb	r2, [r4, #0]	@ zero_extendqisi2
 3454 14c0 CB18     		adds	r3, r1, r3
 3455 14c2 DBB2     		uxtb	r3, r3
 3456              	.LVL529:
 3457 14c4 2B70     		strb	r3, [r5, #0]
 3458 14c6 9B18     		adds	r3, r3, r2
 3459              	.LVL530:
 3460 14c8 2370     		strb	r3, [r4, #0]
 3461 14ca 6648     		ldr	r0, .L388+20
 3462 14cc FFF7FEFF 		bl	uart_transmit
 3463              	.LVL531:
 3464              	.LBE293:
 3465              	.LBB294:
 3466 14d0 B178     		ldrb	r1, [r6, #2]	@ zero_extendqisi2
 3467              	.LVL532:
 3468 14d2 2B78     		ldrb	r3, [r5, #0]	@ zero_extendqisi2
 3469 14d4 2278     		ldrb	r2, [r4, #0]	@ zero_extendqisi2
 3470 14d6 CB18     		adds	r3, r1, r3
 3471 14d8 DBB2     		uxtb	r3, r3
 3472              	.LVL533:
 3473 14da 2B70     		strb	r3, [r5, #0]
 3474 14dc 9B18     		adds	r3, r3, r2
 3475              	.LVL534:
 3476 14de 2370     		strb	r3, [r4, #0]
 3477 14e0 6048     		ldr	r0, .L388+20
 3478 14e2 FFF7FEFF 		bl	uart_transmit
 3479              	.LVL535:
 3480              	.LBE294:
 3481              	.LBB295:
 3482 14e6 F178     		ldrb	r1, [r6, #3]	@ zero_extendqisi2
 3483              	.LVL536:
 3484 14e8 2B78     		ldrb	r3, [r5, #0]	@ zero_extendqisi2
 3485 14ea 2278     		ldrb	r2, [r4, #0]	@ zero_extendqisi2
 3486 14ec CB18     		adds	r3, r1, r3
 3487 14ee DBB2     		uxtb	r3, r3
 3488              	.LBE295:
 3489              	.LBB296:
 3490 14f0 644E     		ldr	r6, .L388+52
 3491              	.LVL537:
 3492              	.LBE296:
 3493              	.LBB297:
 3494 14f2 2B70     		strb	r3, [r5, #0]
 3495 14f4 9B18     		adds	r3, r3, r2
 3496              	.LVL538:
 3497 14f6 2370     		strb	r3, [r4, #0]
 3498 14f8 5A48     		ldr	r0, .L388+20
 3499 14fa FFF7FEFF 		bl	uart_transmit
 3500              	.LVL539:
 3501              	.LBE297:
 3502              	.LBB298:
 3503 14fe 3178     		ldrb	r1, [r6, #0]	@ zero_extendqisi2
 3504              	.LVL540:
 3505 1500 2B78     		ldrb	r3, [r5, #0]	@ zero_extendqisi2
 3506 1502 2278     		ldrb	r2, [r4, #0]	@ zero_extendqisi2
 3507 1504 CB18     		adds	r3, r1, r3
 3508 1506 DBB2     		uxtb	r3, r3
 3509              	.LVL541:
 3510 1508 2B70     		strb	r3, [r5, #0]
 3511 150a 9B18     		adds	r3, r3, r2
 3512              	.LVL542:
 3513 150c 2370     		strb	r3, [r4, #0]
 3514 150e 5548     		ldr	r0, .L388+20
 3515 1510 FFF7FEFF 		bl	uart_transmit
 3516              	.LVL543:
 3517              	.LBE298:
 3518              	.LBB299:
 3519 1514 7178     		ldrb	r1, [r6, #1]	@ zero_extendqisi2
 3520              	.LVL544:
 3521 1516 2B78     		ldrb	r3, [r5, #0]	@ zero_extendqisi2
 3522 1518 2278     		ldrb	r2, [r4, #0]	@ zero_extendqisi2
 3523 151a CB18     		adds	r3, r1, r3
 3524 151c DBB2     		uxtb	r3, r3
 3525              	.LVL545:
 3526 151e 2B70     		strb	r3, [r5, #0]
 3527 1520 9B18     		adds	r3, r3, r2
 3528              	.LVL546:
 3529 1522 2370     		strb	r3, [r4, #0]
 3530 1524 4F48     		ldr	r0, .L388+20
 3531 1526 FFF7FEFF 		bl	uart_transmit
 3532              	.LVL547:
 3533              	.LBE299:
 3534              	.LBB300:
 3535 152a B178     		ldrb	r1, [r6, #2]	@ zero_extendqisi2
 3536              	.LVL548:
 3537 152c 2B78     		ldrb	r3, [r5, #0]	@ zero_extendqisi2
 3538 152e 2278     		ldrb	r2, [r4, #0]	@ zero_extendqisi2
 3539 1530 CB18     		adds	r3, r1, r3
 3540 1532 DBB2     		uxtb	r3, r3
 3541              	.LVL549:
 3542 1534 2B70     		strb	r3, [r5, #0]
 3543 1536 9B18     		adds	r3, r3, r2
 3544              	.LVL550:
 3545 1538 2370     		strb	r3, [r4, #0]
 3546 153a 4A48     		ldr	r0, .L388+20
 3547 153c FFF7FEFF 		bl	uart_transmit
 3548              	.LVL551:
 3549              	.LBE300:
 3550              	.LBB301:
 3551 1540 F178     		ldrb	r1, [r6, #3]	@ zero_extendqisi2
 3552              	.LVL552:
 3553 1542 2B78     		ldrb	r3, [r5, #0]	@ zero_extendqisi2
 3554 1544 2278     		ldrb	r2, [r4, #0]	@ zero_extendqisi2
 3555 1546 CB18     		adds	r3, r1, r3
 3556 1548 DBB2     		uxtb	r3, r3
 3557              	.LBE301:
 3558              	.LBB302:
 3559 154a 4F4E     		ldr	r6, .L388+56
 3560              	.LVL553:
 3561              	.LBE302:
 3562              	.LBB303:
 3563 154c 2B70     		strb	r3, [r5, #0]
 3564 154e 9B18     		adds	r3, r3, r2
 3565              	.LVL554:
 3566 1550 2370     		strb	r3, [r4, #0]
 3567 1552 4448     		ldr	r0, .L388+20
 3568 1554 FFF7FEFF 		bl	uart_transmit
 3569              	.LVL555:
 3570              	.LBE303:
 3571              	.LBB304:
 3572 1558 3178     		ldrb	r1, [r6, #0]	@ zero_extendqisi2
 3573              	.LVL556:
 3574 155a 2B78     		ldrb	r3, [r5, #0]	@ zero_extendqisi2
 3575 155c 2278     		ldrb	r2, [r4, #0]	@ zero_extendqisi2
 3576 155e CB18     		adds	r3, r1, r3
 3577 1560 DBB2     		uxtb	r3, r3
 3578              	.LVL557:
 3579 1562 2B70     		strb	r3, [r5, #0]
 3580 1564 9B18     		adds	r3, r3, r2
 3581              	.LVL558:
 3582 1566 2370     		strb	r3, [r4, #0]
 3583 1568 3E48     		ldr	r0, .L388+20
 3584 156a FFF7FEFF 		bl	uart_transmit
 3585              	.LVL559:
 3586              	.LBE304:
 3587              	.LBB305:
 3588 156e 7178     		ldrb	r1, [r6, #1]	@ zero_extendqisi2
 3589              	.LVL560:
 3590 1570 2B78     		ldrb	r3, [r5, #0]	@ zero_extendqisi2
 3591 1572 2278     		ldrb	r2, [r4, #0]	@ zero_extendqisi2
 3592 1574 CB18     		adds	r3, r1, r3
 3593 1576 DBB2     		uxtb	r3, r3
 3594              	.LVL561:
 3595 1578 2B70     		strb	r3, [r5, #0]
 3596 157a 9B18     		adds	r3, r3, r2
 3597              	.LVL562:
 3598 157c 2370     		strb	r3, [r4, #0]
 3599 157e 3948     		ldr	r0, .L388+20
 3600 1580 FFF7FEFF 		bl	uart_transmit
 3601              	.LVL563:
 3602              	.LBE305:
 3603              	.LBB306:
 3604 1584 B178     		ldrb	r1, [r6, #2]	@ zero_extendqisi2
 3605              	.LVL564:
 3606 1586 2B78     		ldrb	r3, [r5, #0]	@ zero_extendqisi2
 3607 1588 2278     		ldrb	r2, [r4, #0]	@ zero_extendqisi2
 3608 158a CB18     		adds	r3, r1, r3
 3609 158c DBB2     		uxtb	r3, r3
 3610              	.LVL565:
 3611 158e 2B70     		strb	r3, [r5, #0]
 3612 1590 9B18     		adds	r3, r3, r2
 3613              	.LVL566:
 3614 1592 2370     		strb	r3, [r4, #0]
 3615 1594 3348     		ldr	r0, .L388+20
 3616 1596 FFF7FEFF 		bl	uart_transmit
 3617              	.LVL567:
 3618              	.LBE306:
 3619              	.LBB307:
 3620 159a F178     		ldrb	r1, [r6, #3]	@ zero_extendqisi2
 3621              	.LVL568:
 3622 159c 2B78     		ldrb	r3, [r5, #0]	@ zero_extendqisi2
 3623 159e 2278     		ldrb	r2, [r4, #0]	@ zero_extendqisi2
 3624 15a0 CB18     		adds	r3, r1, r3
 3625 15a2 DBB2     		uxtb	r3, r3
 3626              	.LBE307:
 3627              	.LBB308:
 3628 15a4 394E     		ldr	r6, .L388+60
 3629              	.LVL569:
 3630              	.LBE308:
 3631              	.LBB309:
 3632 15a6 2B70     		strb	r3, [r5, #0]
 3633 15a8 9B18     		adds	r3, r3, r2
 3634              	.LVL570:
 3635 15aa 2370     		strb	r3, [r4, #0]
 3636 15ac 2D48     		ldr	r0, .L388+20
 3637 15ae FFF7FEFF 		bl	uart_transmit
 3638              	.LVL571:
 3639              	.LBE309:
 3640              	.LBB310:
 3641 15b2 3178     		ldrb	r1, [r6, #0]	@ zero_extendqisi2
 3642              	.LVL572:
 3643 15b4 2B78     		ldrb	r3, [r5, #0]	@ zero_extendqisi2
 3644 15b6 2278     		ldrb	r2, [r4, #0]	@ zero_extendqisi2
 3645 15b8 CB18     		adds	r3, r1, r3
 3646 15ba DBB2     		uxtb	r3, r3
 3647              	.LVL573:
 3648 15bc 2B70     		strb	r3, [r5, #0]
 3649 15be 9B18     		adds	r3, r3, r2
 3650              	.LVL574:
 3651 15c0 2370     		strb	r3, [r4, #0]
 3652 15c2 2848     		ldr	r0, .L388+20
 3653 15c4 FFF7FEFF 		bl	uart_transmit
 3654              	.LVL575:
 3655              	.LBE310:
 3656              	.LBB311:
 3657 15c8 7178     		ldrb	r1, [r6, #1]	@ zero_extendqisi2
 3658              	.LVL576:
 3659 15ca 2B78     		ldrb	r3, [r5, #0]	@ zero_extendqisi2
 3660 15cc 2278     		ldrb	r2, [r4, #0]	@ zero_extendqisi2
 3661 15ce CB18     		adds	r3, r1, r3
 3662 15d0 DBB2     		uxtb	r3, r3
 3663              	.LVL577:
 3664 15d2 2B70     		strb	r3, [r5, #0]
 3665 15d4 9B18     		adds	r3, r3, r2
 3666              	.LVL578:
 3667 15d6 2370     		strb	r3, [r4, #0]
 3668 15d8 2248     		ldr	r0, .L388+20
 3669 15da FFF7FEFF 		bl	uart_transmit
 3670              	.LVL579:
 3671              	.LBE311:
 3672              	.LBB312:
 3673 15de B178     		ldrb	r1, [r6, #2]	@ zero_extendqisi2
 3674              	.LVL580:
 3675 15e0 2B78     		ldrb	r3, [r5, #0]	@ zero_extendqisi2
 3676 15e2 2278     		ldrb	r2, [r4, #0]	@ zero_extendqisi2
 3677 15e4 CB18     		adds	r3, r1, r3
 3678 15e6 DBB2     		uxtb	r3, r3
 3679              	.LVL581:
 3680 15e8 2B70     		strb	r3, [r5, #0]
 3681 15ea 9B18     		adds	r3, r3, r2
 3682              	.LVL582:
 3683 15ec 2370     		strb	r3, [r4, #0]
 3684 15ee 1D48     		ldr	r0, .L388+20
 3685 15f0 FFF7FEFF 		bl	uart_transmit
 3686              	.LVL583:
 3687              	.LBE312:
 3688              	.LBB313:
 3689 15f4 F178     		ldrb	r1, [r6, #3]	@ zero_extendqisi2
 3690              	.LVL584:
 3691 15f6 2B78     		ldrb	r3, [r5, #0]	@ zero_extendqisi2
 3692 15f8 2278     		ldrb	r2, [r4, #0]	@ zero_extendqisi2
 3693 15fa CB18     		adds	r3, r1, r3
 3694 15fc DBB2     		uxtb	r3, r3
 3695              	.LVL585:
 3696 15fe 2B70     		strb	r3, [r5, #0]
 3697 1600 9B18     		adds	r3, r3, r2
 3698              	.LVL586:
 3699 1602 2370     		strb	r3, [r4, #0]
 3700 1604 1748     		ldr	r0, .L388+20
 3701 1606 FFF7FEFF 		bl	uart_transmit
 3702              	.LVL587:
 3703              	.LBE313:
 3704              	.LBB314:
 3705 160a 2B78     		ldrb	r3, [r5, #0]	@ zero_extendqisi2
 3706 160c 2278     		ldrb	r2, [r4, #0]	@ zero_extendqisi2
 3707 160e FB18     		adds	r3, r7, r3
 3708 1610 DBB2     		uxtb	r3, r3
 3709              	.LVL588:
 3710 1612 2B70     		strb	r3, [r5, #0]
 3711 1614 9B18     		adds	r3, r3, r2
 3712              	.LVL589:
 3713 1616 2370     		strb	r3, [r4, #0]
 3714 1618 3946     		mov	r1, r7
 3715 161a 1248     		ldr	r0, .L388+20
 3716 161c FFF7FEFF 		bl	uart_transmit
 3717              	.LBE314:
 3718              	.LBB315:
 3719 1620 1B4B     		ldr	r3, .L388+64
 3720 1622 2278     		ldrb	r2, [r4, #0]	@ zero_extendqisi2
 3721 1624 1978     		ldrb	r1, [r3, #0]	@ zero_extendqisi2
 3722              	.LVL590:
 3723 1626 2B78     		ldrb	r3, [r5, #0]	@ zero_extendqisi2
 3724 1628 0E48     		ldr	r0, .L388+20
 3725 162a CB18     		adds	r3, r1, r3
 3726 162c DBB2     		uxtb	r3, r3
 3727              	.LVL591:
 3728 162e 2B70     		strb	r3, [r5, #0]
 3729 1630 9B18     		adds	r3, r3, r2
 3730              	.LVL592:
 3731 1632 2370     		strb	r3, [r4, #0]
 3732 1634 FFF7FEFF 		bl	uart_transmit
 3733              	.LVL593:
 3734              	.LBE315:
 3735 1638 2978     		ldrb	r1, [r5, #0]	@ zero_extendqisi2
 3736 163a 0A48     		ldr	r0, .L388+20
 3737 163c FFF7FEFF 		bl	uart_transmit
 3738 1640 0848     		ldr	r0, .L388+20
 3739 1642 2178     		ldrb	r1, [r4, #0]	@ zero_extendqisi2
 3740 1644 FFF7FEFF 		bl	uart_transmit
 3741 1648 28E0     		b	.L49
 3742              	.L389:
 3743 164a 00BFAFF3 		.align	3
 3743      0080
 3744              	.L388:
 3745 1650 182D4454 		.word	1413754136
 3746 1654 FB211940 		.word	1075388923
 3747 1658 00000000 		.word	downlink_nb_ovrn
 3748 165c 00000000 		.word	.LANCHOR17
 3749 1660 00000000 		.word	nav_circle_radians
 3750 1664 00000000 		.word	uart2
 3751 1668 00000000 		.word	downlink_nb_bytes
 3752 166c 00000000 		.word	downlink_nb_msgs
 3753 1670 00000000 		.word	ck_a
 3754 1674 00000000 		.word	ck_b
 3755 1678 00000000 		.word	nav_block
 3756 167c 00000000 		.word	nav_stage
 3757 1680 00000000 		.word	estimator_x
 3758 1684 00000000 		.word	estimator_y
 3759 1688 00000000 		.word	dist2_to_wp
 3760 168c 00000000 		.word	dist2_to_home
 3761 1690 00000000 		.word	nav_oval_count
 3762              	.LVL594:
 3763              	.L50:
 3764              		.loc 1 404 0 discriminator 39
 3765 1694 644B     		ldr	r3, .L390
 3766 1696 1A78     		ldrb	r2, [r3, #0]	@ zero_extendqisi2
 3767 1698 0132     		adds	r2, r2, #1
 3768 169a 1A70     		strb	r2, [r3, #0]
 3769              	.LVL595:
 3770              	.L49:
 3771              	.LBE283:
 3772              		.loc 1 404 0 discriminator 40
 3773 169c 634B     		ldr	r3, .L390+4
 3774 169e 1B78     		ldrb	r3, [r3, #0]	@ zero_extendqisi2
 3775 16a0 062B     		cmp	r3, #6
 3776 16a2 40F0DB80 		bne	.L51
 3777              		.loc 1 404 0 discriminator 41
 3778 16a6 624B     		ldr	r3, .L390+8
 3779 16a8 1B78     		ldrb	r3, [r3, #0]	@ zero_extendqisi2
 3780 16aa 002B     		cmp	r3, #0
 3781 16ac 00F0D680 		beq	.L51
 3782              		.loc 1 404 0 discriminator 43
 3783 16b0 6048     		ldr	r0, .L390+12
 3784 16b2 1221     		movs	r1, #18
 3785 16b4 FFF7FEFF 		bl	uart_check_free_space
 3786 16b8 0028     		cmp	r0, #0
 3787 16ba 00F0CB80 		beq	.L52
 3788              		.loc 1 404 0 discriminator 44
 3789 16be 5E4B     		ldr	r3, .L390+16
 3790              	.LBB316:
 3791 16c0 9921     		movs	r1, #153
 3792              	.LBE316:
 3793 16c2 1A88     		ldrh	r2, [r3, #0]
 3794              	.LBB317:
 3795 16c4 5B48     		ldr	r0, .L390+12
 3796              	.LBE317:
 3797 16c6 1232     		adds	r2, r2, #18
 3798 16c8 1A80     		strh	r2, [r3, #0]	@ movhi
 3799 16ca 5C4B     		ldr	r3, .L390+20
 3800 16cc 5C4D     		ldr	r5, .L390+24
 3801 16ce 1A88     		ldrh	r2, [r3, #0]
 3802 16d0 5C4C     		ldr	r4, .L390+28
 3803 16d2 0132     		adds	r2, r2, #1
 3804 16d4 1A80     		strh	r2, [r3, #0]	@ movhi
 3805              	.LBB318:
 3806 16d6 FFF7FEFF 		bl	uart_transmit
 3807              	.LVL596:
 3808 16da 1221     		movs	r1, #18
 3809 16dc 5548     		ldr	r0, .L390+12
 3810 16de FFF7FEFF 		bl	uart_transmit
 3811              	.LBE318:
 3812 16e2 1323     		movs	r3, #19
 3813 16e4 2B70     		strb	r3, [r5, #0]
 3814 16e6 2523     		movs	r3, #37
 3815 16e8 2370     		strb	r3, [r4, #0]
 3816 16ea 0121     		movs	r1, #1
 3817 16ec 5148     		ldr	r0, .L390+12
 3818 16ee FFF7FEFF 		bl	uart_transmit
 3819 16f2 2B78     		ldrb	r3, [r5, #0]	@ zero_extendqisi2
 3820 16f4 2278     		ldrb	r2, [r4, #0]	@ zero_extendqisi2
 3821 16f6 1533     		adds	r3, r3, #21
 3822 16f8 DBB2     		uxtb	r3, r3
 3823              	.LBB319:
 3824 16fa 534E     		ldr	r6, .L390+32
 3825              	.LBE319:
 3826 16fc 2B70     		strb	r3, [r5, #0]
 3827 16fe 9B18     		adds	r3, r3, r2
 3828 1700 2370     		strb	r3, [r4, #0]
 3829 1702 1521     		movs	r1, #21
 3830 1704 4B48     		ldr	r0, .L390+12
 3831 1706 FFF7FEFF 		bl	uart_transmit
 3832              	.LBB320:
 3833 170a 3178     		ldrb	r1, [r6, #0]	@ zero_extendqisi2
 3834              	.LVL597:
 3835 170c 2B78     		ldrb	r3, [r5, #0]	@ zero_extendqisi2
 3836 170e 2278     		ldrb	r2, [r4, #0]	@ zero_extendqisi2
 3837 1710 CB18     		adds	r3, r1, r3
 3838 1712 DBB2     		uxtb	r3, r3
 3839              	.LVL598:
 3840 1714 2B70     		strb	r3, [r5, #0]
 3841 1716 9B18     		adds	r3, r3, r2
 3842              	.LVL599:
 3843 1718 2370     		strb	r3, [r4, #0]
 3844 171a 4648     		ldr	r0, .L390+12
 3845 171c FFF7FEFF 		bl	uart_transmit
 3846              	.LVL600:
 3847              	.LBE320:
 3848              	.LBB321:
 3849 1720 7178     		ldrb	r1, [r6, #1]	@ zero_extendqisi2
 3850              	.LVL601:
 3851 1722 2B78     		ldrb	r3, [r5, #0]	@ zero_extendqisi2
 3852 1724 2278     		ldrb	r2, [r4, #0]	@ zero_extendqisi2
 3853 1726 CB18     		adds	r3, r1, r3
 3854 1728 DBB2     		uxtb	r3, r3
 3855              	.LVL602:
 3856 172a 2B70     		strb	r3, [r5, #0]
 3857 172c 9B18     		adds	r3, r3, r2
 3858              	.LVL603:
 3859 172e 2370     		strb	r3, [r4, #0]
 3860 1730 4048     		ldr	r0, .L390+12
 3861 1732 FFF7FEFF 		bl	uart_transmit
 3862              	.LVL604:
 3863              	.LBE321:
 3864              	.LBB322:
 3865 1736 B178     		ldrb	r1, [r6, #2]	@ zero_extendqisi2
 3866              	.LVL605:
 3867 1738 2B78     		ldrb	r3, [r5, #0]	@ zero_extendqisi2
 3868 173a 2278     		ldrb	r2, [r4, #0]	@ zero_extendqisi2
 3869 173c CB18     		adds	r3, r1, r3
 3870 173e DBB2     		uxtb	r3, r3
 3871              	.LVL606:
 3872 1740 2B70     		strb	r3, [r5, #0]
 3873 1742 9B18     		adds	r3, r3, r2
 3874              	.LVL607:
 3875 1744 2370     		strb	r3, [r4, #0]
 3876 1746 3B48     		ldr	r0, .L390+12
 3877 1748 FFF7FEFF 		bl	uart_transmit
 3878              	.LVL608:
 3879              	.LBE322:
 3880              	.LBB323:
 3881 174c F178     		ldrb	r1, [r6, #3]	@ zero_extendqisi2
 3882              	.LVL609:
 3883 174e 2B78     		ldrb	r3, [r5, #0]	@ zero_extendqisi2
 3884 1750 2278     		ldrb	r2, [r4, #0]	@ zero_extendqisi2
 3885 1752 CB18     		adds	r3, r1, r3
 3886 1754 DBB2     		uxtb	r3, r3
 3887              	.LBE323:
 3888              	.LBB324:
 3889 1756 3D4E     		ldr	r6, .L390+36
 3890              	.LVL610:
 3891              	.LBE324:
 3892              	.LBB325:
 3893 1758 2B70     		strb	r3, [r5, #0]
 3894 175a 9B18     		adds	r3, r3, r2
 3895              	.LVL611:
 3896 175c 2370     		strb	r3, [r4, #0]
 3897 175e 3548     		ldr	r0, .L390+12
 3898 1760 FFF7FEFF 		bl	uart_transmit
 3899              	.LVL612:
 3900              	.LBE325:
 3901              	.LBB326:
 3902 1764 3178     		ldrb	r1, [r6, #0]	@ zero_extendqisi2
 3903              	.LVL613:
 3904 1766 2B78     		ldrb	r3, [r5, #0]	@ zero_extendqisi2
 3905 1768 2278     		ldrb	r2, [r4, #0]	@ zero_extendqisi2
 3906 176a CB18     		adds	r3, r1, r3
 3907 176c DBB2     		uxtb	r3, r3
 3908              	.LVL614:
 3909 176e 2B70     		strb	r3, [r5, #0]
 3910 1770 9B18     		adds	r3, r3, r2
 3911              	.LVL615:
 3912 1772 2370     		strb	r3, [r4, #0]
 3913 1774 2F48     		ldr	r0, .L390+12
 3914 1776 FFF7FEFF 		bl	uart_transmit
 3915              	.LVL616:
 3916              	.LBE326:
 3917              	.LBB327:
 3918 177a 7178     		ldrb	r1, [r6, #1]	@ zero_extendqisi2
 3919              	.LVL617:
 3920 177c 2B78     		ldrb	r3, [r5, #0]	@ zero_extendqisi2
 3921 177e 2278     		ldrb	r2, [r4, #0]	@ zero_extendqisi2
 3922 1780 CB18     		adds	r3, r1, r3
 3923 1782 DBB2     		uxtb	r3, r3
 3924              	.LVL618:
 3925 1784 2B70     		strb	r3, [r5, #0]
 3926 1786 9B18     		adds	r3, r3, r2
 3927              	.LVL619:
 3928 1788 2370     		strb	r3, [r4, #0]
 3929 178a 2A48     		ldr	r0, .L390+12
 3930 178c FFF7FEFF 		bl	uart_transmit
 3931              	.LVL620:
 3932              	.LBE327:
 3933              	.LBB328:
 3934 1790 B178     		ldrb	r1, [r6, #2]	@ zero_extendqisi2
 3935              	.LVL621:
 3936 1792 2B78     		ldrb	r3, [r5, #0]	@ zero_extendqisi2
 3937 1794 2278     		ldrb	r2, [r4, #0]	@ zero_extendqisi2
 3938 1796 CB18     		adds	r3, r1, r3
 3939 1798 DBB2     		uxtb	r3, r3
 3940              	.LVL622:
 3941 179a 2B70     		strb	r3, [r5, #0]
 3942 179c 9B18     		adds	r3, r3, r2
 3943              	.LVL623:
 3944 179e 2370     		strb	r3, [r4, #0]
 3945 17a0 2448     		ldr	r0, .L390+12
 3946 17a2 FFF7FEFF 		bl	uart_transmit
 3947              	.LVL624:
 3948              	.LBE328:
 3949              	.LBB329:
 3950 17a6 F178     		ldrb	r1, [r6, #3]	@ zero_extendqisi2
 3951              	.LVL625:
 3952 17a8 2B78     		ldrb	r3, [r5, #0]	@ zero_extendqisi2
 3953 17aa 2278     		ldrb	r2, [r4, #0]	@ zero_extendqisi2
 3954 17ac CB18     		adds	r3, r1, r3
 3955 17ae DBB2     		uxtb	r3, r3
 3956              	.LBE329:
 3957              	.LBB330:
 3958 17b0 274E     		ldr	r6, .L390+40
 3959              	.LVL626:
 3960              	.LBE330:
 3961              	.LBB331:
 3962 17b2 2B70     		strb	r3, [r5, #0]
 3963 17b4 9B18     		adds	r3, r3, r2
 3964              	.LVL627:
 3965 17b6 2370     		strb	r3, [r4, #0]
 3966 17b8 1E48     		ldr	r0, .L390+12
 3967 17ba FFF7FEFF 		bl	uart_transmit
 3968              	.LVL628:
 3969              	.LBE331:
 3970              	.LBB332:
 3971 17be 3178     		ldrb	r1, [r6, #0]	@ zero_extendqisi2
 3972              	.LVL629:
 3973 17c0 2B78     		ldrb	r3, [r5, #0]	@ zero_extendqisi2
 3974 17c2 2278     		ldrb	r2, [r4, #0]	@ zero_extendqisi2
 3975 17c4 CB18     		adds	r3, r1, r3
 3976 17c6 DBB2     		uxtb	r3, r3
 3977              	.LVL630:
 3978 17c8 2B70     		strb	r3, [r5, #0]
 3979 17ca 9B18     		adds	r3, r3, r2
 3980              	.LVL631:
 3981 17cc 2370     		strb	r3, [r4, #0]
 3982 17ce 1948     		ldr	r0, .L390+12
 3983 17d0 FFF7FEFF 		bl	uart_transmit
 3984              	.LVL632:
 3985              	.LBE332:
 3986              	.LBB333:
 3987 17d4 7178     		ldrb	r1, [r6, #1]	@ zero_extendqisi2
 3988              	.LVL633:
 3989 17d6 2B78     		ldrb	r3, [r5, #0]	@ zero_extendqisi2
 3990 17d8 2278     		ldrb	r2, [r4, #0]	@ zero_extendqisi2
 3991 17da CB18     		adds	r3, r1, r3
 3992 17dc DBB2     		uxtb	r3, r3
 3993              	.LVL634:
 3994 17de 2B70     		strb	r3, [r5, #0]
 3995 17e0 9B18     		adds	r3, r3, r2
 3996              	.LVL635:
 3997 17e2 2370     		strb	r3, [r4, #0]
 3998 17e4 1348     		ldr	r0, .L390+12
 3999 17e6 FFF7FEFF 		bl	uart_transmit
 4000              	.LVL636:
 4001              	.LBE333:
 4002              	.LBB334:
 4003 17ea B178     		ldrb	r1, [r6, #2]	@ zero_extendqisi2
 4004              	.LVL637:
 4005 17ec 2B78     		ldrb	r3, [r5, #0]	@ zero_extendqisi2
 4006 17ee 2278     		ldrb	r2, [r4, #0]	@ zero_extendqisi2
 4007 17f0 CB18     		adds	r3, r1, r3
 4008 17f2 DBB2     		uxtb	r3, r3
 4009              	.LVL638:
 4010 17f4 2B70     		strb	r3, [r5, #0]
 4011 17f6 9B18     		adds	r3, r3, r2
 4012              	.LVL639:
 4013 17f8 2370     		strb	r3, [r4, #0]
 4014 17fa 0E48     		ldr	r0, .L390+12
 4015 17fc FFF7FEFF 		bl	uart_transmit
 4016              	.LVL640:
 4017              	.LBE334:
 4018              	.LBB335:
 4019 1800 F178     		ldrb	r1, [r6, #3]	@ zero_extendqisi2
 4020              	.LVL641:
 4021 1802 2B78     		ldrb	r3, [r5, #0]	@ zero_extendqisi2
 4022 1804 2278     		ldrb	r2, [r4, #0]	@ zero_extendqisi2
 4023 1806 CB18     		adds	r3, r1, r3
 4024 1808 DBB2     		uxtb	r3, r3
 4025              	.LVL642:
 4026 180a 2B70     		strb	r3, [r5, #0]
 4027 180c 9B18     		adds	r3, r3, r2
 4028              	.LVL643:
 4029 180e 2370     		strb	r3, [r4, #0]
 4030 1810 0848     		ldr	r0, .L390+12
 4031 1812 FFF7FEFF 		bl	uart_transmit
 4032              	.LVL644:
 4033              	.LBE335:
 4034 1816 2978     		ldrb	r1, [r5, #0]	@ zero_extendqisi2
 4035 1818 0648     		ldr	r0, .L390+12
 4036 181a FFF7FEFF 		bl	uart_transmit
 4037 181e 0548     		ldr	r0, .L390+12
 4038 1820 2178     		ldrb	r1, [r4, #0]	@ zero_extendqisi2
 4039 1822 FFF7FEFF 		bl	uart_transmit
 4040 1826 19E0     		b	.L51
 4041              	.L391:
 4042              		.align	2
 4043              	.L390:
 4044 1828 00000000 		.word	downlink_nb_ovrn
 4045 182c 00000000 		.word	.LANCHOR18
 4046 1830 00000000 		.word	nav_in_circle
 4047 1834 00000000 		.word	uart2
 4048 1838 00000000 		.word	downlink_nb_bytes
 4049 183c 00000000 		.word	downlink_nb_msgs
 4050 1840 00000000 		.word	ck_a
 4051 1844 00000000 		.word	ck_b
 4052 1848 00000000 		.word	nav_circle_x
 4053 184c 00000000 		.word	nav_circle_y
 4054 1850 00000000 		.word	nav_circle_radius
 4055              	.LVL645:
 4056              	.L52:
 4057              		.loc 1 404 0 discriminator 45
 4058 1854 774B     		ldr	r3, .L392
 4059 1856 1A78     		ldrb	r2, [r3, #0]	@ zero_extendqisi2
 4060 1858 0132     		adds	r2, r2, #1
 4061 185a 1A70     		strb	r2, [r3, #0]
 4062              	.L51:
 4063              		.loc 1 404 0 discriminator 42
 4064 185c 764B     		ldr	r3, .L392+4
 4065 185e 1E78     		ldrb	r6, [r3, #0]	@ zero_extendqisi2
 4066 1860 0C2E     		cmp	r6, #12
 4067 1862 40F00981 		bne	.L53
 4068              	.LBB336:
 4069              		.loc 1 404 0 discriminator 46
 4070 1866 754B     		ldr	r3, .L392+8
 4071 1868 1A68     		ldr	r2, [r3, #0]
 4072 186a 0A23     		movs	r3, #10
 4073 186c 92FBF3F3 		sdiv	r3, r2, r3
 4074 1870 ADF82630 		strh	r3, [sp, #38]	@ movhi
 4075              	.LVL646:
 4076              	.LBB337:
 4077 1874 724B     		ldr	r3, .L392+12
 4078 1876 1868     		ldr	r0, [r3, #0]	@ float
 4079 1878 FFF7FEFF 		bl	__aeabi_f2iz
 4080 187c 1421     		movs	r1, #20
 4081 187e ADF82400 		strh	r0, [sp, #36]	@ movhi
 4082              	.LVL647:
 4083 1882 7048     		ldr	r0, .L392+16
 4084 1884 FFF7FEFF 		bl	uart_check_free_space
 4085 1888 0028     		cmp	r0, #0
 4086 188a 00F0F180 		beq	.L54
 4087              		.loc 1 404 0 discriminator 48
 4088 188e 6E4B     		ldr	r3, .L392+20
 4089              	.LBB338:
 4090 1890 9921     		movs	r1, #153
 4091              	.LBE338:
 4092 1892 1A88     		ldrh	r2, [r3, #0]
 4093              	.LBB339:
 4094 1894 6B48     		ldr	r0, .L392+16
 4095              	.LBE339:
 4096 1896 1432     		adds	r2, r2, #20
 4097 1898 1A80     		strh	r2, [r3, #0]	@ movhi
 4098 189a 6C4B     		ldr	r3, .L392+24
 4099 189c 6C4D     		ldr	r5, .L392+28
 4100 189e 1A88     		ldrh	r2, [r3, #0]
 4101 18a0 6C4C     		ldr	r4, .L392+32
 4102 18a2 0132     		adds	r2, r2, #1
 4103 18a4 1A80     		strh	r2, [r3, #0]	@ movhi
 4104              	.LBB340:
 4105 18a6 FFF7FEFF 		bl	uart_transmit
 4106              	.LVL648:
 4107 18aa 1421     		movs	r1, #20
 4108 18ac 6548     		ldr	r0, .L392+16
 4109 18ae FFF7FEFF 		bl	uart_transmit
 4110              	.LBE340:
 4111 18b2 1523     		movs	r3, #21
 4112 18b4 2B70     		strb	r3, [r5, #0]
 4113 18b6 2923     		movs	r3, #41
 4114 18b8 2370     		strb	r3, [r4, #0]
 4115 18ba 0121     		movs	r1, #1
 4116 18bc 6148     		ldr	r0, .L392+16
 4117 18be FFF7FEFF 		bl	uart_transmit
 4118 18c2 2B78     		ldrb	r3, [r5, #0]	@ zero_extendqisi2
 4119 18c4 2278     		ldrb	r2, [r4, #0]	@ zero_extendqisi2
 4120 18c6 0C33     		adds	r3, r3, #12
 4121 18c8 DBB2     		uxtb	r3, r3
 4122 18ca 2B70     		strb	r3, [r5, #0]
 4123 18cc 3146     		mov	r1, r6
 4124 18ce 9B18     		adds	r3, r3, r2
 4125              	.LBB341:
 4126 18d0 614E     		ldr	r6, .L392+36
 4127              	.LBE341:
 4128 18d2 2370     		strb	r3, [r4, #0]
 4129 18d4 5B48     		ldr	r0, .L392+16
 4130 18d6 FFF7FEFF 		bl	uart_transmit
 4131              	.LBB342:
 4132 18da 3178     		ldrb	r1, [r6, #0]	@ zero_extendqisi2
 4133              	.LVL649:
 4134 18dc 2B78     		ldrb	r3, [r5, #0]	@ zero_extendqisi2
 4135 18de 2278     		ldrb	r2, [r4, #0]	@ zero_extendqisi2
 4136 18e0 CB18     		adds	r3, r1, r3
 4137 18e2 DBB2     		uxtb	r3, r3
 4138              	.LVL650:
 4139 18e4 2B70     		strb	r3, [r5, #0]
 4140 18e6 9B18     		adds	r3, r3, r2
 4141              	.LVL651:
 4142 18e8 2370     		strb	r3, [r4, #0]
 4143 18ea 5648     		ldr	r0, .L392+16
 4144 18ec FFF7FEFF 		bl	uart_transmit
 4145              	.LVL652:
 4146              	.LBE342:
 4147              	.LBB343:
 4148 18f0 7178     		ldrb	r1, [r6, #1]	@ zero_extendqisi2
 4149              	.LVL653:
 4150 18f2 2B78     		ldrb	r3, [r5, #0]	@ zero_extendqisi2
 4151 18f4 2278     		ldrb	r2, [r4, #0]	@ zero_extendqisi2
 4152 18f6 CB18     		adds	r3, r1, r3
 4153 18f8 DBB2     		uxtb	r3, r3
 4154              	.LVL654:
 4155 18fa 2B70     		strb	r3, [r5, #0]
 4156 18fc 9B18     		adds	r3, r3, r2
 4157              	.LVL655:
 4158 18fe 2370     		strb	r3, [r4, #0]
 4159 1900 5048     		ldr	r0, .L392+16
 4160 1902 FFF7FEFF 		bl	uart_transmit
 4161              	.LVL656:
 4162              	.LBE343:
 4163              	.LBB344:
 4164 1906 554B     		ldr	r3, .L392+40
 4165 1908 2278     		ldrb	r2, [r4, #0]	@ zero_extendqisi2
 4166 190a 1978     		ldrb	r1, [r3, #0]	@ zero_extendqisi2
 4167              	.LVL657:
 4168 190c 2B78     		ldrb	r3, [r5, #0]	@ zero_extendqisi2
 4169 190e 4D48     		ldr	r0, .L392+16
 4170 1910 CB18     		adds	r3, r1, r3
 4171 1912 DBB2     		uxtb	r3, r3
 4172              	.LVL658:
 4173 1914 2B70     		strb	r3, [r5, #0]
 4174 1916 9B18     		adds	r3, r3, r2
 4175              	.LVL659:
 4176 1918 2370     		strb	r3, [r4, #0]
 4177 191a FFF7FEFF 		bl	uart_transmit
 4178              	.LVL660:
 4179              	.LBE344:
 4180              	.LBB345:
 4181 191e 9DF82610 		ldrb	r1, [sp, #38]	@ zero_extendqisi2
 4182              	.LVL661:
 4183 1922 2B78     		ldrb	r3, [r5, #0]	@ zero_extendqisi2
 4184 1924 2278     		ldrb	r2, [r4, #0]	@ zero_extendqisi2
 4185 1926 CB18     		adds	r3, r1, r3
 4186 1928 DBB2     		uxtb	r3, r3
 4187              	.LVL662:
 4188 192a 2B70     		strb	r3, [r5, #0]
 4189 192c 9B18     		adds	r3, r3, r2
 4190              	.LVL663:
 4191 192e 2370     		strb	r3, [r4, #0]
 4192 1930 4448     		ldr	r0, .L392+16
 4193 1932 FFF7FEFF 		bl	uart_transmit
 4194              	.LVL664:
 4195              	.LBE345:
 4196              	.LBB346:
 4197 1936 9DF82710 		ldrb	r1, [sp, #39]	@ zero_extendqisi2
 4198              	.LVL665:
 4199 193a 2B78     		ldrb	r3, [r5, #0]	@ zero_extendqisi2
 4200 193c 2278     		ldrb	r2, [r4, #0]	@ zero_extendqisi2
 4201 193e CB18     		adds	r3, r1, r3
 4202 1940 DBB2     		uxtb	r3, r3
 4203              	.LVL666:
 4204 1942 2B70     		strb	r3, [r5, #0]
 4205              	.LBE346:
 4206              	.LBB347:
 4207 1944 464E     		ldr	r6, .L392+44
 4208              	.LBE347:
 4209              	.LBB348:
 4210 1946 9B18     		adds	r3, r3, r2
 4211              	.LVL667:
 4212 1948 2370     		strb	r3, [r4, #0]
 4213 194a 3E48     		ldr	r0, .L392+16
 4214 194c FFF7FEFF 		bl	uart_transmit
 4215              	.LVL668:
 4216              	.LBE348:
 4217              	.LBB349:
 4218 1950 3178     		ldrb	r1, [r6, #0]	@ zero_extendqisi2
 4219              	.LVL669:
 4220 1952 2B78     		ldrb	r3, [r5, #0]	@ zero_extendqisi2
 4221 1954 2278     		ldrb	r2, [r4, #0]	@ zero_extendqisi2
 4222 1956 CB18     		adds	r3, r1, r3
 4223 1958 DBB2     		uxtb	r3, r3
 4224              	.LVL670:
 4225 195a 2B70     		strb	r3, [r5, #0]
 4226 195c 9B18     		adds	r3, r3, r2
 4227              	.LVL671:
 4228 195e 2370     		strb	r3, [r4, #0]
 4229 1960 3848     		ldr	r0, .L392+16
 4230 1962 FFF7FEFF 		bl	uart_transmit
 4231              	.LVL672:
 4232              	.LBE349:
 4233              	.LBB350:
 4234 1966 7178     		ldrb	r1, [r6, #1]	@ zero_extendqisi2
 4235              	.LVL673:
 4236 1968 2B78     		ldrb	r3, [r5, #0]	@ zero_extendqisi2
 4237 196a 2278     		ldrb	r2, [r4, #0]	@ zero_extendqisi2
 4238 196c CB18     		adds	r3, r1, r3
 4239 196e DBB2     		uxtb	r3, r3
 4240              	.LVL674:
 4241 1970 2B70     		strb	r3, [r5, #0]
 4242 1972 9B18     		adds	r3, r3, r2
 4243              	.LVL675:
 4244 1974 2370     		strb	r3, [r4, #0]
 4245 1976 3348     		ldr	r0, .L392+16
 4246 1978 FFF7FEFF 		bl	uart_transmit
 4247              	.LVL676:
 4248              	.LBE350:
 4249              	.LBB351:
 4250 197c 394B     		ldr	r3, .L392+48
 4251 197e 2278     		ldrb	r2, [r4, #0]	@ zero_extendqisi2
 4252 1980 1978     		ldrb	r1, [r3, #0]	@ zero_extendqisi2
 4253              	.LVL677:
 4254 1982 2B78     		ldrb	r3, [r5, #0]	@ zero_extendqisi2
 4255              	.LBE351:
 4256              	.LBB352:
 4257 1984 384E     		ldr	r6, .L392+52
 4258              	.LBE352:
 4259              	.LBB353:
 4260 1986 CB18     		adds	r3, r1, r3
 4261 1988 DBB2     		uxtb	r3, r3
 4262              	.LVL678:
 4263 198a 2B70     		strb	r3, [r5, #0]
 4264 198c 9B18     		adds	r3, r3, r2
 4265              	.LVL679:
 4266 198e 2370     		strb	r3, [r4, #0]
 4267 1990 2C48     		ldr	r0, .L392+16
 4268 1992 FFF7FEFF 		bl	uart_transmit
 4269              	.LVL680:
 4270              	.LBE353:
 4271              	.LBB354:
 4272 1996 3178     		ldrb	r1, [r6, #0]	@ zero_extendqisi2
 4273              	.LVL681:
 4274 1998 2B78     		ldrb	r3, [r5, #0]	@ zero_extendqisi2
 4275 199a 2278     		ldrb	r2, [r4, #0]	@ zero_extendqisi2
 4276 199c CB18     		adds	r3, r1, r3
 4277 199e DBB2     		uxtb	r3, r3
 4278              	.LVL682:
 4279 19a0 2B70     		strb	r3, [r5, #0]
 4280 19a2 9B18     		adds	r3, r3, r2
 4281              	.LVL683:
 4282 19a4 2370     		strb	r3, [r4, #0]
 4283 19a6 2748     		ldr	r0, .L392+16
 4284 19a8 FFF7FEFF 		bl	uart_transmit
 4285              	.LVL684:
 4286              	.LBE354:
 4287              	.LBB355:
 4288 19ac 7178     		ldrb	r1, [r6, #1]	@ zero_extendqisi2
 4289              	.LVL685:
 4290 19ae 2B78     		ldrb	r3, [r5, #0]	@ zero_extendqisi2
 4291 19b0 2278     		ldrb	r2, [r4, #0]	@ zero_extendqisi2
 4292 19b2 CB18     		adds	r3, r1, r3
 4293 19b4 DBB2     		uxtb	r3, r3
 4294              	.LVL686:
 4295 19b6 2B70     		strb	r3, [r5, #0]
 4296              	.LBE355:
 4297              	.LBB356:
 4298 19b8 2C4E     		ldr	r6, .L392+56
 4299              	.LBE356:
 4300              	.LBB357:
 4301 19ba 9B18     		adds	r3, r3, r2
 4302              	.LVL687:
 4303 19bc 2370     		strb	r3, [r4, #0]
 4304 19be 2148     		ldr	r0, .L392+16
 4305 19c0 FFF7FEFF 		bl	uart_transmit
 4306              	.LVL688:
 4307              	.LBE357:
 4308              	.LBB358:
 4309 19c4 3178     		ldrb	r1, [r6, #0]	@ zero_extendqisi2
 4310              	.LVL689:
 4311 19c6 2B78     		ldrb	r3, [r5, #0]	@ zero_extendqisi2
 4312 19c8 2278     		ldrb	r2, [r4, #0]	@ zero_extendqisi2
 4313 19ca CB18     		adds	r3, r1, r3
 4314 19cc DBB2     		uxtb	r3, r3
 4315              	.LVL690:
 4316 19ce 2B70     		strb	r3, [r5, #0]
 4317 19d0 9B18     		adds	r3, r3, r2
 4318              	.LVL691:
 4319 19d2 2370     		strb	r3, [r4, #0]
 4320 19d4 1B48     		ldr	r0, .L392+16
 4321 19d6 FFF7FEFF 		bl	uart_transmit
 4322              	.LVL692:
 4323              	.LBE358:
 4324              	.LBB359:
 4325 19da 7178     		ldrb	r1, [r6, #1]	@ zero_extendqisi2
 4326              	.LVL693:
 4327 19dc 2B78     		ldrb	r3, [r5, #0]	@ zero_extendqisi2
 4328 19de 2278     		ldrb	r2, [r4, #0]	@ zero_extendqisi2
 4329 19e0 CB18     		adds	r3, r1, r3
 4330 19e2 DBB2     		uxtb	r3, r3
 4331              	.LVL694:
 4332 19e4 2B70     		strb	r3, [r5, #0]
 4333 19e6 9B18     		adds	r3, r3, r2
 4334              	.LVL695:
 4335 19e8 2370     		strb	r3, [r4, #0]
 4336 19ea 1648     		ldr	r0, .L392+16
 4337 19ec FFF7FEFF 		bl	uart_transmit
 4338              	.LVL696:
 4339              	.LBE359:
 4340              	.LBB360:
 4341 19f0 9DF82410 		ldrb	r1, [sp, #36]	@ zero_extendqisi2
 4342              	.LVL697:
 4343 19f4 2B78     		ldrb	r3, [r5, #0]	@ zero_extendqisi2
 4344 19f6 2278     		ldrb	r2, [r4, #0]	@ zero_extendqisi2
 4345 19f8 CB18     		adds	r3, r1, r3
 4346 19fa DBB2     		uxtb	r3, r3
 4347              	.LVL698:
 4348 19fc 2B70     		strb	r3, [r5, #0]
 4349 19fe 9B18     		adds	r3, r3, r2
 4350              	.LVL699:
 4351 1a00 2370     		strb	r3, [r4, #0]
 4352 1a02 1048     		ldr	r0, .L392+16
 4353 1a04 FFF7FEFF 		bl	uart_transmit
 4354              	.LVL700:
 4355              	.LBE360:
 4356              	.LBB361:
 4357 1a08 9DF82510 		ldrb	r1, [sp, #37]	@ zero_extendqisi2
 4358              	.LVL701:
 4359 1a0c 2B78     		ldrb	r3, [r5, #0]	@ zero_extendqisi2
 4360 1a0e 2278     		ldrb	r2, [r4, #0]	@ zero_extendqisi2
 4361 1a10 CB18     		adds	r3, r1, r3
 4362 1a12 DBB2     		uxtb	r3, r3
 4363              	.LVL702:
 4364 1a14 2B70     		strb	r3, [r5, #0]
 4365 1a16 9B18     		adds	r3, r3, r2
 4366              	.LVL703:
 4367 1a18 2370     		strb	r3, [r4, #0]
 4368 1a1a 0A48     		ldr	r0, .L392+16
 4369 1a1c FFF7FEFF 		bl	uart_transmit
 4370              	.LVL704:
 4371              	.LBE361:
 4372 1a20 2978     		ldrb	r1, [r5, #0]	@ zero_extendqisi2
 4373 1a22 0848     		ldr	r0, .L392+16
 4374 1a24 FFF7FEFF 		bl	uart_transmit
 4375 1a28 0648     		ldr	r0, .L392+16
 4376 1a2a 2178     		ldrb	r1, [r4, #0]	@ zero_extendqisi2
 4377 1a2c FFF7FEFF 		bl	uart_transmit
 4378 1a30 22E0     		b	.L53
 4379              	.L393:
 4380 1a32 00BF     		.align	2
 4381              	.L392:
 4382 1a34 00000000 		.word	downlink_nb_ovrn
 4383 1a38 00000000 		.word	.LANCHOR19
 4384 1a3c 00000000 		.word	.LANCHOR32
 4385 1a40 00000000 		.word	.LANCHOR33
 4386 1a44 00000000 		.word	uart2
 4387 1a48 00000000 		.word	downlink_nb_bytes
 4388 1a4c 00000000 		.word	downlink_nb_msgs
 4389 1a50 00000000 		.word	ck_a
 4390 1a54 00000000 		.word	ck_b
 4391 1a58 00000000 		.word	v_ctl_throttle_slewed
 4392 1a5c 00000000 		.word	.LANCHOR34
 4393 1a60 00000000 		.word	estimator_flight_time
 4394 1a64 00000000 		.word	.LANCHOR35
 4395 1a68 00000000 		.word	block_time
 4396 1a6c 00000000 		.word	stage_time
 4397              	.LVL705:
 4398              	.L54:
 4399              		.loc 1 404 0 discriminator 49
 4400 1a70 7B4B     		ldr	r3, .L394
 4401 1a72 1A78     		ldrb	r2, [r3, #0]	@ zero_extendqisi2
 4402 1a74 0132     		adds	r2, r2, #1
 4403 1a76 1A70     		strb	r2, [r3, #0]
 4404              	.L53:
 4405              	.LBE337:
 4406              	.LBE336:
 4407              		.loc 1 404 0 discriminator 47
 4408 1a78 7A4B     		ldr	r3, .L394+4
 4409 1a7a 1B78     		ldrb	r3, [r3, #0]	@ zero_extendqisi2
 4410 1a7c 122B     		cmp	r3, #18
 4411 1a7e 40F00B81 		bne	.L55
 4412              		.loc 1 404 0 discriminator 50
 4413 1a82 794B     		ldr	r3, .L394+8
 4414 1a84 1B78     		ldrb	r3, [r3, #0]	@ zero_extendqisi2
 4415 1a86 002B     		cmp	r3, #0
 4416 1a88 00F00681 		beq	.L55
 4417              		.loc 1 404 0 discriminator 52
 4418 1a8c 7748     		ldr	r0, .L394+12
 4419 1a8e 1621     		movs	r1, #22
 4420 1a90 FFF7FEFF 		bl	uart_check_free_space
 4421 1a94 0028     		cmp	r0, #0
 4422 1a96 00F0FB80 		beq	.L56
 4423              		.loc 1 404 0 discriminator 53
 4424 1a9a 754B     		ldr	r3, .L394+16
 4425              	.LBB362:
 4426 1a9c 9921     		movs	r1, #153
 4427              	.LBE362:
 4428 1a9e 1A88     		ldrh	r2, [r3, #0]
 4429              	.LBB363:
 4430 1aa0 7248     		ldr	r0, .L394+12
 4431              	.LBE363:
 4432 1aa2 1632     		adds	r2, r2, #22
 4433 1aa4 1A80     		strh	r2, [r3, #0]	@ movhi
 4434 1aa6 734B     		ldr	r3, .L394+20
 4435 1aa8 734D     		ldr	r5, .L394+24
 4436 1aaa 1A88     		ldrh	r2, [r3, #0]
 4437 1aac 734C     		ldr	r4, .L394+28
 4438 1aae 0132     		adds	r2, r2, #1
 4439 1ab0 1A80     		strh	r2, [r3, #0]	@ movhi
 4440              	.LBB364:
 4441 1ab2 FFF7FEFF 		bl	uart_transmit
 4442              	.LVL706:
 4443 1ab6 1621     		movs	r1, #22
 4444 1ab8 6C48     		ldr	r0, .L394+12
 4445 1aba FFF7FEFF 		bl	uart_transmit
 4446              	.LBE364:
 4447 1abe 1723     		movs	r3, #23
 4448 1ac0 2B70     		strb	r3, [r5, #0]
 4449 1ac2 2D23     		movs	r3, #45
 4450 1ac4 2370     		strb	r3, [r4, #0]
 4451 1ac6 0121     		movs	r1, #1
 4452 1ac8 6848     		ldr	r0, .L394+12
 4453 1aca FFF7FEFF 		bl	uart_transmit
 4454 1ace 2B78     		ldrb	r3, [r5, #0]	@ zero_extendqisi2
 4455 1ad0 2278     		ldrb	r2, [r4, #0]	@ zero_extendqisi2
 4456 1ad2 1633     		adds	r3, r3, #22
 4457 1ad4 DBB2     		uxtb	r3, r3
 4458              	.LBB365:
 4459 1ad6 6A4E     		ldr	r6, .L394+32
 4460              	.LBE365:
 4461 1ad8 2B70     		strb	r3, [r5, #0]
 4462 1ada 9B18     		adds	r3, r3, r2
 4463 1adc 2370     		strb	r3, [r4, #0]
 4464 1ade 1621     		movs	r1, #22
 4465 1ae0 6248     		ldr	r0, .L394+12
 4466 1ae2 FFF7FEFF 		bl	uart_transmit
 4467              	.LBB366:
 4468 1ae6 3178     		ldrb	r1, [r6, #0]	@ zero_extendqisi2
 4469              	.LVL707:
 4470 1ae8 2B78     		ldrb	r3, [r5, #0]	@ zero_extendqisi2
 4471 1aea 2278     		ldrb	r2, [r4, #0]	@ zero_extendqisi2
 4472 1aec CB18     		adds	r3, r1, r3
 4473 1aee DBB2     		uxtb	r3, r3
 4474              	.LVL708:
 4475 1af0 2B70     		strb	r3, [r5, #0]
 4476 1af2 9B18     		adds	r3, r3, r2
 4477              	.LVL709:
 4478 1af4 2370     		strb	r3, [r4, #0]
 4479 1af6 5D48     		ldr	r0, .L394+12
 4480 1af8 FFF7FEFF 		bl	uart_transmit
 4481              	.LVL710:
 4482              	.LBE366:
 4483              	.LBB367:
 4484 1afc 7178     		ldrb	r1, [r6, #1]	@ zero_extendqisi2
 4485              	.LVL711:
 4486 1afe 2B78     		ldrb	r3, [r5, #0]	@ zero_extendqisi2
 4487 1b00 2278     		ldrb	r2, [r4, #0]	@ zero_extendqisi2
 4488 1b02 CB18     		adds	r3, r1, r3
 4489 1b04 DBB2     		uxtb	r3, r3
 4490              	.LVL712:
 4491 1b06 2B70     		strb	r3, [r5, #0]
 4492 1b08 9B18     		adds	r3, r3, r2
 4493              	.LVL713:
 4494 1b0a 2370     		strb	r3, [r4, #0]
 4495 1b0c 5748     		ldr	r0, .L394+12
 4496 1b0e FFF7FEFF 		bl	uart_transmit
 4497              	.LVL714:
 4498              	.LBE367:
 4499              	.LBB368:
 4500 1b12 B178     		ldrb	r1, [r6, #2]	@ zero_extendqisi2
 4501              	.LVL715:
 4502 1b14 2B78     		ldrb	r3, [r5, #0]	@ zero_extendqisi2
 4503 1b16 2278     		ldrb	r2, [r4, #0]	@ zero_extendqisi2
 4504 1b18 CB18     		adds	r3, r1, r3
 4505 1b1a DBB2     		uxtb	r3, r3
 4506              	.LVL716:
 4507 1b1c 2B70     		strb	r3, [r5, #0]
 4508 1b1e 9B18     		adds	r3, r3, r2
 4509              	.LVL717:
 4510 1b20 2370     		strb	r3, [r4, #0]
 4511 1b22 5248     		ldr	r0, .L394+12
 4512 1b24 FFF7FEFF 		bl	uart_transmit
 4513              	.LVL718:
 4514              	.LBE368:
 4515              	.LBB369:
 4516 1b28 F178     		ldrb	r1, [r6, #3]	@ zero_extendqisi2
 4517              	.LVL719:
 4518 1b2a 2B78     		ldrb	r3, [r5, #0]	@ zero_extendqisi2
 4519 1b2c 2278     		ldrb	r2, [r4, #0]	@ zero_extendqisi2
 4520 1b2e CB18     		adds	r3, r1, r3
 4521 1b30 DBB2     		uxtb	r3, r3
 4522              	.LBE369:
 4523              	.LBB370:
 4524 1b32 544E     		ldr	r6, .L394+36
 4525              	.LVL720:
 4526              	.LBE370:
 4527              	.LBB371:
 4528 1b34 2B70     		strb	r3, [r5, #0]
 4529 1b36 9B18     		adds	r3, r3, r2
 4530              	.LVL721:
 4531 1b38 2370     		strb	r3, [r4, #0]
 4532 1b3a 4C48     		ldr	r0, .L394+12
 4533 1b3c FFF7FEFF 		bl	uart_transmit
 4534              	.LVL722:
 4535              	.LBE371:
 4536              	.LBB372:
 4537 1b40 3178     		ldrb	r1, [r6, #0]	@ zero_extendqisi2
 4538              	.LVL723:
 4539 1b42 2B78     		ldrb	r3, [r5, #0]	@ zero_extendqisi2
 4540 1b44 2278     		ldrb	r2, [r4, #0]	@ zero_extendqisi2
 4541 1b46 CB18     		adds	r3, r1, r3
 4542 1b48 DBB2     		uxtb	r3, r3
 4543              	.LVL724:
 4544 1b4a 2B70     		strb	r3, [r5, #0]
 4545 1b4c 9B18     		adds	r3, r3, r2
 4546              	.LVL725:
 4547 1b4e 2370     		strb	r3, [r4, #0]
 4548 1b50 4648     		ldr	r0, .L394+12
 4549 1b52 FFF7FEFF 		bl	uart_transmit
 4550              	.LVL726:
 4551              	.LBE372:
 4552              	.LBB373:
 4553 1b56 7178     		ldrb	r1, [r6, #1]	@ zero_extendqisi2
 4554              	.LVL727:
 4555 1b58 2B78     		ldrb	r3, [r5, #0]	@ zero_extendqisi2
 4556 1b5a 2278     		ldrb	r2, [r4, #0]	@ zero_extendqisi2
 4557 1b5c CB18     		adds	r3, r1, r3
 4558 1b5e DBB2     		uxtb	r3, r3
 4559              	.LVL728:
 4560 1b60 2B70     		strb	r3, [r5, #0]
 4561 1b62 9B18     		adds	r3, r3, r2
 4562              	.LVL729:
 4563 1b64 2370     		strb	r3, [r4, #0]
 4564 1b66 4148     		ldr	r0, .L394+12
 4565 1b68 FFF7FEFF 		bl	uart_transmit
 4566              	.LVL730:
 4567              	.LBE373:
 4568              	.LBB374:
 4569 1b6c B178     		ldrb	r1, [r6, #2]	@ zero_extendqisi2
 4570              	.LVL731:
 4571 1b6e 2B78     		ldrb	r3, [r5, #0]	@ zero_extendqisi2
 4572 1b70 2278     		ldrb	r2, [r4, #0]	@ zero_extendqisi2
 4573 1b72 CB18     		adds	r3, r1, r3
 4574 1b74 DBB2     		uxtb	r3, r3
 4575              	.LVL732:
 4576 1b76 2B70     		strb	r3, [r5, #0]
 4577 1b78 9B18     		adds	r3, r3, r2
 4578              	.LVL733:
 4579 1b7a 2370     		strb	r3, [r4, #0]
 4580 1b7c 3B48     		ldr	r0, .L394+12
 4581 1b7e FFF7FEFF 		bl	uart_transmit
 4582              	.LVL734:
 4583              	.LBE374:
 4584              	.LBB375:
 4585 1b82 F178     		ldrb	r1, [r6, #3]	@ zero_extendqisi2
 4586              	.LVL735:
 4587 1b84 2B78     		ldrb	r3, [r5, #0]	@ zero_extendqisi2
 4588 1b86 2278     		ldrb	r2, [r4, #0]	@ zero_extendqisi2
 4589 1b88 CB18     		adds	r3, r1, r3
 4590 1b8a DBB2     		uxtb	r3, r3
 4591              	.LBE375:
 4592              	.LBB376:
 4593 1b8c 3E4E     		ldr	r6, .L394+40
 4594              	.LVL736:
 4595              	.LBE376:
 4596              	.LBB377:
 4597 1b8e 2B70     		strb	r3, [r5, #0]
 4598 1b90 9B18     		adds	r3, r3, r2
 4599              	.LVL737:
 4600 1b92 2370     		strb	r3, [r4, #0]
 4601 1b94 3548     		ldr	r0, .L394+12
 4602 1b96 FFF7FEFF 		bl	uart_transmit
 4603              	.LVL738:
 4604              	.LBE377:
 4605              	.LBB378:
 4606 1b9a 3178     		ldrb	r1, [r6, #0]	@ zero_extendqisi2
 4607              	.LVL739:
 4608 1b9c 2B78     		ldrb	r3, [r5, #0]	@ zero_extendqisi2
 4609 1b9e 2278     		ldrb	r2, [r4, #0]	@ zero_extendqisi2
 4610 1ba0 CB18     		adds	r3, r1, r3
 4611 1ba2 DBB2     		uxtb	r3, r3
 4612              	.LVL740:
 4613 1ba4 2B70     		strb	r3, [r5, #0]
 4614 1ba6 9B18     		adds	r3, r3, r2
 4615              	.LVL741:
 4616 1ba8 2370     		strb	r3, [r4, #0]
 4617 1baa 3048     		ldr	r0, .L394+12
 4618 1bac FFF7FEFF 		bl	uart_transmit
 4619              	.LVL742:
 4620              	.LBE378:
 4621              	.LBB379:
 4622 1bb0 7178     		ldrb	r1, [r6, #1]	@ zero_extendqisi2
 4623              	.LVL743:
 4624 1bb2 2B78     		ldrb	r3, [r5, #0]	@ zero_extendqisi2
 4625 1bb4 2278     		ldrb	r2, [r4, #0]	@ zero_extendqisi2
 4626 1bb6 CB18     		adds	r3, r1, r3
 4627 1bb8 DBB2     		uxtb	r3, r3
 4628              	.LVL744:
 4629 1bba 2B70     		strb	r3, [r5, #0]
 4630 1bbc 9B18     		adds	r3, r3, r2
 4631              	.LVL745:
 4632 1bbe 2370     		strb	r3, [r4, #0]
 4633 1bc0 2A48     		ldr	r0, .L394+12
 4634 1bc2 FFF7FEFF 		bl	uart_transmit
 4635              	.LVL746:
 4636              	.LBE379:
 4637              	.LBB380:
 4638 1bc6 B178     		ldrb	r1, [r6, #2]	@ zero_extendqisi2
 4639              	.LVL747:
 4640 1bc8 2B78     		ldrb	r3, [r5, #0]	@ zero_extendqisi2
 4641 1bca 2278     		ldrb	r2, [r4, #0]	@ zero_extendqisi2
 4642 1bcc CB18     		adds	r3, r1, r3
 4643 1bce DBB2     		uxtb	r3, r3
 4644              	.LVL748:
 4645 1bd0 2B70     		strb	r3, [r5, #0]
 4646 1bd2 9B18     		adds	r3, r3, r2
 4647              	.LVL749:
 4648 1bd4 2370     		strb	r3, [r4, #0]
 4649 1bd6 2548     		ldr	r0, .L394+12
 4650 1bd8 FFF7FEFF 		bl	uart_transmit
 4651              	.LVL750:
 4652              	.LBE380:
 4653              	.LBB381:
 4654 1bdc F178     		ldrb	r1, [r6, #3]	@ zero_extendqisi2
 4655              	.LVL751:
 4656 1bde 2B78     		ldrb	r3, [r5, #0]	@ zero_extendqisi2
 4657 1be0 2278     		ldrb	r2, [r4, #0]	@ zero_extendqisi2
 4658 1be2 CB18     		adds	r3, r1, r3
 4659 1be4 DBB2     		uxtb	r3, r3
 4660              	.LBE381:
 4661              	.LBB382:
 4662 1be6 294E     		ldr	r6, .L394+44
 4663              	.LVL752:
 4664              	.LBE382:
 4665              	.LBB383:
 4666 1be8 2B70     		strb	r3, [r5, #0]
 4667 1bea 9B18     		adds	r3, r3, r2
 4668              	.LVL753:
 4669 1bec 2370     		strb	r3, [r4, #0]
 4670 1bee 1F48     		ldr	r0, .L394+12
 4671 1bf0 FFF7FEFF 		bl	uart_transmit
 4672              	.LVL754:
 4673              	.LBE383:
 4674              	.LBB384:
 4675 1bf4 3178     		ldrb	r1, [r6, #0]	@ zero_extendqisi2
 4676              	.LVL755:
 4677 1bf6 2B78     		ldrb	r3, [r5, #0]	@ zero_extendqisi2
 4678 1bf8 2278     		ldrb	r2, [r4, #0]	@ zero_extendqisi2
 4679 1bfa CB18     		adds	r3, r1, r3
 4680 1bfc DBB2     		uxtb	r3, r3
 4681              	.LVL756:
 4682 1bfe 2B70     		strb	r3, [r5, #0]
 4683 1c00 9B18     		adds	r3, r3, r2
 4684              	.LVL757:
 4685 1c02 2370     		strb	r3, [r4, #0]
 4686 1c04 1948     		ldr	r0, .L394+12
 4687 1c06 FFF7FEFF 		bl	uart_transmit
 4688              	.LVL758:
 4689              	.LBE384:
 4690              	.LBB385:
 4691 1c0a 7178     		ldrb	r1, [r6, #1]	@ zero_extendqisi2
 4692              	.LVL759:
 4693 1c0c 2B78     		ldrb	r3, [r5, #0]	@ zero_extendqisi2
 4694 1c0e 2278     		ldrb	r2, [r4, #0]	@ zero_extendqisi2
 4695 1c10 CB18     		adds	r3, r1, r3
 4696 1c12 DBB2     		uxtb	r3, r3
 4697              	.LVL760:
 4698 1c14 2B70     		strb	r3, [r5, #0]
 4699 1c16 9B18     		adds	r3, r3, r2
 4700              	.LVL761:
 4701 1c18 2370     		strb	r3, [r4, #0]
 4702 1c1a 1448     		ldr	r0, .L394+12
 4703 1c1c FFF7FEFF 		bl	uart_transmit
 4704              	.LVL762:
 4705              	.LBE385:
 4706              	.LBB386:
 4707 1c20 B178     		ldrb	r1, [r6, #2]	@ zero_extendqisi2
 4708              	.LVL763:
 4709 1c22 2B78     		ldrb	r3, [r5, #0]	@ zero_extendqisi2
 4710 1c24 2278     		ldrb	r2, [r4, #0]	@ zero_extendqisi2
 4711 1c26 CB18     		adds	r3, r1, r3
 4712 1c28 DBB2     		uxtb	r3, r3
 4713              	.LVL764:
 4714 1c2a 2B70     		strb	r3, [r5, #0]
 4715 1c2c 9B18     		adds	r3, r3, r2
 4716              	.LVL765:
 4717 1c2e 2370     		strb	r3, [r4, #0]
 4718 1c30 0E48     		ldr	r0, .L394+12
 4719 1c32 FFF7FEFF 		bl	uart_transmit
 4720              	.LVL766:
 4721              	.LBE386:
 4722              	.LBB387:
 4723 1c36 F178     		ldrb	r1, [r6, #3]	@ zero_extendqisi2
 4724              	.LVL767:
 4725 1c38 2B78     		ldrb	r3, [r5, #0]	@ zero_extendqisi2
 4726 1c3a 2278     		ldrb	r2, [r4, #0]	@ zero_extendqisi2
 4727 1c3c CB18     		adds	r3, r1, r3
 4728 1c3e DBB2     		uxtb	r3, r3
 4729              	.LVL768:
 4730 1c40 2B70     		strb	r3, [r5, #0]
 4731 1c42 9B18     		adds	r3, r3, r2
 4732              	.LVL769:
 4733 1c44 2370     		strb	r3, [r4, #0]
 4734 1c46 0948     		ldr	r0, .L394+12
 4735 1c48 FFF7FEFF 		bl	uart_transmit
 4736              	.LVL770:
 4737              	.LBE387:
 4738 1c4c 2978     		ldrb	r1, [r5, #0]	@ zero_extendqisi2
 4739 1c4e 0748     		ldr	r0, .L394+12
 4740 1c50 FFF7FEFF 		bl	uart_transmit
 4741 1c54 0548     		ldr	r0, .L394+12
 4742 1c56 2178     		ldrb	r1, [r4, #0]	@ zero_extendqisi2
 4743 1c58 FFF7FEFF 		bl	uart_transmit
 4744 1c5c 1CE0     		b	.L55
 4745              	.L395:
 4746 1c5e 00BF     		.align	2
 4747              	.L394:
 4748 1c60 00000000 		.word	downlink_nb_ovrn
 4749 1c64 00000000 		.word	.LANCHOR20
 4750 1c68 00000000 		.word	nav_in_segment
 4751 1c6c 00000000 		.word	uart2
 4752 1c70 00000000 		.word	downlink_nb_bytes
 4753 1c74 00000000 		.word	downlink_nb_msgs
 4754 1c78 00000000 		.word	ck_a
 4755 1c7c 00000000 		.word	ck_b
 4756 1c80 00000000 		.word	nav_segment_x_1
 4757 1c84 00000000 		.word	nav_segment_y_1
 4758 1c88 00000000 		.word	nav_segment_x_2
 4759 1c8c 00000000 		.word	nav_segment_y_2
 4760              	.LVL771:
 4761              	.L56:
 4762              		.loc 1 404 0 discriminator 54
 4763 1c90 904B     		ldr	r3, .L396
 4764 1c92 1A78     		ldrb	r2, [r3, #0]	@ zero_extendqisi2
 4765 1c94 0132     		adds	r2, r2, #1
 4766 1c96 1A70     		strb	r2, [r3, #0]
 4767              	.L55:
 4768              		.loc 1 404 0 discriminator 55
 4769 1c98 8F4B     		ldr	r3, .L396+4
 4770 1c9a 1B78     		ldrb	r3, [r3, #0]	@ zero_extendqisi2
 4771 1c9c 1E2B     		cmp	r3, #30
 4772 1c9e 40F0E280 		bne	.L57
 4773              	.LBB388:
 4774              		.loc 1 404 0 discriminator 56
 4775 1ca2 8E4C     		ldr	r4, .L396+8
 4776 1ca4 A069     		ldr	r0, [r4, #24]
 4777 1ca6 FFF7FEFF 		bl	__aeabi_i2f
 4778 1caa 4FF06851 		mov	r1, #973078528
 4779 1cae FFF7FEFF 		bl	__aeabi_fmul
 4780 1cb2 0390     		str	r0, [sp, #12]	@ float
 4781 1cb4 E069     		ldr	r0, [r4, #28]
 4782 1cb6 FFF7FEFF 		bl	__aeabi_i2f
 4783 1cba 4FF06851 		mov	r1, #973078528
 4784 1cbe FFF7FEFF 		bl	__aeabi_fmul
 4785 1cc2 0490     		str	r0, [sp, #16]	@ float
 4786 1cc4 206A     		ldr	r0, [r4, #32]
 4787 1cc6 FFF7FEFF 		bl	__aeabi_i2f
 4788 1cca 4FF06851 		mov	r1, #973078528
 4789 1cce FFF7FEFF 		bl	__aeabi_fmul
 4790 1cd2 1221     		movs	r1, #18
 4791 1cd4 0590     		str	r0, [sp, #20]	@ float
 4792 1cd6 8248     		ldr	r0, .L396+12
 4793 1cd8 FFF7FEFF 		bl	uart_check_free_space
 4794 1cdc 0028     		cmp	r0, #0
 4795 1cde 00F0BE80 		beq	.L58
 4796              		.loc 1 404 0 discriminator 58
 4797 1ce2 804B     		ldr	r3, .L396+16
 4798              	.LBB389:
 4799 1ce4 9921     		movs	r1, #153
 4800              	.LBE389:
 4801 1ce6 1A88     		ldrh	r2, [r3, #0]
 4802              	.LBB390:
 4803 1ce8 7D48     		ldr	r0, .L396+12
 4804              	.LBE390:
 4805 1cea 1232     		adds	r2, r2, #18
 4806 1cec 1A80     		strh	r2, [r3, #0]	@ movhi
 4807 1cee 7E4B     		ldr	r3, .L396+20
 4808 1cf0 7E4D     		ldr	r5, .L396+24
 4809 1cf2 1A88     		ldrh	r2, [r3, #0]
 4810 1cf4 7E4C     		ldr	r4, .L396+28
 4811 1cf6 0132     		adds	r2, r2, #1
 4812 1cf8 1A80     		strh	r2, [r3, #0]	@ movhi
 4813              	.LBB391:
 4814 1cfa FFF7FEFF 		bl	uart_transmit
 4815              	.LVL772:
 4816 1cfe 1221     		movs	r1, #18
 4817 1d00 7748     		ldr	r0, .L396+12
 4818 1d02 FFF7FEFF 		bl	uart_transmit
 4819              	.LBE391:
 4820 1d06 1323     		movs	r3, #19
 4821 1d08 2B70     		strb	r3, [r5, #0]
 4822 1d0a 2523     		movs	r3, #37
 4823 1d0c 2370     		strb	r3, [r4, #0]
 4824 1d0e 0121     		movs	r1, #1
 4825 1d10 7348     		ldr	r0, .L396+12
 4826 1d12 FFF7FEFF 		bl	uart_transmit
 4827 1d16 2B78     		ldrb	r3, [r5, #0]	@ zero_extendqisi2
 4828 1d18 2278     		ldrb	r2, [r4, #0]	@ zero_extendqisi2
 4829 1d1a 373B     		subs	r3, r3, #55
 4830 1d1c DBB2     		uxtb	r3, r3
 4831 1d1e 2B70     		strb	r3, [r5, #0]
 4832 1d20 9B18     		adds	r3, r3, r2
 4833 1d22 2370     		strb	r3, [r4, #0]
 4834 1d24 C921     		movs	r1, #201
 4835 1d26 6E48     		ldr	r0, .L396+12
 4836 1d28 FFF7FEFF 		bl	uart_transmit
 4837              	.LBB392:
 4838 1d2c 9DF80C10 		ldrb	r1, [sp, #12]	@ zero_extendqisi2
 4839              	.LVL773:
 4840 1d30 2B78     		ldrb	r3, [r5, #0]	@ zero_extendqisi2
 4841 1d32 2278     		ldrb	r2, [r4, #0]	@ zero_extendqisi2
 4842 1d34 CB18     		adds	r3, r1, r3
 4843 1d36 DBB2     		uxtb	r3, r3
 4844              	.LVL774:
 4845 1d38 2B70     		strb	r3, [r5, #0]
 4846 1d3a 9B18     		adds	r3, r3, r2
 4847              	.LVL775:
 4848 1d3c 2370     		strb	r3, [r4, #0]
 4849 1d3e 6848     		ldr	r0, .L396+12
 4850 1d40 FFF7FEFF 		bl	uart_transmit
 4851              	.LVL776:
 4852              	.LBE392:
 4853              	.LBB393:
 4854 1d44 9DF80D10 		ldrb	r1, [sp, #13]	@ zero_extendqisi2
 4855              	.LVL777:
 4856 1d48 2B78     		ldrb	r3, [r5, #0]	@ zero_extendqisi2
 4857 1d4a 2278     		ldrb	r2, [r4, #0]	@ zero_extendqisi2
 4858 1d4c CB18     		adds	r3, r1, r3
 4859 1d4e DBB2     		uxtb	r3, r3
 4860              	.LVL778:
 4861 1d50 2B70     		strb	r3, [r5, #0]
 4862 1d52 9B18     		adds	r3, r3, r2
 4863              	.LVL779:
 4864 1d54 2370     		strb	r3, [r4, #0]
 4865 1d56 6248     		ldr	r0, .L396+12
 4866 1d58 FFF7FEFF 		bl	uart_transmit
 4867              	.LVL780:
 4868              	.LBE393:
 4869              	.LBB394:
 4870 1d5c 9DF80E10 		ldrb	r1, [sp, #14]	@ zero_extendqisi2
 4871              	.LVL781:
 4872 1d60 2B78     		ldrb	r3, [r5, #0]	@ zero_extendqisi2
 4873 1d62 2278     		ldrb	r2, [r4, #0]	@ zero_extendqisi2
 4874 1d64 CB18     		adds	r3, r1, r3
 4875 1d66 DBB2     		uxtb	r3, r3
 4876              	.LVL782:
 4877 1d68 2B70     		strb	r3, [r5, #0]
 4878 1d6a 9B18     		adds	r3, r3, r2
 4879              	.LVL783:
 4880 1d6c 2370     		strb	r3, [r4, #0]
 4881 1d6e 5C48     		ldr	r0, .L396+12
 4882 1d70 FFF7FEFF 		bl	uart_transmit
 4883              	.LVL784:
 4884              	.LBE394:
 4885              	.LBB395:
 4886 1d74 9DF80F10 		ldrb	r1, [sp, #15]	@ zero_extendqisi2
 4887              	.LVL785:
 4888 1d78 2B78     		ldrb	r3, [r5, #0]	@ zero_extendqisi2
 4889 1d7a 2278     		ldrb	r2, [r4, #0]	@ zero_extendqisi2
 4890 1d7c CB18     		adds	r3, r1, r3
 4891 1d7e DBB2     		uxtb	r3, r3
 4892              	.LVL786:
 4893 1d80 2B70     		strb	r3, [r5, #0]
 4894 1d82 9B18     		adds	r3, r3, r2
 4895              	.LVL787:
 4896 1d84 2370     		strb	r3, [r4, #0]
 4897 1d86 5648     		ldr	r0, .L396+12
 4898 1d88 FFF7FEFF 		bl	uart_transmit
 4899              	.LVL788:
 4900              	.LBE395:
 4901              	.LBB396:
 4902 1d8c 9DF81010 		ldrb	r1, [sp, #16]	@ zero_extendqisi2
 4903              	.LVL789:
 4904 1d90 2B78     		ldrb	r3, [r5, #0]	@ zero_extendqisi2
 4905 1d92 2278     		ldrb	r2, [r4, #0]	@ zero_extendqisi2
 4906 1d94 CB18     		adds	r3, r1, r3
 4907 1d96 DBB2     		uxtb	r3, r3
 4908              	.LVL790:
 4909 1d98 2B70     		strb	r3, [r5, #0]
 4910 1d9a 9B18     		adds	r3, r3, r2
 4911              	.LVL791:
 4912 1d9c 2370     		strb	r3, [r4, #0]
 4913 1d9e 5048     		ldr	r0, .L396+12
 4914 1da0 FFF7FEFF 		bl	uart_transmit
 4915              	.LVL792:
 4916              	.LBE396:
 4917              	.LBB397:
 4918 1da4 9DF81110 		ldrb	r1, [sp, #17]	@ zero_extendqisi2
 4919              	.LVL793:
 4920 1da8 2B78     		ldrb	r3, [r5, #0]	@ zero_extendqisi2
 4921 1daa 2278     		ldrb	r2, [r4, #0]	@ zero_extendqisi2
 4922 1dac CB18     		adds	r3, r1, r3
 4923 1dae DBB2     		uxtb	r3, r3
 4924              	.LVL794:
 4925 1db0 2B70     		strb	r3, [r5, #0]
 4926 1db2 9B18     		adds	r3, r3, r2
 4927              	.LVL795:
 4928 1db4 2370     		strb	r3, [r4, #0]
 4929 1db6 4A48     		ldr	r0, .L396+12
 4930 1db8 FFF7FEFF 		bl	uart_transmit
 4931              	.LVL796:
 4932              	.LBE397:
 4933              	.LBB398:
 4934 1dbc 9DF81210 		ldrb	r1, [sp, #18]	@ zero_extendqisi2
 4935              	.LVL797:
 4936 1dc0 2B78     		ldrb	r3, [r5, #0]	@ zero_extendqisi2
 4937 1dc2 2278     		ldrb	r2, [r4, #0]	@ zero_extendqisi2
 4938 1dc4 CB18     		adds	r3, r1, r3
 4939 1dc6 DBB2     		uxtb	r3, r3
 4940              	.LVL798:
 4941 1dc8 2B70     		strb	r3, [r5, #0]
 4942 1dca 9B18     		adds	r3, r3, r2
 4943              	.LVL799:
 4944 1dcc 2370     		strb	r3, [r4, #0]
 4945 1dce 4448     		ldr	r0, .L396+12
 4946 1dd0 FFF7FEFF 		bl	uart_transmit
 4947              	.LVL800:
 4948              	.LBE398:
 4949              	.LBB399:
 4950 1dd4 9DF81310 		ldrb	r1, [sp, #19]	@ zero_extendqisi2
 4951              	.LVL801:
 4952 1dd8 2B78     		ldrb	r3, [r5, #0]	@ zero_extendqisi2
 4953 1dda 2278     		ldrb	r2, [r4, #0]	@ zero_extendqisi2
 4954 1ddc CB18     		adds	r3, r1, r3
 4955 1dde DBB2     		uxtb	r3, r3
 4956              	.LVL802:
 4957 1de0 2B70     		strb	r3, [r5, #0]
 4958 1de2 9B18     		adds	r3, r3, r2
 4959              	.LVL803:
 4960 1de4 2370     		strb	r3, [r4, #0]
 4961 1de6 3E48     		ldr	r0, .L396+12
 4962 1de8 FFF7FEFF 		bl	uart_transmit
 4963              	.LVL804:
 4964              	.LBE399:
 4965              	.LBB400:
 4966 1dec 9DF81410 		ldrb	r1, [sp, #20]	@ zero_extendqisi2
 4967              	.LVL805:
 4968 1df0 2B78     		ldrb	r3, [r5, #0]	@ zero_extendqisi2
 4969 1df2 2278     		ldrb	r2, [r4, #0]	@ zero_extendqisi2
 4970 1df4 CB18     		adds	r3, r1, r3
 4971 1df6 DBB2     		uxtb	r3, r3
 4972              	.LVL806:
 4973 1df8 2B70     		strb	r3, [r5, #0]
 4974 1dfa 9B18     		adds	r3, r3, r2
 4975              	.LVL807:
 4976 1dfc 2370     		strb	r3, [r4, #0]
 4977 1dfe 3848     		ldr	r0, .L396+12
 4978 1e00 FFF7FEFF 		bl	uart_transmit
 4979              	.LVL808:
 4980              	.LBE400:
 4981              	.LBB401:
 4982 1e04 9DF81510 		ldrb	r1, [sp, #21]	@ zero_extendqisi2
 4983              	.LVL809:
 4984 1e08 2B78     		ldrb	r3, [r5, #0]	@ zero_extendqisi2
 4985 1e0a 2278     		ldrb	r2, [r4, #0]	@ zero_extendqisi2
 4986 1e0c CB18     		adds	r3, r1, r3
 4987 1e0e DBB2     		uxtb	r3, r3
 4988              	.LVL810:
 4989 1e10 2B70     		strb	r3, [r5, #0]
 4990 1e12 9B18     		adds	r3, r3, r2
 4991              	.LVL811:
 4992 1e14 2370     		strb	r3, [r4, #0]
 4993 1e16 3248     		ldr	r0, .L396+12
 4994 1e18 FFF7FEFF 		bl	uart_transmit
 4995              	.LVL812:
 4996              	.LBE401:
 4997              	.LBB402:
 4998 1e1c 9DF81610 		ldrb	r1, [sp, #22]	@ zero_extendqisi2
 4999              	.LVL813:
 5000 1e20 2B78     		ldrb	r3, [r5, #0]	@ zero_extendqisi2
 5001 1e22 2278     		ldrb	r2, [r4, #0]	@ zero_extendqisi2
 5002 1e24 CB18     		adds	r3, r1, r3
 5003 1e26 DBB2     		uxtb	r3, r3
 5004              	.LVL814:
 5005 1e28 2B70     		strb	r3, [r5, #0]
 5006 1e2a 9B18     		adds	r3, r3, r2
 5007              	.LVL815:
 5008 1e2c 2370     		strb	r3, [r4, #0]
 5009 1e2e 2C48     		ldr	r0, .L396+12
 5010 1e30 FFF7FEFF 		bl	uart_transmit
 5011              	.LVL816:
 5012              	.LBE402:
 5013              	.LBB403:
 5014 1e34 9DF81710 		ldrb	r1, [sp, #23]	@ zero_extendqisi2
 5015              	.LVL817:
 5016 1e38 2B78     		ldrb	r3, [r5, #0]	@ zero_extendqisi2
 5017 1e3a 2278     		ldrb	r2, [r4, #0]	@ zero_extendqisi2
 5018 1e3c CB18     		adds	r3, r1, r3
 5019 1e3e DBB2     		uxtb	r3, r3
 5020              	.LVL818:
 5021 1e40 2B70     		strb	r3, [r5, #0]
 5022 1e42 9B18     		adds	r3, r3, r2
 5023              	.LVL819:
 5024 1e44 2370     		strb	r3, [r4, #0]
 5025 1e46 2648     		ldr	r0, .L396+12
 5026 1e48 FFF7FEFF 		bl	uart_transmit
 5027              	.LVL820:
 5028              	.LBE403:
 5029 1e4c 2978     		ldrb	r1, [r5, #0]	@ zero_extendqisi2
 5030 1e4e 2448     		ldr	r0, .L396+12
 5031 1e50 FFF7FEFF 		bl	uart_transmit
 5032 1e54 2248     		ldr	r0, .L396+12
 5033 1e56 2178     		ldrb	r1, [r4, #0]	@ zero_extendqisi2
 5034 1e58 FFF7FEFF 		bl	uart_transmit
 5035 1e5c 03E0     		b	.L57
 5036              	.LVL821:
 5037              	.L58:
 5038              		.loc 1 404 0 discriminator 59
 5039 1e5e 1D4B     		ldr	r3, .L396
 5040 1e60 1A78     		ldrb	r2, [r3, #0]	@ zero_extendqisi2
 5041 1e62 0132     		adds	r2, r2, #1
 5042 1e64 1A70     		strb	r2, [r3, #0]
 5043              	.L57:
 5044              	.LBE388:
 5045              		.loc 1 404 0 discriminator 57
 5046 1e66 234B     		ldr	r3, .L396+32
 5047 1e68 1B78     		ldrb	r3, [r3, #0]	@ zero_extendqisi2
 5048 1e6a 242B     		cmp	r3, #36
 5049 1e6c 40F0D880 		bne	.L59
 5050              	.LBB404:
 5051              		.loc 1 404 0 discriminator 60
 5052 1e70 214B     		ldr	r3, .L396+36
 5053 1e72 1A78     		ldrb	r2, [r3, #0]	@ zero_extendqisi2
 5054 1e74 0B2A     		cmp	r2, #11
 5055 1e76 01D9     		bls	.L60
 5056              		.loc 1 404 0 discriminator 62
 5057 1e78 0022     		movs	r2, #0
 5058 1e7a 1A70     		strb	r2, [r3, #0]
 5059              	.L60:
 5060              		.loc 1 404 0 discriminator 63
 5061 1e7c 1B78     		ldrb	r3, [r3, #0]	@ zero_extendqisi2
 5062 1e7e 0B2B     		cmp	r3, #11
 5063 1e80 54D8     		bhi	.L61
 5064 1e82 DFE803F0 		tbb	[pc, r3]
 5065              	.L74:
 5066 1e86 06       		.byte	(.L62-.L74)/2
 5067 1e87 08       		.byte	(.L63-.L74)/2
 5068 1e88 0E       		.byte	(.L64-.L74)/2
 5069 1e89 10       		.byte	(.L65-.L74)/2
 5070 1e8a 12       		.byte	(.L66-.L74)/2
 5071 1e8b 14       		.byte	(.L67-.L74)/2
 5072 1e8c 17       		.byte	(.L68-.L74)/2
 5073 1e8d 1A       		.byte	(.L69-.L74)/2
 5074 1e8e 1C       		.byte	(.L70-.L74)/2
 5075 1e8f 1E       		.byte	(.L71-.L74)/2
 5076 1e90 20       		.byte	(.L72-.L74)/2
 5077 1e91 24       		.byte	(.L73-.L74)/2
 5078              		.align	1
 5079              	.L62:
 5080              		.loc 1 404 0 discriminator 65
 5081 1e92 1A4B     		ldr	r3, .L396+40
 5082 1e94 00E0     		b	.L337
 5083              	.L63:
 5084              		.loc 1 404 0 discriminator 66
 5085 1e96 1A4B     		ldr	r3, .L396+44
 5086              	.L337:
 5087 1e98 1878     		ldrb	r0, [r3, #0]	@ zero_extendqisi2
 5088              	.L338:
 5089 1e9a FFF7FEFF 		bl	__aeabi_ui2f
 5090 1e9e 0790     		str	r0, [sp, #28]	@ float
 5091              	.LVL822:
 5092 1ea0 46E0     		b	.L75
 5093              	.LVL823:
 5094              	.L64:
 5095              		.loc 1 404 0 discriminator 67
 5096 1ea2 184B     		ldr	r3, .L396+48
 5097 1ea4 07E0     		b	.L357
 5098              	.L65:
 5099              		.loc 1 404 0 discriminator 68
 5100 1ea6 184B     		ldr	r3, .L396+52
 5101 1ea8 05E0     		b	.L357
 5102              	.L66:
 5103              		.loc 1 404 0 discriminator 69
 5104 1eaa 184B     		ldr	r3, .L396+56
 5105 1eac 03E0     		b	.L357
 5106              	.L67:
 5107              		.loc 1 404 0 discriminator 70
 5108 1eae 184B     		ldr	r3, .L396+60
 5109 1eb0 1888     		ldrh	r0, [r3, #0]
 5110 1eb2 F2E7     		b	.L338
 5111              	.L68:
 5112              		.loc 1 404 0 discriminator 71
 5113 1eb4 174B     		ldr	r3, .L396+64
 5114              	.L357:
 5115 1eb6 1B68     		ldr	r3, [r3, #0]	@ float
 5116 1eb8 39E0     		b	.L339
 5117              	.L69:
 5118              		.loc 1 404 0 discriminator 72
 5119 1eba 174B     		ldr	r3, .L396+68
 5120 1ebc ECE7     		b	.L337
 5121              	.L70:
 5122              		.loc 1 404 0 discriminator 73
 5123 1ebe 174B     		ldr	r3, .L396+72
 5124 1ec0 EAE7     		b	.L337
 5125              	.L71:
 5126              		.loc 1 404 0 discriminator 74
 5127 1ec2 174B     		ldr	r3, .L396+76
 5128 1ec4 E8E7     		b	.L337
 5129              	.L72:
 5130              		.loc 1 404 0 discriminator 75
 5131 1ec6 174B     		ldr	r3, .L396+80
 5132 1ec8 B3F8F000 		ldrh	r0, [r3, #240]
 5133 1ecc E5E7     		b	.L338
 5134              	.L73:
 5135              		.loc 1 404 0 discriminator 76
 5136 1ece 164B     		ldr	r3, .L396+84
 5137 1ed0 E2E7     		b	.L337
 5138              	.L397:
 5139 1ed2 00BF     		.align	2
 5140              	.L396:
 5141 1ed4 00000000 		.word	downlink_nb_ovrn
 5142 1ed8 00000000 		.word	.LANCHOR21
 5143 1edc 00000000 		.word	imu
 5144 1ee0 00000000 		.word	uart2
 5145 1ee4 00000000 		.word	downlink_nb_bytes
 5146 1ee8 00000000 		.word	downlink_nb_msgs
 5147 1eec 00000000 		.word	ck_a
 5148 1ef0 00000000 		.word	ck_b
 5149 1ef4 00000000 		.word	.LANCHOR22
 5150 1ef8 00000000 		.word	.LANCHOR36
 5151 1efc 00000000 		.word	telemetry_mode_Ap
 5152 1f00 00000000 		.word	telemetry_mode_Fbw
 5153 1f04 00000000 		.word	flight_altitude
 5154 1f08 00000000 		.word	nav_course
 5155 1f0c 00000000 		.word	nav_shift
 5156 1f10 00000000 		.word	estimator_flight_time
 5157 1f14 00000000 		.word	nav_radius
 5158 1f18 00000000 		.word	.LANCHOR37
 5159 1f1c 00000000 		.word	.LANCHOR38
 5160 1f20 00000000 		.word	.LANCHOR35
 5161 1f24 00000000 		.word	gps
 5162 1f28 00000000 		.word	.LANCHOR0
 5163              	.L61:
 5164              		.loc 1 404 0 discriminator 64
 5165 1f2c 0023     		movs	r3, #0
 5166              	.L339:
 5167 1f2e 0793     		str	r3, [sp, #28]	@ float
 5168              	.LVL824:
 5169              	.L75:
 5170              		.loc 1 404 0 discriminator 77
 5171 1f30 9B48     		ldr	r0, .L398
 5172 1f32 0B21     		movs	r1, #11
 5173 1f34 FFF7FEFF 		bl	uart_check_free_space
 5174 1f38 0028     		cmp	r0, #0
 5175 1f3a 69D0     		beq	.L76
 5176              		.loc 1 404 0 discriminator 78
 5177 1f3c 994B     		ldr	r3, .L398+4
 5178              	.LBB405:
 5179 1f3e 9921     		movs	r1, #153
 5180              	.LBE405:
 5181 1f40 1A88     		ldrh	r2, [r3, #0]
 5182              	.LBB406:
 5183 1f42 9748     		ldr	r0, .L398
 5184              	.LBE406:
 5185 1f44 0B32     		adds	r2, r2, #11
 5186 1f46 1A80     		strh	r2, [r3, #0]	@ movhi
 5187 1f48 974B     		ldr	r3, .L398+8
 5188 1f4a 984D     		ldr	r5, .L398+12
 5189 1f4c 1A88     		ldrh	r2, [r3, #0]
 5190 1f4e 984C     		ldr	r4, .L398+16
 5191 1f50 0132     		adds	r2, r2, #1
 5192 1f52 1A80     		strh	r2, [r3, #0]	@ movhi
 5193              	.LBB407:
 5194 1f54 FFF7FEFF 		bl	uart_transmit
 5195              	.LVL825:
 5196 1f58 0B21     		movs	r1, #11
 5197 1f5a 9148     		ldr	r0, .L398
 5198 1f5c FFF7FEFF 		bl	uart_transmit
 5199              	.LBE407:
 5200 1f60 0C23     		movs	r3, #12
 5201 1f62 2B70     		strb	r3, [r5, #0]
 5202 1f64 1723     		movs	r3, #23
 5203 1f66 2370     		strb	r3, [r4, #0]
 5204 1f68 0121     		movs	r1, #1
 5205 1f6a 8D48     		ldr	r0, .L398
 5206 1f6c FFF7FEFF 		bl	uart_transmit
 5207 1f70 2B78     		ldrb	r3, [r5, #0]	@ zero_extendqisi2
 5208 1f72 2278     		ldrb	r2, [r4, #0]	@ zero_extendqisi2
 5209 1f74 1F33     		adds	r3, r3, #31
 5210 1f76 DBB2     		uxtb	r3, r3
 5211 1f78 2B70     		strb	r3, [r5, #0]
 5212 1f7a 9B18     		adds	r3, r3, r2
 5213 1f7c 2370     		strb	r3, [r4, #0]
 5214 1f7e 1F21     		movs	r1, #31
 5215 1f80 8748     		ldr	r0, .L398
 5216 1f82 FFF7FEFF 		bl	uart_transmit
 5217              	.LBB408:
 5218 1f86 8B4B     		ldr	r3, .L398+20
 5219 1f88 2278     		ldrb	r2, [r4, #0]	@ zero_extendqisi2
 5220 1f8a 1978     		ldrb	r1, [r3, #0]	@ zero_extendqisi2
 5221              	.LVL826:
 5222 1f8c 2B78     		ldrb	r3, [r5, #0]	@ zero_extendqisi2
 5223 1f8e 8448     		ldr	r0, .L398
 5224 1f90 CB18     		adds	r3, r1, r3
 5225 1f92 DBB2     		uxtb	r3, r3
 5226              	.LVL827:
 5227 1f94 2B70     		strb	r3, [r5, #0]
 5228 1f96 9B18     		adds	r3, r3, r2
 5229              	.LVL828:
 5230 1f98 2370     		strb	r3, [r4, #0]
 5231 1f9a FFF7FEFF 		bl	uart_transmit
 5232              	.LVL829:
 5233              	.LBE408:
 5234              	.LBB409:
 5235 1f9e 9DF81C10 		ldrb	r1, [sp, #28]	@ zero_extendqisi2
 5236              	.LVL830:
 5237 1fa2 2B78     		ldrb	r3, [r5, #0]	@ zero_extendqisi2
 5238 1fa4 2278     		ldrb	r2, [r4, #0]	@ zero_extendqisi2
 5239 1fa6 CB18     		adds	r3, r1, r3
 5240 1fa8 DBB2     		uxtb	r3, r3
 5241              	.LVL831:
 5242 1faa 2B70     		strb	r3, [r5, #0]
 5243 1fac 9B18     		adds	r3, r3, r2
 5244              	.LVL832:
 5245 1fae 2370     		strb	r3, [r4, #0]
 5246 1fb0 7B48     		ldr	r0, .L398
 5247 1fb2 FFF7FEFF 		bl	uart_transmit
 5248              	.LVL833:
 5249              	.LBE409:
 5250              	.LBB410:
 5251 1fb6 9DF81D10 		ldrb	r1, [sp, #29]	@ zero_extendqisi2
 5252              	.LVL834:
 5253 1fba 2B78     		ldrb	r3, [r5, #0]	@ zero_extendqisi2
 5254 1fbc 2278     		ldrb	r2, [r4, #0]	@ zero_extendqisi2
 5255 1fbe CB18     		adds	r3, r1, r3
 5256 1fc0 DBB2     		uxtb	r3, r3
 5257              	.LVL835:
 5258 1fc2 2B70     		strb	r3, [r5, #0]
 5259 1fc4 9B18     		adds	r3, r3, r2
 5260              	.LVL836:
 5261 1fc6 2370     		strb	r3, [r4, #0]
 5262 1fc8 7548     		ldr	r0, .L398
 5263 1fca FFF7FEFF 		bl	uart_transmit
 5264              	.LVL837:
 5265              	.LBE410:
 5266              	.LBB411:
 5267 1fce 9DF81E10 		ldrb	r1, [sp, #30]	@ zero_extendqisi2
 5268              	.LVL838:
 5269 1fd2 2B78     		ldrb	r3, [r5, #0]	@ zero_extendqisi2
 5270 1fd4 2278     		ldrb	r2, [r4, #0]	@ zero_extendqisi2
 5271 1fd6 CB18     		adds	r3, r1, r3
 5272 1fd8 DBB2     		uxtb	r3, r3
 5273              	.LVL839:
 5274 1fda 2B70     		strb	r3, [r5, #0]
 5275 1fdc 9B18     		adds	r3, r3, r2
 5276              	.LVL840:
 5277 1fde 2370     		strb	r3, [r4, #0]
 5278 1fe0 6F48     		ldr	r0, .L398
 5279 1fe2 FFF7FEFF 		bl	uart_transmit
 5280              	.LVL841:
 5281              	.LBE411:
 5282              	.LBB412:
 5283 1fe6 9DF81F10 		ldrb	r1, [sp, #31]	@ zero_extendqisi2
 5284              	.LVL842:
 5285 1fea 2B78     		ldrb	r3, [r5, #0]	@ zero_extendqisi2
 5286 1fec 2278     		ldrb	r2, [r4, #0]	@ zero_extendqisi2
 5287 1fee CB18     		adds	r3, r1, r3
 5288 1ff0 DBB2     		uxtb	r3, r3
 5289              	.LVL843:
 5290 1ff2 2B70     		strb	r3, [r5, #0]
 5291 1ff4 9B18     		adds	r3, r3, r2
 5292              	.LVL844:
 5293 1ff6 2370     		strb	r3, [r4, #0]
 5294 1ff8 6948     		ldr	r0, .L398
 5295 1ffa FFF7FEFF 		bl	uart_transmit
 5296              	.LVL845:
 5297              	.LBE412:
 5298 1ffe 2978     		ldrb	r1, [r5, #0]	@ zero_extendqisi2
 5299 2000 6748     		ldr	r0, .L398
 5300 2002 FFF7FEFF 		bl	uart_transmit
 5301 2006 6648     		ldr	r0, .L398
 5302 2008 2178     		ldrb	r1, [r4, #0]	@ zero_extendqisi2
 5303 200a FFF7FEFF 		bl	uart_transmit
 5304 200e 03E0     		b	.L77
 5305              	.LVL846:
 5306              	.L76:
 5307              		.loc 1 404 0 discriminator 79
 5308 2010 694B     		ldr	r3, .L398+24
 5309 2012 1A78     		ldrb	r2, [r3, #0]	@ zero_extendqisi2
 5310 2014 0132     		adds	r2, r2, #1
 5311 2016 1A70     		strb	r2, [r3, #0]
 5312              	.L77:
 5313              		.loc 1 404 0 discriminator 80
 5314 2018 664B     		ldr	r3, .L398+20
 5315 201a 1A78     		ldrb	r2, [r3, #0]	@ zero_extendqisi2
 5316 201c 0132     		adds	r2, r2, #1
 5317 201e 1A70     		strb	r2, [r3, #0]
 5318              	.L59:
 5319              	.LBE404:
 5320              		.loc 1 404 0 discriminator 61
 5321 2020 664B     		ldr	r3, .L398+28
 5322 2022 1B78     		ldrb	r3, [r3, #0]	@ zero_extendqisi2
 5323 2024 2A2B     		cmp	r3, #42
 5324 2026 40F0D180 		bne	.L78
 5325              		.loc 1 404 0 discriminator 81
 5326 202a 5D48     		ldr	r0, .L398
 5327 202c 1121     		movs	r1, #17
 5328 202e FFF7FEFF 		bl	uart_check_free_space
 5329 2032 0028     		cmp	r0, #0
 5330 2034 00F0C680 		beq	.L79
 5331              		.loc 1 404 0 discriminator 83
 5332 2038 5A4B     		ldr	r3, .L398+4
 5333              	.LBB413:
 5334 203a 9921     		movs	r1, #153
 5335              	.LBE413:
 5336 203c 1A88     		ldrh	r2, [r3, #0]
 5337              	.LBB414:
 5338 203e 5848     		ldr	r0, .L398
 5339              	.LBE414:
 5340 2040 1132     		adds	r2, r2, #17
 5341 2042 1A80     		strh	r2, [r3, #0]	@ movhi
 5342 2044 584B     		ldr	r3, .L398+8
 5343 2046 594D     		ldr	r5, .L398+12
 5344 2048 1A88     		ldrh	r2, [r3, #0]
 5345 204a 594C     		ldr	r4, .L398+16
 5346 204c 0132     		adds	r2, r2, #1
 5347 204e 1A80     		strh	r2, [r3, #0]	@ movhi
 5348              	.LBB415:
 5349 2050 FFF7FEFF 		bl	uart_transmit
 5350              	.LVL847:
 5351 2054 1121     		movs	r1, #17
 5352 2056 5248     		ldr	r0, .L398
 5353 2058 FFF7FEFF 		bl	uart_transmit
 5354              	.LBE415:
 5355 205c 1223     		movs	r3, #18
 5356 205e 2B70     		strb	r3, [r5, #0]
 5357 2060 2323     		movs	r3, #35
 5358 2062 2370     		strb	r3, [r4, #0]
 5359 2064 0121     		movs	r1, #1
 5360 2066 4E48     		ldr	r0, .L398
 5361 2068 FFF7FEFF 		bl	uart_transmit
 5362 206c 2B78     		ldrb	r3, [r5, #0]	@ zero_extendqisi2
 5363 206e 2278     		ldrb	r2, [r4, #0]	@ zero_extendqisi2
 5364 2070 1133     		adds	r3, r3, #17
 5365 2072 DBB2     		uxtb	r3, r3
 5366              	.LBB416:
 5367 2074 524E     		ldr	r6, .L398+32
 5368              	.LBE416:
 5369 2076 2B70     		strb	r3, [r5, #0]
 5370 2078 9B18     		adds	r3, r3, r2
 5371 207a 2370     		strb	r3, [r4, #0]
 5372 207c 1121     		movs	r1, #17
 5373 207e 4848     		ldr	r0, .L398
 5374 2080 FFF7FEFF 		bl	uart_transmit
 5375              	.LBB417:
 5376 2084 96F84C10 		ldrb	r1, [r6, #76]	@ zero_extendqisi2
 5377              	.LVL848:
 5378 2088 2B78     		ldrb	r3, [r5, #0]	@ zero_extendqisi2
 5379 208a 2278     		ldrb	r2, [r4, #0]	@ zero_extendqisi2
 5380 208c CB18     		adds	r3, r1, r3
 5381 208e DBB2     		uxtb	r3, r3
 5382              	.LVL849:
 5383 2090 2B70     		strb	r3, [r5, #0]
 5384 2092 9B18     		adds	r3, r3, r2
 5385              	.LVL850:
 5386 2094 2370     		strb	r3, [r4, #0]
 5387 2096 4248     		ldr	r0, .L398
 5388 2098 FFF7FEFF 		bl	uart_transmit
 5389              	.LVL851:
 5390              	.LBE417:
 5391              	.LBB418:
 5392 209c 96F84D10 		ldrb	r1, [r6, #77]	@ zero_extendqisi2
 5393              	.LVL852:
 5394 20a0 2B78     		ldrb	r3, [r5, #0]	@ zero_extendqisi2
 5395 20a2 2278     		ldrb	r2, [r4, #0]	@ zero_extendqisi2
 5396 20a4 CB18     		adds	r3, r1, r3
 5397 20a6 DBB2     		uxtb	r3, r3
 5398              	.LVL853:
 5399 20a8 2B70     		strb	r3, [r5, #0]
 5400 20aa 9B18     		adds	r3, r3, r2
 5401              	.LVL854:
 5402 20ac 2370     		strb	r3, [r4, #0]
 5403 20ae 3C48     		ldr	r0, .L398
 5404 20b0 FFF7FEFF 		bl	uart_transmit
 5405              	.LVL855:
 5406              	.LBE418:
 5407              	.LBB419:
 5408 20b4 96F84E10 		ldrb	r1, [r6, #78]	@ zero_extendqisi2
 5409              	.LVL856:
 5410 20b8 2B78     		ldrb	r3, [r5, #0]	@ zero_extendqisi2
 5411 20ba 2278     		ldrb	r2, [r4, #0]	@ zero_extendqisi2
 5412 20bc CB18     		adds	r3, r1, r3
 5413 20be DBB2     		uxtb	r3, r3
 5414              	.LVL857:
 5415 20c0 2B70     		strb	r3, [r5, #0]
 5416 20c2 9B18     		adds	r3, r3, r2
 5417              	.LVL858:
 5418 20c4 2370     		strb	r3, [r4, #0]
 5419 20c6 3648     		ldr	r0, .L398
 5420 20c8 FFF7FEFF 		bl	uart_transmit
 5421              	.LVL859:
 5422              	.LBE419:
 5423              	.LBB420:
 5424 20cc 96F84F10 		ldrb	r1, [r6, #79]	@ zero_extendqisi2
 5425              	.LVL860:
 5426 20d0 2B78     		ldrb	r3, [r5, #0]	@ zero_extendqisi2
 5427 20d2 2278     		ldrb	r2, [r4, #0]	@ zero_extendqisi2
 5428 20d4 CB18     		adds	r3, r1, r3
 5429 20d6 DBB2     		uxtb	r3, r3
 5430              	.LVL861:
 5431 20d8 2B70     		strb	r3, [r5, #0]
 5432 20da 9B18     		adds	r3, r3, r2
 5433              	.LVL862:
 5434 20dc 2370     		strb	r3, [r4, #0]
 5435 20de 3048     		ldr	r0, .L398
 5436 20e0 FFF7FEFF 		bl	uart_transmit
 5437              	.LVL863:
 5438              	.LBE420:
 5439              	.LBB421:
 5440 20e4 96F85010 		ldrb	r1, [r6, #80]	@ zero_extendqisi2
 5441              	.LVL864:
 5442 20e8 2B78     		ldrb	r3, [r5, #0]	@ zero_extendqisi2
 5443 20ea 2278     		ldrb	r2, [r4, #0]	@ zero_extendqisi2
 5444 20ec CB18     		adds	r3, r1, r3
 5445 20ee DBB2     		uxtb	r3, r3
 5446              	.LVL865:
 5447 20f0 2B70     		strb	r3, [r5, #0]
 5448 20f2 9B18     		adds	r3, r3, r2
 5449              	.LVL866:
 5450 20f4 2370     		strb	r3, [r4, #0]
 5451 20f6 2A48     		ldr	r0, .L398
 5452 20f8 FFF7FEFF 		bl	uart_transmit
 5453              	.LVL867:
 5454              	.LBE421:
 5455              	.LBB422:
 5456 20fc 96F85110 		ldrb	r1, [r6, #81]	@ zero_extendqisi2
 5457              	.LVL868:
 5458 2100 2B78     		ldrb	r3, [r5, #0]	@ zero_extendqisi2
 5459 2102 2278     		ldrb	r2, [r4, #0]	@ zero_extendqisi2
 5460 2104 CB18     		adds	r3, r1, r3
 5461 2106 DBB2     		uxtb	r3, r3
 5462              	.LVL869:
 5463 2108 2B70     		strb	r3, [r5, #0]
 5464 210a 9B18     		adds	r3, r3, r2
 5465              	.LVL870:
 5466 210c 2370     		strb	r3, [r4, #0]
 5467 210e 2448     		ldr	r0, .L398
 5468 2110 FFF7FEFF 		bl	uart_transmit
 5469              	.LVL871:
 5470              	.LBE422:
 5471              	.LBB423:
 5472 2114 96F85210 		ldrb	r1, [r6, #82]	@ zero_extendqisi2
 5473              	.LVL872:
 5474 2118 2B78     		ldrb	r3, [r5, #0]	@ zero_extendqisi2
 5475 211a 2278     		ldrb	r2, [r4, #0]	@ zero_extendqisi2
 5476 211c CB18     		adds	r3, r1, r3
 5477 211e DBB2     		uxtb	r3, r3
 5478              	.LVL873:
 5479 2120 2B70     		strb	r3, [r5, #0]
 5480 2122 9B18     		adds	r3, r3, r2
 5481              	.LVL874:
 5482 2124 2370     		strb	r3, [r4, #0]
 5483 2126 1E48     		ldr	r0, .L398
 5484 2128 FFF7FEFF 		bl	uart_transmit
 5485              	.LVL875:
 5486              	.LBE423:
 5487              	.LBB424:
 5488 212c 96F85310 		ldrb	r1, [r6, #83]	@ zero_extendqisi2
 5489              	.LVL876:
 5490 2130 2B78     		ldrb	r3, [r5, #0]	@ zero_extendqisi2
 5491 2132 2278     		ldrb	r2, [r4, #0]	@ zero_extendqisi2
 5492 2134 CB18     		adds	r3, r1, r3
 5493 2136 DBB2     		uxtb	r3, r3
 5494              	.LVL877:
 5495 2138 2B70     		strb	r3, [r5, #0]
 5496 213a 9B18     		adds	r3, r3, r2
 5497              	.LVL878:
 5498 213c 2370     		strb	r3, [r4, #0]
 5499 213e 1848     		ldr	r0, .L398
 5500 2140 FFF7FEFF 		bl	uart_transmit
 5501              	.LVL879:
 5502              	.LBE424:
 5503              	.LBB425:
 5504 2144 96F85810 		ldrb	r1, [r6, #88]	@ zero_extendqisi2
 5505              	.LVL880:
 5506 2148 2B78     		ldrb	r3, [r5, #0]	@ zero_extendqisi2
 5507 214a 2278     		ldrb	r2, [r4, #0]	@ zero_extendqisi2
 5508 214c CB18     		adds	r3, r1, r3
 5509 214e DBB2     		uxtb	r3, r3
 5510              	.LVL881:
 5511 2150 2B70     		strb	r3, [r5, #0]
 5512 2152 9B18     		adds	r3, r3, r2
 5513              	.LVL882:
 5514 2154 2370     		strb	r3, [r4, #0]
 5515 2156 1248     		ldr	r0, .L398
 5516 2158 FFF7FEFF 		bl	uart_transmit
 5517              	.LVL883:
 5518              	.LBE425:
 5519              	.LBB426:
 5520 215c 96F85910 		ldrb	r1, [r6, #89]	@ zero_extendqisi2
 5521              	.LVL884:
 5522 2160 2B78     		ldrb	r3, [r5, #0]	@ zero_extendqisi2
 5523 2162 2278     		ldrb	r2, [r4, #0]	@ zero_extendqisi2
 5524 2164 CB18     		adds	r3, r1, r3
 5525 2166 DBB2     		uxtb	r3, r3
 5526              	.LVL885:
 5527 2168 2B70     		strb	r3, [r5, #0]
 5528 216a 9B18     		adds	r3, r3, r2
 5529              	.LVL886:
 5530 216c 2370     		strb	r3, [r4, #0]
 5531 216e 0C48     		ldr	r0, .L398
 5532 2170 FFF7FEFF 		bl	uart_transmit
 5533              	.LVL887:
 5534              	.LBE426:
 5535              	.LBB427:
 5536 2174 96F85A10 		ldrb	r1, [r6, #90]	@ zero_extendqisi2
 5537              	.LVL888:
 5538 2178 2B78     		ldrb	r3, [r5, #0]	@ zero_extendqisi2
 5539 217a 2278     		ldrb	r2, [r4, #0]	@ zero_extendqisi2
 5540 217c CB18     		adds	r3, r1, r3
 5541 217e DBB2     		uxtb	r3, r3
 5542              	.LVL889:
 5543 2180 2B70     		strb	r3, [r5, #0]
 5544 2182 9B18     		adds	r3, r3, r2
 5545              	.LVL890:
 5546 2184 2370     		strb	r3, [r4, #0]
 5547 2186 0648     		ldr	r0, .L398
 5548 2188 FFF7FEFF 		bl	uart_transmit
 5549              	.LVL891:
 5550              	.LBE427:
 5551 218c 2978     		ldrb	r1, [r5, #0]	@ zero_extendqisi2
 5552 218e 0448     		ldr	r0, .L398
 5553 2190 FFF7FEFF 		bl	uart_transmit
 5554 2194 0248     		ldr	r0, .L398
 5555 2196 2178     		ldrb	r1, [r4, #0]	@ zero_extendqisi2
 5556 2198 FFF7FEFF 		bl	uart_transmit
 5557 219c 16E0     		b	.L78
 5558              	.L399:
 5559 219e 00BF     		.align	2
 5560              	.L398:
 5561 21a0 00000000 		.word	uart2
 5562 21a4 00000000 		.word	downlink_nb_bytes
 5563 21a8 00000000 		.word	downlink_nb_msgs
 5564 21ac 00000000 		.word	ck_a
 5565 21b0 00000000 		.word	ck_b
 5566 21b4 00000000 		.word	.LANCHOR36
 5567 21b8 00000000 		.word	downlink_nb_ovrn
 5568 21bc 00000000 		.word	.LANCHOR23
 5569 21c0 00000000 		.word	gps
 5570              	.LVL892:
 5571              	.L79:
 5572              		.loc 1 404 0 discriminator 84
 5573 21c4 314B     		ldr	r3, .L400
 5574 21c6 1A78     		ldrb	r2, [r3, #0]	@ zero_extendqisi2
 5575 21c8 0132     		adds	r2, r2, #1
 5576 21ca 1A70     		strb	r2, [r3, #0]
 5577              	.L78:
 5578              		.loc 1 404 0 discriminator 82
 5579 21cc 304B     		ldr	r3, .L400+4
 5580 21ce 1B78     		ldrb	r3, [r3, #0]	@ zero_extendqisi2
 5581 21d0 302B     		cmp	r3, #48
 5582 21d2 6DD1     		bne	.L80
 5583              		.loc 1 404 0 discriminator 85
 5584 21d4 2F48     		ldr	r0, .L400+8
 5585 21d6 0B21     		movs	r1, #11
 5586 21d8 FFF7FEFF 		bl	uart_check_free_space
 5587 21dc 0028     		cmp	r0, #0
 5588 21de 00F06D81 		beq	.L83
 5589              		.loc 1 404 0 discriminator 87
 5590 21e2 2D4B     		ldr	r3, .L400+12
 5591              	.LBB428:
 5592 21e4 2B48     		ldr	r0, .L400+8
 5593              	.LBE428:
 5594 21e6 1A88     		ldrh	r2, [r3, #0]
 5595              	.LBB429:
 5596 21e8 9921     		movs	r1, #153
 5597              	.LBE429:
 5598 21ea 0B32     		adds	r2, r2, #11
 5599 21ec 1A80     		strh	r2, [r3, #0]	@ movhi
 5600 21ee 2B4B     		ldr	r3, .L400+16
 5601 21f0 2B4D     		ldr	r5, .L400+20
 5602 21f2 1A88     		ldrh	r2, [r3, #0]
 5603 21f4 2B4C     		ldr	r4, .L400+24
 5604 21f6 0132     		adds	r2, r2, #1
 5605 21f8 1A80     		strh	r2, [r3, #0]	@ movhi
 5606              	.LBB430:
 5607 21fa FFF7FEFF 		bl	uart_transmit
 5608              	.LVL893:
 5609 21fe 2548     		ldr	r0, .L400+8
 5610 2200 0B21     		movs	r1, #11
 5611 2202 FFF7FEFF 		bl	uart_transmit
 5612              	.LBE430:
 5613 2206 0C23     		movs	r3, #12
 5614 2208 2B70     		strb	r3, [r5, #0]
 5615 220a 1723     		movs	r3, #23
 5616 220c 2370     		strb	r3, [r4, #0]
 5617 220e 2148     		ldr	r0, .L400+8
 5618 2210 0121     		movs	r1, #1
 5619 2212 FFF7FEFF 		bl	uart_transmit
 5620 2216 2B78     		ldrb	r3, [r5, #0]	@ zero_extendqisi2
 5621 2218 2278     		ldrb	r2, [r4, #0]	@ zero_extendqisi2
 5622 221a 0E33     		adds	r3, r3, #14
 5623 221c DBB2     		uxtb	r3, r3
 5624              	.LBB431:
 5625 221e 224E     		ldr	r6, .L400+28
 5626              	.LBE431:
 5627 2220 2B70     		strb	r3, [r5, #0]
 5628 2222 9B18     		adds	r3, r3, r2
 5629 2224 2370     		strb	r3, [r4, #0]
 5630 2226 1B48     		ldr	r0, .L400+8
 5631 2228 0E21     		movs	r1, #14
 5632 222a FFF7FEFF 		bl	uart_transmit
 5633              	.LBB432:
 5634 222e 3178     		ldrb	r1, [r6, #0]	@ zero_extendqisi2
 5635              	.LVL894:
 5636 2230 2B78     		ldrb	r3, [r5, #0]	@ zero_extendqisi2
 5637 2232 2278     		ldrb	r2, [r4, #0]	@ zero_extendqisi2
 5638 2234 CB18     		adds	r3, r1, r3
 5639 2236 DBB2     		uxtb	r3, r3
 5640              	.LVL895:
 5641 2238 2B70     		strb	r3, [r5, #0]
 5642 223a 9B18     		adds	r3, r3, r2
 5643              	.LVL896:
 5644 223c 2370     		strb	r3, [r4, #0]
 5645 223e 1548     		ldr	r0, .L400+8
 5646 2240 FFF7FEFF 		bl	uart_transmit
 5647              	.LVL897:
 5648              	.LBE432:
 5649              	.LBB433:
 5650 2244 7178     		ldrb	r1, [r6, #1]	@ zero_extendqisi2
 5651              	.LVL898:
 5652 2246 2B78     		ldrb	r3, [r5, #0]	@ zero_extendqisi2
 5653 2248 2278     		ldrb	r2, [r4, #0]	@ zero_extendqisi2
 5654 224a CB18     		adds	r3, r1, r3
 5655 224c DBB2     		uxtb	r3, r3
 5656              	.LVL899:
 5657 224e 2B70     		strb	r3, [r5, #0]
 5658 2250 9B18     		adds	r3, r3, r2
 5659              	.LVL900:
 5660 2252 2370     		strb	r3, [r4, #0]
 5661 2254 0F48     		ldr	r0, .L400+8
 5662 2256 FFF7FEFF 		bl	uart_transmit
 5663              	.LVL901:
 5664              	.LBE433:
 5665              	.LBB434:
 5666 225a B178     		ldrb	r1, [r6, #2]	@ zero_extendqisi2
 5667              	.LVL902:
 5668 225c 2B78     		ldrb	r3, [r5, #0]	@ zero_extendqisi2
 5669 225e 2278     		ldrb	r2, [r4, #0]	@ zero_extendqisi2
 5670 2260 CB18     		adds	r3, r1, r3
 5671 2262 DBB2     		uxtb	r3, r3
 5672              	.LVL903:
 5673 2264 2B70     		strb	r3, [r5, #0]
 5674 2266 9B18     		adds	r3, r3, r2
 5675              	.LVL904:
 5676 2268 2370     		strb	r3, [r4, #0]
 5677 226a 0A48     		ldr	r0, .L400+8
 5678 226c FFF7FEFF 		bl	uart_transmit
 5679              	.LVL905:
 5680              	.LBE434:
 5681              	.LBB435:
 5682 2270 F178     		ldrb	r1, [r6, #3]	@ zero_extendqisi2
 5683              	.LVL906:
 5684 2272 2B78     		ldrb	r3, [r5, #0]	@ zero_extendqisi2
 5685 2274 2278     		ldrb	r2, [r4, #0]	@ zero_extendqisi2
 5686 2276 CB18     		adds	r3, r1, r3
 5687 2278 DBB2     		uxtb	r3, r3
 5688              	.LVL907:
 5689 227a 2B70     		strb	r3, [r5, #0]
 5690 227c 9B18     		adds	r3, r3, r2
 5691              	.LVL908:
 5692 227e 2370     		strb	r3, [r4, #0]
 5693 2280 0448     		ldr	r0, .L400+8
 5694 2282 FFF7FEFF 		bl	uart_transmit
 5695              	.LVL909:
 5696              	.LBE435:
 5697              	.LBB436:
 5698 2286 094B     		ldr	r3, .L400+32
 5699 2288 1978     		ldrb	r1, [r3, #0]	@ zero_extendqisi2
 5700              	.LVL910:
 5701 228a EFE0     		b	.L340
 5702              	.L401:
 5703              		.align	2
 5704              	.L400:
 5705 228c 00000000 		.word	downlink_nb_ovrn
 5706 2290 00000000 		.word	.LANCHOR24
 5707 2294 00000000 		.word	uart2
 5708 2298 00000000 		.word	downlink_nb_bytes
 5709 229c 00000000 		.word	downlink_nb_msgs
 5710 22a0 00000000 		.word	ck_a
 5711 22a4 00000000 		.word	ck_b
 5712 22a8 00000000 		.word	v_ctl_auto_throttle_sum_err
 5713 22ac 00000000 		.word	v_ctl_auto_throttle_submode
 5714              	.LVL911:
 5715              	.L80:
 5716              	.LBE436:
 5717              		.loc 1 404 0 discriminator 86
 5718 22b0 362B     		cmp	r3, #54
 5719 22b2 40F00781 		bne	.L82
 5720              		.loc 1 404 0 discriminator 89
 5721 22b6 774B     		ldr	r3, .L402
 5722 22b8 1B78     		ldrb	r3, [r3, #0]	@ zero_extendqisi2
 5723 22ba 002B     		cmp	r3, #0
 5724 22bc 00F00281 		beq	.L82
 5725              		.loc 1 404 0 discriminator 91
 5726 22c0 7548     		ldr	r0, .L402+4
 5727 22c2 1621     		movs	r1, #22
 5728 22c4 FFF7FEFF 		bl	uart_check_free_space
 5729 22c8 0028     		cmp	r0, #0
 5730 22ca 00F0F780 		beq	.L83
 5731              		.loc 1 404 0 discriminator 92
 5732 22ce 734B     		ldr	r3, .L402+8
 5733              	.LBB437:
 5734 22d0 7148     		ldr	r0, .L402+4
 5735              	.LBE437:
 5736 22d2 1A88     		ldrh	r2, [r3, #0]
 5737              	.LBB438:
 5738 22d4 9921     		movs	r1, #153
 5739              	.LBE438:
 5740 22d6 1632     		adds	r2, r2, #22
 5741 22d8 1A80     		strh	r2, [r3, #0]	@ movhi
 5742 22da 714B     		ldr	r3, .L402+12
 5743 22dc 714D     		ldr	r5, .L402+16
 5744 22de 1A88     		ldrh	r2, [r3, #0]
