   1              		.syntax unified
   2              		.cpu cortex-m3
   3              		.fpu softvfp
   4              		.eabi_attribute 20, 1
   5              		.eabi_attribute 21, 1
   6              		.eabi_attribute 23, 3
   7              		.eabi_attribute 24, 1
   8              		.eabi_attribute 25, 1
   9              		.eabi_attribute 26, 1
  10              		.eabi_attribute 30, 4
  11              		.eabi_attribute 18, 4
  12              		.thumb
  13              		.file	"nav.c"
  14              		.text
  15              	.Ltext0:
  16              		.cfi_sections	.debug_frame
  17              		.global	__aeabi_fsub
  18              		.global	__aeabi_fcmpgt
  19              		.section	.text.nav_set_altitude,"ax",%progbits
  20              		.align	1
  21              		.thumb
  22              		.thumb_func
  24              	nav_set_altitude:
  25              	.LFB50:
  26              		.file 1 "subsystems/nav.c"
   1:subsystems/nav.c **** /*
   2:subsystems/nav.c ****  * $Id$
   3:subsystems/nav.c ****  *
   4:subsystems/nav.c ****  * Copyright (C) 2003-2005  Pascal Brisset, Antoine Drouin
   5:subsystems/nav.c ****  *
   6:subsystems/nav.c ****  * This file is part of paparazzi.
   7:subsystems/nav.c ****  *
   8:subsystems/nav.c ****  * paparazzi is free software; you can redistribute it and/or modify
   9:subsystems/nav.c ****  * it under the terms of the GNU General Public License as published by
  10:subsystems/nav.c ****  * the Free Software Foundation; either version 2, or (at your option)
  11:subsystems/nav.c ****  * any later version.
  12:subsystems/nav.c ****  *
  13:subsystems/nav.c ****  * paparazzi is distributed in the hope that it will be useful,
  14:subsystems/nav.c ****  * but WITHOUT ANY WARRANTY; without even the implied warranty of
  15:subsystems/nav.c ****  * MERCHANTABILITY or FITNESS FOR A PARTICULAR PURPOSE.  See the
  16:subsystems/nav.c ****  * GNU General Public License for more details.
  17:subsystems/nav.c ****  *
  18:subsystems/nav.c ****  * You should have received a copy of the GNU General Public License
  19:subsystems/nav.c ****  * along with paparazzi; see the file COPYING.  If not, write to
  20:subsystems/nav.c ****  * the Free Software Foundation, 59 Temple Place - Suite 330,
  21:subsystems/nav.c ****  * Boston, MA 02111-1307, USA.
  22:subsystems/nav.c ****  *
  23:subsystems/nav.c ****  */
  24:subsystems/nav.c **** /** \file subsystems/nav.c
  25:subsystems/nav.c ****  *  \brief Regroup functions to compute navigation
  26:subsystems/nav.c ****  *
  27:subsystems/nav.c ****  */
  28:subsystems/nav.c **** 
  29:subsystems/nav.c **** #define NAV_C
  30:subsystems/nav.c **** 
  31:subsystems/nav.c **** #include <math.h>
  32:subsystems/nav.c **** 
  33:subsystems/nav.c **** #include "subsystems/nav.h"
  34:subsystems/nav.c **** #include "subsystems/gps.h"
  35:subsystems/nav.c **** #include "estimator.h"
  36:subsystems/nav.c **** #include "firmwares/fixedwing/stabilization/stabilization_attitude.h"
  37:subsystems/nav.c **** #include "firmwares/fixedwing/guidance/guidance_v.h"
  38:subsystems/nav.c **** #include "firmwares/fixedwing/autopilot.h"
  39:subsystems/nav.c **** #include "inter_mcu.h"
  40:subsystems/nav.c **** #include "subsystems/navigation/traffic_info.h"
  41:subsystems/nav.c **** 
  42:subsystems/nav.c **** #define RCLost() bit_is_set(fbw_state->status, RADIO_REALLY_LOST)
  43:subsystems/nav.c **** 
  44:subsystems/nav.c **** enum oval_status oval_status;
  45:subsystems/nav.c **** 
  46:subsystems/nav.c **** float last_x, last_y;
  47:subsystems/nav.c **** 
  48:subsystems/nav.c **** /** Index of last waypoint. Used only in "go" stage in "route" horiz mode */
  49:subsystems/nav.c **** static uint8_t last_wp __attribute__ ((unused));
  50:subsystems/nav.c **** 
  51:subsystems/nav.c **** float rc_pitch;
  52:subsystems/nav.c **** float carrot_x, carrot_y;
  53:subsystems/nav.c **** 
  54:subsystems/nav.c **** /** Status on the current circle */
  55:subsystems/nav.c **** float nav_circle_radians; /* Cumulated */
  56:subsystems/nav.c **** float nav_circle_trigo_qdr; /* Angle from center to mobile */
  57:subsystems/nav.c **** float nav_radius, nav_course, nav_climb, nav_shift;
  58:subsystems/nav.c **** 
  59:subsystems/nav.c **** 
  60:subsystems/nav.c **** /** Status on the current leg (percentage, 0. < < 1.) in route mode */
  61:subsystems/nav.c **** static float nav_leg_progress;
  62:subsystems/nav.c **** 
  63:subsystems/nav.c **** /** length of the current leg (m) */
  64:subsystems/nav.c **** static float nav_leg_length;
  65:subsystems/nav.c **** 
  66:subsystems/nav.c **** bool_t nav_in_circle = FALSE;
  67:subsystems/nav.c **** bool_t nav_in_segment = FALSE;
  68:subsystems/nav.c **** float nav_circle_x, nav_circle_y, nav_circle_radius;
  69:subsystems/nav.c **** float nav_segment_x_1, nav_segment_y_1, nav_segment_x_2, nav_segment_y_2;
  70:subsystems/nav.c **** uint8_t horizontal_mode;
  71:subsystems/nav.c **** float circle_bank = 0;
  72:subsystems/nav.c **** 
  73:subsystems/nav.c **** /** Dynamically adjustable, reset to nav_altitude when it is changing */
  74:subsystems/nav.c **** float flight_altitude;
  75:subsystems/nav.c **** 
  76:subsystems/nav.c **** float nav_glide_pitch_trim;
  77:subsystems/nav.c **** #ifndef NAV_GLIDE_PITCH_TRIM
  78:subsystems/nav.c **** #define NAV_GLIDE_PITCH_TRIM 0.
  79:subsystems/nav.c **** #endif
  80:subsystems/nav.c **** 
  81:subsystems/nav.c **** 
  82:subsystems/nav.c **** 
  83:subsystems/nav.c **** float nav_ground_speed_setpoint, nav_ground_speed_pgain;
  84:subsystems/nav.c **** 
  85:subsystems/nav.c **** /* Used in nav_survey_rectangle. Defined here for downlink and uplink */
  86:subsystems/nav.c **** float nav_survey_shift;
  87:subsystems/nav.c **** float nav_survey_west, nav_survey_east, nav_survey_north, nav_survey_south;
  88:subsystems/nav.c **** bool_t nav_survey_active;
  89:subsystems/nav.c **** 
  90:subsystems/nav.c **** int nav_mode;
  91:subsystems/nav.c **** 
  92:subsystems/nav.c **** void nav_init_stage( void ) {
  93:subsystems/nav.c ****   last_x = estimator_x; last_y = estimator_y;
  94:subsystems/nav.c ****   stage_time = 0;
  95:subsystems/nav.c ****   nav_circle_radians = 0;
  96:subsystems/nav.c ****   nav_in_circle = FALSE;
  97:subsystems/nav.c ****   nav_in_segment = FALSE;
  98:subsystems/nav.c ****   nav_shift = 0;
  99:subsystems/nav.c ****   nav_pitch = 0.;
 100:subsystems/nav.c **** }
 101:subsystems/nav.c **** 
 102:subsystems/nav.c **** #define PowerVoltage() (vsupply/10.)
 103:subsystems/nav.c **** #define RcRoll(travel) (fbw_state->channels[RADIO_ROLL]* (float)travel /(float)MAX_PPRZ)
 104:subsystems/nav.c **** 
 105:subsystems/nav.c **** #define MIN_DX ((int16_t)(MAX_PPRZ * 0.05))
 106:subsystems/nav.c **** 
 107:subsystems/nav.c **** 
 108:subsystems/nav.c **** /** Navigates around (x, y). Clockwise iff radius > 0 */
 109:subsystems/nav.c **** void nav_circle_XY(float x, float y, float radius) {
 110:subsystems/nav.c ****   float last_trigo_qdr = nav_circle_trigo_qdr;
 111:subsystems/nav.c ****   nav_circle_trigo_qdr = atan2(estimator_y - y, estimator_x - x);
 112:subsystems/nav.c **** 
 113:subsystems/nav.c ****   if (nav_in_circle) {
 114:subsystems/nav.c ****     float trigo_diff = nav_circle_trigo_qdr - last_trigo_qdr;
 115:subsystems/nav.c ****     NormRadAngle(trigo_diff);
 116:subsystems/nav.c ****     nav_circle_radians += trigo_diff;
 117:subsystems/nav.c ****   }
 118:subsystems/nav.c **** 
 119:subsystems/nav.c ****   float dist2_center = DistanceSquare(estimator_x, estimator_y, x, y);
 120:subsystems/nav.c ****   float dist_carrot = CARROT*NOMINAL_AIRSPEED;
 121:subsystems/nav.c ****   float sign_radius = radius > 0 ? 1 : -1;
 122:subsystems/nav.c **** 
 123:subsystems/nav.c ****   radius += -nav_shift;
 124:subsystems/nav.c **** 
 125:subsystems/nav.c ****   float abs_radius = fabs(radius);
 126:subsystems/nav.c **** 
 127:subsystems/nav.c ****   /** Computes a prebank. Go straight if inside or outside the circle */
 128:subsystems/nav.c ****   circle_bank =
 129:subsystems/nav.c ****     (dist2_center > Square(abs_radius + dist_carrot)
 130:subsystems/nav.c ****       || dist2_center < Square(abs_radius - dist_carrot)) ?
 131:subsystems/nav.c ****     0 :
 132:subsystems/nav.c ****     atan(estimator_hspeed_mod*estimator_hspeed_mod / (G*radius));
 133:subsystems/nav.c **** 
 134:subsystems/nav.c ****   float carrot_angle = dist_carrot / abs_radius;
 135:subsystems/nav.c ****   carrot_angle = Min(carrot_angle, M_PI/4);
 136:subsystems/nav.c ****   carrot_angle = Max(carrot_angle, M_PI/16);
 137:subsystems/nav.c ****   float alpha_carrot = nav_circle_trigo_qdr - sign_radius * carrot_angle;
 138:subsystems/nav.c ****   horizontal_mode = HORIZONTAL_MODE_CIRCLE;
 139:subsystems/nav.c ****   float radius_carrot = abs_radius;
 140:subsystems/nav.c ****   if (nav_mode == NAV_MODE_COURSE)
 141:subsystems/nav.c ****     radius_carrot += (abs_radius / cos(carrot_angle) - abs_radius);
 142:subsystems/nav.c ****   fly_to_xy(x+cos(alpha_carrot)*radius_carrot,
 143:subsystems/nav.c **** 	    y+sin(alpha_carrot)*radius_carrot);
 144:subsystems/nav.c ****   nav_in_circle = TRUE;
 145:subsystems/nav.c ****   nav_circle_x = x;
 146:subsystems/nav.c ****   nav_circle_y = y;
 147:subsystems/nav.c ****   nav_circle_radius = radius;
 148:subsystems/nav.c **** }
 149:subsystems/nav.c **** 
 150:subsystems/nav.c **** 
 151:subsystems/nav.c **** #define NavGlide(_last_wp, _wp) { \
 152:subsystems/nav.c ****   float start_alt = waypoints[_last_wp].a; \
 153:subsystems/nav.c ****   float diff_alt = waypoints[_wp].a - start_alt; \
 154:subsystems/nav.c ****   float alt = start_alt + nav_leg_progress * diff_alt; \
 155:subsystems/nav.c ****   float pre_climb = estimator_hspeed_mod * diff_alt / nav_leg_length; \
 156:subsystems/nav.c ****   NavVerticalAltitudeMode(alt, pre_climb); \
 157:subsystems/nav.c **** }
 158:subsystems/nav.c **** 
 159:subsystems/nav.c **** 
 160:subsystems/nav.c **** 
 161:subsystems/nav.c **** 
 162:subsystems/nav.c **** #define MAX_DIST_CARROT 250.
 163:subsystems/nav.c **** #define MIN_HEIGHT_CARROT 50.
 164:subsystems/nav.c **** #define MAX_HEIGHT_CARROT 150.
 165:subsystems/nav.c **** 
 166:subsystems/nav.c **** #define Goto3D(radius) { \
 167:subsystems/nav.c ****   if (pprz_mode == PPRZ_MODE_AUTO2) { \
 168:subsystems/nav.c ****     int16_t yaw = fbw_state->channels[RADIO_YAW]; \
 169:subsystems/nav.c ****     if (yaw > MIN_DX || yaw < -MIN_DX) { \
 170:subsystems/nav.c ****       carrot_x += FLOAT_OF_PPRZ(yaw, 0, -20.); \
 171:subsystems/nav.c ****       carrot_x = Min(carrot_x, MAX_DIST_CARROT); \
 172:subsystems/nav.c ****       carrot_x = Max(carrot_x, -MAX_DIST_CARROT); \
 173:subsystems/nav.c ****     } \
 174:subsystems/nav.c ****     int16_t pitch = fbw_state->channels[RADIO_PITCH]; \
 175:subsystems/nav.c ****     if (pitch > MIN_DX || pitch < -MIN_DX) { \
 176:subsystems/nav.c ****       carrot_y += FLOAT_OF_PPRZ(pitch, 0, -20.); \
 177:subsystems/nav.c ****       carrot_y = Min(carrot_y, MAX_DIST_CARROT); \
 178:subsystems/nav.c ****       carrot_y = Max(carrot_y, -MAX_DIST_CARROT); \
 179:subsystems/nav.c ****     } \
 180:subsystems/nav.c ****     v_ctl_mode = V_CTL_MODE_AUTO_ALT; \
 181:subsystems/nav.c ****     int16_t roll =  fbw_state->channels[RADIO_ROLL]; \
 182:subsystems/nav.c ****     if (roll > MIN_DX || roll < -MIN_DX) { \
 183:subsystems/nav.c ****       nav_altitude += FLOAT_OF_PPRZ(roll, 0, -1.0);	\
 184:subsystems/nav.c ****       nav_altitude = Max(nav_altitude, MIN_HEIGHT_CARROT+ground_alt); \
 185:subsystems/nav.c ****       nav_altitude = Min(nav_altitude, MAX_HEIGHT_CARROT+ground_alt); \
 186:subsystems/nav.c ****     } \
 187:subsystems/nav.c ****   } \
 188:subsystems/nav.c ****   nav_circle_XY(carrot_x, carrot_y, radius); \
 189:subsystems/nav.c **** }
 190:subsystems/nav.c **** 
 191:subsystems/nav.c **** 
 192:subsystems/nav.c **** #define NavFollow(_ac_id, _distance, _height) \
 193:subsystems/nav.c ****   nav_follow(_ac_id, _distance, _height);
 194:subsystems/nav.c **** 
 195:subsystems/nav.c **** 
 196:subsystems/nav.c **** static unit_t unit __attribute__ ((unused));
 197:subsystems/nav.c **** 
 198:subsystems/nav.c **** static inline void nav_follow(uint8_t _ac_id, float _distance, float _height);
 199:subsystems/nav.c **** 
 200:subsystems/nav.c **** #ifdef NAV_GROUND_SPEED_PGAIN
 201:subsystems/nav.c **** /** \brief Computes cruise throttle from ground speed setpoint
 202:subsystems/nav.c ****  */
 203:subsystems/nav.c **** static void nav_ground_speed_loop( void ) {
 204:subsystems/nav.c ****   if (MINIMUM_AIRSPEED < nav_ground_speed_setpoint
 205:subsystems/nav.c ****       && nav_ground_speed_setpoint < MAXIMUM_AIRSPEED) {
 206:subsystems/nav.c ****     float err = nav_ground_speed_setpoint - estimator_hspeed_mod;
 207:subsystems/nav.c ****     v_ctl_auto_throttle_cruise_throttle += nav_ground_speed_pgain*err;
 208:subsystems/nav.c ****     Bound(v_ctl_auto_throttle_cruise_throttle, V_CTL_AUTO_THROTTLE_MIN_CRUISE_THROTTLE, V_CTL_AUTO_
 209:subsystems/nav.c ****   } else {
 210:subsystems/nav.c ****     /* Reset cruise throttle to nominal value */
 211:subsystems/nav.c ****     v_ctl_auto_throttle_cruise_throttle = V_CTL_AUTO_THROTTLE_NOMINAL_CRUISE_THROTTLE;
 212:subsystems/nav.c ****   }
 213:subsystems/nav.c **** }
 214:subsystems/nav.c **** #endif
 215:subsystems/nav.c **** 
 216:subsystems/nav.c **** static float baseleg_out_qdr;
 217:subsystems/nav.c **** static inline bool_t nav_compute_baseleg(uint8_t wp_af, uint8_t wp_td, uint8_t wp_baseleg, float ra
 218:subsystems/nav.c ****   nav_radius = radius;
 219:subsystems/nav.c **** 
 220:subsystems/nav.c ****   float x_0 = waypoints[wp_td].x - waypoints[wp_af].x;
 221:subsystems/nav.c ****   float y_0 = waypoints[wp_td].y - waypoints[wp_af].y;
 222:subsystems/nav.c **** 
 223:subsystems/nav.c ****   /* Unit vector from AF to TD */
 224:subsystems/nav.c ****   float d = sqrt(x_0*x_0+y_0*y_0);
 225:subsystems/nav.c ****   float x_1 = x_0 / d;
 226:subsystems/nav.c ****   float y_1 = y_0 / d;
 227:subsystems/nav.c **** 
 228:subsystems/nav.c ****   waypoints[wp_baseleg].x = waypoints[wp_af].x + y_1 * nav_radius;
 229:subsystems/nav.c ****   waypoints[wp_baseleg].y = waypoints[wp_af].y - x_1 * nav_radius;
 230:subsystems/nav.c ****   waypoints[wp_baseleg].a = waypoints[wp_af].a;
 231:subsystems/nav.c ****   baseleg_out_qdr = M_PI - atan2(-y_1, -x_1);
 232:subsystems/nav.c ****   if (nav_radius < 0)
 233:subsystems/nav.c ****     baseleg_out_qdr += M_PI;
 234:subsystems/nav.c **** 
 235:subsystems/nav.c ****   return FALSE;
 236:subsystems/nav.c **** }
 237:subsystems/nav.c **** 
 238:subsystems/nav.c **** 
 239:subsystems/nav.c **** /* For a landing UPWIND.
 240:subsystems/nav.c ****    Computes Top Of Descent waypoint from Touch Down and Approach Fix
 241:subsystems/nav.c ****    waypoints, using glide airspeed, glide vertical speed and wind */
 242:subsystems/nav.c **** static inline bool_t compute_TOD(uint8_t _af, uint8_t _td, uint8_t _tod, float glide_airspeed, floa
 243:subsystems/nav.c ****   float td_af_x = WaypointX(_af) - WaypointX(_td);
 244:subsystems/nav.c ****   float td_af_y = WaypointY(_af) - WaypointY(_td);
 245:subsystems/nav.c ****   float td_af = sqrt( td_af_x*td_af_x + td_af_y*td_af_y);
 246:subsystems/nav.c ****   float td_tod = (WaypointAlt(_af) - WaypointAlt(_td)) / glide_vspeed * (glide_airspeed - sqrt(wind
 247:subsystems/nav.c ****   WaypointX(_tod) = WaypointX(_td) + td_af_x / td_af * td_tod;
 248:subsystems/nav.c ****   WaypointY(_tod) = WaypointY(_td) + td_af_y / td_af * td_tod;
 249:subsystems/nav.c ****   WaypointAlt(_tod) = WaypointAlt(_af);
 250:subsystems/nav.c ****   return FALSE;
 251:subsystems/nav.c **** }
 252:subsystems/nav.c **** 
 253:subsystems/nav.c **** 
 254:subsystems/nav.c **** #include "generated/flight_plan.h"
 255:subsystems/nav.c **** 
 256:subsystems/nav.c **** 
 257:subsystems/nav.c **** #ifndef LINE_START_FUNCTION
 258:subsystems/nav.c **** #define LINE_START_FUNCTION {}
 259:subsystems/nav.c **** #endif
 260:subsystems/nav.c **** #ifndef LINE_STOP_FUNCTION
 261:subsystems/nav.c **** #define LINE_STOP_FUNCTION {}
 262:subsystems/nav.c **** #endif
 263:subsystems/nav.c **** 
 264:subsystems/nav.c **** 
 265:subsystems/nav.c **** 
 266:subsystems/nav.c **** static inline void nav_follow(uint8_t _ac_id, float _distance, float _height) {
 267:subsystems/nav.c ****   struct ac_info_ * ac = get_ac_info(_ac_id);
 268:subsystems/nav.c ****   NavVerticalAutoThrottleMode(0.);
 269:subsystems/nav.c ****   NavVerticalAltitudeMode(Max(ac->alt + _height, ground_alt+SECURITY_HEIGHT), 0.);
 270:subsystems/nav.c ****   float alpha = M_PI/2 - ac->course;
 271:subsystems/nav.c ****   float ca = cos(alpha), sa = sin(alpha);
 272:subsystems/nav.c ****   float x = ac->east - _distance*ca;
 273:subsystems/nav.c ****   float y = ac->north - _distance*sa;
 274:subsystems/nav.c ****   fly_to_xy(x, y);
 275:subsystems/nav.c **** #ifdef NAV_FOLLOW_PGAIN
 276:subsystems/nav.c ****   float s = (estimator_x-x)*ca+(estimator_y-y)*sa;
 277:subsystems/nav.c ****   nav_ground_speed_setpoint = ac->gspeed + NAV_FOLLOW_PGAIN*s;
 278:subsystems/nav.c ****   nav_ground_speed_loop();
 279:subsystems/nav.c **** #endif
 280:subsystems/nav.c **** }
 281:subsystems/nav.c **** 
 282:subsystems/nav.c **** float nav_altitude = GROUND_ALT + MIN_HEIGHT_CARROT;
 283:subsystems/nav.c **** float desired_x, desired_y;
 284:subsystems/nav.c **** pprz_t nav_throttle_setpoint;
 285:subsystems/nav.c **** float nav_pitch; /* Rad */
 286:subsystems/nav.c **** float fp_pitch; /* deg */
 287:subsystems/nav.c **** 
 288:subsystems/nav.c **** 
 289:subsystems/nav.c **** /** \brief Decide if the UAV is approaching the current waypoint.
 290:subsystems/nav.c ****  *  Computes \a dist2_to_wp and compare it to square \a carrot.
 291:subsystems/nav.c ****  *  Return true if it is smaller. Else computes by scalar products if
 292:subsystems/nav.c ****  *  uav has not gone past waypoint.
 293:subsystems/nav.c ****  *  Return true if it is the case.
 294:subsystems/nav.c ****  */
 295:subsystems/nav.c **** bool_t nav_approaching_xy(float x, float y, float from_x, float from_y, float approaching_time) {
 296:subsystems/nav.c ****   /** distance to waypoint in x */
 297:subsystems/nav.c ****   float pw_x = x - estimator_x;
 298:subsystems/nav.c ****   /** distance to waypoint in y */
 299:subsystems/nav.c ****   float pw_y = y - estimator_y;
 300:subsystems/nav.c **** 
 301:subsystems/nav.c ****   dist2_to_wp = pw_x*pw_x + pw_y *pw_y;
 302:subsystems/nav.c ****   float min_dist = approaching_time * estimator_hspeed_mod;
 303:subsystems/nav.c ****   if (dist2_to_wp < min_dist*min_dist)
 304:subsystems/nav.c ****     return TRUE;
 305:subsystems/nav.c **** 
 306:subsystems/nav.c ****   float scal_prod = (x - from_x) * pw_x + (y - from_y) * pw_y;
 307:subsystems/nav.c **** 
 308:subsystems/nav.c ****   return (scal_prod < 0.);
 309:subsystems/nav.c **** }
 310:subsystems/nav.c **** 
 311:subsystems/nav.c **** 
 312:subsystems/nav.c **** /**
 313:subsystems/nav.c ****  *  \brief Computes \a desired_x, \a desired_y and \a desired_course.
 314:subsystems/nav.c ****  */
 315:subsystems/nav.c **** //static inline void fly_to_xy(float x, float y) {
 316:subsystems/nav.c **** void fly_to_xy(float x, float y) {
 317:subsystems/nav.c ****   desired_x = x;
 318:subsystems/nav.c ****   desired_y = y;
 319:subsystems/nav.c ****   if (nav_mode == NAV_MODE_COURSE) {
 320:subsystems/nav.c ****     h_ctl_course_setpoint = atan2(x - estimator_x, y - estimator_y);
 321:subsystems/nav.c ****     if (h_ctl_course_setpoint < 0.)
 322:subsystems/nav.c ****       h_ctl_course_setpoint += 2 * M_PI;
 323:subsystems/nav.c ****     lateral_mode = LATERAL_MODE_COURSE;
 324:subsystems/nav.c ****   } else {
 325:subsystems/nav.c ****     float diff = atan2(x - estimator_x, y - estimator_y) - estimator_hspeed_dir;
 326:subsystems/nav.c ****     NormRadAngle(diff);
 327:subsystems/nav.c ****     BoundAbs(diff,M_PI/2.);
 328:subsystems/nav.c ****     float s = sin(diff);
 329:subsystems/nav.c ****     h_ctl_roll_setpoint = atan(2 * estimator_hspeed_mod*estimator_hspeed_mod * s * h_ctl_course_pga
 330:subsystems/nav.c ****     BoundAbs(h_ctl_roll_setpoint, h_ctl_roll_max_setpoint);
 331:subsystems/nav.c ****     lateral_mode = LATERAL_MODE_ROLL;
 332:subsystems/nav.c ****   }
 333:subsystems/nav.c **** }
 334:subsystems/nav.c **** 
 335:subsystems/nav.c **** /**
 336:subsystems/nav.c ****  *  \brief Computes the carrot position along the desired segment.
 337:subsystems/nav.c ****  */
 338:subsystems/nav.c **** void nav_route_xy(float last_wp_x, float last_wp_y, float wp_x, float wp_y) {
 339:subsystems/nav.c ****   float leg_x = wp_x - last_wp_x;
 340:subsystems/nav.c ****   float leg_y = wp_y - last_wp_y;
 341:subsystems/nav.c ****   float leg2 = Max(leg_x * leg_x + leg_y * leg_y, 1.);
 342:subsystems/nav.c ****   nav_leg_progress = ((estimator_x - last_wp_x) * leg_x + (estimator_y - last_wp_y) * leg_y) / leg2
 343:subsystems/nav.c ****   nav_leg_length = sqrt(leg2);
 344:subsystems/nav.c **** 
 345:subsystems/nav.c ****   /** distance of carrot (in meter) */
 346:subsystems/nav.c ****   float carrot = CARROT * NOMINAL_AIRSPEED;
 347:subsystems/nav.c **** 
 348:subsystems/nav.c ****   nav_leg_progress += Max(carrot / nav_leg_length, 0.);
 349:subsystems/nav.c ****   nav_in_segment = TRUE;
 350:subsystems/nav.c ****   nav_segment_x_1 = last_wp_x;
 351:subsystems/nav.c ****   nav_segment_y_1 = last_wp_y;
 352:subsystems/nav.c ****   nav_segment_x_2 = wp_x;
 353:subsystems/nav.c ****   nav_segment_y_2 = wp_y;
 354:subsystems/nav.c ****   horizontal_mode = HORIZONTAL_MODE_ROUTE;
 355:subsystems/nav.c **** 
 356:subsystems/nav.c ****   fly_to_xy(last_wp_x + nav_leg_progress*leg_x +nav_shift*leg_y/nav_leg_length, last_wp_y + nav_leg
 357:subsystems/nav.c **** }
 358:subsystems/nav.c **** 
 359:subsystems/nav.c **** #include "subsystems/navigation/common_nav.c"
 360:subsystems/nav.c **** 
 361:subsystems/nav.c **** #ifndef FAILSAFE_HOME_RADIUS
 362:subsystems/nav.c **** #define FAILSAFE_HOME_RADIUS DEFAULT_CIRCLE_RADIUS
 363:subsystems/nav.c **** #endif
 364:subsystems/nav.c **** 
 365:subsystems/nav.c **** static void nav_set_altitude(void) {
  27              		.loc 1 365 0
  28              		.cfi_startproc
  29              		@ args = 0, pretend = 0, frame = 0
  30              		@ frame_needed = 0, uses_anonymous_args = 0
  31 0000 38B5     		push	{r3, r4, r5, lr}
  32              	.LCFI0:
  33              		.cfi_def_cfa_offset 16
  34              		.cfi_offset 14, -4
  35              		.cfi_offset 5, -8
  36              		.cfi_offset 4, -12
  37              		.cfi_offset 3, -16
 366:subsystems/nav.c ****   static float last_nav_altitude;
 367:subsystems/nav.c ****   if (fabs(nav_altitude - last_nav_altitude) > 1.) {
  38              		.loc 1 367 0
  39 0002 0A4B     		ldr	r3, .L5
  40 0004 0A4D     		ldr	r5, .L5+4
  41 0006 1C68     		ldr	r4, [r3, #0]	@ float
  42 0008 2968     		ldr	r1, [r5, #0]	@ float
  43 000a 2046     		mov	r0, r4
  44 000c FFF7FEFF 		bl	__aeabi_fsub
  45 0010 4FF07E51 		mov	r1, #1065353216
  46 0014 20F00040 		bic	r0, r0, #-2147483648
  47 0018 FFF7FEFF 		bl	__aeabi_fcmpgt
  48 001c 054B     		ldr	r3, .L5+8
  49 001e 08B1     		cbz	r0, .L2
 368:subsystems/nav.c ****     flight_altitude = nav_altitude;
  50              		.loc 1 368 0
  51 0020 1C60     		str	r4, [r3, #0]	@ float
 369:subsystems/nav.c ****     last_nav_altitude = nav_altitude;
  52              		.loc 1 369 0
  53 0022 2C60     		str	r4, [r5, #0]	@ float
  54              	.L2:
 370:subsystems/nav.c ****   }
 371:subsystems/nav.c ****   v_ctl_altitude_setpoint = flight_altitude;
  55              		.loc 1 371 0
  56 0024 1A68     		ldr	r2, [r3, #0]	@ float
  57 0026 044B     		ldr	r3, .L5+12
  58 0028 1A60     		str	r2, [r3, #0]	@ float
 372:subsystems/nav.c **** }
  59              		.loc 1 372 0
  60 002a 38BD     		pop	{r3, r4, r5, pc}
  61              	.L6:
  62              		.align	2
  63              	.L5:
  64 002c 00000000 		.word	.LANCHOR0
  65 0030 00000000 		.word	.LANCHOR1
  66 0034 00000000 		.word	.LANCHOR2
  67 0038 00000000 		.word	v_ctl_altitude_setpoint
  68              		.cfi_endproc
  69              	.LFE50:
  71              		.section	.text.nav_init_stage,"ax",%progbits
  72              		.align	1
  73              		.global	nav_init_stage
  74              		.thumb
  75              		.thumb_func
  77              	nav_init_stage:
  78              	.LFB34:
  92:subsystems/nav.c **** void nav_init_stage( void ) {
  79              		.loc 1 92 0
  80              		.cfi_startproc
  81              		@ args = 0, pretend = 0, frame = 0
  82              		@ frame_needed = 0, uses_anonymous_args = 0
  83              		@ link register save eliminated.
  93:subsystems/nav.c ****   last_x = estimator_x; last_y = estimator_y;
  84              		.loc 1 93 0
  85 0000 0B4B     		ldr	r3, .L8
  95:subsystems/nav.c ****   nav_circle_radians = 0;
  86              		.loc 1 95 0
  87 0002 0C49     		ldr	r1, .L8+4
  93:subsystems/nav.c ****   last_x = estimator_x; last_y = estimator_y;
  88              		.loc 1 93 0
  89 0004 1A68     		ldr	r2, [r3, #0]	@ float
  90 0006 0C4B     		ldr	r3, .L8+8
  91 0008 1A60     		str	r2, [r3, #0]	@ float
  92 000a 0C4B     		ldr	r3, .L8+12
  93 000c 1A68     		ldr	r2, [r3, #0]	@ float
  94 000e 0C4B     		ldr	r3, .L8+16
  95 0010 1A60     		str	r2, [r3, #0]	@ float
  94:subsystems/nav.c ****   stage_time = 0;
  96              		.loc 1 94 0
  97 0012 0C4B     		ldr	r3, .L8+20
  98 0014 0022     		movs	r2, #0
  99 0016 1A80     		strh	r2, [r3, #0]	@ movhi
  95:subsystems/nav.c ****   nav_circle_radians = 0;
 100              		.loc 1 95 0
 101 0018 0023     		movs	r3, #0
 102 001a 0B60     		str	r3, [r1, #0]	@ float
  96:subsystems/nav.c ****   nav_in_circle = FALSE;
 103              		.loc 1 96 0
 104 001c 0A49     		ldr	r1, .L8+24
 105 001e 0A70     		strb	r2, [r1, #0]
  97:subsystems/nav.c ****   nav_in_segment = FALSE;
 106              		.loc 1 97 0
 107 0020 0A49     		ldr	r1, .L8+28
 108 0022 0A70     		strb	r2, [r1, #0]
  98:subsystems/nav.c ****   nav_shift = 0;
 109              		.loc 1 98 0
 110 0024 0A4A     		ldr	r2, .L8+32
 111 0026 1360     		str	r3, [r2, #0]	@ float
  99:subsystems/nav.c ****   nav_pitch = 0.;
 112              		.loc 1 99 0
 113 0028 0A4A     		ldr	r2, .L8+36
 114 002a 1360     		str	r3, [r2, #0]	@ float
 100:subsystems/nav.c **** }
 115              		.loc 1 100 0
 116 002c 7047     		bx	lr
 117              	.L9:
 118 002e 00BF     		.align	2
 119              	.L8:
 120 0030 00000000 		.word	estimator_x
 121 0034 00000000 		.word	.LANCHOR5
 122 0038 00000000 		.word	.LANCHOR3
 123 003c 00000000 		.word	estimator_y
 124 0040 00000000 		.word	.LANCHOR4
 125 0044 00000000 		.word	stage_time
 126 0048 00000000 		.word	.LANCHOR6
 127 004c 00000000 		.word	.LANCHOR7
 128 0050 00000000 		.word	.LANCHOR8
 129 0054 00000000 		.word	.LANCHOR9
 130              		.cfi_endproc
 131              	.LFE34:
 133              		.global	__aeabi_fmul
 134              		.global	__aeabi_fadd
 135              		.global	__aeabi_fcmplt
 136              		.section	.text.nav_approaching_xy,"ax",%progbits
 137              		.align	1
 138              		.global	nav_approaching_xy
 139              		.thumb
 140              		.thumb_func
 142              	nav_approaching_xy:
 143              	.LFB40:
 295:subsystems/nav.c **** bool_t nav_approaching_xy(float x, float y, float from_x, float from_y, float approaching_time) {
 144              		.loc 1 295 0
 145              		.cfi_startproc
 146              		@ args = 4, pretend = 0, frame = 0
 147              		@ frame_needed = 0, uses_anonymous_args = 0
 148              	.LVL0:
 149 0000 2DE9F047 		push	{r4, r5, r6, r7, r8, r9, sl, lr}
 150              	.LCFI1:
 151              		.cfi_def_cfa_offset 32
 152              		.cfi_offset 14, -4
 153              		.cfi_offset 10, -8
 154              		.cfi_offset 9, -12
 155              		.cfi_offset 8, -16
 156              		.cfi_offset 7, -20
 157              		.cfi_offset 6, -24
 158              		.cfi_offset 5, -28
 159              		.cfi_offset 4, -32
 295:subsystems/nav.c **** bool_t nav_approaching_xy(float x, float y, float from_x, float from_y, float approaching_time) {
 160              		.loc 1 295 0
 161 0004 9A46     		mov	sl, r3
 297:subsystems/nav.c ****   float pw_x = x - estimator_x;
 162              		.loc 1 297 0
 163 0006 254B     		ldr	r3, .L14
 164              	.LVL1:
 295:subsystems/nav.c **** bool_t nav_approaching_xy(float x, float y, float from_x, float from_y, float approaching_time) {
 165              		.loc 1 295 0
 166 0008 0C46     		mov	r4, r1
 297:subsystems/nav.c ****   float pw_x = x - estimator_x;
 167              		.loc 1 297 0
 168 000a 1968     		ldr	r1, [r3, #0]	@ float
 169              	.LVL2:
 295:subsystems/nav.c **** bool_t nav_approaching_xy(float x, float y, float from_x, float from_y, float approaching_time) {
 170              		.loc 1 295 0
 171 000c 1646     		mov	r6, r2
 172 000e 0546     		mov	r5, r0
 297:subsystems/nav.c ****   float pw_x = x - estimator_x;
 173              		.loc 1 297 0
 174 0010 FFF7FEFF 		bl	__aeabi_fsub
 175              	.LVL3:
 299:subsystems/nav.c ****   float pw_y = y - estimator_y;
 176              		.loc 1 299 0
 177 0014 224B     		ldr	r3, .L14+4
 297:subsystems/nav.c ****   float pw_x = x - estimator_x;
 178              		.loc 1 297 0
 179 0016 8046     		mov	r8, r0
 180              	.LVL4:
 299:subsystems/nav.c ****   float pw_y = y - estimator_y;
 181              		.loc 1 299 0
 182 0018 1968     		ldr	r1, [r3, #0]	@ float
 183 001a 2046     		mov	r0, r4
 184              	.LVL5:
 185 001c FFF7FEFF 		bl	__aeabi_fsub
 301:subsystems/nav.c ****   dist2_to_wp = pw_x*pw_x + pw_y *pw_y;
 186              		.loc 1 301 0
 187 0020 4146     		mov	r1, r8
 299:subsystems/nav.c ****   float pw_y = y - estimator_y;
 188              		.loc 1 299 0
 189 0022 0746     		mov	r7, r0
 190              	.LVL6:
 301:subsystems/nav.c ****   dist2_to_wp = pw_x*pw_x + pw_y *pw_y;
 191              		.loc 1 301 0
 192 0024 4046     		mov	r0, r8
 193              	.LVL7:
 194 0026 FFF7FEFF 		bl	__aeabi_fmul
 195 002a 3946     		mov	r1, r7
 196 002c 8146     		mov	r9, r0
 197 002e 3846     		mov	r0, r7
 198 0030 FFF7FEFF 		bl	__aeabi_fmul
 199 0034 0146     		mov	r1, r0
 200 0036 4846     		mov	r0, r9
 201 0038 FFF7FEFF 		bl	__aeabi_fadd
 202 003c 194B     		ldr	r3, .L14+8
 203 003e 8146     		mov	r9, r0
 204 0040 1860     		str	r0, [r3, #0]	@ float
 302:subsystems/nav.c ****   float min_dist = approaching_time * estimator_hspeed_mod;
 205              		.loc 1 302 0
 206 0042 194B     		ldr	r3, .L14+12
 207 0044 0898     		ldr	r0, [sp, #32]	@ float
 208 0046 1968     		ldr	r1, [r3, #0]	@ float
 209 0048 FFF7FEFF 		bl	__aeabi_fmul
 210              	.LVL8:
 303:subsystems/nav.c ****   if (dist2_to_wp < min_dist*min_dist)
 211              		.loc 1 303 0
 212 004c 0146     		mov	r1, r0
 213 004e FFF7FEFF 		bl	__aeabi_fmul
 214              	.LVL9:
 215 0052 0146     		mov	r1, r0
 216 0054 4846     		mov	r0, r9
 217 0056 FFF7FEFF 		bl	__aeabi_fcmplt
 218 005a D8B9     		cbnz	r0, .L13
 219              	.LVL10:
 306:subsystems/nav.c ****   float scal_prod = (x - from_x) * pw_x + (y - from_y) * pw_y;
 220              		.loc 1 306 0
 221 005c 2846     		mov	r0, r5
 222 005e 3146     		mov	r1, r6
 223 0060 FFF7FEFF 		bl	__aeabi_fsub
 224 0064 4146     		mov	r1, r8
 225 0066 FFF7FEFF 		bl	__aeabi_fmul
 226 006a 5146     		mov	r1, sl
 227 006c 0546     		mov	r5, r0
 228              	.LVL11:
 229 006e 2046     		mov	r0, r4
 230 0070 FFF7FEFF 		bl	__aeabi_fsub
 231 0074 3946     		mov	r1, r7
 232 0076 FFF7FEFF 		bl	__aeabi_fmul
 233 007a 0146     		mov	r1, r0
 234 007c 2846     		mov	r0, r5
 235 007e FFF7FEFF 		bl	__aeabi_fadd
 308:subsystems/nav.c ****   return (scal_prod < 0.);
 236              		.loc 1 308 0
 237 0082 0021     		movs	r1, #0
 238 0084 0124     		movs	r4, #1
 239              	.LVL12:
 240 0086 FFF7FEFF 		bl	__aeabi_fcmplt
 241 008a 00B9     		cbnz	r0, .L12
 242 008c 0446     		mov	r4, r0
 243              	.L12:
 244 008e E0B2     		uxtb	r0, r4
 245 0090 BDE8F087 		pop	{r4, r5, r6, r7, r8, r9, sl, pc}
 246              	.LVL13:
 247              	.L13:
 304:subsystems/nav.c ****     return TRUE;
 248              		.loc 1 304 0
 249 0094 0120     		movs	r0, #1
 309:subsystems/nav.c **** }
 250              		.loc 1 309 0
 251 0096 BDE8F087 		pop	{r4, r5, r6, r7, r8, r9, sl, pc}
 252              	.L15:
 253 009a 00BF     		.align	2
 254              	.L14:
 255 009c 00000000 		.word	estimator_x
 256 00a0 00000000 		.word	estimator_y
 257 00a4 00000000 		.word	.LANCHOR10
 258 00a8 00000000 		.word	estimator_hspeed_mod
 259              		.cfi_endproc
 260              	.LFE40:
 262              		.global	__aeabi_f2d
 263              		.global	__aeabi_d2f
 264              		.global	__aeabi_dadd
 265              		.global	__aeabi_dsub
 266              		.global	__aeabi_dcmpgt
 267              		.global	__aeabi_dcmplt
 268              		.global	__aeabi_ddiv
 269              		.section	.text.fly_to_xy,"ax",%progbits
 270              		.align	1
 271              		.global	fly_to_xy
 272              		.thumb
 273              		.thumb_func
 275              	fly_to_xy:
 276              	.LFB41:
 316:subsystems/nav.c **** void fly_to_xy(float x, float y) {
 277              		.loc 1 316 0
 278              		.cfi_startproc
 279              		@ args = 0, pretend = 0, frame = 0
 280              		@ frame_needed = 0, uses_anonymous_args = 0
 281              	.LVL14:
 282 0000 F8B5     		push	{r3, r4, r5, r6, r7, lr}
 283              	.LCFI2:
 284              		.cfi_def_cfa_offset 24
 285              		.cfi_offset 14, -4
 286              		.cfi_offset 7, -8
 287              		.cfi_offset 6, -12
 288              		.cfi_offset 5, -16
 289              		.cfi_offset 4, -20
 290              		.cfi_offset 3, -24
 317:subsystems/nav.c ****   desired_x = x;
 291              		.loc 1 317 0
 292 0002 734B     		ldr	r3, .L40+48
 316:subsystems/nav.c **** void fly_to_xy(float x, float y) {
 293              		.loc 1 316 0
 294 0004 0E46     		mov	r6, r1
 317:subsystems/nav.c ****   desired_x = x;
 295              		.loc 1 317 0
 296 0006 1860     		str	r0, [r3, #0]	@ float
 318:subsystems/nav.c ****   desired_y = y;
 297              		.loc 1 318 0
 298 0008 724B     		ldr	r3, .L40+52
 299 000a 734F     		ldr	r7, .L40+56
 300 000c 1960     		str	r1, [r3, #0]	@ float
 319:subsystems/nav.c ****   if (nav_mode == NAV_MODE_COURSE) {
 301              		.loc 1 319 0
 302 000e 734B     		ldr	r3, .L40+60
 303 0010 1B68     		ldr	r3, [r3, #0]
 304 0012 022B     		cmp	r3, #2
 305 0014 724B     		ldr	r3, .L40+64
 320:subsystems/nav.c ****     h_ctl_course_setpoint = atan2(x - estimator_x, y - estimator_y);
 306              		.loc 1 320 0
 307 0016 1968     		ldr	r1, [r3, #0]	@ float
 308              	.LVL15:
 319:subsystems/nav.c ****   if (nav_mode == NAV_MODE_COURSE) {
 309              		.loc 1 319 0
 310 0018 27D1     		bne	.L17
 320:subsystems/nav.c ****     h_ctl_course_setpoint = atan2(x - estimator_x, y - estimator_y);
 311              		.loc 1 320 0
 312 001a FFF7FEFF 		bl	__aeabi_fsub
 313              	.LVL16:
 314 001e FFF7FEFF 		bl	__aeabi_f2d
 315 0022 0446     		mov	r4, r0
 316 0024 0D46     		mov	r5, r1
 317 0026 3046     		mov	r0, r6
 318 0028 3968     		ldr	r1, [r7, #0]	@ float
 319 002a FFF7FEFF 		bl	__aeabi_fsub
 320 002e FFF7FEFF 		bl	__aeabi_f2d
 321 0032 0246     		mov	r2, r0
 322 0034 0B46     		mov	r3, r1
 323 0036 2046     		mov	r0, r4
 324 0038 2946     		mov	r1, r5
 325 003a FFF7FEFF 		bl	atan2
 326 003e FFF7FEFF 		bl	__aeabi_d2f
 327 0042 684C     		ldr	r4, .L40+68
 321:subsystems/nav.c ****     if (h_ctl_course_setpoint < 0.)
 328              		.loc 1 321 0
 329 0044 0021     		movs	r1, #0
 330              	.LVL17:
 320:subsystems/nav.c ****     h_ctl_course_setpoint = atan2(x - estimator_x, y - estimator_y);
 331              		.loc 1 320 0
 332 0046 2060     		str	r0, [r4, #0]	@ float
 333 0048 0546     		mov	r5, r0
 334              	.LVL18:
 321:subsystems/nav.c ****     if (h_ctl_course_setpoint < 0.)
 335              		.loc 1 321 0
 336 004a FFF7FEFF 		bl	__aeabi_fcmplt
 337 004e 50B1     		cbz	r0, .L18
 322:subsystems/nav.c ****       h_ctl_course_setpoint += 2 * M_PI;
 338              		.loc 1 322 0
 339 0050 2846     		mov	r0, r5
 340              	.LVL19:
 341 0052 FFF7FEFF 		bl	__aeabi_f2d
 342 0056 52A3     		adr	r3, .L40
 343 0058 D3E90023 		ldrd	r2, [r3]
 344 005c FFF7FEFF 		bl	__aeabi_dadd
 345 0060 FFF7FEFF 		bl	__aeabi_d2f
 346 0064 2060     		str	r0, [r4, #0]	@ float
 347              	.L18:
 323:subsystems/nav.c ****     lateral_mode = LATERAL_MODE_COURSE;
 348              		.loc 1 323 0
 349 0066 0322     		movs	r2, #3
 350 0068 96E0     		b	.L39
 351              	.LVL20:
 352              	.L17:
 353              	.LBB12:
 325:subsystems/nav.c ****     float diff = atan2(x - estimator_x, y - estimator_y) - estimator_hspeed_dir;
 354              		.loc 1 325 0
 355 006a FFF7FEFF 		bl	__aeabi_fsub
 356              	.LVL21:
 357 006e FFF7FEFF 		bl	__aeabi_f2d
 358 0072 0446     		mov	r4, r0
 359 0074 0D46     		mov	r5, r1
 360 0076 3046     		mov	r0, r6
 361 0078 3968     		ldr	r1, [r7, #0]	@ float
 362 007a FFF7FEFF 		bl	__aeabi_fsub
 363 007e FFF7FEFF 		bl	__aeabi_f2d
 364 0082 0246     		mov	r2, r0
 365 0084 0B46     		mov	r3, r1
 366 0086 2046     		mov	r0, r4
 367 0088 2946     		mov	r1, r5
 368 008a FFF7FEFF 		bl	atan2
 369 008e 564B     		ldr	r3, .L40+72
 370 0090 0446     		mov	r4, r0
 371 0092 1868     		ldr	r0, [r3, #0]	@ float
 372 0094 0D46     		mov	r5, r1
 373 0096 FFF7FEFF 		bl	__aeabi_f2d
 374 009a 0246     		mov	r2, r0
 375 009c 0B46     		mov	r3, r1
 376 009e 2046     		mov	r0, r4
 377 00a0 2946     		mov	r1, r5
 378 00a2 04E0     		b	.L37
 379              	.LVL22:
 380              	.L22:
 326:subsystems/nav.c ****     NormRadAngle(diff);
 381              		.loc 1 326 0 discriminator 2
 382 00a4 3046     		mov	r0, r6
 383 00a6 3946     		mov	r1, r7
 384 00a8 3DA3     		adr	r3, .L40
 385 00aa D3E90023 		ldrd	r2, [r3]
 386              	.LVL23:
 387              	.L37:
 388 00ae FFF7FEFF 		bl	__aeabi_dsub
 389 00b2 FFF7FEFF 		bl	__aeabi_d2f
 390 00b6 0446     		mov	r4, r0
 391              	.LVL24:
 392 00b8 FFF7FEFF 		bl	__aeabi_f2d
 393              	.LVL25:
 394 00bc 3AA3     		adr	r3, .L40+8
 395 00be D3E90023 		ldrd	r2, [r3]
 396 00c2 0646     		mov	r6, r0
 397 00c4 0F46     		mov	r7, r1
 398 00c6 FFF7FEFF 		bl	__aeabi_dcmpgt
 399 00ca 0028     		cmp	r0, #0
 400 00cc EAD1     		bne	.L22
 401 00ce 09E0     		b	.L35
 402              	.L24:
 326:subsystems/nav.c ****     NormRadAngle(diff);
 403              		.loc 1 326 0 is_stmt 0 discriminator 5
 404 00d0 33A3     		adr	r3, .L40
 405 00d2 D3E90023 		ldrd	r2, [r3]
 406 00d6 3046     		mov	r0, r6
 407 00d8 3946     		mov	r1, r7
 408 00da FFF7FEFF 		bl	__aeabi_dadd
 409 00de FFF7FEFF 		bl	__aeabi_d2f
 410 00e2 0446     		mov	r4, r0
 411              	.LVL26:
 412              	.L35:
 326:subsystems/nav.c ****     NormRadAngle(diff);
 413              		.loc 1 326 0 discriminator 4
 414 00e4 2046     		mov	r0, r4
 415 00e6 FFF7FEFF 		bl	__aeabi_f2d
 416 00ea 31A3     		adr	r3, .L40+16
 417 00ec D3E90023 		ldrd	r2, [r3]
 418 00f0 0646     		mov	r6, r0
 419 00f2 0F46     		mov	r7, r1
 420 00f4 FFF7FEFF 		bl	__aeabi_dcmplt
 421 00f8 0028     		cmp	r0, #0
 422 00fa E9D1     		bne	.L24
 327:subsystems/nav.c ****     BoundAbs(diff,M_PI/2.);
 423              		.loc 1 327 0 is_stmt 1
 424 00fc 3046     		mov	r0, r6
 425 00fe 3946     		mov	r1, r7
 426 0100 2DA3     		adr	r3, .L40+24
 427 0102 D3E90023 		ldrd	r2, [r3]
 428 0106 FFF7FEFF 		bl	__aeabi_dcmpgt
 429 010a 40B9     		cbnz	r0, .L30
 327:subsystems/nav.c ****     BoundAbs(diff,M_PI/2.);
 430              		.loc 1 327 0 is_stmt 0 discriminator 2
 431 010c 3046     		mov	r0, r6
 432 010e 3946     		mov	r1, r7
 433 0110 2BA3     		adr	r3, .L40+32
 434 0112 D3E90023 		ldrd	r2, [r3]
 435 0116 FFF7FEFF 		bl	__aeabi_dcmplt
 436 011a 10B9     		cbnz	r0, .L31
 437 011c 02E0     		b	.L25
 438              	.L30:
 327:subsystems/nav.c ****     BoundAbs(diff,M_PI/2.);
 439              		.loc 1 327 0
 440 011e 334C     		ldr	r4, .L40+76
 441              	.LVL27:
 442 0120 00E0     		b	.L25
 443              	.LVL28:
 444              	.L31:
 445 0122 334C     		ldr	r4, .L40+80
 446              	.LVL29:
 447              	.L25:
 328:subsystems/nav.c ****     float s = sin(diff);
 448              		.loc 1 328 0 is_stmt 1
 449 0124 2046     		mov	r0, r4
 450 0126 FFF7FEFF 		bl	__aeabi_f2d
 451 012a FFF7FEFF 		bl	sin
 329:subsystems/nav.c ****     h_ctl_roll_setpoint = atan(2 * estimator_hspeed_mod*estimator_hspeed_mod * s * h_ctl_course_pga
 452              		.loc 1 329 0
 453 012e 314B     		ldr	r3, .L40+84
 328:subsystems/nav.c ****     float s = sin(diff);
 454              		.loc 1 328 0
 455 0130 0446     		mov	r4, r0
 456              	.LVL30:
 329:subsystems/nav.c ****     h_ctl_roll_setpoint = atan(2 * estimator_hspeed_mod*estimator_hspeed_mod * s * h_ctl_course_pga
 457              		.loc 1 329 0
 458 0132 1E68     		ldr	r6, [r3, #0]	@ float
 328:subsystems/nav.c ****     float s = sin(diff);
 459              		.loc 1 328 0
 460 0134 0D46     		mov	r5, r1
 461              	.LVL31:
 329:subsystems/nav.c ****     h_ctl_roll_setpoint = atan(2 * estimator_hspeed_mod*estimator_hspeed_mod * s * h_ctl_course_pga
 462              		.loc 1 329 0
 463 0136 3046     		mov	r0, r6
 464 0138 3146     		mov	r1, r6
 465 013a FFF7FEFF 		bl	__aeabi_fadd
 466 013e 3146     		mov	r1, r6
 467 0140 FFF7FEFF 		bl	__aeabi_fmul
 328:subsystems/nav.c ****     float s = sin(diff);
 468              		.loc 1 328 0
 469 0144 2946     		mov	r1, r5
 329:subsystems/nav.c ****     h_ctl_roll_setpoint = atan(2 * estimator_hspeed_mod*estimator_hspeed_mod * s * h_ctl_course_pga
 470              		.loc 1 329 0
 471 0146 0646     		mov	r6, r0
 328:subsystems/nav.c ****     float s = sin(diff);
 472              		.loc 1 328 0
 473 0148 2046     		mov	r0, r4
 474 014a FFF7FEFF 		bl	__aeabi_d2f
 475 014e 0146     		mov	r1, r0
 329:subsystems/nav.c ****     h_ctl_roll_setpoint = atan(2 * estimator_hspeed_mod*estimator_hspeed_mod * s * h_ctl_course_pga
 476              		.loc 1 329 0
 477 0150 3046     		mov	r0, r6
 478 0152 FFF7FEFF 		bl	__aeabi_fmul
 479 0156 284B     		ldr	r3, .L40+88
 480 0158 284C     		ldr	r4, .L40+92
 481              	.LVL32:
 482 015a 1968     		ldr	r1, [r3, #0]	@ float
 483 015c FFF7FEFF 		bl	__aeabi_fmul
 484 0160 FFF7FEFF 		bl	__aeabi_f2d
 485 0164 18A3     		adr	r3, .L40+40
 486 0166 D3E90023 		ldrd	r2, [r3]
 487 016a FFF7FEFF 		bl	__aeabi_ddiv
 488 016e FFF7FEFF 		bl	atan
 489 0172 FFF7FEFF 		bl	__aeabi_d2f
 330:subsystems/nav.c ****     BoundAbs(h_ctl_roll_setpoint, h_ctl_roll_max_setpoint);
 490              		.loc 1 330 0
 491 0176 224B     		ldr	r3, .L40+96
 492              	.LVL33:
 329:subsystems/nav.c ****     h_ctl_roll_setpoint = atan(2 * estimator_hspeed_mod*estimator_hspeed_mod * s * h_ctl_course_pga
 493              		.loc 1 329 0
 494 0178 2060     		str	r0, [r4, #0]	@ float
 330:subsystems/nav.c ****     BoundAbs(h_ctl_roll_setpoint, h_ctl_roll_max_setpoint);
 495              		.loc 1 330 0
 496 017a 1D68     		ldr	r5, [r3, #0]	@ float
 497              	.LVL34:
 329:subsystems/nav.c ****     h_ctl_roll_setpoint = atan(2 * estimator_hspeed_mod*estimator_hspeed_mod * s * h_ctl_course_pga
 498              		.loc 1 329 0
 499 017c 0646     		mov	r6, r0
 330:subsystems/nav.c ****     BoundAbs(h_ctl_roll_setpoint, h_ctl_roll_max_setpoint);
 500              		.loc 1 330 0
 501 017e 2946     		mov	r1, r5
 502              	.LVL35:
 503 0180 FFF7FEFF 		bl	__aeabi_fcmpgt
 504 0184 30B9     		cbnz	r0, .L38
 505              	.L36:
 330:subsystems/nav.c ****     BoundAbs(h_ctl_roll_setpoint, h_ctl_roll_max_setpoint);
 506              		.loc 1 330 0 is_stmt 0 discriminator 2
 507 0186 05F10045 		add	r5, r5, #-2147483648
 508              	.LVL36:
 509 018a 3046     		mov	r0, r6
 510              	.LVL37:
 511 018c 2946     		mov	r1, r5
 512 018e FFF7FEFF 		bl	__aeabi_fcmplt
 513 0192 00B1     		cbz	r0, .L28
 514              	.L38:
 330:subsystems/nav.c ****     BoundAbs(h_ctl_roll_setpoint, h_ctl_roll_max_setpoint);
 515              		.loc 1 330 0 discriminator 3
 516 0194 2560     		str	r5, [r4, #0]	@ float
 517              	.L28:
 331:subsystems/nav.c ****     lateral_mode = LATERAL_MODE_ROLL;
 518              		.loc 1 331 0 is_stmt 1
 519 0196 0222     		movs	r2, #2
 520              	.LVL38:
 521              	.L39:
 522 0198 1A4B     		ldr	r3, .L40+100
 523 019a 1A70     		strb	r2, [r3, #0]
 524 019c F8BD     		pop	{r3, r4, r5, r6, r7, pc}
 525              	.L41:
 526 019e 00BF     		.align	3
 527              	.L40:
 528 01a0 182D4454 		.word	1413754136
 529 01a4 FB211940 		.word	1075388923
 530 01a8 182D4454 		.word	1413754136
 531 01ac FB210940 		.word	1074340347
 532 01b0 182D4454 		.word	1413754136
 533 01b4 FB2109C0 		.word	-1073143301
 534 01b8 182D4454 		.word	1413754136
 535 01bc FB21F93F 		.word	1073291771
 536 01c0 182D4454 		.word	1413754136
 537 01c4 FB21F9BF 		.word	-1074191877
 538 01c8 00000000 		.word	0
 539 01cc 00FE8640 		.word	1082588672
 540 01d0 00000000 		.word	.LANCHOR11
 541 01d4 00000000 		.word	.LANCHOR12
 542 01d8 00000000 		.word	estimator_y
 543 01dc 00000000 		.word	.LANCHOR13
 544 01e0 00000000 		.word	estimator_x
 545 01e4 00000000 		.word	h_ctl_course_setpoint
 546 01e8 00000000 		.word	estimator_hspeed_dir
 547 01ec DB0FC93F 		.word	1070141403
 548 01f0 DB0FC9BF 		.word	-1077342245
 549 01f4 00000000 		.word	estimator_hspeed_mod
 550 01f8 00000000 		.word	h_ctl_course_pgain
 551 01fc 00000000 		.word	h_ctl_roll_setpoint
 552 0200 00000000 		.word	h_ctl_roll_max_setpoint
 553 0204 00000000 		.word	lateral_mode
 554              	.LBE12:
 555              		.cfi_endproc
 556              	.LFE41:
 558              		.global	__aeabi_dmul
 559              		.global	__aeabi_fdiv
 560              		.section	.text.nav_circle_XY,"ax",%progbits
 561              		.align	1
 562              		.global	nav_circle_XY
 563              		.thumb
 564              		.thumb_func
 566              	nav_circle_XY:
 567              	.LFB35:
 109:subsystems/nav.c **** void nav_circle_XY(float x, float y, float radius) {
 568              		.loc 1 109 0
 569              		.cfi_startproc
 570              		@ args = 0, pretend = 0, frame = 24
 571              		@ frame_needed = 0, uses_anonymous_args = 0
 572              	.LVL39:
 573 0000 2DE9F04F 		push	{r4, r5, r6, r7, r8, r9, sl, fp, lr}
 574              	.LCFI3:
 575              		.cfi_def_cfa_offset 36
 576              		.cfi_offset 14, -4
 577              		.cfi_offset 11, -8
 578              		.cfi_offset 10, -12
 579              		.cfi_offset 9, -16
 580              		.cfi_offset 8, -20
 581              		.cfi_offset 7, -24
 582              		.cfi_offset 6, -28
 583              		.cfi_offset 5, -32
 584              		.cfi_offset 4, -36
 111:subsystems/nav.c ****   nav_circle_trigo_qdr = atan2(estimator_y - y, estimator_x - x);
 585              		.loc 1 111 0
 586 0004 6A4B     		ldr	r3, .L64+32
 109:subsystems/nav.c **** void nav_circle_XY(float x, float y, float radius) {
 587              		.loc 1 109 0
 588 0006 87B0     		sub	sp, sp, #28
 589              	.LCFI4:
 590              		.cfi_def_cfa_offset 64
 109:subsystems/nav.c **** void nav_circle_XY(float x, float y, float radius) {
 591              		.loc 1 109 0
 592 0008 8346     		mov	fp, r0
 111:subsystems/nav.c ****   nav_circle_trigo_qdr = atan2(estimator_y - y, estimator_x - x);
 593              		.loc 1 111 0
 594 000a 1868     		ldr	r0, [r3, #0]	@ float
 595              	.LVL40:
 109:subsystems/nav.c **** void nav_circle_XY(float x, float y, float radius) {
 596              		.loc 1 109 0
 597 000c 1546     		mov	r5, r2
 598 000e 0391     		str	r1, [sp, #12]	@ float
 111:subsystems/nav.c ****   nav_circle_trigo_qdr = atan2(estimator_y - y, estimator_x - x);
 599              		.loc 1 111 0
 600 0010 FFF7FEFF 		bl	__aeabi_fsub
 601              	.LVL41:
 602 0014 FFF7FEFF 		bl	__aeabi_f2d
 603 0018 664B     		ldr	r3, .L64+36
 604 001a 8046     		mov	r8, r0
 605 001c 8946     		mov	r9, r1
 606 001e 1868     		ldr	r0, [r3, #0]	@ float
 607 0020 5946     		mov	r1, fp
 608 0022 FFF7FEFF 		bl	__aeabi_fsub
 609 0026 FFF7FEFF 		bl	__aeabi_f2d
 110:subsystems/nav.c ****   float last_trigo_qdr = nav_circle_trigo_qdr;
 610              		.loc 1 110 0
 611 002a 634C     		ldr	r4, .L64+40
 111:subsystems/nav.c ****   nav_circle_trigo_qdr = atan2(estimator_y - y, estimator_x - x);
 612              		.loc 1 111 0
 613 002c 0B46     		mov	r3, r1
 614 002e 0246     		mov	r2, r0
 615 0030 4946     		mov	r1, r9
 616 0032 4046     		mov	r0, r8
 110:subsystems/nav.c ****   float last_trigo_qdr = nav_circle_trigo_qdr;
 617              		.loc 1 110 0
 618 0034 2668     		ldr	r6, [r4, #0]	@ float
 619              	.LVL42:
 111:subsystems/nav.c ****   nav_circle_trigo_qdr = atan2(estimator_y - y, estimator_x - x);
 620              		.loc 1 111 0
 621 0036 FFF7FEFF 		bl	atan2
 622              	.LVL43:
 623 003a FFF7FEFF 		bl	__aeabi_d2f
 113:subsystems/nav.c ****   if (nav_in_circle) {
 624              		.loc 1 113 0
 625 003e 5F4B     		ldr	r3, .L64+44
 111:subsystems/nav.c ****   nav_circle_trigo_qdr = atan2(estimator_y - y, estimator_x - x);
 626              		.loc 1 111 0
 627 0040 0746     		mov	r7, r0
 113:subsystems/nav.c ****   if (nav_in_circle) {
 628              		.loc 1 113 0
 629 0042 1B78     		ldrb	r3, [r3, #0]	@ zero_extendqisi2
 111:subsystems/nav.c ****   nav_circle_trigo_qdr = atan2(estimator_y - y, estimator_x - x);
 630              		.loc 1 111 0
 631 0044 2060     		str	r0, [r4, #0]	@ float
 113:subsystems/nav.c ****   if (nav_in_circle) {
 632              		.loc 1 113 0
 633 0046 002B     		cmp	r3, #0
 634 0048 35D0     		beq	.L43
 635              	.LBB13:
 114:subsystems/nav.c ****     float trigo_diff = nav_circle_trigo_qdr - last_trigo_qdr;
 636              		.loc 1 114 0
 637 004a 3146     		mov	r1, r6
 638 004c FFF7FEFF 		bl	__aeabi_fsub
 639 0050 08E0     		b	.L63
 640              	.LVL44:
 641              	.L45:
 115:subsystems/nav.c ****     NormRadAngle(trigo_diff);
 642              		.loc 1 115 0 discriminator 2
 643 0052 4FA3     		adr	r3, .L64
 644 0054 D3E90023 		ldrd	r2, [r3]
 645 0058 4046     		mov	r0, r8
 646 005a 4946     		mov	r1, r9
 647 005c FFF7FEFF 		bl	__aeabi_dsub
 648 0060 FFF7FEFF 		bl	__aeabi_d2f
 649              	.LVL45:
 650              	.L63:
 651 0064 0446     		mov	r4, r0
 652              	.LVL46:
 653 0066 FFF7FEFF 		bl	__aeabi_f2d
 654              	.LVL47:
 655 006a 4BA3     		adr	r3, .L64+8
 656 006c D3E90023 		ldrd	r2, [r3]
 657 0070 8046     		mov	r8, r0
 658 0072 8946     		mov	r9, r1
 659 0074 FFF7FEFF 		bl	__aeabi_dcmpgt
 660 0078 0028     		cmp	r0, #0
 661 007a EAD1     		bne	.L45
 662 007c 09E0     		b	.L61
 663              	.L47:
 115:subsystems/nav.c ****     NormRadAngle(trigo_diff);
 664              		.loc 1 115 0 is_stmt 0 discriminator 5
 665 007e 44A3     		adr	r3, .L64
 666 0080 D3E90023 		ldrd	r2, [r3]
 667 0084 4046     		mov	r0, r8
 668 0086 4946     		mov	r1, r9
 669 0088 FFF7FEFF 		bl	__aeabi_dadd
 670 008c FFF7FEFF 		bl	__aeabi_d2f
 671 0090 0446     		mov	r4, r0
 672              	.LVL48:
 673              	.L61:
 115:subsystems/nav.c ****     NormRadAngle(trigo_diff);
 674              		.loc 1 115 0 discriminator 4
 675 0092 2046     		mov	r0, r4
 676 0094 FFF7FEFF 		bl	__aeabi_f2d
 677 0098 41A3     		adr	r3, .L64+16
 678 009a D3E90023 		ldrd	r2, [r3]
 679 009e 8046     		mov	r8, r0
 680 00a0 8946     		mov	r9, r1
 681 00a2 FFF7FEFF 		bl	__aeabi_dcmplt
 682 00a6 0028     		cmp	r0, #0
 683 00a8 E9D1     		bne	.L47
 116:subsystems/nav.c ****     nav_circle_radians += trigo_diff;
 684              		.loc 1 116 0 is_stmt 1
 685 00aa 454E     		ldr	r6, .L64+48
 686              	.LVL49:
 687 00ac 2146     		mov	r1, r4
 688 00ae 3068     		ldr	r0, [r6, #0]	@ float
 689 00b0 FFF7FEFF 		bl	__aeabi_fadd
 690 00b4 3060     		str	r0, [r6, #0]	@ float
 691              	.LVL50:
 692              	.L43:
 693              	.LBE13:
 119:subsystems/nav.c ****   float dist2_center = DistanceSquare(estimator_x, estimator_y, x, y);
 694              		.loc 1 119 0
 695 00b6 3F4B     		ldr	r3, .L64+36
 696 00b8 5946     		mov	r1, fp
 697 00ba 1868     		ldr	r0, [r3, #0]	@ float
 698 00bc FFF7FEFF 		bl	__aeabi_fsub
 699 00c0 3B4B     		ldr	r3, .L64+32
 700 00c2 0446     		mov	r4, r0
 701 00c4 0399     		ldr	r1, [sp, #12]	@ float
 702 00c6 1868     		ldr	r0, [r3, #0]	@ float
 703 00c8 FFF7FEFF 		bl	__aeabi_fsub
 704 00cc 2146     		mov	r1, r4
 705 00ce 0646     		mov	r6, r0
 706 00d0 2046     		mov	r0, r4
 707 00d2 FFF7FEFF 		bl	__aeabi_fmul
 708 00d6 3146     		mov	r1, r6
 709 00d8 0446     		mov	r4, r0
 710 00da 3046     		mov	r0, r6
 711 00dc FFF7FEFF 		bl	__aeabi_fmul
 712 00e0 0146     		mov	r1, r0
 713 00e2 2046     		mov	r0, r4
 714 00e4 FFF7FEFF 		bl	__aeabi_fadd
 121:subsystems/nav.c ****   float sign_radius = radius > 0 ? 1 : -1;
 715              		.loc 1 121 0
 716 00e8 0021     		movs	r1, #0
 119:subsystems/nav.c ****   float dist2_center = DistanceSquare(estimator_x, estimator_y, x, y);
 717              		.loc 1 119 0
 718 00ea 8046     		mov	r8, r0
 719              	.LVL51:
 121:subsystems/nav.c ****   float sign_radius = radius > 0 ? 1 : -1;
 720              		.loc 1 121 0
 721 00ec 2846     		mov	r0, r5
 722              	.LVL52:
 723 00ee FFF7FEFF 		bl	__aeabi_fcmpgt
 724 00f2 10B1     		cbz	r0, .L62
 725 00f4 4FF07E56 		mov	r6, #1065353216
 726 00f8 00E0     		b	.L48
 727              	.L62:
 728 00fa 324E     		ldr	r6, .L64+52
 729              	.L48:
 730              	.LVL53:
 123:subsystems/nav.c ****   radius += -nav_shift;
 731              		.loc 1 123 0 discriminator 3
 732 00fc 324B     		ldr	r3, .L64+56
 733 00fe 2846     		mov	r0, r5
 734 0100 1968     		ldr	r1, [r3, #0]	@ float
 735 0102 FFF7FEFF 		bl	__aeabi_fsub
 125:subsystems/nav.c ****   float abs_radius = fabs(radius);
 736              		.loc 1 125 0 discriminator 3
 737 0106 20F00044 		bic	r4, r0, #-2147483648
 129:subsystems/nav.c ****     (dist2_center > Square(abs_radius + dist_carrot)
 738              		.loc 1 129 0 discriminator 3
 739 010a 3049     		ldr	r1, .L64+60
 123:subsystems/nav.c ****   radius += -nav_shift;
 740              		.loc 1 123 0 discriminator 3
 741 010c 8246     		mov	sl, r0
 742              	.LVL54:
 129:subsystems/nav.c ****     (dist2_center > Square(abs_radius + dist_carrot)
 743              		.loc 1 129 0 discriminator 3
 744 010e 2046     		mov	r0, r4
 745              	.LVL55:
 746 0110 FFF7FEFF 		bl	__aeabi_fadd
 747 0114 0146     		mov	r1, r0
 748 0116 FFF7FEFF 		bl	__aeabi_fmul
 749 011a 0146     		mov	r1, r0
 750 011c 4046     		mov	r0, r8
 751 011e 4FF00109 		mov	r9, #1
 752 0122 FFF7FEFF 		bl	__aeabi_fcmpgt
 753 0126 08B9     		cbnz	r0, .L51
 754 0128 4FF00009 		mov	r9, #0
 755              	.L51:
 128:subsystems/nav.c ****   circle_bank =
 756              		.loc 1 128 0 discriminator 3
 757 012c 5FFA89F9 		uxtb	r9, r9
 758 0130 B9F1000F 		cmp	r9, #0
 759 0134 4ED1     		bne	.L58
 130:subsystems/nav.c ****       || dist2_center < Square(abs_radius - dist_carrot)) ?
 760              		.loc 1 130 0
 761 0136 2549     		ldr	r1, .L64+60
 762 0138 2046     		mov	r0, r4
 763 013a FFF7FEFF 		bl	__aeabi_fsub
 764 013e 0146     		mov	r1, r0
 765 0140 FFF7FEFF 		bl	__aeabi_fmul
 766 0144 0146     		mov	r1, r0
 767 0146 4046     		mov	r0, r8
 768 0148 0125     		movs	r5, #1
 769 014a FFF7FEFF 		bl	__aeabi_fcmplt
 770 014e 00B9     		cbnz	r0, .L52
 771 0150 4D46     		mov	r5, r9
 772              	.L52:
 131:subsystems/nav.c ****     0 :
 773              		.loc 1 131 0
 774 0152 15F0FF0F 		tst	r5, #255
 775 0156 3DD1     		bne	.L58
 132:subsystems/nav.c ****     atan(estimator_hspeed_mod*estimator_hspeed_mod / (G*radius));
 776              		.loc 1 132 0
 777 0158 1D4B     		ldr	r3, .L64+64
 778 015a 1868     		ldr	r0, [r3, #0]	@ float
 779 015c 0146     		mov	r1, r0
 780 015e FFF7FEFF 		bl	__aeabi_fmul
 781 0162 FFF7FEFF 		bl	__aeabi_f2d
 782 0166 8046     		mov	r8, r0
 783              	.LVL56:
 784 0168 5046     		mov	r0, sl
 785 016a 8946     		mov	r9, r1
 786 016c FFF7FEFF 		bl	__aeabi_f2d
 787 0170 0DA3     		adr	r3, .L64+24
 788 0172 D3E90023 		ldrd	r2, [r3]
 789 0176 FFF7FEFF 		bl	__aeabi_dmul
 790 017a 0246     		mov	r2, r0
 791 017c 0B46     		mov	r3, r1
 792 017e 4046     		mov	r0, r8
 793 0180 4946     		mov	r1, r9
 794 0182 FFF7FEFF 		bl	__aeabi_ddiv
 795 0186 FFF7FEFF 		bl	atan
 128:subsystems/nav.c ****   circle_bank =
 796              		.loc 1 128 0
 797 018a FFF7FEFF 		bl	__aeabi_d2f
 798 018e 22E0     		b	.L50
 799              	.L65:
 800              		.align	3
 801              	.L64:
 802 0190 182D4454 		.word	1413754136
 803 0194 FB211940 		.word	1075388923
 804 0198 182D4454 		.word	1413754136
 805 019c FB210940 		.word	1074340347
 806 01a0 182D4454 		.word	1413754136
 807 01a4 FB2109C0 		.word	-1073143301
 808 01a8 E9263108 		.word	137438953
 809 01ac AC9C2340 		.word	1076075692
 810 01b0 00000000 		.word	estimator_y
 811 01b4 00000000 		.word	estimator_x
 812 01b8 00000000 		.word	.LANCHOR14
 813 01bc 00000000 		.word	.LANCHOR6
 814 01c0 00000000 		.word	.LANCHOR5
 815 01c4 000080BF 		.word	-1082130432
 816 01c8 00000000 		.word	.LANCHOR8
 817 01cc 00009642 		.word	1117126656
 818 01d0 00000000 		.word	estimator_hspeed_mod
 819              	.LVL57:
 820              	.L58:
 821 01d4 0020     		movs	r0, #0
 822              	.LVL58:
 823              	.L50:
 128:subsystems/nav.c ****   circle_bank =
 824              		.loc 1 128 0 is_stmt 0 discriminator 2
 825 01d6 504B     		ldr	r3, .L66+16
 134:subsystems/nav.c ****   float carrot_angle = dist_carrot / abs_radius;
 826              		.loc 1 134 0 is_stmt 1 discriminator 2
 827 01d8 2146     		mov	r1, r4
 128:subsystems/nav.c ****   circle_bank =
 828              		.loc 1 128 0 discriminator 2
 829 01da 1860     		str	r0, [r3, #0]	@ float
 134:subsystems/nav.c ****   float carrot_angle = dist_carrot / abs_radius;
 830              		.loc 1 134 0 discriminator 2
 831 01dc 4F48     		ldr	r0, .L66+20
 832 01de FFF7FEFF 		bl	__aeabi_fdiv
 833 01e2 0546     		mov	r5, r0
 834              	.LVL59:
 135:subsystems/nav.c ****   carrot_angle = Min(carrot_angle, M_PI/4);
 835              		.loc 1 135 0 discriminator 2
 836 01e4 FFF7FEFF 		bl	__aeabi_f2d
 837              	.LVL60:
 838 01e8 47A3     		adr	r3, .L66
 839 01ea D3E90023 		ldrd	r2, [r3]
 840 01ee FFF7FEFF 		bl	__aeabi_dcmplt
 841 01f2 00B9     		cbnz	r0, .L53
 135:subsystems/nav.c ****   carrot_angle = Min(carrot_angle, M_PI/4);
 842              		.loc 1 135 0 is_stmt 0
 843 01f4 4A4D     		ldr	r5, .L66+24
 844              	.LVL61:
 845              	.L53:
 136:subsystems/nav.c ****   carrot_angle = Max(carrot_angle, M_PI/16);
 846              		.loc 1 136 0 is_stmt 1 discriminator 3
 847 01f6 2846     		mov	r0, r5
 848 01f8 FFF7FEFF 		bl	__aeabi_f2d
 849 01fc 44A3     		adr	r3, .L66+8
 850 01fe D3E90023 		ldrd	r2, [r3]
 851 0202 FFF7FEFF 		bl	__aeabi_dcmpgt
 852 0206 00B9     		cbnz	r0, .L54
 136:subsystems/nav.c ****   carrot_angle = Max(carrot_angle, M_PI/16);
 853              		.loc 1 136 0 is_stmt 0
 854 0208 464D     		ldr	r5, .L66+28
 855              	.LVL62:
 856              	.L54:
 137:subsystems/nav.c ****   float alpha_carrot = nav_circle_trigo_qdr - sign_radius * carrot_angle;
 857              		.loc 1 137 0 is_stmt 1 discriminator 3
 858 020a 3046     		mov	r0, r6
 859 020c 2946     		mov	r1, r5
 860 020e FFF7FEFF 		bl	__aeabi_fmul
 861 0212 0146     		mov	r1, r0
 862 0214 3846     		mov	r0, r7
 863 0216 FFF7FEFF 		bl	__aeabi_fsub
 138:subsystems/nav.c ****   horizontal_mode = HORIZONTAL_MODE_CIRCLE;
 864              		.loc 1 138 0 discriminator 3
 865 021a 434B     		ldr	r3, .L66+32
 866 021c 0222     		movs	r2, #2
 867 021e 1A70     		strb	r2, [r3, #0]
 140:subsystems/nav.c ****   if (nav_mode == NAV_MODE_COURSE)
 868              		.loc 1 140 0 discriminator 3
 869 0220 424B     		ldr	r3, .L66+36
 137:subsystems/nav.c ****   float alpha_carrot = nav_circle_trigo_qdr - sign_radius * carrot_angle;
 870              		.loc 1 137 0 discriminator 3
 871 0222 0646     		mov	r6, r0
 872              	.LVL63:
 140:subsystems/nav.c ****   if (nav_mode == NAV_MODE_COURSE)
 873              		.loc 1 140 0 discriminator 3
 874 0224 1B68     		ldr	r3, [r3, #0]
 875 0226 9342     		cmp	r3, r2
 876 0228 1CD1     		bne	.L55
 141:subsystems/nav.c ****     radius_carrot += (abs_radius / cos(carrot_angle) - abs_radius);
 877              		.loc 1 141 0
 878 022a 2046     		mov	r0, r4
 879              	.LVL64:
 880 022c FFF7FEFF 		bl	__aeabi_f2d
 881 0230 8046     		mov	r8, r0
 882 0232 2846     		mov	r0, r5
 883 0234 8946     		mov	r9, r1
 884 0236 FFF7FEFF 		bl	__aeabi_f2d
 885 023a FFF7FEFF 		bl	cos
 886 023e 0246     		mov	r2, r0
 887 0240 0B46     		mov	r3, r1
 888 0242 4046     		mov	r0, r8
 889 0244 4946     		mov	r1, r9
 890 0246 FFF7FEFF 		bl	__aeabi_ddiv
 891 024a 4246     		mov	r2, r8
 892 024c 4B46     		mov	r3, r9
 893 024e FFF7FEFF 		bl	__aeabi_dsub
 894 0252 0246     		mov	r2, r0
 895 0254 0B46     		mov	r3, r1
 896 0256 4046     		mov	r0, r8
 897 0258 4946     		mov	r1, r9
 898 025a FFF7FEFF 		bl	__aeabi_dadd
 899 025e FFF7FEFF 		bl	__aeabi_d2f
 900 0262 0446     		mov	r4, r0
 901              	.LVL65:
 902              	.L55:
 142:subsystems/nav.c ****   fly_to_xy(x+cos(alpha_carrot)*radius_carrot,
 903              		.loc 1 142 0
 904 0264 3046     		mov	r0, r6
 905 0266 FFF7FEFF 		bl	__aeabi_f2d
 906 026a 0646     		mov	r6, r0
 907              	.LVL66:
 908 026c 0F46     		mov	r7, r1
 909 026e FFF7FEFF 		bl	cos
 910 0272 0246     		mov	r2, r0
 911 0274 2046     		mov	r0, r4
 912 0276 0292     		str	r2, [sp, #8]
 913 0278 0191     		str	r1, [sp, #4]
 914 027a FFF7FEFF 		bl	__aeabi_f2d
 915 027e 8046     		mov	r8, r0
 916 0280 8946     		mov	r9, r1
 143:subsystems/nav.c **** 	    y+sin(alpha_carrot)*radius_carrot);
 917              		.loc 1 143 0
 918 0282 3046     		mov	r0, r6
 919 0284 3946     		mov	r1, r7
 920 0286 FFF7FEFF 		bl	sin
 921 028a CDE90401 		strd	r0, [sp, #16]
 142:subsystems/nav.c ****   fly_to_xy(x+cos(alpha_carrot)*radius_carrot,
 922              		.loc 1 142 0
 923 028e 5846     		mov	r0, fp
 924 0290 FFF7FEFF 		bl	__aeabi_f2d
 925 0294 029A     		ldr	r2, [sp, #8]
 926 0296 019B     		ldr	r3, [sp, #4]
 927 0298 0446     		mov	r4, r0
 928              	.LVL67:
 929 029a 0D46     		mov	r5, r1
 930              	.LVL68:
 931 029c 1046     		mov	r0, r2
 932 029e 1946     		mov	r1, r3
 933 02a0 4246     		mov	r2, r8
 934 02a2 4B46     		mov	r3, r9
 935 02a4 FFF7FEFF 		bl	__aeabi_dmul
 936 02a8 0246     		mov	r2, r0
 937 02aa 0B46     		mov	r3, r1
 938 02ac 2046     		mov	r0, r4
 939 02ae 2946     		mov	r1, r5
 940 02b0 FFF7FEFF 		bl	__aeabi_dadd
 941 02b4 FFF7FEFF 		bl	__aeabi_d2f
 942 02b8 0446     		mov	r4, r0
 143:subsystems/nav.c **** 	    y+sin(alpha_carrot)*radius_carrot);
 943              		.loc 1 143 0
 944 02ba 0398     		ldr	r0, [sp, #12]	@ float
 945 02bc FFF7FEFF 		bl	__aeabi_f2d
 946 02c0 4246     		mov	r2, r8
 947 02c2 0646     		mov	r6, r0
 948 02c4 0F46     		mov	r7, r1
 949 02c6 4B46     		mov	r3, r9
 950 02c8 DDE90401 		ldrd	r0, [sp, #16]
 951 02cc FFF7FEFF 		bl	__aeabi_dmul
 952 02d0 0246     		mov	r2, r0
 953 02d2 0B46     		mov	r3, r1
 954 02d4 3046     		mov	r0, r6
 955 02d6 3946     		mov	r1, r7
 956 02d8 FFF7FEFF 		bl	__aeabi_dadd
 142:subsystems/nav.c ****   fly_to_xy(x+cos(alpha_carrot)*radius_carrot,
 957              		.loc 1 142 0
 958 02dc FFF7FEFF 		bl	__aeabi_d2f
 959 02e0 0146     		mov	r1, r0
 960 02e2 2046     		mov	r0, r4
 961 02e4 FFF7FEFF 		bl	fly_to_xy
 144:subsystems/nav.c ****   nav_in_circle = TRUE;
 962              		.loc 1 144 0
 963 02e8 114B     		ldr	r3, .L66+40
 964 02ea 0122     		movs	r2, #1
 965 02ec 1A70     		strb	r2, [r3, #0]
 145:subsystems/nav.c ****   nav_circle_x = x;
 966              		.loc 1 145 0
 967 02ee 114B     		ldr	r3, .L66+44
 146:subsystems/nav.c ****   nav_circle_y = y;
 968              		.loc 1 146 0
 969 02f0 039A     		ldr	r2, [sp, #12]	@ float
 145:subsystems/nav.c ****   nav_circle_x = x;
 970              		.loc 1 145 0
 971 02f2 C3F800B0 		str	fp, [r3, #0]	@ float
 146:subsystems/nav.c ****   nav_circle_y = y;
 972              		.loc 1 146 0
 973 02f6 104B     		ldr	r3, .L66+48
 974 02f8 1A60     		str	r2, [r3, #0]	@ float
 147:subsystems/nav.c ****   nav_circle_radius = radius;
 975              		.loc 1 147 0
 976 02fa 104B     		ldr	r3, .L66+52
 977 02fc C3F800A0 		str	sl, [r3, #0]	@ float
 148:subsystems/nav.c **** }
 978              		.loc 1 148 0
 979 0300 07B0     		add	sp, sp, #28
 980 0302 BDE8F08F 		pop	{r4, r5, r6, r7, r8, r9, sl, fp, pc}
 981              	.L67:
 982 0306 00BF     		.align	3
 983              	.L66:
 984 0308 182D4454 		.word	1413754136
 985 030c FB21E93F 		.word	1072243195
 986 0310 182D4454 		.word	1413754136
 987 0314 FB21C93F 		.word	1070146043
 988 0318 00000000 		.word	.LANCHOR15
 989 031c 00009642 		.word	1117126656
 990 0320 DB0F493F 		.word	1061752795
 991 0324 DB0F493E 		.word	1044975579
 992 0328 00000000 		.word	.LANCHOR16
 993 032c 00000000 		.word	.LANCHOR13
 994 0330 00000000 		.word	.LANCHOR6
 995 0334 00000000 		.word	.LANCHOR17
 996 0338 00000000 		.word	.LANCHOR18
 997 033c 00000000 		.word	.LANCHOR19
 998              		.cfi_endproc
 999              	.LFE35:
 1001              		.section	.text.nav_route_xy,"ax",%progbits
 1002              		.align	1
 1003              		.global	nav_route_xy
 1004              		.thumb
 1005              		.thumb_func
 1007              	nav_route_xy:
 1008              	.LFB42:
 338:subsystems/nav.c **** void nav_route_xy(float last_wp_x, float last_wp_y, float wp_x, float wp_y) {
 1009              		.loc 1 338 0
 1010              		.cfi_startproc
 1011              		@ args = 0, pretend = 0, frame = 8
 1012              		@ frame_needed = 0, uses_anonymous_args = 0
 1013              	.LVL69:
 1014 0000 2DE9F74F 		push	{r0, r1, r2, r4, r5, r6, r7, r8, r9, sl, fp, lr}
 1015              	.LCFI5:
 1016              		.cfi_def_cfa_offset 48
 1017              		.cfi_offset 14, -4
 1018              		.cfi_offset 11, -8
 1019              		.cfi_offset 10, -12
 1020              		.cfi_offset 9, -16
 1021              		.cfi_offset 8, -20
 1022              		.cfi_offset 7, -24
 1023              		.cfi_offset 6, -28
 1024              		.cfi_offset 5, -32
 1025              		.cfi_offset 4, -36
 1026              		.cfi_offset 2, -40
 1027              		.cfi_offset 1, -44
 1028              		.cfi_offset 0, -48
 338:subsystems/nav.c **** void nav_route_xy(float last_wp_x, float last_wp_y, float wp_x, float wp_y) {
 1029              		.loc 1 338 0
 1030 0004 0646     		mov	r6, r0
 1031 0006 0F46     		mov	r7, r1
 339:subsystems/nav.c ****   float leg_x = wp_x - last_wp_x;
 1032              		.loc 1 339 0
 1033 0008 1046     		mov	r0, r2
 1034              	.LVL70:
 1035 000a 3146     		mov	r1, r6
 1036              	.LVL71:
 338:subsystems/nav.c **** void nav_route_xy(float last_wp_x, float last_wp_y, float wp_x, float wp_y) {
 1037              		.loc 1 338 0
 1038 000c 9A46     		mov	sl, r3
 1039 000e 9146     		mov	r9, r2
 339:subsystems/nav.c ****   float leg_x = wp_x - last_wp_x;
 1040              		.loc 1 339 0
 1041 0010 FFF7FEFF 		bl	__aeabi_fsub
 1042              	.LVL72:
 340:subsystems/nav.c ****   float leg_y = wp_y - last_wp_y;
 1043              		.loc 1 340 0
 1044 0014 3946     		mov	r1, r7
 339:subsystems/nav.c ****   float leg_x = wp_x - last_wp_x;
 1045              		.loc 1 339 0
 1046 0016 0546     		mov	r5, r0
 1047              	.LVL73:
 340:subsystems/nav.c ****   float leg_y = wp_y - last_wp_y;
 1048              		.loc 1 340 0
 1049 0018 5046     		mov	r0, sl
 1050              	.LVL74:
 1051 001a FFF7FEFF 		bl	__aeabi_fsub
 341:subsystems/nav.c ****   float leg2 = Max(leg_x * leg_x + leg_y * leg_y, 1.);
 1052              		.loc 1 341 0
 1053 001e 2946     		mov	r1, r5
 340:subsystems/nav.c ****   float leg_y = wp_y - last_wp_y;
 1054              		.loc 1 340 0
 1055 0020 0446     		mov	r4, r0
 1056              	.LVL75:
 341:subsystems/nav.c ****   float leg2 = Max(leg_x * leg_x + leg_y * leg_y, 1.);
 1057              		.loc 1 341 0
 1058 0022 2846     		mov	r0, r5
 1059              	.LVL76:
 1060 0024 FFF7FEFF 		bl	__aeabi_fmul
 1061 0028 2146     		mov	r1, r4
 1062 002a 8046     		mov	r8, r0
 1063 002c 2046     		mov	r0, r4
 1064 002e FFF7FEFF 		bl	__aeabi_fmul
 1065 0032 0146     		mov	r1, r0
 1066 0034 4046     		mov	r0, r8
 1067 0036 FFF7FEFF 		bl	__aeabi_fadd
 1068 003a 4FF07E51 		mov	r1, #1065353216
 1069 003e 8046     		mov	r8, r0
 1070 0040 FFF7FEFF 		bl	__aeabi_fcmpgt
 1071 0044 08B9     		cbnz	r0, .L69
 1072 0046 4FF07E58 		mov	r8, #1065353216
 1073              	.L69:
 1074              	.LVL77:
 342:subsystems/nav.c ****   nav_leg_progress = ((estimator_x - last_wp_x) * leg_x + (estimator_y - last_wp_y) * leg_y) / leg2
 1075              		.loc 1 342 0 discriminator 3
 1076 004a 414B     		ldr	r3, .L75
 1077 004c 3146     		mov	r1, r6
 1078 004e 1868     		ldr	r0, [r3, #0]	@ float
 1079 0050 FFF7FEFF 		bl	__aeabi_fsub
 1080 0054 2946     		mov	r1, r5
 1081 0056 FFF7FEFF 		bl	__aeabi_fmul
 1082 005a 3E4B     		ldr	r3, .L75+4
 1083 005c 8346     		mov	fp, r0
 1084 005e 3946     		mov	r1, r7
 1085 0060 1868     		ldr	r0, [r3, #0]	@ float
 1086 0062 FFF7FEFF 		bl	__aeabi_fsub
 1087 0066 2146     		mov	r1, r4
 1088 0068 FFF7FEFF 		bl	__aeabi_fmul
 1089 006c 0146     		mov	r1, r0
 1090 006e 5846     		mov	r0, fp
 1091 0070 FFF7FEFF 		bl	__aeabi_fadd
 1092 0074 4146     		mov	r1, r8
 1093 0076 FFF7FEFF 		bl	__aeabi_fdiv
 1094 007a 8346     		mov	fp, r0
 343:subsystems/nav.c ****   nav_leg_length = sqrt(leg2);
 1095              		.loc 1 343 0 discriminator 3
 1096 007c 4046     		mov	r0, r8
 1097 007e FFF7FEFF 		bl	__aeabi_f2d
 1098 0082 FFF7FEFF 		bl	sqrt
 1099 0086 FFF7FEFF 		bl	__aeabi_d2f
 1100 008a 334B     		ldr	r3, .L75+8
 1101 008c 8046     		mov	r8, r0
 1102              	.LVL78:
 1103 008e 1860     		str	r0, [r3, #0]	@ float
 1104              	.LVL79:
 348:subsystems/nav.c ****   nav_leg_progress += Max(carrot / nav_leg_length, 0.);
 1105              		.loc 1 348 0 discriminator 3
 1106 0090 5846     		mov	r0, fp
 1107 0092 FFF7FEFF 		bl	__aeabi_f2d
 1108 0096 CDE90001 		strd	r0, [sp]
 1109 009a 4146     		mov	r1, r8
 1110 009c 2F48     		ldr	r0, .L75+12
 1111 009e FFF7FEFF 		bl	__aeabi_fdiv
 1112 00a2 0021     		movs	r1, #0
 1113 00a4 8346     		mov	fp, r0
 1114 00a6 FFF7FEFF 		bl	__aeabi_fcmpgt
 1115 00aa 28B1     		cbz	r0, .L74
 348:subsystems/nav.c ****   nav_leg_progress += Max(carrot / nav_leg_length, 0.);
 1116              		.loc 1 348 0 is_stmt 0 discriminator 1
 1117 00ac 5846     		mov	r0, fp
 1118 00ae FFF7FEFF 		bl	__aeabi_f2d
 1119 00b2 0246     		mov	r2, r0
 1120 00b4 0B46     		mov	r3, r1
 1121 00b6 01E0     		b	.L70
 1122              	.L74:
 348:subsystems/nav.c ****   nav_leg_progress += Max(carrot / nav_leg_length, 0.);
 1123              		.loc 1 348 0
 1124 00b8 0022     		movs	r2, #0
 1125 00ba 0023     		movs	r3, #0
 1126              	.L70:
 348:subsystems/nav.c ****   nav_leg_progress += Max(carrot / nav_leg_length, 0.);
 1127              		.loc 1 348 0 discriminator 3
 1128 00bc DDE90001 		ldrd	r0, [sp]
 1129 00c0 FFF7FEFF 		bl	__aeabi_dadd
 1130 00c4 FFF7FEFF 		bl	__aeabi_d2f
 1131 00c8 254B     		ldr	r3, .L75+16
 349:subsystems/nav.c ****   nav_in_segment = TRUE;
 1132              		.loc 1 349 0 is_stmt 1 discriminator 3
 1133 00ca 264A     		ldr	r2, .L75+20
 348:subsystems/nav.c ****   nav_leg_progress += Max(carrot / nav_leg_length, 0.);
 1134              		.loc 1 348 0 discriminator 3
 1135 00cc 1860     		str	r0, [r3, #0]	@ float
 349:subsystems/nav.c ****   nav_in_segment = TRUE;
 1136              		.loc 1 349 0 discriminator 3
 1137 00ce 0123     		movs	r3, #1
 1138 00d0 1370     		strb	r3, [r2, #0]
 350:subsystems/nav.c ****   nav_segment_x_1 = last_wp_x;
 1139              		.loc 1 350 0 discriminator 3
 1140 00d2 254A     		ldr	r2, .L75+24
 356:subsystems/nav.c ****   fly_to_xy(last_wp_x + nav_leg_progress*leg_x +nav_shift*leg_y/nav_leg_length, last_wp_y + nav_leg
 1141              		.loc 1 356 0 discriminator 3
 1142 00d4 2946     		mov	r1, r5
 350:subsystems/nav.c ****   nav_segment_x_1 = last_wp_x;
 1143              		.loc 1 350 0 discriminator 3
 1144 00d6 1660     		str	r6, [r2, #0]	@ float
 351:subsystems/nav.c ****   nav_segment_y_1 = last_wp_y;
 1145              		.loc 1 351 0 discriminator 3
 1146 00d8 244A     		ldr	r2, .L75+28
 348:subsystems/nav.c ****   nav_leg_progress += Max(carrot / nav_leg_length, 0.);
 1147              		.loc 1 348 0 discriminator 3
 1148 00da 8346     		mov	fp, r0
 351:subsystems/nav.c ****   nav_segment_y_1 = last_wp_y;
 1149              		.loc 1 351 0 discriminator 3
 1150 00dc 1760     		str	r7, [r2, #0]	@ float
 352:subsystems/nav.c ****   nav_segment_x_2 = wp_x;
 1151              		.loc 1 352 0 discriminator 3
 1152 00de 244A     		ldr	r2, .L75+32
 1153 00e0 C2F80090 		str	r9, [r2, #0]	@ float
 353:subsystems/nav.c ****   nav_segment_y_2 = wp_y;
 1154              		.loc 1 353 0 discriminator 3
 1155 00e4 234A     		ldr	r2, .L75+36
 1156 00e6 C2F800A0 		str	sl, [r2, #0]	@ float
 354:subsystems/nav.c ****   horizontal_mode = HORIZONTAL_MODE_ROUTE;
 1157              		.loc 1 354 0 discriminator 3
 1158 00ea 234A     		ldr	r2, .L75+40
 1159 00ec 1370     		strb	r3, [r2, #0]
 356:subsystems/nav.c ****   fly_to_xy(last_wp_x + nav_leg_progress*leg_x +nav_shift*leg_y/nav_leg_length, last_wp_y + nav_leg
 1160              		.loc 1 356 0 discriminator 3
 1161 00ee 234B     		ldr	r3, .L75+44
 1162 00f0 D3F80090 		ldr	r9, [r3, #0]	@ float
 1163              	.LVL80:
 1164 00f4 FFF7FEFF 		bl	__aeabi_fmul
 1165              	.LVL81:
 1166 00f8 0146     		mov	r1, r0
 1167 00fa 3046     		mov	r0, r6
 1168 00fc FFF7FEFF 		bl	__aeabi_fadd
 1169 0100 2146     		mov	r1, r4
 1170 0102 0646     		mov	r6, r0
 1171              	.LVL82:
 1172 0104 4846     		mov	r0, r9
 1173 0106 FFF7FEFF 		bl	__aeabi_fmul
 1174 010a 4146     		mov	r1, r8
 1175 010c FFF7FEFF 		bl	__aeabi_fdiv
 1176 0110 0146     		mov	r1, r0
 1177 0112 3046     		mov	r0, r6
 1178 0114 FFF7FEFF 		bl	__aeabi_fadd
 1179 0118 2146     		mov	r1, r4
 1180 011a 0646     		mov	r6, r0
 1181 011c 5846     		mov	r0, fp
 1182 011e FFF7FEFF 		bl	__aeabi_fmul
 1183 0122 0146     		mov	r1, r0
 1184 0124 3846     		mov	r0, r7
 1185 0126 FFF7FEFF 		bl	__aeabi_fadd
 1186 012a 2946     		mov	r1, r5
 1187 012c 0446     		mov	r4, r0
 1188              	.LVL83:
 1189 012e 4846     		mov	r0, r9
 1190 0130 FFF7FEFF 		bl	__aeabi_fmul
 1191 0134 4146     		mov	r1, r8
 1192 0136 FFF7FEFF 		bl	__aeabi_fdiv
 1193 013a 0146     		mov	r1, r0
 1194 013c 2046     		mov	r0, r4
 1195 013e FFF7FEFF 		bl	__aeabi_fsub
 1196 0142 0146     		mov	r1, r0
 1197 0144 3046     		mov	r0, r6
 357:subsystems/nav.c **** }
 1198              		.loc 1 357 0 discriminator 3
 1199 0146 03B0     		add	sp, sp, #12
 1200 0148 BDE8F04F 		pop	{r4, r5, r6, r7, r8, r9, sl, fp, lr}
 356:subsystems/nav.c ****   fly_to_xy(last_wp_x + nav_leg_progress*leg_x +nav_shift*leg_y/nav_leg_length, last_wp_y + nav_leg
 1201              		.loc 1 356 0 discriminator 3
 1202 014c FFF7FEBF 		b	fly_to_xy
 1203              	.L76:
 1204              		.align	2
 1205              	.L75:
 1206 0150 00000000 		.word	estimator_x
 1207 0154 00000000 		.word	estimator_y
 1208 0158 00000000 		.word	.LANCHOR20
 1209 015c 00009642 		.word	1117126656
 1210 0160 00000000 		.word	.LANCHOR21
 1211 0164 00000000 		.word	.LANCHOR7
 1212 0168 00000000 		.word	.LANCHOR22
 1213 016c 00000000 		.word	.LANCHOR23
 1214 0170 00000000 		.word	.LANCHOR24
 1215 0174 00000000 		.word	.LANCHOR25
 1216 0178 00000000 		.word	.LANCHOR16
 1217 017c 00000000 		.word	.LANCHOR8
 1218              		.cfi_endproc
 1219              	.LFE42:
 1221              		.section	.text.compute_dist2_to_home,"ax",%progbits
 1222              		.align	1
 1223              		.global	compute_dist2_to_home
 1224              		.thumb
 1225              		.thumb_func
 1227              	compute_dist2_to_home:
 1228              	.LFB45:
 1229              		.file 2 "./subsystems/navigation/common_nav.c"
   1:./subsystems/navigation/common_nav.c **** /*
   2:./subsystems/navigation/common_nav.c ****  * $Id$
   3:./subsystems/navigation/common_nav.c ****  *
   4:./subsystems/navigation/common_nav.c ****  * Copyright (C) 2007-2009  ENAC, Pascal Brisset, Antoine Drouin
   5:./subsystems/navigation/common_nav.c ****  *
   6:./subsystems/navigation/common_nav.c ****  * This file is part of paparazzi.
   7:./subsystems/navigation/common_nav.c ****  *
   8:./subsystems/navigation/common_nav.c ****  * paparazzi is free software; you can redistribute it and/or modify
   9:./subsystems/navigation/common_nav.c ****  * it under the terms of the GNU General Public License as published by
  10:./subsystems/navigation/common_nav.c ****  * the Free Software Foundation; either version 2, or (at your option)
  11:./subsystems/navigation/common_nav.c ****  * any later version.
  12:./subsystems/navigation/common_nav.c ****  *
  13:./subsystems/navigation/common_nav.c ****  * paparazzi is distributed in the hope that it will be useful,
  14:./subsystems/navigation/common_nav.c ****  * but WITHOUT ANY WARRANTY; without even the implied warranty of
  15:./subsystems/navigation/common_nav.c ****  * MERCHANTABILITY or FITNESS FOR A PARTICULAR PURPOSE.  See the
  16:./subsystems/navigation/common_nav.c ****  * GNU General Public License for more details.
  17:./subsystems/navigation/common_nav.c ****  *
  18:./subsystems/navigation/common_nav.c ****  * You should have received a copy of the GNU General Public License
  19:./subsystems/navigation/common_nav.c ****  * along with paparazzi; see the file COPYING.  If not, write to
  20:./subsystems/navigation/common_nav.c ****  * the Free Software Foundation, 59 Temple Place - Suite 330,
  21:./subsystems/navigation/common_nav.c ****  * Boston, MA 02111-1307, USA.
  22:./subsystems/navigation/common_nav.c ****  *
  23:./subsystems/navigation/common_nav.c ****  */
  24:./subsystems/navigation/common_nav.c **** 
  25:./subsystems/navigation/common_nav.c **** #include "subsystems/navigation/common_nav.h"
  26:./subsystems/navigation/common_nav.c **** #include "estimator.h"
  27:./subsystems/navigation/common_nav.c **** #include "generated/flight_plan.h"
  28:./subsystems/navigation/common_nav.c **** #include "subsystems/gps.h"
  29:./subsystems/navigation/common_nav.c **** #include "math/pprz_geodetic_float.h"
  30:./subsystems/navigation/common_nav.c **** 
  31:./subsystems/navigation/common_nav.c **** float dist2_to_home;
  32:./subsystems/navigation/common_nav.c **** float dist2_to_wp;
  33:./subsystems/navigation/common_nav.c **** 
  34:./subsystems/navigation/common_nav.c **** bool_t too_far_from_home;
  35:./subsystems/navigation/common_nav.c **** 
  36:./subsystems/navigation/common_nav.c **** const uint8_t nb_waypoint = NB_WAYPOINT;
  37:./subsystems/navigation/common_nav.c **** struct point waypoints[NB_WAYPOINT] = WAYPOINTS;
  38:./subsystems/navigation/common_nav.c **** 
  39:./subsystems/navigation/common_nav.c **** float ground_alt;
  40:./subsystems/navigation/common_nav.c **** 
  41:./subsystems/navigation/common_nav.c **** int32_t nav_utm_east0 = NAV_UTM_EAST0;
  42:./subsystems/navigation/common_nav.c **** int32_t nav_utm_north0 = NAV_UTM_NORTH0;
  43:./subsystems/navigation/common_nav.c **** uint8_t nav_utm_zone0 = NAV_UTM_ZONE0;
  44:./subsystems/navigation/common_nav.c **** float max_dist_from_home = MAX_DIST_FROM_HOME;
  45:./subsystems/navigation/common_nav.c **** 
  46:./subsystems/navigation/common_nav.c **** /** \brief Computes square distance to the HOME waypoint potentially sets
  47:./subsystems/navigation/common_nav.c ****  * \a too_far_from_home
  48:./subsystems/navigation/common_nav.c ****  */
  49:./subsystems/navigation/common_nav.c **** void compute_dist2_to_home(void) {
 1230              		.loc 2 49 0
 1231              		.cfi_startproc
 1232              		@ args = 0, pretend = 0, frame = 0
 1233              		@ frame_needed = 0, uses_anonymous_args = 0
 1234 0000 70B5     		push	{r4, r5, r6, lr}
 1235              	.LCFI6:
 1236              		.cfi_def_cfa_offset 16
 1237              		.cfi_offset 14, -4
 1238              		.cfi_offset 6, -8
 1239              		.cfi_offset 5, -12
 1240              		.cfi_offset 4, -16
  50:./subsystems/navigation/common_nav.c ****   float ph_x = waypoints[WP_HOME].x - estimator_x;
 1241              		.loc 2 50 0
 1242 0002 124B     		ldr	r3, .L79
 1243 0004 124C     		ldr	r4, .L79+4
 1244 0006 1968     		ldr	r1, [r3, #0]	@ float
 1245 0008 E068     		ldr	r0, [r4, #12]	@ float
 1246 000a FFF7FEFF 		bl	__aeabi_fsub
  51:./subsystems/navigation/common_nav.c ****   float ph_y = waypoints[WP_HOME].y - estimator_y;
 1247              		.loc 2 51 0
 1248 000e 114B     		ldr	r3, .L79+8
  50:./subsystems/navigation/common_nav.c ****   float ph_x = waypoints[WP_HOME].x - estimator_x;
 1249              		.loc 2 50 0
 1250 0010 0646     		mov	r6, r0
 1251              	.LVL84:
 1252              		.loc 2 51 0
 1253 0012 1968     		ldr	r1, [r3, #0]	@ float
 1254 0014 2069     		ldr	r0, [r4, #16]	@ float
 1255              	.LVL85:
 1256 0016 FFF7FEFF 		bl	__aeabi_fsub
  52:./subsystems/navigation/common_nav.c ****   dist2_to_home = ph_x*ph_x + ph_y *ph_y;
 1257              		.loc 2 52 0
 1258 001a 3146     		mov	r1, r6
  51:./subsystems/navigation/common_nav.c ****   float ph_y = waypoints[WP_HOME].y - estimator_y;
 1259              		.loc 2 51 0
 1260 001c 0546     		mov	r5, r0
 1261              	.LVL86:
 1262              		.loc 2 52 0
 1263 001e 3046     		mov	r0, r6
 1264              	.LVL87:
 1265 0020 FFF7FEFF 		bl	__aeabi_fmul
 1266 0024 2946     		mov	r1, r5
 1267 0026 0446     		mov	r4, r0
 1268 0028 2846     		mov	r0, r5
 1269 002a FFF7FEFF 		bl	__aeabi_fmul
 1270 002e 0146     		mov	r1, r0
 1271 0030 2046     		mov	r0, r4
 1272 0032 FFF7FEFF 		bl	__aeabi_fadd
 1273 0036 084B     		ldr	r3, .L79+12
  53:./subsystems/navigation/common_nav.c ****   too_far_from_home = dist2_to_home > (MAX_DIST_FROM_HOME*MAX_DIST_FROM_HOME);
 1274              		.loc 2 53 0
 1275 0038 0849     		ldr	r1, .L79+16
  52:./subsystems/navigation/common_nav.c ****   dist2_to_home = ph_x*ph_x + ph_y *ph_y;
 1276              		.loc 2 52 0
 1277 003a 1860     		str	r0, [r3, #0]	@ float
 1278              		.loc 2 53 0
 1279 003c 0124     		movs	r4, #1
 1280 003e FFF7FEFF 		bl	__aeabi_fcmpgt
 1281 0042 00B9     		cbnz	r0, .L78
 1282 0044 0024     		movs	r4, #0
 1283              	.L78:
 1284 0046 064B     		ldr	r3, .L79+20
 1285 0048 1C70     		strb	r4, [r3, #0]
  54:./subsystems/navigation/common_nav.c **** #if defined InAirspace
  55:./subsystems/navigation/common_nav.c ****   too_far_from_home = too_far_from_home || !(InAirspace(estimator_x, estimator_y));
  56:./subsystems/navigation/common_nav.c **** #endif
  57:./subsystems/navigation/common_nav.c **** }
 1286              		.loc 2 57 0
 1287 004a 70BD     		pop	{r4, r5, r6, pc}
 1288              	.L80:
 1289              		.align	2
 1290              	.L79:
 1291 004c 00000000 		.word	estimator_x
 1292 0050 00000000 		.word	.LANCHOR26
 1293 0054 00000000 		.word	estimator_y
 1294 0058 00000000 		.word	.LANCHOR27
 1295 005c 00401C47 		.word	1193033728
 1296 0060 00000000 		.word	.LANCHOR28
 1297              		.cfi_endproc
 1298              	.LFE45:
 1300              		.global	__aeabi_i2d
 1301              		.global	__aeabi_d2uiz
 1302              		.global	__aeabi_f2iz
 1303              		.section	.text.nav_reset_reference,"ax",%progbits
 1304              		.align	1
 1305              		.global	nav_reset_reference
 1306              		.thumb
 1307              		.thumb_func
 1309              	nav_reset_reference:
 1310              	.LFB46:
  58:./subsystems/navigation/common_nav.c **** 
  59:./subsystems/navigation/common_nav.c **** 
  60:./subsystems/navigation/common_nav.c **** static float previous_ground_alt;
  61:./subsystems/navigation/common_nav.c **** 
  62:./subsystems/navigation/common_nav.c **** /** Reset the geographic reference to the current GPS fix */
  63:./subsystems/navigation/common_nav.c **** unit_t nav_reset_reference( void ) {
 1311              		.loc 2 63 0
 1312              		.cfi_startproc
 1313              		@ args = 0, pretend = 0, frame = 32
 1314              		@ frame_needed = 0, uses_anonymous_args = 0
 1315 0000 F0B5     		push	{r4, r5, r6, r7, lr}
 1316              	.LCFI7:
 1317              		.cfi_def_cfa_offset 20
 1318              		.cfi_offset 14, -4
 1319              		.cfi_offset 7, -8
 1320              		.cfi_offset 6, -12
 1321              		.cfi_offset 5, -16
 1322              		.cfi_offset 4, -20
  64:./subsystems/navigation/common_nav.c **** #ifdef GPS_USE_LATLONG
  65:./subsystems/navigation/common_nav.c ****   /* Set the real UTM zone */
  66:./subsystems/navigation/common_nav.c ****   nav_utm_zone0 = (DegOfRad(gps.lla_pos.lon/1e7)+180) / 6 + 1;
 1323              		.loc 2 66 0
 1324 0002 2D4C     		ldr	r4, .L82+16
  63:./subsystems/navigation/common_nav.c **** unit_t nav_reset_reference( void ) {
 1325              		.loc 2 63 0
 1326 0004 89B0     		sub	sp, sp, #36
 1327              	.LCFI8:
 1328              		.cfi_def_cfa_offset 56
 1329              		.loc 2 66 0
 1330 0006 E068     		ldr	r0, [r4, #12]
 1331 0008 FFF7FEFF 		bl	__aeabi_i2d
 1332 000c 26A3     		adr	r3, .L82
 1333 000e D3E90023 		ldrd	r2, [r3]
 1334 0012 FFF7FEFF 		bl	__aeabi_ddiv
 1335 0016 26A3     		adr	r3, .L82+8
 1336 0018 D3E90023 		ldrd	r2, [r3]
 1337 001c 0646     		mov	r6, r0
 1338 001e 0F46     		mov	r7, r1
 1339 0020 FFF7FEFF 		bl	__aeabi_dmul
 1340 0024 0022     		movs	r2, #0
 1341 0026 254B     		ldr	r3, .L82+20
 1342 0028 FFF7FEFF 		bl	__aeabi_dadd
 1343 002c 0022     		movs	r2, #0
 1344 002e 244B     		ldr	r3, .L82+24
 1345 0030 FFF7FEFF 		bl	__aeabi_ddiv
 1346 0034 0022     		movs	r2, #0
 1347 0036 234B     		ldr	r3, .L82+28
 1348 0038 FFF7FEFF 		bl	__aeabi_dadd
 1349 003c FFF7FEFF 		bl	__aeabi_d2uiz
 1350 0040 214B     		ldr	r3, .L82+32
 1351 0042 0546     		mov	r5, r0
 1352 0044 1870     		strb	r0, [r3, #0]
  67:./subsystems/navigation/common_nav.c **** 
  68:./subsystems/navigation/common_nav.c ****   /* Recompute UTM coordinates in this zone */
  69:./subsystems/navigation/common_nav.c ****   struct LlaCoor_f lla;
  70:./subsystems/navigation/common_nav.c ****   lla.lat = gps.lla_pos.lat/1e7;
 1353              		.loc 2 70 0
 1354 0046 2069     		ldr	r0, [r4, #16]
 1355 0048 FFF7FEFF 		bl	__aeabi_i2d
 1356 004c 16A3     		adr	r3, .L82
 1357 004e D3E90023 		ldrd	r2, [r3]
 1358 0052 FFF7FEFF 		bl	__aeabi_ddiv
 1359 0056 FFF7FEFF 		bl	__aeabi_d2f
  71:./subsystems/navigation/common_nav.c ****   lla.lon = gps.lla_pos.lon/1e7;
 1360              		.loc 2 71 0
 1361 005a 3946     		mov	r1, r7
  70:./subsystems/navigation/common_nav.c ****   lla.lat = gps.lla_pos.lat/1e7;
 1362              		.loc 2 70 0
 1363 005c 0690     		str	r0, [sp, #24]	@ float
 1364              		.loc 2 71 0
 1365 005e 3046     		mov	r0, r6
 1366 0060 FFF7FEFF 		bl	__aeabi_d2f
  72:./subsystems/navigation/common_nav.c ****   struct UtmCoor_f utm;
  73:./subsystems/navigation/common_nav.c ****   utm.zone = nav_utm_zone0;
  74:./subsystems/navigation/common_nav.c ****   utm_of_lla_f(&utm, &lla);
 1367              		.loc 2 74 0
 1368 0064 05A9     		add	r1, sp, #20
  71:./subsystems/navigation/common_nav.c ****   lla.lon = gps.lla_pos.lon/1e7;
 1369              		.loc 2 71 0
 1370 0066 0590     		str	r0, [sp, #20]	@ float
 1371              		.loc 2 74 0
 1372 0068 01A8     		add	r0, sp, #4
  73:./subsystems/navigation/common_nav.c ****   utm.zone = nav_utm_zone0;
 1373              		.loc 2 73 0
 1374 006a 8DF81050 		strb	r5, [sp, #16]
 1375              		.loc 2 74 0
 1376 006e FFF7FEFF 		bl	utm_of_lla_f
  75:./subsystems/navigation/common_nav.c ****   nav_utm_east0 = utm.east;
 1377              		.loc 2 75 0
 1378 0072 0298     		ldr	r0, [sp, #8]	@ float
 1379 0074 FFF7FEFF 		bl	__aeabi_f2iz
 1380 0078 144B     		ldr	r3, .L82+36
  76:./subsystems/navigation/common_nav.c ****   nav_utm_north0 = utm.north;
  77:./subsystems/navigation/common_nav.c **** #else
  78:./subsystems/navigation/common_nav.c ****   nav_utm_zone0 = gps.utm_pos.zone;
  79:./subsystems/navigation/common_nav.c ****   nav_utm_east0 = gps.utm_pos.east/100;
  80:./subsystems/navigation/common_nav.c ****   nav_utm_north0 = gps.utm_pos.north/100;
  81:./subsystems/navigation/common_nav.c **** #endif
  82:./subsystems/navigation/common_nav.c **** 
  83:./subsystems/navigation/common_nav.c ****   previous_ground_alt = ground_alt;
 1381              		.loc 2 83 0
 1382 007a 154D     		ldr	r5, .L82+40
  75:./subsystems/navigation/common_nav.c ****   nav_utm_east0 = utm.east;
 1383              		.loc 2 75 0
 1384 007c 1860     		str	r0, [r3, #0]
  76:./subsystems/navigation/common_nav.c ****   nav_utm_north0 = utm.north;
 1385              		.loc 2 76 0
 1386 007e 0198     		ldr	r0, [sp, #4]	@ float
 1387 0080 FFF7FEFF 		bl	__aeabi_f2iz
 1388 0084 134B     		ldr	r3, .L82+44
 1389              		.loc 2 83 0
 1390 0086 2A68     		ldr	r2, [r5, #0]	@ float
  76:./subsystems/navigation/common_nav.c ****   nav_utm_north0 = utm.north;
 1391              		.loc 2 76 0
 1392 0088 1860     		str	r0, [r3, #0]
 1393              		.loc 2 83 0
 1394 008a 134B     		ldr	r3, .L82+48
  84:./subsystems/navigation/common_nav.c ****   ground_alt = gps.hmsl/1000.;
 1395              		.loc 2 84 0
 1396 008c A06A     		ldr	r0, [r4, #40]
  83:./subsystems/navigation/common_nav.c ****   previous_ground_alt = ground_alt;
 1397              		.loc 2 83 0
 1398 008e 1A60     		str	r2, [r3, #0]	@ float
 1399              		.loc 2 84 0
 1400 0090 FFF7FEFF 		bl	__aeabi_i2d
 1401 0094 0022     		movs	r2, #0
 1402 0096 114B     		ldr	r3, .L82+52
 1403 0098 FFF7FEFF 		bl	__aeabi_ddiv
 1404 009c FFF7FEFF 		bl	__aeabi_d2f
 1405 00a0 2860     		str	r0, [r5, #0]	@ float
  85:./subsystems/navigation/common_nav.c ****   return 0;
  86:./subsystems/navigation/common_nav.c **** }
 1406              		.loc 2 86 0
 1407 00a2 0020     		movs	r0, #0
 1408 00a4 09B0     		add	sp, sp, #36
 1409 00a6 F0BD     		pop	{r4, r5, r6, r7, pc}
 1410              	.L83:
 1411              		.align	3
 1412              	.L82:
 1413 00a8 00000000 		.word	0
 1414 00ac D0126341 		.word	1097011920
 1415 00b0 F8C1631A 		.word	442745336
 1416 00b4 DCA54C40 		.word	1078765020
 1417 00b8 00000000 		.word	gps
 1418 00bc 00806640 		.word	1080459264
 1419 00c0 00001840 		.word	1075314688
 1420 00c4 0000F03F 		.word	1072693248
 1421 00c8 00000000 		.word	.LANCHOR29
 1422 00cc 00000000 		.word	.LANCHOR30
 1423 00d0 00000000 		.word	.LANCHOR33
 1424 00d4 00000000 		.word	.LANCHOR31
 1425 00d8 00000000 		.word	.LANCHOR32
 1426 00dc 00408F40 		.word	1083129856
 1427              		.cfi_endproc
 1428              	.LFE46:
 1430              		.section	.text.nav_update_waypoints_alt,"ax",%progbits
 1431              		.align	1
 1432              		.global	nav_update_waypoints_alt
 1433              		.thumb
 1434              		.thumb_func
 1436              	nav_update_waypoints_alt:
 1437              	.LFB47:
  87:./subsystems/navigation/common_nav.c **** 
  88:./subsystems/navigation/common_nav.c **** /** Shift altitude of the waypoint according to a new ground altitude */
  89:./subsystems/navigation/common_nav.c **** unit_t nav_update_waypoints_alt( void ) {
 1438              		.loc 2 89 0
 1439              		.cfi_startproc
 1440              		@ args = 0, pretend = 0, frame = 0
 1441              		@ frame_needed = 0, uses_anonymous_args = 0
 1442              	.LVL88:
  90:./subsystems/navigation/common_nav.c ****   uint8_t i;
  91:./subsystems/navigation/common_nav.c ****   for(i = 0; i < NB_WAYPOINT; i++) {
  92:./subsystems/navigation/common_nav.c ****     waypoints[i].a += ground_alt - previous_ground_alt;
 1443              		.loc 2 92 0
 1444 0000 0A4B     		ldr	r3, .L87
  89:./subsystems/navigation/common_nav.c **** unit_t nav_update_waypoints_alt( void ) {
 1445              		.loc 2 89 0
 1446 0002 70B5     		push	{r4, r5, r6, lr}
 1447              	.LCFI9:
 1448              		.cfi_def_cfa_offset 16
 1449              		.cfi_offset 14, -4
 1450              		.cfi_offset 6, -8
 1451              		.cfi_offset 5, -12
 1452              		.cfi_offset 4, -16
 1453              		.loc 2 92 0
 1454 0004 1868     		ldr	r0, [r3, #0]	@ float
 1455 0006 0A4B     		ldr	r3, .L87+4
 1456 0008 0A4C     		ldr	r4, .L87+8
 1457 000a 1968     		ldr	r1, [r3, #0]	@ float
 1458 000c FFF7FEFF 		bl	__aeabi_fsub
  89:./subsystems/navigation/common_nav.c **** unit_t nav_update_waypoints_alt( void ) {
 1459              		.loc 2 89 0
 1460 0010 04F18405 		add	r5, r4, #132
 1461              		.loc 2 92 0
 1462 0014 0646     		mov	r6, r0
 1463              	.LVL89:
 1464              	.L85:
 1465              		.loc 2 92 0 is_stmt 0 discriminator 2
 1466 0016 A068     		ldr	r0, [r4, #8]	@ float
 1467 0018 3146     		mov	r1, r6
 1468 001a FFF7FEFF 		bl	__aeabi_fadd
 1469 001e A060     		str	r0, [r4, #8]	@ float
 1470 0020 0C34     		adds	r4, r4, #12
  91:./subsystems/navigation/common_nav.c ****   for(i = 0; i < NB_WAYPOINT; i++) {
 1471              		.loc 2 91 0 is_stmt 1 discriminator 2
 1472 0022 AC42     		cmp	r4, r5
 1473 0024 F7D1     		bne	.L85
  93:./subsystems/navigation/common_nav.c ****   }
  94:./subsystems/navigation/common_nav.c ****   return 0;
  95:./subsystems/navigation/common_nav.c **** }
 1474              		.loc 2 95 0
 1475 0026 0020     		movs	r0, #0
 1476 0028 70BD     		pop	{r4, r5, r6, pc}
 1477              	.L88:
 1478 002a 00BF     		.align	2
 1479              	.L87:
 1480 002c 00000000 		.word	.LANCHOR33
 1481 0030 00000000 		.word	.LANCHOR32
 1482 0034 00000000 		.word	.LANCHOR26
 1483              		.cfi_endproc
 1484              	.LFE47:
 1486              		.section	.text.common_nav_periodic_task_4Hz,"ax",%progbits
 1487              		.align	1
 1488              		.global	common_nav_periodic_task_4Hz
 1489              		.thumb
 1490              		.thumb_func
 1492              	common_nav_periodic_task_4Hz:
 1493              	.LFB48:
  96:./subsystems/navigation/common_nav.c **** 
  97:./subsystems/navigation/common_nav.c **** void common_nav_periodic_task_4Hz() {
 1494              		.loc 2 97 0
 1495              		.cfi_startproc
 1496              		@ args = 0, pretend = 0, frame = 0
 1497              		@ frame_needed = 0, uses_anonymous_args = 0
 1498              		@ link register save eliminated.
 1499              	.LBB14:
  98:./subsystems/navigation/common_nav.c ****   RunOnceEvery(4, { stage_time++;  block_time++; });
 1500              		.loc 2 98 0
 1501 0000 084B     		ldr	r3, .L91
 1502 0002 1A88     		ldrh	r2, [r3, #0]
 1503 0004 0132     		adds	r2, r2, #1
 1504 0006 92B2     		uxth	r2, r2
 1505 0008 032A     		cmp	r2, #3
 1506 000a 1A80     		strh	r2, [r3, #0]	@ movhi
 1507 000c 09D9     		bls	.L89
 1508              		.loc 2 98 0 is_stmt 0 discriminator 1
 1509 000e 0022     		movs	r2, #0
 1510 0010 1A80     		strh	r2, [r3, #0]	@ movhi
 1511 0012 054B     		ldr	r3, .L91+4
 1512 0014 1A88     		ldrh	r2, [r3, #0]
 1513 0016 0132     		adds	r2, r2, #1
 1514 0018 1A80     		strh	r2, [r3, #0]	@ movhi
 1515 001a 044B     		ldr	r3, .L91+8
 1516 001c 1A88     		ldrh	r2, [r3, #0]
 1517 001e 0132     		adds	r2, r2, #1
 1518 0020 1A80     		strh	r2, [r3, #0]	@ movhi
 1519              	.L89:
 1520 0022 7047     		bx	lr
 1521              	.L92:
 1522              		.align	2
 1523              	.L91:
 1524 0024 00000000 		.word	.LANCHOR34
 1525 0028 00000000 		.word	stage_time
 1526 002c 00000000 		.word	block_time
 1527              	.LBE14:
 1528              		.cfi_endproc
 1529              	.LFE48:
 1531              		.global	__aeabi_i2f
 1532              		.section	.text.nav_move_waypoint,"ax",%progbits
 1533              		.align	1
 1534              		.global	nav_move_waypoint
 1535              		.thumb
 1536              		.thumb_func
 1538              	nav_move_waypoint:
 1539              	.LFB49:
  99:./subsystems/navigation/common_nav.c **** }
 100:./subsystems/navigation/common_nav.c **** 
 101:./subsystems/navigation/common_nav.c **** void nav_move_waypoint(uint8_t wp_id, float ux, float uy, float alt) {
 1540              		.loc 2 101 0 is_stmt 1
 1541              		.cfi_startproc
 1542              		@ args = 0, pretend = 0, frame = 0
 1543              		@ frame_needed = 0, uses_anonymous_args = 0
 1544              	.LVL90:
 102:./subsystems/navigation/common_nav.c ****   if (wp_id < nb_waypoint) {
 1545              		.loc 2 102 0
 1546 0000 0A28     		cmp	r0, #10
 101:./subsystems/navigation/common_nav.c **** void nav_move_waypoint(uint8_t wp_id, float ux, float uy, float alt) {
 1547              		.loc 2 101 0
 1548 0002 2DE9F047 		push	{r4, r5, r6, r7, r8, r9, sl, lr}
 1549              	.LCFI10:
 1550              		.cfi_def_cfa_offset 32
 1551              		.cfi_offset 14, -4
 1552              		.cfi_offset 10, -8
 1553              		.cfi_offset 9, -12
 1554              		.cfi_offset 8, -16
 1555              		.cfi_offset 7, -20
 1556              		.cfi_offset 6, -24
 1557              		.cfi_offset 5, -28
 1558              		.cfi_offset 4, -32
 101:./subsystems/navigation/common_nav.c **** void nav_move_waypoint(uint8_t wp_id, float ux, float uy, float alt) {
 1559              		.loc 2 101 0
 1560 0006 0446     		mov	r4, r0
 1561 0008 0E46     		mov	r6, r1
 1562 000a 1546     		mov	r5, r2
 1563 000c 9846     		mov	r8, r3
 1564              		.loc 2 102 0
 1565 000e 50D8     		bhi	.L93
 1566              	.LBB15:
 103:./subsystems/navigation/common_nav.c ****     float dx, dy;
 104:./subsystems/navigation/common_nav.c ****     dx = ux - nav_utm_east0 - waypoints[WP_HOME].x;
 1567              		.loc 2 104 0
 1568 0010 294B     		ldr	r3, .L99
 1569              	.LVL91:
 1570 0012 DFF8B090 		ldr	r9, .L99+12
 1571 0016 1868     		ldr	r0, [r3, #0]
 1572              	.LVL92:
 1573 0018 FFF7FEFF 		bl	__aeabi_i2f
 1574              	.LVL93:
 1575 001c D9F80C70 		ldr	r7, [r9, #12]	@ float
 1576 0020 0146     		mov	r1, r0
 1577 0022 3046     		mov	r0, r6
 1578 0024 FFF7FEFF 		bl	__aeabi_fsub
 1579 0028 3946     		mov	r1, r7
 1580 002a FFF7FEFF 		bl	__aeabi_fsub
 105:./subsystems/navigation/common_nav.c ****     dy = uy - nav_utm_north0 - waypoints[WP_HOME].y;
 1581              		.loc 2 105 0
 1582 002e 234B     		ldr	r3, .L99+4
 104:./subsystems/navigation/common_nav.c ****     dx = ux - nav_utm_east0 - waypoints[WP_HOME].x;
 1583              		.loc 2 104 0
 1584 0030 8246     		mov	sl, r0
 1585              	.LVL94:
 1586              		.loc 2 105 0
 1587 0032 1868     		ldr	r0, [r3, #0]
 1588              	.LVL95:
 1589 0034 FFF7FEFF 		bl	__aeabi_i2f
 1590 0038 0146     		mov	r1, r0
 1591 003a 2846     		mov	r0, r5
 1592 003c FFF7FEFF 		bl	__aeabi_fsub
 1593 0040 D9F81010 		ldr	r1, [r9, #16]	@ float
 1594 0044 FFF7FEFF 		bl	__aeabi_fsub
 106:./subsystems/navigation/common_nav.c ****     BoundAbs(dx, max_dist_from_home);
 1595              		.loc 2 106 0
 1596 0048 1D4B     		ldr	r3, .L99+8
 105:./subsystems/navigation/common_nav.c ****     dy = uy - nav_utm_north0 - waypoints[WP_HOME].y;
 1597              		.loc 2 105 0
 1598 004a 8146     		mov	r9, r0
 1599              	.LVL96:
 1600              		.loc 2 106 0
 1601 004c 1D68     		ldr	r5, [r3, #0]	@ float
 1602              	.LVL97:
 1603 004e 5046     		mov	r0, sl
 1604              	.LVL98:
 1605 0050 2946     		mov	r1, r5
 1606 0052 FFF7FEFF 		bl	__aeabi_fcmpgt
 1607 0056 40B9     		cbnz	r0, .L97
 1608              		.loc 2 106 0 is_stmt 0 discriminator 2
 1609 0058 05F10046 		add	r6, r5, #-2147483648
 1610              	.LVL99:
 1611 005c 5046     		mov	r0, sl
 1612 005e 3146     		mov	r1, r6
 1613 0060 FFF7FEFF 		bl	__aeabi_fcmplt
 1614 0064 10B9     		cbnz	r0, .L95
 104:./subsystems/navigation/common_nav.c ****     dx = ux - nav_utm_east0 - waypoints[WP_HOME].x;
 1615              		.loc 2 104 0 is_stmt 1
 1616 0066 5646     		mov	r6, sl
 1617 0068 00E0     		b	.L95
 1618              	.LVL100:
 1619              	.L97:
 1620              		.loc 2 106 0
 1621 006a 2E46     		mov	r6, r5
 1622              	.LVL101:
 1623              	.L95:
 107:./subsystems/navigation/common_nav.c ****     BoundAbs(dy, max_dist_from_home);
 1624              		.loc 2 107 0
 1625 006c 4846     		mov	r0, r9
 1626 006e 2946     		mov	r1, r5
 1627 0070 FFF7FEFF 		bl	__aeabi_fcmpgt
 1628 0074 38B9     		cbnz	r0, .L96
 1629              		.loc 2 107 0 is_stmt 0 discriminator 2
 1630 0076 05F10045 		add	r5, r5, #-2147483648
 1631 007a 4846     		mov	r0, r9
 1632 007c 2946     		mov	r1, r5
 1633 007e FFF7FEFF 		bl	__aeabi_fcmplt
 1634 0082 00B9     		cbnz	r0, .L96
 105:./subsystems/navigation/common_nav.c ****     dy = uy - nav_utm_north0 - waypoints[WP_HOME].y;
 1635              		.loc 2 105 0 is_stmt 1
 1636 0084 4D46     		mov	r5, r9
 1637              	.L96:
 1638              	.LVL102:
 108:./subsystems/navigation/common_nav.c ****     waypoints[wp_id].x = waypoints[WP_HOME].x + dx;
 1639              		.loc 2 108 0
 1640 0086 3146     		mov	r1, r6
 1641 0088 3846     		mov	r0, r7
 1642 008a FFF7FEFF 		bl	__aeabi_fadd
 1643 008e 4FF00C0A 		mov	sl, #12
 1644 0092 0AFB04FA 		mul	sl, sl, r4
 1645 0096 DFF82C90 		ldr	r9, .L99+12
 109:./subsystems/navigation/common_nav.c ****     waypoints[wp_id].y = waypoints[WP_HOME].y + dy;
 1646              		.loc 2 109 0
 1647 009a 2946     		mov	r1, r5
 108:./subsystems/navigation/common_nav.c ****     waypoints[wp_id].x = waypoints[WP_HOME].x + dx;
 1648              		.loc 2 108 0
 1649 009c 49F80A00 		str	r0, [r9, sl]	@ float
 1650              		.loc 2 109 0
 1651 00a0 D9F81000 		ldr	r0, [r9, #16]	@ float
 1652 00a4 FFF7FEFF 		bl	__aeabi_fadd
 108:./subsystems/navigation/common_nav.c ****     waypoints[wp_id].x = waypoints[WP_HOME].x + dx;
 1653              		.loc 2 108 0
 1654 00a8 09EB0A04 		add	r4, r9, sl
 1655              		.loc 2 109 0
 1656 00ac 6060     		str	r0, [r4, #4]	@ float
 110:./subsystems/navigation/common_nav.c ****     waypoints[wp_id].a = alt;
 1657              		.loc 2 110 0
 1658 00ae C4F80880 		str	r8, [r4, #8]	@ float
 1659              	.LVL103:
 1660              	.L93:
 1661 00b2 BDE8F087 		pop	{r4, r5, r6, r7, r8, r9, sl, pc}
 1662              	.L100:
 1663 00b6 00BF     		.align	2
 1664              	.L99:
 1665 00b8 00000000 		.word	.LANCHOR30
 1666 00bc 00000000 		.word	.LANCHOR31
 1667 00c0 00000000 		.word	.LANCHOR35
 1668 00c4 00000000 		.word	.LANCHOR26
 1669              	.LBE15:
 1670              		.cfi_endproc
 1671              	.LFE49:
 1673              		.section	.text.nav_home,"ax",%progbits
 1674              		.align	1
 1675              		.global	nav_home
 1676              		.thumb
 1677              		.thumb_func
 1679              	nav_home:
 1680              	.LFB51:
 373:subsystems/nav.c **** 
 374:subsystems/nav.c **** /** \brief Home mode navigation (circle around HOME) */
 375:subsystems/nav.c **** void nav_home(void) {
 1681              		.loc 1 375 0
 1682              		.cfi_startproc
 1683              		@ args = 0, pretend = 0, frame = 0
 1684              		@ frame_needed = 0, uses_anonymous_args = 0
 1685 0000 08B5     		push	{r3, lr}
 1686              	.LCFI11:
 1687              		.cfi_def_cfa_offset 8
 1688              		.cfi_offset 14, -4
 1689              		.cfi_offset 3, -8
 376:subsystems/nav.c ****   NavCircleWaypoint(WP_HOME, FAILSAFE_HOME_RADIUS);
 1690              		.loc 1 376 0
 1691 0002 114B     		ldr	r3, .L102
 1692 0004 114A     		ldr	r2, .L102+4
 1693 0006 D868     		ldr	r0, [r3, #12]	@ float
 1694 0008 1969     		ldr	r1, [r3, #16]	@ float
 1695 000a FFF7FEFF 		bl	nav_circle_XY
 377:subsystems/nav.c ****   /** Nominal speed */
 378:subsystems/nav.c ****   nav_pitch = 0.;
 1696              		.loc 1 378 0
 1697 000e 104B     		ldr	r3, .L102+8
 1698 0010 0022     		movs	r2, #0
 1699 0012 1A60     		str	r2, [r3, #0]	@ float
 379:subsystems/nav.c ****   v_ctl_mode = V_CTL_MODE_AUTO_ALT;
 1700              		.loc 1 379 0
 1701 0014 0F4B     		ldr	r3, .L102+12
 1702 0016 0322     		movs	r2, #3
 1703 0018 1A70     		strb	r2, [r3, #0]
 380:subsystems/nav.c ****   nav_altitude = ground_alt+SECURITY_HEIGHT;
 1704              		.loc 1 380 0
 1705 001a 0F4B     		ldr	r3, .L102+16
 1706 001c 1868     		ldr	r0, [r3, #0]	@ float
 1707 001e FFF7FEFF 		bl	__aeabi_f2d
 1708 0022 4FF03332 		mov	r2, #858993459
 1709 0026 0D4B     		ldr	r3, .L102+20
 1710 0028 FFF7FEFF 		bl	__aeabi_dadd
 1711 002c FFF7FEFF 		bl	__aeabi_d2f
 1712 0030 0B4B     		ldr	r3, .L102+24
 1713 0032 1860     		str	r0, [r3, #0]	@ float
 381:subsystems/nav.c ****   compute_dist2_to_home();
 1714              		.loc 1 381 0
 1715 0034 FFF7FEFF 		bl	compute_dist2_to_home
 382:subsystems/nav.c ****   dist2_to_wp = dist2_to_home;
 1716              		.loc 1 382 0
 1717 0038 0A4B     		ldr	r3, .L102+28
 1718 003a 1A68     		ldr	r2, [r3, #0]	@ float
 1719 003c 0A4B     		ldr	r3, .L102+32
 1720 003e 1A60     		str	r2, [r3, #0]	@ float
 383:subsystems/nav.c ****   nav_set_altitude();
 384:subsystems/nav.c **** }
 1721              		.loc 1 384 0
 1722 0040 BDE80840 		pop	{r3, lr}
 383:subsystems/nav.c ****   nav_set_altitude();
 1723              		.loc 1 383 0
 1724 0044 FFF7FEBF 		b	nav_set_altitude
 1725              	.L103:
 1726              		.align	2
 1727              	.L102:
 1728 0048 00000000 		.word	.LANCHOR26
 1729 004c 0000C842 		.word	1120403456
 1730 0050 00000000 		.word	.LANCHOR9
 1731 0054 00000000 		.word	v_ctl_mode
 1732 0058 00000000 		.word	.LANCHOR33
 1733 005c 3333F33F 		.word	1072902963
 1734 0060 00000000 		.word	.LANCHOR0
 1735 0064 00000000 		.word	.LANCHOR27
 1736 0068 00000000 		.word	.LANCHOR10
 1737              		.cfi_endproc
 1738              	.LFE51:
 1740              		.global	__aeabi_fcmpge
 1741              		.section	.text.nav_periodic_task,"ax",%progbits
 1742              		.align	1
 1743              		.global	nav_periodic_task
 1744              		.thumb
 1745              		.thumb_func
 1747              	nav_periodic_task:
 1748              	.LFB52:
 385:subsystems/nav.c **** 
 386:subsystems/nav.c **** /**
 387:subsystems/nav.c ****  *  \brief Navigation main: call to the code generated from the XML flight
 388:subsystems/nav.c ****  * plan
 389:subsystems/nav.c ****  */
 390:subsystems/nav.c **** void nav_periodic_task(void) {
 1749              		.loc 1 390 0
 1750              		.cfi_startproc
 1751              		@ args = 0, pretend = 0, frame = 0
 1752              		@ frame_needed = 0, uses_anonymous_args = 0
 391:subsystems/nav.c ****   nav_survey_active = FALSE;
 1753              		.loc 1 391 0
 1754 0000 794B     		ldr	r3, .L230
 390:subsystems/nav.c **** void nav_periodic_task(void) {
 1755              		.loc 1 390 0
 1756 0002 2DE9F743 		push	{r0, r1, r2, r4, r5, r6, r7, r8, r9, lr}
 1757              	.LCFI12:
 1758              		.cfi_def_cfa_offset 40
 1759              		.cfi_offset 14, -4
 1760              		.cfi_offset 9, -8
 1761              		.cfi_offset 8, -12
 1762              		.cfi_offset 7, -16
 1763              		.cfi_offset 6, -20
 1764              		.cfi_offset 5, -24
 1765              		.cfi_offset 4, -28
 1766              		.cfi_offset 2, -32
 1767              		.cfi_offset 1, -36
 1768              		.cfi_offset 0, -40
 1769              		.loc 1 391 0
 1770 0006 0022     		movs	r2, #0
 1771 0008 1A70     		strb	r2, [r3, #0]
 392:subsystems/nav.c **** 
 393:subsystems/nav.c ****   compute_dist2_to_home();
 1772              		.loc 1 393 0
 1773 000a FFF7FEFF 		bl	compute_dist2_to_home
 394:subsystems/nav.c ****   dist2_to_wp = 0.;
 1774              		.loc 1 394 0
 1775 000e 774B     		ldr	r3, .L230+4
 1776 0010 0024     		movs	r4, #0
 1777 0012 1C60     		str	r4, [r3, #0]	@ float
 1778              	.LBB28:
 1779              	.LBB29:
 1780              		.file 3 "/home/mav/paparazzi/var/Radian/generated/flight_plan.h"
   1:/home/mav/paparazzi/var/Radian/generated/flight_plan.h **** /* This file has been generated from /home/mav/paparazzi/conf/flight_plans/sdplan.xml */
   2:/home/mav/paparazzi/var/Radian/generated/flight_plan.h **** /* Please DO NOT EDIT */
   3:/home/mav/paparazzi/var/Radian/generated/flight_plan.h **** 
   4:/home/mav/paparazzi/var/Radian/generated/flight_plan.h **** #ifndef FLIGHT_PLAN_H
   5:/home/mav/paparazzi/var/Radian/generated/flight_plan.h **** #define FLIGHT_PLAN_H
   6:/home/mav/paparazzi/var/Radian/generated/flight_plan.h **** 
   7:/home/mav/paparazzi/var/Radian/generated/flight_plan.h **** #include "std.h"
   8:/home/mav/paparazzi/var/Radian/generated/flight_plan.h **** #include "generated/modules.h"
   9:/home/mav/paparazzi/var/Radian/generated/flight_plan.h **** #define FLIGHT_PLAN_NAME "SDplan"
  10:/home/mav/paparazzi/var/Radian/generated/flight_plan.h **** #define NAV_UTM_EAST0 503186
  11:/home/mav/paparazzi/var/Radian/generated/flight_plan.h **** #define NAV_UTM_NORTH0 3567889
  12:/home/mav/paparazzi/var/Radian/generated/flight_plan.h **** #define NAV_UTM_ZONE0 12
  13:/home/mav/paparazzi/var/Radian/generated/flight_plan.h **** #define NAV_LAT0 322476700 /* 1e7deg */
  14:/home/mav/paparazzi/var/Radian/generated/flight_plan.h **** #define NAV_LON0 1037821848 /* 1e7deg */
  15:/home/mav/paparazzi/var/Radian/generated/flight_plan.h **** #define NAV_ALT0 735000 /* mm above msl */
  16:/home/mav/paparazzi/var/Radian/generated/flight_plan.h **** #define NAV_MSL0 -28150 /* mm, EGM96 geoid-height (msl) over ellipsoid */
  17:/home/mav/paparazzi/var/Radian/generated/flight_plan.h **** #define QFU 0.0
  18:/home/mav/paparazzi/var/Radian/generated/flight_plan.h **** #define WP_dummy 0
  19:/home/mav/paparazzi/var/Radian/generated/flight_plan.h **** #define WP_HOME 1
  20:/home/mav/paparazzi/var/Radian/generated/flight_plan.h **** #define WP_STDBY 2
  21:/home/mav/paparazzi/var/Radian/generated/flight_plan.h **** #define WP_1 3
  22:/home/mav/paparazzi/var/Radian/generated/flight_plan.h **** #define WP_2 4
  23:/home/mav/paparazzi/var/Radian/generated/flight_plan.h **** #define WP_S1 5
  24:/home/mav/paparazzi/var/Radian/generated/flight_plan.h **** #define WP_S2 6
  25:/home/mav/paparazzi/var/Radian/generated/flight_plan.h **** #define WP_CLIMB 7
  26:/home/mav/paparazzi/var/Radian/generated/flight_plan.h **** #define WP__BASELEG 8
  27:/home/mav/paparazzi/var/Radian/generated/flight_plan.h **** #define WP_TD 9
  28:/home/mav/paparazzi/var/Radian/generated/flight_plan.h **** #define WP_AF 10
  29:/home/mav/paparazzi/var/Radian/generated/flight_plan.h **** #define WAYPOINTS { \
  30:/home/mav/paparazzi/var/Radian/generated/flight_plan.h ****  {42.0, 42.0, 765},\
  31:/home/mav/paparazzi/var/Radian/generated/flight_plan.h ****  {0.0, 0.0, 765},\
  32:/home/mav/paparazzi/var/Radian/generated/flight_plan.h ****  {49.5, 20.0, 765},\
  33:/home/mav/paparazzi/var/Radian/generated/flight_plan.h ****  {10.1, 38.0, 765},\
  34:/home/mav/paparazzi/var/Radian/generated/flight_plan.h ****  {132.3, 28.0, 765},\
  35:/home/mav/paparazzi/var/Radian/generated/flight_plan.h ****  {-119.2, 14.0, 765},\
  36:/home/mav/paparazzi/var/Radian/generated/flight_plan.h ****  {150.0, 41.0, 765},\
  37:/home/mav/paparazzi/var/Radian/generated/flight_plan.h ****  {-114.5, 32.0, 765},\
  38:/home/mav/paparazzi/var/Radian/generated/flight_plan.h ****  {168.8, -13.8, 765},\
  39:/home/mav/paparazzi/var/Radian/generated/flight_plan.h ****  {28.8, 50.0, 0.0},\
  40:/home/mav/paparazzi/var/Radian/generated/flight_plan.h ****  {177.4, 45.1, 30.0},\
  41:/home/mav/paparazzi/var/Radian/generated/flight_plan.h **** };
  42:/home/mav/paparazzi/var/Radian/generated/flight_plan.h **** #define WAYPOINTS_LLA { \
  43:/home/mav/paparazzi/var/Radian/generated/flight_plan.h ****  {322480487, 1037826308, 76500}, /* 1e7deg, 1e7deg, cm (hmsl=-28.15m) */ \
  44:/home/mav/paparazzi/var/Radian/generated/flight_plan.h ****  {322476699, 1037821848, 76500}, /* 1e7deg, 1e7deg, cm (hmsl=-28.15m) */ \
  45:/home/mav/paparazzi/var/Radian/generated/flight_plan.h ****  {322478502, 1037827104, 76500}, /* 1e7deg, 1e7deg, cm (hmsl=-28.15m) */ \
  46:/home/mav/paparazzi/var/Radian/generated/flight_plan.h ****  {322480127, 1037822922, 76500}, /* 1e7deg, 1e7deg, cm (hmsl=-28.15m) */ \
  47:/home/mav/paparazzi/var/Radian/generated/flight_plan.h ****  {322479222, 1037835894, 76500}, /* 1e7deg, 1e7deg, cm (hmsl=-28.15m) */ \
  48:/home/mav/paparazzi/var/Radian/generated/flight_plan.h ****  {322477966, 1037809195, 76500}, /* 1e7deg, 1e7deg, cm (hmsl=-28.15m) */ \
  49:/home/mav/paparazzi/var/Radian/generated/flight_plan.h ****  {322480394, 1037837773, 76500}, /* 1e7deg, 1e7deg, cm (hmsl=-28.15m) */ \
  50:/home/mav/paparazzi/var/Radian/generated/flight_plan.h ****  {322479590, 1037809695, 76500}, /* 1e7deg, 1e7deg, cm (hmsl=-28.15m) */ \
  51:/home/mav/paparazzi/var/Radian/generated/flight_plan.h ****  {322475450, 1037839767, 76500}, /* 1e7deg, 1e7deg, cm (hmsl=-28.15m) */ \
  52:/home/mav/paparazzi/var/Radian/generated/flight_plan.h ****  {322481209, 1037824907, 0}, /* 1e7deg, 1e7deg, cm (hmsl=-28.15m) */ \
  53:/home/mav/paparazzi/var/Radian/generated/flight_plan.h ****  {322480763, 1037840682, 3000}, /* 1e7deg, 1e7deg, cm (hmsl=-28.15m) */ \
  54:/home/mav/paparazzi/var/Radian/generated/flight_plan.h **** };
  55:/home/mav/paparazzi/var/Radian/generated/flight_plan.h **** #define NB_WAYPOINT 11
  56:/home/mav/paparazzi/var/Radian/generated/flight_plan.h **** #define NB_BLOCK 11
  57:/home/mav/paparazzi/var/Radian/generated/flight_plan.h **** #define GROUND_ALT 735.
  58:/home/mav/paparazzi/var/Radian/generated/flight_plan.h **** #define GROUND_ALT_CM 73500
  59:/home/mav/paparazzi/var/Radian/generated/flight_plan.h **** #define SECURITY_HEIGHT 1.2
  60:/home/mav/paparazzi/var/Radian/generated/flight_plan.h **** #define SECURITY_ALT 736.2
  61:/home/mav/paparazzi/var/Radian/generated/flight_plan.h **** #define MAX_DIST_FROM_HOME 200.
  62:/home/mav/paparazzi/var/Radian/generated/flight_plan.h **** #ifdef NAV_C
  63:/home/mav/paparazzi/var/Radian/generated/flight_plan.h **** 
  64:/home/mav/paparazzi/var/Radian/generated/flight_plan.h **** static inline void auto_nav(void) {
  65:/home/mav/paparazzi/var/Radian/generated/flight_plan.h ****   switch (nav_block) {
 1781              		.loc 3 65 0
 1782 0014 764B     		ldr	r3, .L230+8
 1783 0016 1A78     		ldrb	r2, [r3, #0]	@ zero_extendqisi2
 1784 0018 0A2A     		cmp	r2, #10
 1785 001a 00F23483 		bhi	.L105
 1786 001e DFE812F0 		tbh	[pc, r2, lsl #1]
 1787              	.L117:
 1788 0022 0B00     		.2byte	(.L106-.L117)/2
 1789 0024 1D00     		.2byte	(.L107-.L117)/2
 1790 0026 3600     		.2byte	(.L108-.L117)/2
 1791 0028 4900     		.2byte	(.L109-.L117)/2
 1792 002a 8E00     		.2byte	(.L110-.L117)/2
 1793 002c A900     		.2byte	(.L111-.L117)/2
 1794 002e C600     		.2byte	(.L112-.L117)/2
 1795 0030 D900     		.2byte	(.L113-.L117)/2
 1796 0032 9902     		.2byte	(.L114-.L117)/2
 1797 0034 E302     		.2byte	(.L115-.L117)/2
 1798 0036 2603     		.2byte	(.L116-.L117)/2
 1799              	.L106:
  66:/home/mav/paparazzi/var/Radian/generated/flight_plan.h ****     Block(0) // Wait GPS
  67:/home/mav/paparazzi/var/Radian/generated/flight_plan.h ****     ; // pre_call
  68:/home/mav/paparazzi/var/Radian/generated/flight_plan.h ****     switch(nav_stage) {
 1800              		.loc 3 68 0
 1801 0038 6E4B     		ldr	r3, .L230+12
 1802 003a 0122     		movs	r2, #1
 1803 003c 1978     		ldrb	r1, [r3, #0]	@ zero_extendqisi2
 1804 003e 1846     		mov	r0, r3
 1805 0040 71B3     		cbz	r1, .L217
 1806 0042 0229     		cmp	r1, #2
 1807 0044 06D8     		bhi	.L118
 1808              	.L120:
  69:/home/mav/paparazzi/var/Radian/generated/flight_plan.h ****       Stage(0)
  70:/home/mav/paparazzi/var/Radian/generated/flight_plan.h ****         kill_throttle = 1;
  71:/home/mav/paparazzi/var/Radian/generated/flight_plan.h ****         NextStageAndBreak();
  72:/home/mav/paparazzi/var/Radian/generated/flight_plan.h ****         break;
  73:/home/mav/paparazzi/var/Radian/generated/flight_plan.h ****       Label(while_1)
  74:/home/mav/paparazzi/var/Radian/generated/flight_plan.h ****       Stage(1)
  75:/home/mav/paparazzi/var/Radian/generated/flight_plan.h ****         if (! (!(GpsFixValid()))) Goto(endwhile_2) else NextStageAndBreak();
 1809              		.loc 3 75 0
 1810 0046 6C4A     		ldr	r2, .L230+16
 1811 0048 92F85B20 		ldrb	r2, [r2, #91]	@ zero_extendqisi2
 1812 004c 032A     		cmp	r2, #3
 1813 004e 01D0     		beq	.L118
 1814 0050 0222     		movs	r2, #2
 1815 0052 27E0     		b	.L211
 1816              	.L118:
  76:/home/mav/paparazzi/var/Radian/generated/flight_plan.h ****         Stage(2)
  77:/home/mav/paparazzi/var/Radian/generated/flight_plan.h ****           Goto(while_1)
  78:/home/mav/paparazzi/var/Radian/generated/flight_plan.h ****         Label(endwhile_2)
  79:/home/mav/paparazzi/var/Radian/generated/flight_plan.h ****       default:
  80:/home/mav/paparazzi/var/Radian/generated/flight_plan.h ****       Stage(3)
 1817              		.loc 3 80 0
 1818 0054 0323     		movs	r3, #3
 1819 0056 0370     		strb	r3, [r0, #0]
  81:/home/mav/paparazzi/var/Radian/generated/flight_plan.h ****         NextBlock();
 1820              		.loc 3 81 0
 1821 0058 0122     		movs	r2, #1
 1822 005a 06E3     		b	.L214
 1823              	.L107:
  82:/home/mav/paparazzi/var/Radian/generated/flight_plan.h ****         break;
  83:/home/mav/paparazzi/var/Radian/generated/flight_plan.h ****     }
  84:/home/mav/paparazzi/var/Radian/generated/flight_plan.h ****     ; // post_call
  85:/home/mav/paparazzi/var/Radian/generated/flight_plan.h ****     break;
  86:/home/mav/paparazzi/var/Radian/generated/flight_plan.h **** 
  87:/home/mav/paparazzi/var/Radian/generated/flight_plan.h ****     Block(1) // Geo init
  88:/home/mav/paparazzi/var/Radian/generated/flight_plan.h ****     ; // pre_call
  89:/home/mav/paparazzi/var/Radian/generated/flight_plan.h ****     switch(nav_stage) {
 1824              		.loc 3 89 0
 1825 005c 654B     		ldr	r3, .L230+12
 1826 005e 1A78     		ldrb	r2, [r3, #0]	@ zero_extendqisi2
 1827 0060 1C46     		mov	r4, r3
 1828 0062 012A     		cmp	r2, #1
 1829 0064 02D9     		bls	.L122
 1830 0066 022A     		cmp	r2, #2
 1831 0068 0DD1     		bne	.L193
 1832 006a 05E0     		b	.L123
 1833              	.L122:
  90:/home/mav/paparazzi/var/Radian/generated/flight_plan.h ****       Label(while_3)
  91:/home/mav/paparazzi/var/Radian/generated/flight_plan.h ****       Stage(0)
  92:/home/mav/paparazzi/var/Radian/generated/flight_plan.h ****         if (! (LessThan(NavBlockTime(),10))) Goto(endwhile_4) else NextStageAndBreak();
 1834              		.loc 3 92 0
 1835 006c 634A     		ldr	r2, .L230+20
 1836 006e 1288     		ldrh	r2, [r2, #0]
 1837 0070 092A     		cmp	r2, #9
 1838 0072 01D8     		bhi	.L123
 1839 0074 0122     		movs	r2, #1
 1840 0076 15E0     		b	.L211
 1841              	.L123:
  93:/home/mav/paparazzi/var/Radian/generated/flight_plan.h ****         Stage(1)
  94:/home/mav/paparazzi/var/Radian/generated/flight_plan.h ****           Goto(while_3)
  95:/home/mav/paparazzi/var/Radian/generated/flight_plan.h ****         Label(endwhile_4)
  96:/home/mav/paparazzi/var/Radian/generated/flight_plan.h ****       Stage(2)
 1842              		.loc 3 96 0
 1843 0078 0223     		movs	r3, #2
 1844 007a 2370     		strb	r3, [r4, #0]
 1845              	.LBB30:
  97:/home/mav/paparazzi/var/Radian/generated/flight_plan.h ****         if (! (NavSetGroundReferenceHere()))
 1846              		.loc 3 97 0
 1847 007c FFF7FEFF 		bl	nav_reset_reference
 1848 0080 FFF7FEFF 		bl	nav_update_waypoints_alt
 1849 0084 8CE0     		b	.L218
 1850              	.L193:
 1851              	.LBE30:
  98:/home/mav/paparazzi/var/Radian/generated/flight_plan.h ****           NextStageAndBreak();
  99:/home/mav/paparazzi/var/Radian/generated/flight_plan.h ****         break;
 100:/home/mav/paparazzi/var/Radian/generated/flight_plan.h ****       default:
 101:/home/mav/paparazzi/var/Radian/generated/flight_plan.h ****       Stage(3)
 1852              		.loc 3 101 0
 1853 0086 0322     		movs	r2, #3
 1854 0088 1A70     		strb	r2, [r3, #0]
 102:/home/mav/paparazzi/var/Radian/generated/flight_plan.h ****         NextBlock();
 1855              		.loc 3 102 0
 1856 008a 0222     		movs	r2, #2
 1857 008c EDE2     		b	.L214
 1858              	.L108:
 103:/home/mav/paparazzi/var/Radian/generated/flight_plan.h ****         break;
 104:/home/mav/paparazzi/var/Radian/generated/flight_plan.h ****     }
 105:/home/mav/paparazzi/var/Radian/generated/flight_plan.h ****     ; // post_call
 106:/home/mav/paparazzi/var/Radian/generated/flight_plan.h ****     break;
 107:/home/mav/paparazzi/var/Radian/generated/flight_plan.h **** 
 108:/home/mav/paparazzi/var/Radian/generated/flight_plan.h ****     Block(2) // Holding point
 109:/home/mav/paparazzi/var/Radian/generated/flight_plan.h ****     ; // pre_call
 110:/home/mav/paparazzi/var/Radian/generated/flight_plan.h ****     switch(nav_stage) {
 1859              		.loc 3 110 0
 1860 008e 594B     		ldr	r3, .L230+12
 1861 0090 1A78     		ldrb	r2, [r3, #0]	@ zero_extendqisi2
 1862 0092 22B1     		cbz	r2, .L125
 1863 0094 012A     		cmp	r2, #1
 1864 0096 4FF00202 		mov	r2, #2
 1865 009a 08D1     		bne	.L194
 1866 009c 04E0     		b	.L225
 1867              	.L125:
 111:/home/mav/paparazzi/var/Radian/generated/flight_plan.h ****       Stage(0)
 112:/home/mav/paparazzi/var/Radian/generated/flight_plan.h ****         kill_throttle = 1;
 1868              		.loc 3 112 0
 1869 009e 0122     		movs	r2, #1
 1870              	.L217:
 1871 00a0 5749     		ldr	r1, .L230+24
 1872 00a2 0A70     		strb	r2, [r1, #0]
 1873              	.L211:
 113:/home/mav/paparazzi/var/Radian/generated/flight_plan.h ****         NextStageAndBreak();
 1874              		.loc 3 113 0
 1875 00a4 1A70     		strb	r2, [r3, #0]
 1876 00a6 B7E2     		b	.L209
 1877              	.L225:
 114:/home/mav/paparazzi/var/Radian/generated/flight_plan.h ****         break;
 115:/home/mav/paparazzi/var/Radian/generated/flight_plan.h ****       Stage(1)
 116:/home/mav/paparazzi/var/Radian/generated/flight_plan.h ****         {
 117:/home/mav/paparazzi/var/Radian/generated/flight_plan.h ****           NavAttitude(RadOfDeg(0));
 1878              		.loc 3 117 0
 1879 00a8 564B     		ldr	r3, .L230+28
 1880 00aa 1A70     		strb	r2, [r3, #0]
 1881 00ac CAE2     		b	.L222
 1882              	.L194:
 118:/home/mav/paparazzi/var/Radian/generated/flight_plan.h ****           NavVerticalAutoThrottleMode(RadOfDeg(0.000000));
 119:/home/mav/paparazzi/var/Radian/generated/flight_plan.h ****           NavVerticalThrottleMode(9600*(0));
 120:/home/mav/paparazzi/var/Radian/generated/flight_plan.h ****         }
 121:/home/mav/paparazzi/var/Radian/generated/flight_plan.h ****         break;
 122:/home/mav/paparazzi/var/Radian/generated/flight_plan.h ****       default:
 123:/home/mav/paparazzi/var/Radian/generated/flight_plan.h ****       Stage(2)
 1883              		.loc 3 123 0
 1884 00ae 1A70     		strb	r2, [r3, #0]
 124:/home/mav/paparazzi/var/Radian/generated/flight_plan.h ****         NextBlock();
 1885              		.loc 3 124 0
 1886 00b0 0322     		movs	r2, #3
 1887 00b2 DAE2     		b	.L214
 1888              	.L109:
 125:/home/mav/paparazzi/var/Radian/generated/flight_plan.h ****         break;
 126:/home/mav/paparazzi/var/Radian/generated/flight_plan.h ****     }
 127:/home/mav/paparazzi/var/Radian/generated/flight_plan.h ****     ; // post_call
 128:/home/mav/paparazzi/var/Radian/generated/flight_plan.h ****     break;
 129:/home/mav/paparazzi/var/Radian/generated/flight_plan.h **** 
 130:/home/mav/paparazzi/var/Radian/generated/flight_plan.h ****     Block(3) // Takeoff
 131:/home/mav/paparazzi/var/Radian/generated/flight_plan.h ****     ; // pre_call
 132:/home/mav/paparazzi/var/Radian/generated/flight_plan.h ****     if ((nav_block != 4) && (estimator_z>(ground_alt+25))) { GotoBlock(4); return; }
 1889              		.loc 3 132 0
 1890 00b4 544B     		ldr	r3, .L230+32
 1891 00b6 5549     		ldr	r1, .L230+36
 1892 00b8 1868     		ldr	r0, [r3, #0]	@ float
 1893 00ba FFF7FEFF 		bl	__aeabi_fadd
 1894 00be 544B     		ldr	r3, .L230+40
 1895 00c0 0146     		mov	r1, r0
 1896 00c2 1868     		ldr	r0, [r3, #0]	@ float
 1897 00c4 FFF7FEFF 		bl	__aeabi_fcmpgt
 1898 00c8 0028     		cmp	r0, #0
 1899 00ca 36D1     		bne	.L224
 1900              	.L195:
 133:/home/mav/paparazzi/var/Radian/generated/flight_plan.h ****     switch(nav_stage) {
 1901              		.loc 3 133 0
 1902 00cc 494C     		ldr	r4, .L230+12
 1903 00ce 2378     		ldrb	r3, [r4, #0]	@ zero_extendqisi2
 1904 00d0 012B     		cmp	r3, #1
 1905 00d2 09D0     		beq	.L132
 1906 00d4 02D3     		bcc	.L131
 1907 00d6 022B     		cmp	r3, #2
 1908 00d8 2DD1     		bne	.L196
 1909 00da 0AE0     		b	.L226
 1910              	.L131:
 134:/home/mav/paparazzi/var/Radian/generated/flight_plan.h ****       Stage(0)
 135:/home/mav/paparazzi/var/Radian/generated/flight_plan.h ****         kill_throttle = 0;
 1911              		.loc 3 135 0
 1912 00dc 484B     		ldr	r3, .L230+24
 1913 00de 0022     		movs	r2, #0
 1914 00e0 1A70     		strb	r2, [r3, #0]
 136:/home/mav/paparazzi/var/Radian/generated/flight_plan.h ****         NextStageAndBreak();
 1915              		.loc 3 136 0
 1916 00e2 0123     		movs	r3, #1
 1917              	.L212:
 1918 00e4 2370     		strb	r3, [r4, #0]
 1919 00e6 97E2     		b	.L209
 1920              	.L132:
 137:/home/mav/paparazzi/var/Radian/generated/flight_plan.h ****         break;
 138:/home/mav/paparazzi/var/Radian/generated/flight_plan.h ****       Stage(1)
 139:/home/mav/paparazzi/var/Radian/generated/flight_plan.h ****         estimator_flight_time = 0;
 1921              		.loc 3 139 0
 1922 00e8 4A4B     		ldr	r3, .L230+44
 1923 00ea 0022     		movs	r2, #0
 1924 00ec 1A80     		strh	r2, [r3, #0]	@ movhi
 140:/home/mav/paparazzi/var/Radian/generated/flight_plan.h ****         NextStageAndBreak();
 1925              		.loc 3 140 0
 1926 00ee 0223     		movs	r3, #2
 1927 00f0 F8E7     		b	.L212
 1928              	.L226:
 141:/home/mav/paparazzi/var/Radian/generated/flight_plan.h ****         break;
 142:/home/mav/paparazzi/var/Radian/generated/flight_plan.h ****       Stage(2)
 143:/home/mav/paparazzi/var/Radian/generated/flight_plan.h ****         if (NavApproachingFrom(7,1,CARROT)) NextStageAndBreakFrom(7) else {
 1929              		.loc 3 143 0
 1930 00f2 494B     		ldr	r3, .L230+48
 1931 00f4 494D     		ldr	r5, .L230+52
 1932 00f6 0093     		str	r3, [sp, #0]	@ float
 1933 00f8 686D     		ldr	r0, [r5, #84]	@ float
 1934 00fa A96D     		ldr	r1, [r5, #88]	@ float
 1935 00fc EA68     		ldr	r2, [r5, #12]	@ float
 1936 00fe 2B69     		ldr	r3, [r5, #16]	@ float
 1937 0100 FFF7FEFF 		bl	nav_approaching_xy
 1938 0104 0646     		mov	r6, r0
 1939 0106 18B1     		cbz	r0, .L134
 1940 0108 454B     		ldr	r3, .L230+56
 1941 010a 0722     		movs	r2, #7
 1942 010c 1A70     		strb	r2, [r3, #0]
 1943 010e 47E0     		b	.L218
 1944              	.L134:
 144:/home/mav/paparazzi/var/Radian/generated/flight_plan.h ****           NavGotoWaypoint(7);
 1945              		.loc 3 144 0
 1946 0110 444B     		ldr	r3, .L230+60
 1947 0112 A96D     		ldr	r1, [r5, #88]	@ float
 1948 0114 1870     		strb	r0, [r3, #0]
 1949 0116 686D     		ldr	r0, [r5, #84]	@ float
 1950 0118 FFF7FEFF 		bl	fly_to_xy
 145:/home/mav/paparazzi/var/Radian/generated/flight_plan.h ****           NavVerticalAutoThrottleMode(RadOfDeg(15));
 1951              		.loc 3 145 0
 1952 011c 424B     		ldr	r3, .L230+64
 1953 011e 434A     		ldr	r2, .L230+68
 1954 0120 1E70     		strb	r6, [r3, #0]
 1955 0122 434B     		ldr	r3, .L230+72
 1956 0124 1A60     		str	r2, [r3, #0]	@ float
 146:/home/mav/paparazzi/var/Radian/generated/flight_plan.h ****           NavVerticalThrottleMode(9600*(1.000000));
 1957              		.loc 3 146 0
 1958 0126 434B     		ldr	r3, .L230+76
 1959 0128 0122     		movs	r2, #1
 1960 012a 1A70     		strb	r2, [r3, #0]
 1961 012c 424B     		ldr	r3, .L230+80
 1962 012e 4FF41652 		mov	r2, #9600
 1963 0132 1A80     		strh	r2, [r3, #0]	@ movhi
 1964 0134 A7E2     		b	.L105
 1965              	.L196:
 147:/home/mav/paparazzi/var/Radian/generated/flight_plan.h ****         }
 148:/home/mav/paparazzi/var/Radian/generated/flight_plan.h ****         break;
 149:/home/mav/paparazzi/var/Radian/generated/flight_plan.h ****       default:
 150:/home/mav/paparazzi/var/Radian/generated/flight_plan.h ****       Stage(3)
 1966              		.loc 3 150 0
 1967 0136 0323     		movs	r3, #3
 1968 0138 2370     		strb	r3, [r4, #0]
 1969              	.L224:
 151:/home/mav/paparazzi/var/Radian/generated/flight_plan.h ****         NextBlock();
 1970              		.loc 3 151 0
 1971 013a 0422     		movs	r2, #4
 1972 013c 95E2     		b	.L214
 1973              	.L110:
 152:/home/mav/paparazzi/var/Radian/generated/flight_plan.h ****         break;
 153:/home/mav/paparazzi/var/Radian/generated/flight_plan.h ****     }
 154:/home/mav/paparazzi/var/Radian/generated/flight_plan.h ****     ; // post_call
 155:/home/mav/paparazzi/var/Radian/generated/flight_plan.h ****     break;
 156:/home/mav/paparazzi/var/Radian/generated/flight_plan.h **** 
 157:/home/mav/paparazzi/var/Radian/generated/flight_plan.h ****     Block(4) // Standby
 158:/home/mav/paparazzi/var/Radian/generated/flight_plan.h ****     ; // pre_call
 159:/home/mav/paparazzi/var/Radian/generated/flight_plan.h ****     switch(nav_stage) {
 1974              		.loc 3 159 0
 1975 013e 2D4A     		ldr	r2, .L230+12
 1976 0140 1178     		ldrb	r1, [r2, #0]	@ zero_extendqisi2
 1977 0142 99B9     		cbnz	r1, .L197
 160:/home/mav/paparazzi/var/Radian/generated/flight_plan.h ****       Stage(0)
 161:/home/mav/paparazzi/var/Radian/generated/flight_plan.h ****         NavVerticalAutoThrottleMode(RadOfDeg(0.000000));
 1978              		.loc 3 161 0
 1979 0144 384B     		ldr	r3, .L230+64
 162:/home/mav/paparazzi/var/Radian/generated/flight_plan.h ****         NavVerticalAltitudeMode(WaypointAlt(2), 0.);
 1980              		.loc 3 162 0
 1981 0146 0322     		movs	r2, #3
 161:/home/mav/paparazzi/var/Radian/generated/flight_plan.h ****         NavVerticalAutoThrottleMode(RadOfDeg(0.000000));
 1982              		.loc 3 161 0
 1983 0148 1970     		strb	r1, [r3, #0]
 1984 014a 394B     		ldr	r3, .L230+72
 1985              	.LVL104:
 1986 014c 1C60     		str	r4, [r3, #0]	@ float
 1987              		.loc 3 162 0
 1988 014e 394B     		ldr	r3, .L230+76
 1989 0150 1A70     		strb	r2, [r3, #0]
 1990 0152 324B     		ldr	r3, .L230+52
 1991 0154 394A     		ldr	r2, .L230+84
 1992 0156 196A     		ldr	r1, [r3, #32]	@ float
 163:/home/mav/paparazzi/var/Radian/generated/flight_plan.h ****         NavCircleWaypoint(2, nav_radius);
 1993              		.loc 3 163 0
 1994 0158 9869     		ldr	r0, [r3, #24]	@ float
 162:/home/mav/paparazzi/var/Radian/generated/flight_plan.h ****         NavVerticalAltitudeMode(WaypointAlt(2), 0.);
 1995              		.loc 3 162 0
 1996 015a 1160     		str	r1, [r2, #0]	@ float
 1997 015c 384A     		ldr	r2, .L230+88
 1998              		.loc 3 163 0
 1999 015e D969     		ldr	r1, [r3, #28]	@ float
 2000 0160 384B     		ldr	r3, .L230+92
 162:/home/mav/paparazzi/var/Radian/generated/flight_plan.h ****         NavVerticalAltitudeMode(WaypointAlt(2), 0.);
 2001              		.loc 3 162 0
 2002 0162 1460     		str	r4, [r2, #0]	@ float
 2003              		.loc 3 163 0
 2004 0164 1A68     		ldr	r2, [r3, #0]	@ float
 2005 0166 FFF7FEFF 		bl	nav_circle_XY
 2006 016a 8CE2     		b	.L105
 2007              	.LVL105:
 2008              	.L197:
 164:/home/mav/paparazzi/var/Radian/generated/flight_plan.h ****         break;
 165:/home/mav/paparazzi/var/Radian/generated/flight_plan.h ****       default:
 166:/home/mav/paparazzi/var/Radian/generated/flight_plan.h ****       Stage(1)
 2009              		.loc 3 166 0
 2010 016c 0121     		movs	r1, #1
 2011 016e 1170     		strb	r1, [r2, #0]
 167:/home/mav/paparazzi/var/Radian/generated/flight_plan.h ****         NextBlock();
 2012              		.loc 3 167 0
 2013 0170 0522     		movs	r2, #5
 2014 0172 85E2     		b	.L207
 2015              	.L111:
 168:/home/mav/paparazzi/var/Radian/generated/flight_plan.h ****         break;
 169:/home/mav/paparazzi/var/Radian/generated/flight_plan.h ****     }
 170:/home/mav/paparazzi/var/Radian/generated/flight_plan.h ****     ; // post_call
 171:/home/mav/paparazzi/var/Radian/generated/flight_plan.h ****     break;
 172:/home/mav/paparazzi/var/Radian/generated/flight_plan.h **** 
 173:/home/mav/paparazzi/var/Radian/generated/flight_plan.h ****     Block(5) // Line 1-2
 174:/home/mav/paparazzi/var/Radian/generated/flight_plan.h ****     ; // pre_call
 175:/home/mav/paparazzi/var/Radian/generated/flight_plan.h ****     switch(nav_stage) {
 2016              		.loc 3 175 0
 2017 0174 1F4C     		ldr	r4, .L230+12
 2018 0176 2378     		ldrb	r3, [r4, #0]	@ zero_extendqisi2
 2019 0178 13B1     		cbz	r3, .L138
 2020 017a 012B     		cmp	r3, #1
 2021 017c 13D1     		bne	.L198
 2022 017e 02E0     		b	.L227
 2023              	.L138:
 2024              	.LBB31:
 176:/home/mav/paparazzi/var/Radian/generated/flight_plan.h ****       Stage(0)
 177:/home/mav/paparazzi/var/Radian/generated/flight_plan.h ****         if (! (nav_line_init()))
 2025              		.loc 3 177 0
 2026 0180 FFF7FEFF 		bl	nav_line_init
 2027 0184 09E0     		b	.L220
 2028              	.L227:
 2029              	.LBE31:
 2030              	.LBB32:
 178:/home/mav/paparazzi/var/Radian/generated/flight_plan.h ****           NextStageAndBreak();
 179:/home/mav/paparazzi/var/Radian/generated/flight_plan.h ****         break;
 180:/home/mav/paparazzi/var/Radian/generated/flight_plan.h ****       Stage(1)
 181:/home/mav/paparazzi/var/Radian/generated/flight_plan.h ****         if (! (nav_line(WP_1, WP_2, nav_radius)))
 2031              		.loc 3 181 0
 2032 0186 2F4B     		ldr	r3, .L230+92
 2033 0188 1868     		ldr	r0, [r3, #0]	@ float
 2034 018a FFF7FEFF 		bl	__aeabi_f2d
 2035 018e 0246     		mov	r2, r0
 2036 0190 0B46     		mov	r3, r1
 2037 0192 0320     		movs	r0, #3
 2038 0194 0421     		movs	r1, #4
 2039 0196 FFF7FEFF 		bl	nav_line
 2040              	.L220:
 2041 019a 0028     		cmp	r0, #0
 2042 019c 40F07382 		bne	.L105
 2043              	.L218:
 182:/home/mav/paparazzi/var/Radian/generated/flight_plan.h ****           NextStageAndBreak();
 2044              		.loc 3 182 0
 2045 01a0 2378     		ldrb	r3, [r4, #0]	@ zero_extendqisi2
 2046 01a2 0133     		adds	r3, r3, #1
 2047 01a4 9EE7     		b	.L212
 2048              	.L198:
 2049              	.LBE32:
 183:/home/mav/paparazzi/var/Radian/generated/flight_plan.h ****         break;
 184:/home/mav/paparazzi/var/Radian/generated/flight_plan.h ****       default:
 185:/home/mav/paparazzi/var/Radian/generated/flight_plan.h ****       Stage(2)
 2050              		.loc 3 185 0
 2051 01a6 0223     		movs	r3, #2
 2052 01a8 2370     		strb	r3, [r4, #0]
 186:/home/mav/paparazzi/var/Radian/generated/flight_plan.h ****         NextBlock();
 2053              		.loc 3 186 0
 2054 01aa 0622     		movs	r2, #6
 2055 01ac 5DE2     		b	.L214
 2056              	.L112:
 187:/home/mav/paparazzi/var/Radian/generated/flight_plan.h ****         break;
 188:/home/mav/paparazzi/var/Radian/generated/flight_plan.h ****     }
 189:/home/mav/paparazzi/var/Radian/generated/flight_plan.h ****     ; // post_call
 190:/home/mav/paparazzi/var/Radian/generated/flight_plan.h ****     break;
 191:/home/mav/paparazzi/var/Radian/generated/flight_plan.h **** 
 192:/home/mav/paparazzi/var/Radian/generated/flight_plan.h ****     Block(6) // Land Right AF-TD
 193:/home/mav/paparazzi/var/Radian/generated/flight_plan.h ****     ; // pre_call
 194:/home/mav/paparazzi/var/Radian/generated/flight_plan.h ****     switch(nav_stage) {
 2057              		.loc 3 194 0
 2058 01ae 114A     		ldr	r2, .L230+12
 2059 01b0 1178     		ldrb	r1, [r2, #0]	@ zero_extendqisi2
 2060 01b2 21B1     		cbz	r1, .L141
 2061 01b4 0129     		cmp	r1, #1
 2062 01b6 4FF00701 		mov	r1, #7
 2063 01ba 06D1     		bne	.L199
 2064 01bc 08E0     		b	.L215
 2065              	.L141:
 195:/home/mav/paparazzi/var/Radian/generated/flight_plan.h ****       Stage(0)
 196:/home/mav/paparazzi/var/Radian/generated/flight_plan.h ****         nav_radius = DEFAULT_CIRCLE_RADIUS;
 2066              		.loc 3 196 0
 2067 01be 214B     		ldr	r3, .L230+92
 2068 01c0 2149     		ldr	r1, .L230+96
 2069 01c2 1960     		str	r1, [r3, #0]	@ float
 197:/home/mav/paparazzi/var/Radian/generated/flight_plan.h ****         NextStageAndBreak();
 2070              		.loc 3 197 0
 2071 01c4 0123     		movs	r3, #1
 2072 01c6 1370     		strb	r3, [r2, #0]
 2073 01c8 26E2     		b	.L209
 2074              	.L199:
 198:/home/mav/paparazzi/var/Radian/generated/flight_plan.h ****         break;
 199:/home/mav/paparazzi/var/Radian/generated/flight_plan.h ****       Stage(1)
 200:/home/mav/paparazzi/var/Radian/generated/flight_plan.h ****         GotoBlock(7);
 201:/home/mav/paparazzi/var/Radian/generated/flight_plan.h ****         break;
 202:/home/mav/paparazzi/var/Radian/generated/flight_plan.h ****       default:
 203:/home/mav/paparazzi/var/Radian/generated/flight_plan.h ****       Stage(2)
 2075              		.loc 3 203 0
 2076 01ca 0223     		movs	r3, #2
 2077 01cc 1370     		strb	r3, [r2, #0]
 204:/home/mav/paparazzi/var/Radian/generated/flight_plan.h ****         NextBlock();
 2078              		.loc 3 204 0
 2079 01ce 084B     		ldr	r3, .L230+8
 2080              	.L215:
 2081 01d0 1970     		strb	r1, [r3, #0]
 2082 01d2 56E2     		b	.L210
 2083              	.L113:
 205:/home/mav/paparazzi/var/Radian/generated/flight_plan.h ****         break;
 206:/home/mav/paparazzi/var/Radian/generated/flight_plan.h ****     }
 207:/home/mav/paparazzi/var/Radian/generated/flight_plan.h ****     ; // post_call
 208:/home/mav/paparazzi/var/Radian/generated/flight_plan.h ****     break;
 209:/home/mav/paparazzi/var/Radian/generated/flight_plan.h **** 
 210:/home/mav/paparazzi/var/Radian/generated/flight_plan.h ****     Block(7) // land
 211:/home/mav/paparazzi/var/Radian/generated/flight_plan.h ****     ; // pre_call
 212:/home/mav/paparazzi/var/Radian/generated/flight_plan.h ****     switch(nav_stage) {
 2084              		.loc 3 212 0
 2085 01d4 074D     		ldr	r5, .L230+12
 2086 01d6 2B78     		ldrb	r3, [r5, #0]	@ zero_extendqisi2
 2087 01d8 012B     		cmp	r3, #1
 2088 01da 00F0A580 		beq	.L145
 2089 01de 35D3     		bcc	.L144
 2090 01e0 022B     		cmp	r3, #2
 2091 01e2 40F0B381 		bne	.L200
 2092 01e6 C9E0     		b	.L228
 2093              	.L231:
 2094              		.align	2
 2095              	.L230:
 2096 01e8 00000000 		.word	.LANCHOR36
 2097 01ec 00000000 		.word	.LANCHOR10
 2098 01f0 00000000 		.word	nav_block
 2099 01f4 00000000 		.word	nav_stage
 2100 01f8 00000000 		.word	gps
 2101 01fc 00000000 		.word	block_time
 2102 0200 00000000 		.word	kill_throttle
 2103 0204 00000000 		.word	lateral_mode
 2104 0208 00000000 		.word	.LANCHOR33
 2105 020c 0000C841 		.word	1103626240
 2106 0210 00000000 		.word	estimator_z
 2107 0214 00000000 		.word	estimator_flight_time
 2108 0218 0000A040 		.word	1084227584
 2109 021c 00000000 		.word	.LANCHOR26
 2110 0220 00000000 		.word	.LANCHOR38
 2111 0224 00000000 		.word	.LANCHOR16
 2112 0228 00000000 		.word	v_ctl_climb_mode
 2113 022c 920A863E 		.word	1048971922
 2114 0230 00000000 		.word	.LANCHOR9
 2115 0234 00000000 		.word	v_ctl_mode
 2116 0238 00000000 		.word	.LANCHOR37
 2117 023c 00000000 		.word	.LANCHOR0
 2118 0240 00000000 		.word	v_ctl_altitude_pre_climb
 2119 0244 00000000 		.word	.LANCHOR39
 2120 0248 0000F042 		.word	1123024896
 2121              	.L144:
 2122              	.LVL106:
 2123              	.LBB33:
 2124              	.LBB34:
 220:subsystems/nav.c ****   float x_0 = waypoints[wp_td].x - waypoints[wp_af].x;
 2125              		.loc 1 220 0
 2126 024c 9C4D     		ldr	r5, .L232+32
 2127 024e A96F     		ldr	r1, [r5, #120]	@ float
 2128 0250 E86E     		ldr	r0, [r5, #108]	@ float
 2129 0252 FFF7FEFF 		bl	__aeabi_fsub
 2130              	.LVL107:
 221:subsystems/nav.c ****   float y_0 = waypoints[wp_td].y - waypoints[wp_af].y;
 2131              		.loc 1 221 0
 2132 0256 E96F     		ldr	r1, [r5, #124]	@ float
 220:subsystems/nav.c ****   float x_0 = waypoints[wp_td].x - waypoints[wp_af].x;
 2133              		.loc 1 220 0
 2134 0258 0646     		mov	r6, r0
 2135              	.LVL108:
 221:subsystems/nav.c ****   float y_0 = waypoints[wp_td].y - waypoints[wp_af].y;
 2136              		.loc 1 221 0
 2137 025a 286F     		ldr	r0, [r5, #112]	@ float
 2138              	.LVL109:
 2139 025c FFF7FEFF 		bl	__aeabi_fsub
 224:subsystems/nav.c ****   float d = sqrt(x_0*x_0+y_0*y_0);
 2140              		.loc 1 224 0
 2141 0260 3146     		mov	r1, r6
 221:subsystems/nav.c ****   float y_0 = waypoints[wp_td].y - waypoints[wp_af].y;
 2142              		.loc 1 221 0
 2143 0262 0446     		mov	r4, r0
 2144              	.LVL110:
 224:subsystems/nav.c ****   float d = sqrt(x_0*x_0+y_0*y_0);
 2145              		.loc 1 224 0
 2146 0264 3046     		mov	r0, r6
 2147              	.LVL111:
 2148 0266 FFF7FEFF 		bl	__aeabi_fmul
 2149 026a 2146     		mov	r1, r4
 2150 026c 0746     		mov	r7, r0
 2151 026e 2046     		mov	r0, r4
 2152 0270 FFF7FEFF 		bl	__aeabi_fmul
 2153 0274 0146     		mov	r1, r0
 2154 0276 3846     		mov	r0, r7
 2155 0278 FFF7FEFF 		bl	__aeabi_fadd
 2156 027c FFF7FEFF 		bl	__aeabi_f2d
 2157 0280 FFF7FEFF 		bl	sqrt
 2158 0284 FFF7FEFF 		bl	__aeabi_d2f
 2159 0288 0746     		mov	r7, r0
 2160              	.LVL112:
 225:subsystems/nav.c ****   float x_1 = x_0 / d;
 2161              		.loc 1 225 0
 2162 028a 3946     		mov	r1, r7
 2163 028c 3046     		mov	r0, r6
 2164              	.LVL113:
 2165 028e FFF7FEFF 		bl	__aeabi_fdiv
 2166              	.LVL114:
 226:subsystems/nav.c ****   float y_1 = y_0 / d;
 2167              		.loc 1 226 0
 2168 0292 3946     		mov	r1, r7
 225:subsystems/nav.c ****   float x_1 = x_0 / d;
 2169              		.loc 1 225 0
 2170 0294 8046     		mov	r8, r0
 2171              	.LVL115:
 226:subsystems/nav.c ****   float y_1 = y_0 / d;
 2172              		.loc 1 226 0
 2173 0296 2046     		mov	r0, r4
 2174              	.LVL116:
 2175 0298 FFF7FEFF 		bl	__aeabi_fdiv
 228:subsystems/nav.c ****   waypoints[wp_baseleg].x = waypoints[wp_af].x + y_1 * nav_radius;
 2176              		.loc 1 228 0
 2177 029c 894C     		ldr	r4, .L232+36
 2178              	.LVL117:
 226:subsystems/nav.c ****   float y_1 = y_0 / d;
 2179              		.loc 1 226 0
 2180 029e 0746     		mov	r7, r0
 2181              	.LVL118:
 228:subsystems/nav.c ****   waypoints[wp_baseleg].x = waypoints[wp_af].x + y_1 * nav_radius;
 2182              		.loc 1 228 0
 2183 02a0 2668     		ldr	r6, [r4, #0]	@ float
 2184              	.LVL119:
 2185 02a2 3146     		mov	r1, r6
 2186 02a4 FFF7FEFF 		bl	__aeabi_fmul
 2187              	.LVL120:
 2188 02a8 0146     		mov	r1, r0
 2189 02aa A86F     		ldr	r0, [r5, #120]	@ float
 2190 02ac FFF7FEFF 		bl	__aeabi_fadd
 229:subsystems/nav.c ****   waypoints[wp_baseleg].y = waypoints[wp_af].y - x_1 * nav_radius;
 2191              		.loc 1 229 0
 2192 02b0 3146     		mov	r1, r6
 228:subsystems/nav.c ****   waypoints[wp_baseleg].x = waypoints[wp_af].x + y_1 * nav_radius;
 2193              		.loc 1 228 0
 2194 02b2 2866     		str	r0, [r5, #96]	@ float
 229:subsystems/nav.c ****   waypoints[wp_baseleg].y = waypoints[wp_af].y - x_1 * nav_radius;
 2195              		.loc 1 229 0
 2196 02b4 4046     		mov	r0, r8
 2197 02b6 FFF7FEFF 		bl	__aeabi_fmul
 2198 02ba 0146     		mov	r1, r0
 2199 02bc E86F     		ldr	r0, [r5, #124]	@ float
 2200 02be FFF7FEFF 		bl	__aeabi_fsub
 230:subsystems/nav.c ****   waypoints[wp_baseleg].a = waypoints[wp_af].a;
 2201              		.loc 1 230 0
 2202 02c2 D5F88030 		ldr	r3, [r5, #128]	@ float
 229:subsystems/nav.c ****   waypoints[wp_baseleg].y = waypoints[wp_af].y - x_1 * nav_radius;
 2203              		.loc 1 229 0
 2204 02c6 6866     		str	r0, [r5, #100]	@ float
 230:subsystems/nav.c ****   waypoints[wp_baseleg].a = waypoints[wp_af].a;
 2205              		.loc 1 230 0
 2206 02c8 AB66     		str	r3, [r5, #104]	@ float
 231:subsystems/nav.c ****   baseleg_out_qdr = M_PI - atan2(-y_1, -x_1);
 2207              		.loc 1 231 0
 2208 02ca 07F10040 		add	r0, r7, #-2147483648
 2209 02ce FFF7FEFF 		bl	__aeabi_f2d
 2210 02d2 0646     		mov	r6, r0
 2211 02d4 08F10040 		add	r0, r8, #-2147483648
 2212 02d8 0F46     		mov	r7, r1
 2213              	.LVL121:
 2214 02da FFF7FEFF 		bl	__aeabi_f2d
 2215 02de 0246     		mov	r2, r0
 2216 02e0 0B46     		mov	r3, r1
 2217 02e2 3046     		mov	r0, r6
 2218 02e4 3946     		mov	r1, r7
 2219 02e6 FFF7FEFF 		bl	atan2
 2220 02ea 0246     		mov	r2, r0
 2221 02ec 0B46     		mov	r3, r1
 2222 02ee 6CA1     		adr	r1, .L232
 2223 02f0 D1E90001 		ldrd	r0, [r1]
 2224 02f4 FFF7FEFF 		bl	__aeabi_dsub
 2225 02f8 FFF7FEFF 		bl	__aeabi_d2f
 2226 02fc 724D     		ldr	r5, .L232+40
 2227 02fe 0646     		mov	r6, r0
 2228 0300 2860     		str	r0, [r5, #0]	@ float
 232:subsystems/nav.c ****   if (nav_radius < 0)
 2229              		.loc 1 232 0
 2230 0302 0021     		movs	r1, #0
 2231 0304 2068     		ldr	r0, [r4, #0]	@ float
 2232 0306 FFF7FEFF 		bl	__aeabi_fcmplt
 2233 030a 0028     		cmp	r0, #0
 2234 030c 00F01A81 		beq	.L216
 233:subsystems/nav.c ****     baseleg_out_qdr += M_PI;
 2235              		.loc 1 233 0
 2236 0310 3046     		mov	r0, r6
 2237 0312 FFF7FEFF 		bl	__aeabi_f2d
 2238 0316 62A3     		adr	r3, .L232
 2239 0318 D3E90023 		ldrd	r2, [r3]
 2240 031c FFF7FEFF 		bl	__aeabi_dadd
 2241 0320 FFF7FEFF 		bl	__aeabi_d2f
 2242 0324 2860     		str	r0, [r5, #0]	@ float
 2243 0326 0DE1     		b	.L216
 2244              	.LVL122:
 2245              	.L145:
 2246              	.LBE34:
 2247              	.LBE33:
 213:/home/mav/paparazzi/var/Radian/generated/flight_plan.h ****       Stage(0)
 214:/home/mav/paparazzi/var/Radian/generated/flight_plan.h ****         if (! (nav_compute_baseleg(WP_AF, WP_TD, WP__BASELEG, nav_radius)))
 215:/home/mav/paparazzi/var/Radian/generated/flight_plan.h ****           NextStageAndBreak();
 216:/home/mav/paparazzi/var/Radian/generated/flight_plan.h ****         break;
 217:/home/mav/paparazzi/var/Radian/generated/flight_plan.h ****       Stage(1)
 218:/home/mav/paparazzi/var/Radian/generated/flight_plan.h ****         NavVerticalAutoThrottleMode(RadOfDeg(0.000000));
 2248              		.loc 3 218 0
 2249 0328 684B     		ldr	r3, .L232+44
 2250 032a 0022     		movs	r2, #0
 2251 032c 1A70     		strb	r2, [r3, #0]
 2252 032e 684B     		ldr	r3, .L232+48
 219:/home/mav/paparazzi/var/Radian/generated/flight_plan.h ****         NavVerticalAltitudeMode(WaypointAlt(8), 0.);
 2253              		.loc 3 219 0
 2254 0330 0322     		movs	r2, #3
 2255              	.LVL123:
 218:/home/mav/paparazzi/var/Radian/generated/flight_plan.h ****         NavVerticalAutoThrottleMode(RadOfDeg(0.000000));
 2256              		.loc 3 218 0
 2257 0332 1C60     		str	r4, [r3, #0]	@ float
 2258              		.loc 3 219 0
 2259 0334 674B     		ldr	r3, .L232+52
 2260 0336 1A70     		strb	r2, [r3, #0]
 2261 0338 614B     		ldr	r3, .L232+32
 2262 033a 674A     		ldr	r2, .L232+56
 2263 033c 996E     		ldr	r1, [r3, #104]	@ float
 220:/home/mav/paparazzi/var/Radian/generated/flight_plan.h ****         NavCircleWaypoint(8, nav_radius);
 2264              		.loc 3 220 0
 2265 033e 186E     		ldr	r0, [r3, #96]	@ float
 219:/home/mav/paparazzi/var/Radian/generated/flight_plan.h ****         NavVerticalAltitudeMode(WaypointAlt(8), 0.);
 2266              		.loc 3 219 0
 2267 0340 1160     		str	r1, [r2, #0]	@ float
 2268              		.loc 3 220 0
 2269 0342 596E     		ldr	r1, [r3, #100]	@ float
 219:/home/mav/paparazzi/var/Radian/generated/flight_plan.h ****         NavVerticalAltitudeMode(WaypointAlt(8), 0.);
 2270              		.loc 3 219 0
 2271 0344 654A     		ldr	r2, .L232+60
 2272              		.loc 3 220 0
 2273 0346 5F4B     		ldr	r3, .L232+36
 219:/home/mav/paparazzi/var/Radian/generated/flight_plan.h ****         NavVerticalAltitudeMode(WaypointAlt(8), 0.);
 2274              		.loc 3 219 0
 2275 0348 1460     		str	r4, [r2, #0]	@ float
 2276              		.loc 3 220 0
 2277 034a 1A68     		ldr	r2, [r3, #0]	@ float
 2278 034c FFF7FEFF 		bl	nav_circle_XY
 221:/home/mav/paparazzi/var/Radian/generated/flight_plan.h ****         if ((NavCircleCount()>0.500000)) NextStageAndBreak();
 2279              		.loc 3 221 0
 2280 0350 634B     		ldr	r3, .L232+64
 2281 0352 1868     		ldr	r0, [r3, #0]
 2282 0354 20F00040 		bic	r0, r0, #-2147483648
 2283 0358 FFF7FEFF 		bl	__aeabi_f2d
 2284 035c 52A3     		adr	r3, .L232+8
 2285 035e D3E90023 		ldrd	r2, [r3]
 2286 0362 FFF7FEFF 		bl	__aeabi_ddiv
 2287 0366 0022     		movs	r2, #0
 2288 0368 5E4B     		ldr	r3, .L232+68
 2289 036a FFF7FEFF 		bl	__aeabi_dcmpgt
 2290 036e 0028     		cmp	r0, #0
 2291 0370 00F08981 		beq	.L105
 2292 0374 2B78     		ldrb	r3, [r5, #0]	@ zero_extendqisi2
 2293 0376 0133     		adds	r3, r3, #1
 2294 0378 2B70     		strb	r3, [r5, #0]
 2295 037a 4DE1     		b	.L209
 2296              	.LVL124:
 2297              	.L228:
 222:/home/mav/paparazzi/var/Radian/generated/flight_plan.h ****         break;
 223:/home/mav/paparazzi/var/Radian/generated/flight_plan.h ****       Stage(2)
 224:/home/mav/paparazzi/var/Radian/generated/flight_plan.h ****         NavVerticalAutoThrottleMode(RadOfDeg(0.000000));
 2298              		.loc 3 224 0
 2299 037c 534B     		ldr	r3, .L232+44
 2300 037e 0025     		movs	r5, #0
 2301 0380 1D70     		strb	r5, [r3, #0]
 2302 0382 534B     		ldr	r3, .L232+48
 225:/home/mav/paparazzi/var/Radian/generated/flight_plan.h ****         NavVerticalAltitudeMode(WaypointAlt(8), 0.);
 2303              		.loc 3 225 0
 2304 0384 0322     		movs	r2, #3
 2305              	.LVL125:
 224:/home/mav/paparazzi/var/Radian/generated/flight_plan.h ****         NavVerticalAutoThrottleMode(RadOfDeg(0.000000));
 2306              		.loc 3 224 0
 2307 0386 1C60     		str	r4, [r3, #0]	@ float
 2308              		.loc 3 225 0
 2309 0388 524B     		ldr	r3, .L232+52
 2310 038a 1A70     		strb	r2, [r3, #0]
 2311 038c 4C4B     		ldr	r3, .L232+32
 2312 038e 524A     		ldr	r2, .L232+56
 2313 0390 996E     		ldr	r1, [r3, #104]	@ float
 226:/home/mav/paparazzi/var/Radian/generated/flight_plan.h ****         NavCircleWaypoint(8, nav_radius);
 2314              		.loc 3 226 0
 2315 0392 186E     		ldr	r0, [r3, #96]	@ float
 225:/home/mav/paparazzi/var/Radian/generated/flight_plan.h ****         NavVerticalAltitudeMode(WaypointAlt(8), 0.);
 2316              		.loc 3 225 0
 2317 0394 1160     		str	r1, [r2, #0]	@ float
 2318 0396 514A     		ldr	r2, .L232+60
 2319              		.loc 3 226 0
 2320 0398 596E     		ldr	r1, [r3, #100]	@ float
 225:/home/mav/paparazzi/var/Radian/generated/flight_plan.h ****         NavVerticalAltitudeMode(WaypointAlt(8), 0.);
 2321              		.loc 3 225 0
 2322 039a 1460     		str	r4, [r2, #0]	@ float
 2323              		.loc 3 226 0
 2324 039c 494C     		ldr	r4, .L232+36
 2325              	.LVL126:
 2326 039e 2268     		ldr	r2, [r4, #0]	@ float
 2327 03a0 FFF7FEFF 		bl	nav_circle_XY
 2328              	.LBB35:
 227:/home/mav/paparazzi/var/Radian/generated/flight_plan.h ****         if (And(NavQdrCloseTo((DegOfRad(baseleg_out_qdr)-((nav_radius/fabs(nav_radius))*10))),(10>f
 2329              		.loc 3 227 0
 2330 03a4 484B     		ldr	r3, .L232+40
 2331 03a6 2468     		ldr	r4, [r4, #0]	@ float
 2332 03a8 1868     		ldr	r0, [r3, #0]	@ float
 2333 03aa FFF7FEFF 		bl	__aeabi_f2d
 2334 03ae 40A3     		adr	r3, .L232+16
 2335 03b0 D3E90023 		ldrd	r2, [r3]
 2336 03b4 FFF7FEFF 		bl	__aeabi_dmul
 2337 03b8 8046     		mov	r8, r0
 2338 03ba 2046     		mov	r0, r4
 2339 03bc 8946     		mov	r9, r1
 2340 03be FFF7FEFF 		bl	__aeabi_f2d
 2341 03c2 0646     		mov	r6, r0
 2342 03c4 24F00040 		bic	r0, r4, #-2147483648
 2343 03c8 0F46     		mov	r7, r1
 2344 03ca FFF7FEFF 		bl	__aeabi_f2d
 2345 03ce 0246     		mov	r2, r0
 2346 03d0 0B46     		mov	r3, r1
 2347 03d2 3046     		mov	r0, r6
 2348 03d4 3946     		mov	r1, r7
 2349 03d6 FFF7FEFF 		bl	__aeabi_ddiv
 2350 03da 0022     		movs	r2, #0
 2351 03dc 424B     		ldr	r3, .L232+72
 2352 03de FFF7FEFF 		bl	__aeabi_dmul
 2353 03e2 0246     		mov	r2, r0
 2354 03e4 0B46     		mov	r3, r1
 2355 03e6 4046     		mov	r0, r8
 2356 03e8 4946     		mov	r1, r9
 2357 03ea FFF7FEFF 		bl	__aeabi_dsub
 2358              	.LBB36:
 2359 03ee 3F4B     		ldr	r3, .L232+76
 2360              	.LBE36:
 2361 03f0 0646     		mov	r6, r0
 2362              	.LBB38:
 2363 03f2 1868     		ldr	r0, [r3, #0]	@ float
 2364              	.LBE38:
 2365 03f4 0F46     		mov	r7, r1
 2366              	.LBB39:
 2367 03f6 FFF7FEFF 		bl	__aeabi_f2d
 2368 03fa 0246     		mov	r2, r0
 2369 03fc 0B46     		mov	r3, r1
 2370 03fe 2EA1     		adr	r1, .L232+24
 2371 0400 D1E90001 		ldrd	r0, [r1]
 2372 0404 FFF7FEFF 		bl	__aeabi_dsub
 2373 0408 29A3     		adr	r3, .L232+16
 2374 040a D3E90023 		ldrd	r2, [r3]
 2375 040e FFF7FEFF 		bl	__aeabi_dmul
 2376 0412 FFF7FEFF 		bl	__aeabi_d2f
 2377 0416 A846     		mov	r8, r5
 2378 0418 0446     		mov	r4, r0
 2379              	.LVL127:
 2380 041a 04E0     		b	.L150
 2381              	.LVL128:
 2382              	.L153:
 2383              	.LBB37:
 2384 041c 2046     		mov	r0, r4
 2385 041e 3449     		ldr	r1, .L232+80
 2386 0420 FFF7FEFF 		bl	__aeabi_fadd
 2387 0424 0446     		mov	r4, r0
 2388              	.LVL129:
 2389              	.L150:
 2390 0426 2046     		mov	r0, r4
 2391              	.LVL130:
 2392 0428 0021     		movs	r1, #0
 2393 042a 5FFA88F5 		uxtb	r5, r8
 2394 042e FFF7FEFF 		bl	__aeabi_fcmplt
 2395 0432 58B1     		cbz	r0, .L201
 2396 0434 08F10108 		add	r8, r8, #1
 2397 0438 B8F5807F 		cmp	r8, #256
 2398 043c EED1     		bne	.L153
 2399 043e 0025     		movs	r5, #0
 2400 0440 04E0     		b	.L201
 2401              	.LVL131:
 2402              	.L157:
 2403 0442 2046     		mov	r0, r4
 2404 0444 2A49     		ldr	r1, .L232+80
 2405 0446 FFF7FEFF 		bl	__aeabi_fsub
 2406 044a 0446     		mov	r4, r0
 2407              	.LVL132:
 2408              	.L201:
 2409 044c 2046     		mov	r0, r4
 2410 044e 2849     		ldr	r1, .L232+80
 2411 0450 FFF7FEFF 		bl	__aeabi_fcmpge
 2412 0454 18B1     		cbz	r0, .L155
 2413 0456 0135     		adds	r5, r5, #1
 2414              	.LVL133:
 2415 0458 EDB2     		uxtb	r5, r5
 2416              	.LVL134:
 2417 045a 002D     		cmp	r5, #0
 2418 045c F1D1     		bne	.L157
 2419              	.LVL135:
 2420              	.L155:
 2421              	.LBE37:
 2422              	.LBE39:
 2423 045e 2046     		mov	r0, r4
 2424 0460 FFF7FEFF 		bl	__aeabi_f2d
 2425 0464 0246     		mov	r2, r0
 2426 0466 0B46     		mov	r3, r1
 2427 0468 3046     		mov	r0, r6
 2428 046a 3946     		mov	r1, r7
 2429 046c FFF7FEFF 		bl	__aeabi_dsub
 2430 0470 FFF7FEFF 		bl	__aeabi_d2f
 2431 0474 0026     		movs	r6, #0
 2432 0476 0446     		mov	r4, r0
 2433              	.LVL136:
 2434 0478 04E0     		b	.L158
 2435              	.LVL137:
 2436              	.L161:
 2437              	.LBB40:
 2438 047a 2046     		mov	r0, r4
 2439 047c 1C49     		ldr	r1, .L232+80
 2440 047e FFF7FEFF 		bl	__aeabi_fadd
 2441 0482 0446     		mov	r4, r0
 2442              	.LVL138:
 2443              	.L158:
 2444 0484 2046     		mov	r0, r4
 2445              	.LVL139:
 2446 0486 0021     		movs	r1, #0
 2447 0488 F5B2     		uxtb	r5, r6
 2448 048a FFF7FEFF 		bl	__aeabi_fcmplt
 2449 048e B0B3     		cbz	r0, .L202
 2450 0490 0136     		adds	r6, r6, #1
 2451 0492 B6F5807F 		cmp	r6, #256
 2452 0496 F0D1     		bne	.L161
 2453 0498 0025     		movs	r5, #0
 2454 049a 30E0     		b	.L202
 2455              	.L233:
 2456 049c AFF30080 		.align	3
 2457              	.L232:
 2458 04a0 182D4454 		.word	1413754136
 2459 04a4 FB210940 		.word	1074340347
 2460 04a8 182D4454 		.word	1413754136
 2461 04ac FB211940 		.word	1075388923
 2462 04b0 F8C1631A 		.word	442745336
 2463 04b4 DCA54C40 		.word	1078765020
 2464 04b8 182D4454 		.word	1413754136
 2465 04bc FB21F93F 		.word	1073291771
 2466 04c0 00000000 		.word	.LANCHOR26
 2467 04c4 00000000 		.word	.LANCHOR39
 2468 04c8 00000000 		.word	.LANCHOR40
 2469 04cc 00000000 		.word	v_ctl_climb_mode
 2470 04d0 00000000 		.word	.LANCHOR9
 2471 04d4 00000000 		.word	v_ctl_mode
 2472 04d8 00000000 		.word	.LANCHOR0
 2473 04dc 00000000 		.word	v_ctl_altitude_pre_climb
 2474 04e0 00000000 		.word	.LANCHOR5
 2475 04e4 0000E03F 		.word	1071644672
 2476 04e8 00002440 		.word	1076101120
 2477 04ec 00000000 		.word	.LANCHOR14
 2478 04f0 0000B443 		.word	1135869952
 2479              	.LVL140:
 2480              	.L165:
 2481 04f4 2046     		mov	r0, r4
 2482 04f6 6B49     		ldr	r1, .L234
 2483 04f8 FFF7FEFF 		bl	__aeabi_fsub
 2484 04fc 0446     		mov	r4, r0
 2485              	.LVL141:
 2486              	.L202:
 2487 04fe 2046     		mov	r0, r4
 2488 0500 6849     		ldr	r1, .L234
 2489 0502 FFF7FEFF 		bl	__aeabi_fcmpge
 2490 0506 18B1     		cbz	r0, .L163
 2491 0508 0135     		adds	r5, r5, #1
 2492              	.LVL142:
 2493 050a EDB2     		uxtb	r5, r5
 2494              	.LVL143:
 2495 050c 002D     		cmp	r5, #0
 2496 050e F1D1     		bne	.L165
 2497              	.LVL144:
 2498              	.L163:
 2499              	.LBE40:
 2500 0510 2046     		mov	r0, r4
 2501 0512 6549     		ldr	r1, .L234+4
 2502 0514 FFF7FEFF 		bl	__aeabi_fcmpgt
 2503 0518 30B9     		cbnz	r0, .L166
 2504 051a 2046     		mov	r0, r4
 2505 051c 6349     		ldr	r1, .L234+8
 2506 051e FFF7FEFF 		bl	__aeabi_fcmplt
 2507 0522 0028     		cmp	r0, #0
 2508 0524 00F0AF80 		beq	.L105
 2509              	.L166:
 2510              	.LBE35:
 2511 0528 614B     		ldr	r3, .L234+12
 2512 052a 1868     		ldr	r0, [r3, #0]	@ float
 2513 052c 614B     		ldr	r3, .L234+16
 2514 052e 996E     		ldr	r1, [r3, #104]	@ float
 2515 0530 FFF7FEFF 		bl	__aeabi_fsub
 2516 0534 5D49     		ldr	r1, .L234+8
 2517 0536 20F00040 		bic	r0, r0, #-2147483648
 2518 053a FFF7FEFF 		bl	__aeabi_fcmplt
 2519 053e 0028     		cmp	r0, #0
 2520 0540 00F0A180 		beq	.L105
 2521              	.LVL145:
 2522              	.L216:
 2523 0544 5C4B     		ldr	r3, .L234+20
 2524 0546 1A78     		ldrb	r2, [r3, #0]	@ zero_extendqisi2
 2525 0548 0132     		adds	r2, r2, #1
 2526 054a ABE5     		b	.L211
 2527              	.L200:
 228:/home/mav/paparazzi/var/Radian/generated/flight_plan.h ****         break;
 229:/home/mav/paparazzi/var/Radian/generated/flight_plan.h ****       default:
 230:/home/mav/paparazzi/var/Radian/generated/flight_plan.h ****       Stage(3)
 2528              		.loc 3 230 0
 2529 054c 0323     		movs	r3, #3
 2530 054e 2B70     		strb	r3, [r5, #0]
 231:/home/mav/paparazzi/var/Radian/generated/flight_plan.h ****         NextBlock();
 2531              		.loc 3 231 0
 2532 0550 0822     		movs	r2, #8
 2533 0552 8AE0     		b	.L214
 2534              	.L114:
 232:/home/mav/paparazzi/var/Radian/generated/flight_plan.h ****         break;
 233:/home/mav/paparazzi/var/Radian/generated/flight_plan.h ****     }
 234:/home/mav/paparazzi/var/Radian/generated/flight_plan.h ****     ; // post_call
 235:/home/mav/paparazzi/var/Radian/generated/flight_plan.h ****     break;
 236:/home/mav/paparazzi/var/Radian/generated/flight_plan.h **** 
 237:/home/mav/paparazzi/var/Radian/generated/flight_plan.h ****     Block(8) // final
 238:/home/mav/paparazzi/var/Radian/generated/flight_plan.h ****     ; // pre_call
 239:/home/mav/paparazzi/var/Radian/generated/flight_plan.h ****     if ((nav_block != 9) && ((ground_alt+10)>estimator_z)) { GotoBlock(9); return; }
 2535              		.loc 3 239 0
 2536 0554 594B     		ldr	r3, .L234+24
 2537 0556 5549     		ldr	r1, .L234+8
 2538 0558 1868     		ldr	r0, [r3, #0]	@ float
 2539 055a FFF7FEFF 		bl	__aeabi_fadd
 2540 055e 544B     		ldr	r3, .L234+12
 2541 0560 1968     		ldr	r1, [r3, #0]	@ float
 2542 0562 FFF7FEFF 		bl	__aeabi_fcmpgt
 2543 0566 0028     		cmp	r0, #0
 2544 0568 3CD1     		bne	.L223
 2545              	.L203:
 240:/home/mav/paparazzi/var/Radian/generated/flight_plan.h ****     switch(nav_stage) {
 2546              		.loc 3 240 0
 2547 056a 534E     		ldr	r6, .L234+20
 2548 056c 3378     		ldrb	r3, [r6, #0]	@ zero_extendqisi2
 2549 056e 002B     		cmp	r3, #0
 2550 0570 36D1     		bne	.L204
 241:/home/mav/paparazzi/var/Radian/generated/flight_plan.h ****       Stage(0)
 242:/home/mav/paparazzi/var/Radian/generated/flight_plan.h ****         if (NavApproachingFrom(9,10,CARROT)) NextStageAndBreakFrom(9) else {
 2551              		.loc 3 242 0
 2552 0572 534B     		ldr	r3, .L234+28
 2553 0574 4F4D     		ldr	r5, .L234+16
 2554 0576 0093     		str	r3, [sp, #0]	@ float
 2555 0578 E86E     		ldr	r0, [r5, #108]	@ float
 2556 057a 296F     		ldr	r1, [r5, #112]	@ float
 2557 057c AA6F     		ldr	r2, [r5, #120]	@ float
 2558 057e EB6F     		ldr	r3, [r5, #124]	@ float
 2559 0580 FFF7FEFF 		bl	nav_approaching_xy
 2560 0584 0746     		mov	r7, r0
 2561 0586 0028     		cmp	r0, #0
 2562 0588 40D1     		bne	.L208
 2563              	.L173:
 243:/home/mav/paparazzi/var/Radian/generated/flight_plan.h ****           NavSegment(10, 9);
 2564              		.loc 3 243 0
 2565 058a EA6E     		ldr	r2, [r5, #108]	@ float
 2566 058c A86F     		ldr	r0, [r5, #120]	@ float
 2567 058e E96F     		ldr	r1, [r5, #124]	@ float
 2568 0590 2B6F     		ldr	r3, [r5, #112]	@ float
 2569 0592 FFF7FEFF 		bl	nav_route_xy
 244:/home/mav/paparazzi/var/Radian/generated/flight_plan.h ****           NavVerticalAutoThrottleMode(RadOfDeg(0.000000));
 2570              		.loc 3 244 0
 2571 0596 4B4B     		ldr	r3, .L234+32
 2572              	.LBB41:
 245:/home/mav/paparazzi/var/Radian/generated/flight_plan.h ****           NavGlide(10, 9);
 2573              		.loc 3 245 0
 2574 0598 686F     		ldr	r0, [r5, #116]	@ float
 2575              	.LBE41:
 244:/home/mav/paparazzi/var/Radian/generated/flight_plan.h ****           NavVerticalAutoThrottleMode(RadOfDeg(0.000000));
 2576              		.loc 3 244 0
 2577 059a 1F70     		strb	r7, [r3, #0]
 2578 059c 4A4B     		ldr	r3, .L234+36
 2579              	.LVL146:
 2580 059e 1C60     		str	r4, [r3, #0]	@ float
 2581              	.LBB42:
 2582              		.loc 3 245 0
 2583 05a0 D5F88040 		ldr	r4, [r5, #128]	@ float
 2584              	.LVL147:
 2585 05a4 2146     		mov	r1, r4
 2586 05a6 FFF7FEFF 		bl	__aeabi_fsub
 2587              	.LVL148:
 2588 05aa 484B     		ldr	r3, .L234+40
 2589 05ac 0546     		mov	r5, r0
 2590              	.LVL149:
 2591 05ae 1968     		ldr	r1, [r3, #0]	@ float
 2592 05b0 FFF7FEFF 		bl	__aeabi_fmul
 2593              	.LVL150:
 2594 05b4 0146     		mov	r1, r0
 2595 05b6 2046     		mov	r0, r4
 2596 05b8 FFF7FEFF 		bl	__aeabi_fadd
 2597 05bc 444B     		ldr	r3, .L234+44
 2598 05be 0446     		mov	r4, r0
 2599              	.LVL151:
 2600 05c0 1968     		ldr	r1, [r3, #0]	@ float
 2601 05c2 2846     		mov	r0, r5
 2602              	.LVL152:
 2603 05c4 FFF7FEFF 		bl	__aeabi_fmul
 2604 05c8 424B     		ldr	r3, .L234+48
 2605 05ca 1968     		ldr	r1, [r3, #0]	@ float
 2606 05cc FFF7FEFF 		bl	__aeabi_fdiv
 2607              	.LVL153:
 2608 05d0 414B     		ldr	r3, .L234+52
 2609 05d2 0322     		movs	r2, #3
 2610 05d4 1A70     		strb	r2, [r3, #0]
 2611 05d6 414B     		ldr	r3, .L234+56
 2612 05d8 1C60     		str	r4, [r3, #0]	@ float
 2613 05da 414B     		ldr	r3, .L234+60
 2614 05dc 1860     		str	r0, [r3, #0]	@ float
 2615 05de 52E0     		b	.L105
 2616              	.LVL154:
 2617              	.L204:
 2618              	.LBE42:
 246:/home/mav/paparazzi/var/Radian/generated/flight_plan.h ****         }
 247:/home/mav/paparazzi/var/Radian/generated/flight_plan.h ****         break;
 248:/home/mav/paparazzi/var/Radian/generated/flight_plan.h ****       default:
 249:/home/mav/paparazzi/var/Radian/generated/flight_plan.h ****       Stage(1)
 2619              		.loc 3 249 0
 2620 05e0 0123     		movs	r3, #1
 2621 05e2 3370     		strb	r3, [r6, #0]
 2622              	.L223:
 250:/home/mav/paparazzi/var/Radian/generated/flight_plan.h ****         NextBlock();
 2623              		.loc 3 250 0
 2624 05e4 0922     		movs	r2, #9
 2625 05e6 40E0     		b	.L214
 2626              	.L115:
 251:/home/mav/paparazzi/var/Radian/generated/flight_plan.h ****         break;
 252:/home/mav/paparazzi/var/Radian/generated/flight_plan.h ****     }
 253:/home/mav/paparazzi/var/Radian/generated/flight_plan.h ****     ; // post_call
 254:/home/mav/paparazzi/var/Radian/generated/flight_plan.h ****     break;
 255:/home/mav/paparazzi/var/Radian/generated/flight_plan.h **** 
 256:/home/mav/paparazzi/var/Radian/generated/flight_plan.h ****     Block(9) // flare
 257:/home/mav/paparazzi/var/Radian/generated/flight_plan.h ****     ; // pre_call
 258:/home/mav/paparazzi/var/Radian/generated/flight_plan.h ****     switch(nav_stage) {
 2627              		.loc 3 258 0
 2628 05e8 334E     		ldr	r6, .L234+20
 2629 05ea 3378     		ldrb	r3, [r6, #0]	@ zero_extendqisi2
 2630 05ec 23B1     		cbz	r3, .L175
 2631 05ee 012B     		cmp	r3, #1
 2632 05f0 4FF00203 		mov	r3, #2
 2633 05f4 37D1     		bne	.L205
 2634 05f6 23E0     		b	.L229
 2635              	.L175:
 259:/home/mav/paparazzi/var/Radian/generated/flight_plan.h ****       Stage(0)
 260:/home/mav/paparazzi/var/Radian/generated/flight_plan.h ****         if (NavApproachingFrom(9,10,0)) NextStageAndBreakFrom(9) else {
 2636              		.loc 3 260 0
 2637 05f8 2E4D     		ldr	r5, .L234+16
 2638              	.LVL155:
 2639 05fa 0094     		str	r4, [sp, #0]	@ float
 2640 05fc E86E     		ldr	r0, [r5, #108]	@ float
 2641 05fe 296F     		ldr	r1, [r5, #112]	@ float
 2642 0600 AA6F     		ldr	r2, [r5, #120]	@ float
 2643 0602 EB6F     		ldr	r3, [r5, #124]	@ float
 2644 0604 FFF7FEFF 		bl	nav_approaching_xy
 2645 0608 0446     		mov	r4, r0
 2646              	.LVL156:
 2647 060a 40B1     		cbz	r0, .L177
 2648              	.L208:
 2649 060c 354B     		ldr	r3, .L234+64
 2650 060e 0922     		movs	r2, #9
 2651 0610 1A70     		strb	r2, [r3, #0]
 2652 0612 3378     		ldrb	r3, [r6, #0]	@ zero_extendqisi2
 2653 0614 0133     		adds	r3, r3, #1
 2654 0616 3370     		strb	r3, [r6, #0]
 2655              	.LVL157:
 2656              	.L209:
 2657 0618 FFF7FEFF 		bl	nav_init_stage
 2658 061c 33E0     		b	.L105
 2659              	.LVL158:
 2660              	.L177:
 261:/home/mav/paparazzi/var/Radian/generated/flight_plan.h ****           NavSegment(10, 9);
 2661              		.loc 3 261 0
 2662 061e EA6E     		ldr	r2, [r5, #108]	@ float
 2663 0620 2B6F     		ldr	r3, [r5, #112]	@ float
 2664 0622 A86F     		ldr	r0, [r5, #120]	@ float
 2665 0624 E96F     		ldr	r1, [r5, #124]	@ float
 2666 0626 FFF7FEFF 		bl	nav_route_xy
 262:/home/mav/paparazzi/var/Radian/generated/flight_plan.h ****           NavVerticalAutoThrottleMode(RadOfDeg(0.000000));
 2667              		.loc 3 262 0
 2668 062a 264B     		ldr	r3, .L234+32
 2669 062c 0022     		movs	r2, #0
 2670 062e 1C70     		strb	r4, [r3, #0]
 2671 0630 254B     		ldr	r3, .L234+36
 2672 0632 1A60     		str	r2, [r3, #0]	@ float
 263:/home/mav/paparazzi/var/Radian/generated/flight_plan.h ****           NavVerticalThrottleMode(9600*(0.000000));
 2673              		.loc 3 263 0
 2674 0634 284B     		ldr	r3, .L234+52
 2675 0636 0122     		movs	r2, #1
 2676 0638 1A70     		strb	r2, [r3, #0]
 2677 063a 2B4B     		ldr	r3, .L234+68
 2678 063c 1C80     		strh	r4, [r3, #0]	@ movhi
 2679 063e 22E0     		b	.L105
 2680              	.L229:
 264:/home/mav/paparazzi/var/Radian/generated/flight_plan.h ****         }
 265:/home/mav/paparazzi/var/Radian/generated/flight_plan.h ****         break;
 266:/home/mav/paparazzi/var/Radian/generated/flight_plan.h ****       Stage(1)
 267:/home/mav/paparazzi/var/Radian/generated/flight_plan.h ****         if (FALSE) NextStageAndBreak() else {
 268:/home/mav/paparazzi/var/Radian/generated/flight_plan.h ****           NavAttitude(RadOfDeg(0.000000));
 2681              		.loc 3 268 0
 2682 0640 2A4A     		ldr	r2, .L234+72
 2683 0642 1370     		strb	r3, [r2, #0]
 2684              	.L222:
 2685 0644 2A4B     		ldr	r3, .L234+76
 269:/home/mav/paparazzi/var/Radian/generated/flight_plan.h ****           NavVerticalAutoThrottleMode(RadOfDeg(0.000000));
 2686              		.loc 3 269 0
 2687 0646 1F4A     		ldr	r2, .L234+32
 268:/home/mav/paparazzi/var/Radian/generated/flight_plan.h ****           NavAttitude(RadOfDeg(0.000000));
 2688              		.loc 3 268 0
 2689 0648 1B78     		ldrb	r3, [r3, #0]	@ zero_extendqisi2
 2690 064a 012B     		cmp	r3, #1
 2691 064c 1CBF     		itt	ne
 2692 064e 294B     		ldrne	r3, .L234+80
 2693              	.LVL159:
 2694 0650 1C60     		strne	r4, [r3, #0]	@ float
 2695              		.loc 3 269 0
 2696 0652 0023     		movs	r3, #0
 2697 0654 1370     		strb	r3, [r2, #0]
 2698 0656 1C4A     		ldr	r2, .L234+36
 270:/home/mav/paparazzi/var/Radian/generated/flight_plan.h ****           NavVerticalThrottleMode(9600*(0.000000));
 2699              		.loc 3 270 0
 2700 0658 0121     		movs	r1, #1
 269:/home/mav/paparazzi/var/Radian/generated/flight_plan.h ****           NavVerticalAutoThrottleMode(RadOfDeg(0.000000));
 2701              		.loc 3 269 0
 2702 065a 1460     		str	r4, [r2, #0]	@ float
 2703              		.loc 3 270 0
 2704 065c 1E4A     		ldr	r2, .L234+52
 2705 065e 1170     		strb	r1, [r2, #0]
 2706 0660 214A     		ldr	r2, .L234+68
 2707 0662 1380     		strh	r3, [r2, #0]	@ movhi
 2708 0664 0FE0     		b	.L105
 2709              	.LVL160:
 2710              	.L205:
 271:/home/mav/paparazzi/var/Radian/generated/flight_plan.h ****         }
 272:/home/mav/paparazzi/var/Radian/generated/flight_plan.h ****         break;
 273:/home/mav/paparazzi/var/Radian/generated/flight_plan.h ****       default:
 274:/home/mav/paparazzi/var/Radian/generated/flight_plan.h ****       Stage(2)
 2711              		.loc 3 274 0
 2712 0666 3370     		strb	r3, [r6, #0]
 275:/home/mav/paparazzi/var/Radian/generated/flight_plan.h ****         NextBlock();
 2713              		.loc 3 275 0
 2714 0668 0A22     		movs	r2, #10
 2715              	.L214:
 2716 066a 234B     		ldr	r3, .L234+84
 2717 066c 08E0     		b	.L207
 2718              	.L116:
 276:/home/mav/paparazzi/var/Radian/generated/flight_plan.h ****         break;
 277:/home/mav/paparazzi/var/Radian/generated/flight_plan.h ****     }
 278:/home/mav/paparazzi/var/Radian/generated/flight_plan.h ****     ; // post_call
 279:/home/mav/paparazzi/var/Radian/generated/flight_plan.h ****     break;
 280:/home/mav/paparazzi/var/Radian/generated/flight_plan.h **** 
 281:/home/mav/paparazzi/var/Radian/generated/flight_plan.h ****     Block(10) // HOME
 282:/home/mav/paparazzi/var/Radian/generated/flight_plan.h ****     ; // pre_call
 283:/home/mav/paparazzi/var/Radian/generated/flight_plan.h ****     switch(nav_stage) {
 2719              		.loc 3 283 0
 2720 066e 124A     		ldr	r2, .L234+20
 2721 0670 1178     		ldrb	r1, [r2, #0]	@ zero_extendqisi2
 2722 0672 11B9     		cbnz	r1, .L206
 284:/home/mav/paparazzi/var/Radian/generated/flight_plan.h ****       Stage(0)
 285:/home/mav/paparazzi/var/Radian/generated/flight_plan.h ****         nav_home();
 2723              		.loc 3 285 0
 2724 0674 FFF7FEFF 		bl	nav_home
 2725 0678 05E0     		b	.L105
 2726              	.L206:
 286:/home/mav/paparazzi/var/Radian/generated/flight_plan.h ****         break;
 287:/home/mav/paparazzi/var/Radian/generated/flight_plan.h ****       default:
 288:/home/mav/paparazzi/var/Radian/generated/flight_plan.h ****       Stage(1)
 2727              		.loc 3 288 0
 2728 067a 0121     		movs	r1, #1
 2729 067c 1170     		strb	r1, [r2, #0]
 289:/home/mav/paparazzi/var/Radian/generated/flight_plan.h ****         NextBlock();
 2730              		.loc 3 289 0
 2731 067e 0B22     		movs	r2, #11
 2732              	.L207:
 2733 0680 1A70     		strb	r2, [r3, #0]
 2734              	.L210:
 2735 0682 FFF7FEFF 		bl	nav_init_block
 2736              	.LVL161:
 2737              	.L105:
 2738              	.LBE29:
 2739              	.LBE28:
 395:subsystems/nav.c **** 
 396:subsystems/nav.c ****   auto_nav(); /* From flight_plan.h */
 397:subsystems/nav.c **** 
 398:subsystems/nav.c ****   h_ctl_course_pre_bank = nav_in_circle ? circle_bank : 0;
 2740              		.loc 1 398 0
 2741 0686 1D4B     		ldr	r3, .L234+88
 2742 0688 1B78     		ldrb	r3, [r3, #0]	@ zero_extendqisi2
 2743 068a 13B1     		cbz	r3, .L182
 2744              		.loc 1 398 0 is_stmt 0 discriminator 1
 2745 068c 1C4B     		ldr	r3, .L234+92
 2746 068e 1B68     		ldr	r3, [r3, #0]	@ float
 2747              	.LVL162:
 2748 0690 00E0     		b	.L181
 2749              	.LVL163:
 2750              	.L182:
 2751              		.loc 1 398 0
 2752 0692 0023     		movs	r3, #0
 2753              	.LVL164:
 2754              	.L181:
 2755              		.loc 1 398 0 discriminator 3
 2756 0694 1B4A     		ldr	r2, .L234+96
 2757              	.LVL165:
 2758 0696 1360     		str	r3, [r2, #0]	@ float
 399:subsystems/nav.c **** 
 400:subsystems/nav.c **** #ifdef AGR_CLIMB
 401:subsystems/nav.c ****   if ( v_ctl_mode == V_CTL_MODE_AUTO_CLIMB)
 402:subsystems/nav.c ****     v_ctl_auto_throttle_submode =  V_CTL_AUTO_THROTTLE_STANDARD;
 403:subsystems/nav.c **** #endif
 404:subsystems/nav.c **** 
 405:subsystems/nav.c ****   nav_set_altitude();
 406:subsystems/nav.c **** }
 2759              		.loc 1 406 0 is_stmt 1 discriminator 3
 2760 0698 03B0     		add	sp, sp, #12
 2761 069a BDE8F043 		pop	{r4, r5, r6, r7, r8, r9, lr}
 405:subsystems/nav.c ****   nav_set_altitude();
 2762              		.loc 1 405 0 discriminator 3
 2763 069e FFF7FEBF 		b	nav_set_altitude
 2764              	.LVL166:
 2765              	.L235:
 2766 06a2 00BF     		.align	2
 2767              	.L234:
 2768 06a4 0000B443 		.word	1135869952
 2769 06a8 0000AF43 		.word	1135542272
 2770 06ac 00002041 		.word	1092616192
 2771 06b0 00000000 		.word	estimator_z
 2772 06b4 00000000 		.word	.LANCHOR26
 2773 06b8 00000000 		.word	nav_stage
 2774 06bc 00000000 		.word	.LANCHOR33
 2775 06c0 0000A040 		.word	1084227584
 2776 06c4 00000000 		.word	v_ctl_climb_mode
 2777 06c8 00000000 		.word	.LANCHOR9
 2778 06cc 00000000 		.word	.LANCHOR21
 2779 06d0 00000000 		.word	estimator_hspeed_mod
 2780 06d4 00000000 		.word	.LANCHOR20
 2781 06d8 00000000 		.word	v_ctl_mode
 2782 06dc 00000000 		.word	.LANCHOR0
 2783 06e0 00000000 		.word	v_ctl_altitude_pre_climb
 2784 06e4 00000000 		.word	.LANCHOR38
 2785 06e8 00000000 		.word	.LANCHOR37
 2786 06ec 00000000 		.word	lateral_mode
 2787 06f0 00000000 		.word	pprz_mode
 2788 06f4 00000000 		.word	h_ctl_roll_setpoint
 2789 06f8 00000000 		.word	nav_block
 2790 06fc 00000000 		.word	.LANCHOR6
 2791 0700 00000000 		.word	.LANCHOR15
 2792 0704 00000000 		.word	h_ctl_course_pre_bank
 2793              		.cfi_endproc
 2794              	.LFE52:
 2796              		.section	.text.nav_init,"ax",%progbits
 2797              		.align	1
 2798              		.global	nav_init
 2799              		.thumb
 2800              		.thumb_func
 2802              	nav_init:
 2803              	.LFB53:
 407:subsystems/nav.c **** 
 408:subsystems/nav.c **** 
 409:subsystems/nav.c **** /**
 410:subsystems/nav.c ****  *  \brief Navigation Initialisation
 411:subsystems/nav.c ****  */
 412:subsystems/nav.c **** void nav_init(void) {
 2804              		.loc 1 412 0
 2805              		.cfi_startproc
 2806              		@ args = 0, pretend = 0, frame = 0
 2807              		@ frame_needed = 0, uses_anonymous_args = 0
 2808              		@ link register save eliminated.
 413:subsystems/nav.c ****   nav_block = 0;
 2809              		.loc 1 413 0
 2810 0000 0A4A     		ldr	r2, .L237
 2811 0002 0023     		movs	r3, #0
 2812 0004 1370     		strb	r3, [r2, #0]
 414:subsystems/nav.c ****   nav_stage = 0;
 2813              		.loc 1 414 0
 2814 0006 0A4A     		ldr	r2, .L237+4
 2815 0008 1370     		strb	r3, [r2, #0]
 415:subsystems/nav.c ****   ground_alt = GROUND_ALT;
 2816              		.loc 1 415 0
 2817 000a 0A4A     		ldr	r2, .L237+8
 2818 000c 0A4B     		ldr	r3, .L237+12
 2819 000e 1A60     		str	r2, [r3, #0]	@ float
 416:subsystems/nav.c ****   nav_glide_pitch_trim = NAV_GLIDE_PITCH_TRIM;
 2820              		.loc 1 416 0
 2821 0010 0A4B     		ldr	r3, .L237+16
 2822 0012 0022     		movs	r2, #0
 2823 0014 1A60     		str	r2, [r3, #0]	@ float
 417:subsystems/nav.c ****   nav_radius = DEFAULT_CIRCLE_RADIUS;
 2824              		.loc 1 417 0
 2825 0016 0A4A     		ldr	r2, .L237+20
 2826 0018 0A4B     		ldr	r3, .L237+24
 2827 001a 1A60     		str	r2, [r3, #0]	@ float
 418:subsystems/nav.c ****   nav_survey_shift = 2*DEFAULT_CIRCLE_RADIUS;
 2828              		.loc 1 418 0
 2829 001c 0A4A     		ldr	r2, .L237+28
 2830 001e 0B4B     		ldr	r3, .L237+32
 2831 0020 1A60     		str	r2, [r3, #0]	@ float
 419:subsystems/nav.c ****   nav_mode = NAV_MODE_COURSE;
 2832              		.loc 1 419 0
 2833 0022 0B4B     		ldr	r3, .L237+36
 2834 0024 0222     		movs	r2, #2
 2835 0026 1A60     		str	r2, [r3, #0]
 420:subsystems/nav.c **** 
 421:subsystems/nav.c **** #ifdef NAV_GROUND_SPEED_PGAIN
 422:subsystems/nav.c ****   nav_ground_speed_pgain = ABS(NAV_GROUND_SPEED_PGAIN);
 423:subsystems/nav.c ****   nav_ground_speed_setpoint = NOMINAL_AIRSPEED;
 424:subsystems/nav.c **** #endif
 425:subsystems/nav.c **** }
 2836              		.loc 1 425 0
 2837 0028 7047     		bx	lr
 2838              	.L238:
 2839 002a 00BF     		.align	2
 2840              	.L237:
 2841 002c 00000000 		.word	nav_block
 2842 0030 00000000 		.word	nav_stage
 2843 0034 00C03744 		.word	1144504320
 2844 0038 00000000 		.word	.LANCHOR33
 2845 003c 00000000 		.word	.LANCHOR41
 2846 0040 0000F042 		.word	1123024896
 2847 0044 00000000 		.word	.LANCHOR39
 2848 0048 00007043 		.word	1131413504
 2849 004c 00000000 		.word	.LANCHOR42
 2850 0050 00000000 		.word	.LANCHOR13
 2851              		.cfi_endproc
 2852              	.LFE53:
 2854              		.section	.text.nav_without_gps,"ax",%progbits
 2855              		.align	1
 2856              		.global	nav_without_gps
 2857              		.thumb
 2858              		.thumb_func
 2860              	nav_without_gps:
 2861              	.LFB54:
 426:subsystems/nav.c **** 
 427:subsystems/nav.c **** /**
 428:subsystems/nav.c ****  *  \brief Failsafe navigation without position estimation
 429:subsystems/nav.c ****  *
 430:subsystems/nav.c ****  * Just set attitude and throttle to FAILSAFE values
 431:subsystems/nav.c ****  * to prevent the plane from crashing.
 432:subsystems/nav.c ****  */
 433:subsystems/nav.c **** void nav_without_gps(void) {
 2862              		.loc 1 433 0
 2863              		.cfi_startproc
 2864              		@ args = 0, pretend = 0, frame = 0
 2865              		@ frame_needed = 0, uses_anonymous_args = 0
 2866              		@ link register save eliminated.
 434:subsystems/nav.c ****   lateral_mode = LATERAL_MODE_ROLL;
 2867              		.loc 1 434 0
 2868 0000 084B     		ldr	r3, .L240
 2869 0002 0222     		movs	r2, #2
 2870 0004 1A70     		strb	r2, [r3, #0]
 435:subsystems/nav.c ****   v_ctl_mode = V_CTL_MODE_AUTO_THROTTLE;
 2871              		.loc 1 435 0
 2872 0006 084B     		ldr	r3, .L240+4
 2873 0008 0122     		movs	r2, #1
 2874 000a 1A70     		strb	r2, [r3, #0]
 436:subsystems/nav.c **** 
 437:subsystems/nav.c **** #ifdef SECTION_FAILSAFE
 438:subsystems/nav.c ****   h_ctl_roll_setpoint = FAILSAFE_DEFAULT_ROLL;
 2875              		.loc 1 438 0
 2876 000c 074A     		ldr	r2, .L240+8
 2877 000e 084B     		ldr	r3, .L240+12
 2878 0010 1A60     		str	r2, [r3, #0]	@ float
 439:subsystems/nav.c ****   nav_pitch = FAILSAFE_DEFAULT_PITCH;
 2879              		.loc 1 439 0
 2880 0012 084B     		ldr	r3, .L240+16
 2881 0014 4FF07C52 		mov	r2, #1056964608
 2882 0018 1A60     		str	r2, [r3, #0]	@ float
 440:subsystems/nav.c ****   nav_throttle_setpoint = TRIM_UPPRZ((FAILSAFE_DEFAULT_THROTTLE)*MAX_PPRZ);
 2883              		.loc 1 440 0
 2884 001a 074B     		ldr	r3, .L240+20
 2885 001c 4FF43462 		mov	r2, #2880
 2886 0020 1A80     		strh	r2, [r3, #0]	@ movhi
 441:subsystems/nav.c **** #else
 442:subsystems/nav.c ****   h_ctl_roll_setpoint = 0;
 443:subsystems/nav.c ****   nav_pitch = 0;
 444:subsystems/nav.c ****   nav_throttle_setpoint = TRIM_UPPRZ((V_CTL_AUTO_THROTTLE_NOMINAL_CRUISE_THROTTLE)*MAX_PPRZ);
 445:subsystems/nav.c **** #endif
 446:subsystems/nav.c **** }
 2887              		.loc 1 446 0
 2888 0022 7047     		bx	lr
 2889              	.L241:
 2890              		.align	2
 2891              	.L240:
 2892 0024 00000000 		.word	lateral_mode
 2893 0028 00000000 		.word	v_ctl_mode
 2894 002c 9A99993E 		.word	1050253722
 2895 0030 00000000 		.word	h_ctl_roll_setpoint
 2896 0034 00000000 		.word	.LANCHOR9
 2897 0038 00000000 		.word	.LANCHOR37
 2898              		.cfi_endproc
 2899              	.LFE54:
 2901              		.section	.text.nav_eight_init,"ax",%progbits
 2902              		.align	1
 2903              		.global	nav_eight_init
 2904              		.thumb
 2905              		.thumb_func
 2907              	nav_eight_init:
 2908              	.LFB55:
 447:subsystems/nav.c **** 
 448:subsystems/nav.c **** 
 449:subsystems/nav.c **** /**************** 8 Navigation **********************************************/
 450:subsystems/nav.c **** 
 451:subsystems/nav.c **** 
 452:subsystems/nav.c **** enum eight_status { R1T, RT2, C2, R2T, RT1, C1 };
 453:subsystems/nav.c **** 
 454:subsystems/nav.c **** static enum eight_status eight_status;
 455:subsystems/nav.c **** void nav_eight_init( void ) {
 2909              		.loc 1 455 0
 2910              		.cfi_startproc
 2911              		@ args = 0, pretend = 0, frame = 0
 2912              		@ frame_needed = 0, uses_anonymous_args = 0
 2913              		@ link register save eliminated.
 456:subsystems/nav.c ****   eight_status = C1;
 2914              		.loc 1 456 0
 2915 0000 014B     		ldr	r3, .L243
 2916 0002 0522     		movs	r2, #5
 2917 0004 1A70     		strb	r2, [r3, #0]
 457:subsystems/nav.c **** }
 2918              		.loc 1 457 0
 2919 0006 7047     		bx	lr
 2920              	.L244:
 2921              		.align	2
 2922              	.L243:
 2923 0008 00000000 		.word	.LANCHOR43
 2924              		.cfi_endproc
 2925              	.LFE55:
 2927              		.section	.text.nav_eight,"ax",%progbits
 2928              		.align	1
 2929              		.global	nav_eight
 2930              		.thumb
 2931              		.thumb_func
 2933              	nav_eight:
 2934              	.LFB56:
 458:subsystems/nav.c **** 
 459:subsystems/nav.c **** /** Navigation along a figure 8. The cross center is defined by the waypoint
 460:subsystems/nav.c ****     [target], the center of one of the circles is defined by [c1]. Altitude is
 461:subsystems/nav.c ****     given by [target].
 462:subsystems/nav.c ****     The navigation goes through 6 states: C1 (circle around [c1]), R1T, RT2
 463:subsystems/nav.c ****     (route from circle 1 to circle 2 over [target]), C2 and R2T, RT1.
 464:subsystems/nav.c ****     If necessary, the [c1] waypoint is moved in the direction of [target]
 465:subsystems/nav.c ****     to be not far than [2*radius].
 466:subsystems/nav.c **** */
 467:subsystems/nav.c **** void nav_eight(uint8_t target, uint8_t c1, float radius) {
 2935              		.loc 1 467 0
 2936              		.cfi_startproc
 2937              		@ args = 0, pretend = 0, frame = 40
 2938              		@ frame_needed = 0, uses_anonymous_args = 0
 2939              	.LVL167:
 2940 0000 2DE9F04F 		push	{r4, r5, r6, r7, r8, r9, sl, fp, lr}
 2941              	.LCFI13:
 2942              		.cfi_def_cfa_offset 36
 2943              		.cfi_offset 14, -4
 2944              		.cfi_offset 11, -8
 2945              		.cfi_offset 10, -12
 2946              		.cfi_offset 9, -16
 2947              		.cfi_offset 8, -20
 2948              		.cfi_offset 7, -24
 2949              		.cfi_offset 6, -28
 2950              		.cfi_offset 5, -32
 2951              		.cfi_offset 4, -36
 2952 0004 8DB0     		sub	sp, sp, #52
 2953              	.LCFI14:
 2954              		.cfi_def_cfa_offset 88
 2955              		.loc 1 467 0
 2956 0006 0491     		str	r1, [sp, #16]
 468:subsystems/nav.c ****   float aradius = fabs(radius);
 469:subsystems/nav.c ****   float alt = waypoints[target].a;
 2957              		.loc 1 469 0
 2958 0008 0C21     		movs	r1, #12
 2959              	.LVL168:
 470:subsystems/nav.c ****   waypoints[c1].a = alt;
 2960              		.loc 1 470 0
 2961 000a 049E     		ldr	r6, [sp, #16]
 467:subsystems/nav.c **** void nav_eight(uint8_t target, uint8_t c1, float radius) {
 2962              		.loc 1 467 0
 2963 000c 1446     		mov	r4, r2
 468:subsystems/nav.c ****   float aradius = fabs(radius);
 2964              		.loc 1 468 0
 2965 000e 22F00047 		bic	r7, r2, #-2147483648
 2966              	.LVL169:
 469:subsystems/nav.c ****   float alt = waypoints[target].a;
 2967              		.loc 1 469 0
 2968 0012 01FB00F2 		mul	r2, r1, r0
 2969              	.LVL170:
 2970 0016 A04B     		ldr	r3, .L310+24
 2971              		.loc 1 470 0
 2972 0018 7143     		muls	r1, r6, r1
 469:subsystems/nav.c ****   float alt = waypoints[target].a;
 2973              		.loc 1 469 0
 2974 001a 9D18     		adds	r5, r3, r2
 467:subsystems/nav.c **** void nav_eight(uint8_t target, uint8_t c1, float radius) {
 2975              		.loc 1 467 0
 2976 001c 0390     		str	r0, [sp, #12]
 469:subsystems/nav.c ****   float alt = waypoints[target].a;
 2977              		.loc 1 469 0
 2978 001e A868     		ldr	r0, [r5, #8]	@ float
 2979              	.LVL171:
 2980              		.loc 1 470 0
 2981 0020 5E18     		adds	r6, r3, r1
 2982 0022 B060     		str	r0, [r6, #8]	@ float
 471:subsystems/nav.c **** 
 472:subsystems/nav.c ****   float target_c1_x = waypoints[c1].x - waypoints[target].x;
 2983              		.loc 1 472 0
 2984 0024 5858     		ldr	r0, [r3, r1]	@ float
 2985 0026 9958     		ldr	r1, [r3, r2]	@ float
 2986 0028 FFF7FEFF 		bl	__aeabi_fsub
 2987              	.LVL172:
 473:subsystems/nav.c ****   float target_c1_y = waypoints[c1].y - waypoints[target].y;
 2988              		.loc 1 473 0
 2989 002c 6968     		ldr	r1, [r5, #4]	@ float
 472:subsystems/nav.c ****   float target_c1_x = waypoints[c1].x - waypoints[target].x;
 2990              		.loc 1 472 0
 2991 002e 8046     		mov	r8, r0
 2992              	.LVL173:
 2993              		.loc 1 473 0
 2994 0030 7068     		ldr	r0, [r6, #4]	@ float
 2995              	.LVL174:
 2996 0032 FFF7FEFF 		bl	__aeabi_fsub
 474:subsystems/nav.c ****   float d = sqrt(target_c1_x*target_c1_x+target_c1_y*target_c1_y);
 2997              		.loc 1 474 0
 2998 0036 4146     		mov	r1, r8
 473:subsystems/nav.c ****   float target_c1_y = waypoints[c1].y - waypoints[target].y;
 2999              		.loc 1 473 0
 3000 0038 0646     		mov	r6, r0
 3001              	.LVL175:
 3002              		.loc 1 474 0
 3003 003a 4046     		mov	r0, r8
 3004              	.LVL176:
 3005 003c FFF7FEFF 		bl	__aeabi_fmul
 3006 0040 3146     		mov	r1, r6
 3007 0042 0546     		mov	r5, r0
 3008 0044 3046     		mov	r0, r6
 3009 0046 FFF7FEFF 		bl	__aeabi_fmul
 3010 004a 0146     		mov	r1, r0
 3011 004c 2846     		mov	r0, r5
 3012 004e FFF7FEFF 		bl	__aeabi_fadd
 3013 0052 FFF7FEFF 		bl	__aeabi_f2d
 3014 0056 FFF7FEFF 		bl	sqrt
 3015 005a FFF7FEFF 		bl	__aeabi_d2f
 475:subsystems/nav.c ****   d = Max(d, 1.); /* To prevent a division by zero */
 3016              		.loc 1 475 0
 3017 005e 4FF07E51 		mov	r1, #1065353216
 474:subsystems/nav.c ****   float d = sqrt(target_c1_x*target_c1_x+target_c1_y*target_c1_y);
 3018              		.loc 1 474 0
 3019 0062 0546     		mov	r5, r0
 3020              	.LVL177:
 3021              		.loc 1 475 0
 3022 0064 FFF7FEFF 		bl	__aeabi_fcmpgt
 3023              	.LVL178:
 3024 0068 08B9     		cbnz	r0, .L246
 3025 006a 4FF07E55 		mov	r5, #1065353216
 3026              	.LVL179:
 3027              	.L246:
 476:subsystems/nav.c **** 
 477:subsystems/nav.c ****   /* Unit vector from target to c1 */
 478:subsystems/nav.c ****   float u_x = target_c1_x / d;
 3028              		.loc 1 478 0 discriminator 3
 3029 006e 2946     		mov	r1, r5
 3030 0070 4046     		mov	r0, r8
 3031 0072 FFF7FEFF 		bl	__aeabi_fdiv
 479:subsystems/nav.c ****   float u_y = target_c1_y / d;
 3032              		.loc 1 479 0 discriminator 3
 3033 0076 2946     		mov	r1, r5
 478:subsystems/nav.c ****   float u_x = target_c1_x / d;
 3034              		.loc 1 478 0 discriminator 3
 3035 0078 8146     		mov	r9, r0
 3036              	.LVL180:
 3037              		.loc 1 479 0 discriminator 3
 3038 007a 3046     		mov	r0, r6
 3039              	.LVL181:
 3040 007c FFF7FEFF 		bl	__aeabi_fdiv
 480:subsystems/nav.c **** 
 481:subsystems/nav.c ****   /* Move [c1] closer if needed */
 482:subsystems/nav.c ****   if (d > 2 * aradius) {
 3041              		.loc 1 482 0 discriminator 3
 3042 0080 3946     		mov	r1, r7
 479:subsystems/nav.c ****   float u_y = target_c1_y / d;
 3043              		.loc 1 479 0 discriminator 3
 3044 0082 8346     		mov	fp, r0
 3045              	.LVL182:
 3046              		.loc 1 482 0 discriminator 3
 3047 0084 3846     		mov	r0, r7
 3048              	.LVL183:
 3049 0086 FFF7FEFF 		bl	__aeabi_fadd
 3050 008a 0646     		mov	r6, r0
 3051              	.LVL184:
 3052 008c 3146     		mov	r1, r6
 3053 008e 2846     		mov	r0, r5
 3054 0090 FFF7FEFF 		bl	__aeabi_fcmpgt
 3055 0094 10B3     		cbz	r0, .L247
 3056              	.LVL185:
 483:subsystems/nav.c ****     d = 2*aradius;
 484:subsystems/nav.c ****     waypoints[c1].x = waypoints[target].x + d*u_x;
 3057              		.loc 1 484 0
 3058 0096 0498     		ldr	r0, [sp, #16]
 3059 0098 4FF00C08 		mov	r8, #12
 3060              	.LVL186:
 3061 009c 08FB00F7 		mul	r7, r8, r0
 3062              	.LVL187:
 3063 00a0 7D4D     		ldr	r5, .L310+24
 3064 00a2 039A     		ldr	r2, [sp, #12]
 3065 00a4 EB19     		adds	r3, r5, r7
 3066 00a6 4946     		mov	r1, r9
 3067 00a8 3046     		mov	r0, r6
 3068 00aa 08FB02F8 		mul	r8, r8, r2
 3069 00ae 0293     		str	r3, [sp, #8]
 3070 00b0 FFF7FEFF 		bl	__aeabi_fmul
 3071 00b4 0146     		mov	r1, r0
 3072 00b6 55F80800 		ldr	r0, [r5, r8]	@ float
 3073 00ba FFF7FEFF 		bl	__aeabi_fadd
 485:subsystems/nav.c ****     waypoints[c1].y = waypoints[target].y + d*u_y;
 3074              		.loc 1 485 0
 3075 00be 5946     		mov	r1, fp
 484:subsystems/nav.c ****     waypoints[c1].x = waypoints[target].x + d*u_x;
 3076              		.loc 1 484 0
 3077 00c0 E851     		str	r0, [r5, r7]	@ float
 3078              		.loc 1 485 0
 3079 00c2 3046     		mov	r0, r6
 3080 00c4 FFF7FEFF 		bl	__aeabi_fmul
 484:subsystems/nav.c ****     waypoints[c1].x = waypoints[target].x + d*u_x;
 3081              		.loc 1 484 0
 3082 00c8 05EB080A 		add	sl, r5, r8
 3083              		.loc 1 485 0
 3084 00cc 0146     		mov	r1, r0
 3085 00ce DAF80400 		ldr	r0, [sl, #4]	@ float
 3086 00d2 FFF7FEFF 		bl	__aeabi_fadd
 3087 00d6 029B     		ldr	r3, [sp, #8]
 483:subsystems/nav.c ****     d = 2*aradius;
 3088              		.loc 1 483 0
 3089 00d8 3546     		mov	r5, r6
 3090              		.loc 1 485 0
 3091 00da 5860     		str	r0, [r3, #4]	@ float
 3092              	.LVL188:
 3093              	.L247:
 486:subsystems/nav.c ****   }
 487:subsystems/nav.c **** 
 488:subsystems/nav.c ****   /* The other center */
 489:subsystems/nav.c ****   struct point c2 = {
 490:subsystems/nav.c ****     waypoints[target].x - d*u_x,
 3094              		.loc 1 490 0
 3095 00dc 039B     		ldr	r3, [sp, #12]
 3096 00de 0C27     		movs	r7, #12
 3097 00e0 4946     		mov	r1, r9
 3098 00e2 2846     		mov	r0, r5
 3099 00e4 07FB03F8 		mul	r8, r7, r3
 3100 00e8 FFF7FEFF 		bl	__aeabi_fmul
 3101 00ec 6A4E     		ldr	r6, .L310+24
 3102 00ee 0146     		mov	r1, r0
 3103 00f0 56F80800 		ldr	r0, [r6, r8]	@ float
 3104 00f4 FFF7FEFF 		bl	__aeabi_fsub
 491:subsystems/nav.c ****     waypoints[target].y - d*u_y,
 3105              		.loc 1 491 0
 3106 00f8 5946     		mov	r1, fp
 490:subsystems/nav.c ****     waypoints[target].x - d*u_x,
 3107              		.loc 1 490 0
 3108 00fa 0590     		str	r0, [sp, #20]	@ float
 3109              	.LVL189:
 3110              		.loc 1 491 0
 3111 00fc 2846     		mov	r0, r5
 3112              	.LVL190:
 3113 00fe FFF7FEFF 		bl	__aeabi_fmul
 490:subsystems/nav.c ****     waypoints[target].x - d*u_x,
 3114              		.loc 1 490 0
 3115 0102 06EB080A 		add	sl, r6, r8
 3116              		.loc 1 491 0
 3117 0106 0146     		mov	r1, r0
 3118 0108 DAF80400 		ldr	r0, [sl, #4]	@ float
 3119 010c FFF7FEFF 		bl	__aeabi_fsub
 3120 0110 0690     		str	r0, [sp, #24]	@ float
 3121              	.LVL191:
 492:subsystems/nav.c ****     alt };
 493:subsystems/nav.c **** 
 494:subsystems/nav.c ****   struct point c1_in = {
 495:subsystems/nav.c ****     waypoints[c1].x + radius * -u_y,
 3122              		.loc 1 495 0
 3123 0112 0498     		ldr	r0, [sp, #16]
 3124              	.LVL192:
 3125 0114 0BF10041 		add	r1, fp, #-2147483648
 3126 0118 07FB00F3 		mul	r3, r7, r0
 3127 011c 2046     		mov	r0, r4
 3128 011e F558     		ldr	r5, [r6, r3]	@ float
 3129              	.LVL193:
 3130 0120 F718     		adds	r7, r6, r3
 3131 0122 FFF7FEFF 		bl	__aeabi_fmul
 3132 0126 8246     		mov	sl, r0
 3133 0128 5146     		mov	r1, sl
 3134 012a 2846     		mov	r0, r5
 3135 012c FFF7FEFF 		bl	__aeabi_fadd
 496:subsystems/nav.c ****     waypoints[c1].y + radius * u_x,
 3136              		.loc 1 496 0
 3137 0130 4946     		mov	r1, r9
 495:subsystems/nav.c ****     waypoints[c1].x + radius * -u_y,
 3138              		.loc 1 495 0
 3139 0132 0790     		str	r0, [sp, #28]	@ float
 3140              	.LVL194:
 3141              		.loc 1 496 0
 3142 0134 2046     		mov	r0, r4
 3143              	.LVL195:
 3144 0136 FFF7FEFF 		bl	__aeabi_fmul
 3145 013a 7E68     		ldr	r6, [r7, #4]	@ float
 3146 013c 8046     		mov	r8, r0
 3147 013e 4146     		mov	r1, r8
 3148 0140 3046     		mov	r0, r6
 3149 0142 FFF7FEFF 		bl	__aeabi_fadd
 497:subsystems/nav.c ****     alt };
 498:subsystems/nav.c ****   struct point c1_out = {
 499:subsystems/nav.c ****     waypoints[c1].x - radius * -u_y,
 3150              		.loc 1 499 0
 3151 0146 5946     		mov	r1, fp
 496:subsystems/nav.c ****     waypoints[c1].y + radius * u_x,
 3152              		.loc 1 496 0
 3153 0148 0890     		str	r0, [sp, #32]	@ float
 3154              	.LVL196:
 3155              		.loc 1 499 0
 3156 014a 2046     		mov	r0, r4
 3157              	.LVL197:
 3158 014c FFF7FEFF 		bl	__aeabi_fmul
 3159 0150 0746     		mov	r7, r0
 3160 0152 3946     		mov	r1, r7
 3161 0154 2846     		mov	r0, r5
 3162 0156 FFF7FEFF 		bl	__aeabi_fadd
 500:subsystems/nav.c ****     waypoints[c1].y - radius * u_x,
 3163              		.loc 1 500 0
 3164 015a 4146     		mov	r1, r8
 499:subsystems/nav.c ****     waypoints[c1].x - radius * -u_y,
 3165              		.loc 1 499 0
 3166 015c 0546     		mov	r5, r0
 3167              	.LVL198:
 3168              		.loc 1 500 0
 3169 015e 3046     		mov	r0, r6
 3170              	.LVL199:
 3171 0160 FFF7FEFF 		bl	__aeabi_fsub
 501:subsystems/nav.c ****     alt };
 502:subsystems/nav.c **** 
 503:subsystems/nav.c ****   struct point c2_in = {
 504:subsystems/nav.c ****     c2.x + radius * -u_y,
 3172              		.loc 1 504 0
 3173 0164 5146     		mov	r1, sl
 500:subsystems/nav.c ****     waypoints[c1].y - radius * u_x,
 3174              		.loc 1 500 0
 3175 0166 0646     		mov	r6, r0
 3176              	.LVL200:
 3177              		.loc 1 504 0
 3178 0168 0598     		ldr	r0, [sp, #20]	@ float
 3179              	.LVL201:
 3180 016a FFF7FEFF 		bl	__aeabi_fadd
 505:subsystems/nav.c ****     c2.y + radius * u_x,
 3181              		.loc 1 505 0
 3182 016e 4146     		mov	r1, r8
 504:subsystems/nav.c ****     c2.x + radius * -u_y,
 3183              		.loc 1 504 0
 3184 0170 8246     		mov	sl, r0
 3185              	.LVL202:
 3186              		.loc 1 505 0
 3187 0172 0698     		ldr	r0, [sp, #24]	@ float
 3188              	.LVL203:
 3189 0174 FFF7FEFF 		bl	__aeabi_fadd
 506:subsystems/nav.c ****     alt };
 507:subsystems/nav.c ****   struct point c2_out = {
 508:subsystems/nav.c ****     c2.x - radius * -u_y,
 3190              		.loc 1 508 0
 3191 0178 3946     		mov	r1, r7
 505:subsystems/nav.c ****     c2.y + radius * u_x,
 3192              		.loc 1 505 0
 3193 017a 0990     		str	r0, [sp, #36]	@ float
 3194              	.LVL204:
 3195              		.loc 1 508 0
 3196 017c 0598     		ldr	r0, [sp, #20]	@ float
 3197              	.LVL205:
 3198 017e FFF7FEFF 		bl	__aeabi_fadd
 509:subsystems/nav.c ****     c2.y - radius * u_x,
 3199              		.loc 1 509 0
 3200 0182 4146     		mov	r1, r8
 508:subsystems/nav.c ****     c2.x - radius * -u_y,
 3201              		.loc 1 508 0
 3202 0184 0746     		mov	r7, r0
 3203              	.LVL206:
 3204              		.loc 1 509 0
 3205 0186 0698     		ldr	r0, [sp, #24]	@ float
 3206              	.LVL207:
 3207 0188 FFF7FEFF 		bl	__aeabi_fsub
 3208 018c 8046     		mov	r8, r0
 3209              	.LVL208:
 510:subsystems/nav.c ****     alt };
 511:subsystems/nav.c **** 
 512:subsystems/nav.c ****   float qdr_out = M_PI - atan2(u_y, u_x);
 3210              		.loc 1 512 0
 3211 018e 5846     		mov	r0, fp
 3212              	.LVL209:
 3213 0190 FFF7FEFF 		bl	__aeabi_f2d
 3214 0194 CDE90A01 		strd	r0, [sp, #40]
 3215 0198 4846     		mov	r0, r9
 3216 019a FFF7FEFF 		bl	__aeabi_f2d
 3217 019e 0246     		mov	r2, r0
 3218 01a0 0B46     		mov	r3, r1
 3219 01a2 DDE90A01 		ldrd	r0, [sp, #40]
 3220 01a6 FFF7FEFF 		bl	atan2
 3221 01aa 0246     		mov	r2, r0
 3222 01ac 0B46     		mov	r3, r1
 3223 01ae 34A1     		adr	r1, .L310
 3224 01b0 D1E90001 		ldrd	r0, [r1]
 3225 01b4 FFF7FEFF 		bl	__aeabi_dsub
 3226 01b8 FFF7FEFF 		bl	__aeabi_d2f
 513:subsystems/nav.c ****   if (radius < 0)
 3227              		.loc 1 513 0
 3228 01bc 0021     		movs	r1, #0
 512:subsystems/nav.c ****   float qdr_out = M_PI - atan2(u_y, u_x);
 3229              		.loc 1 512 0
 3230 01be 8146     		mov	r9, r0
 3231              	.LVL210:
 3232              		.loc 1 513 0
 3233 01c0 2046     		mov	r0, r4
 3234              	.LVL211:
 3235 01c2 FFF7FEFF 		bl	__aeabi_fcmplt
 3236 01c6 50B1     		cbz	r0, .L249
 514:subsystems/nav.c ****     qdr_out += M_PI;
 3237              		.loc 1 514 0
 3238 01c8 4846     		mov	r0, r9
 3239 01ca FFF7FEFF 		bl	__aeabi_f2d
 3240 01ce 2CA3     		adr	r3, .L310
 3241 01d0 D3E90023 		ldrd	r2, [r3]
 3242 01d4 FFF7FEFF 		bl	__aeabi_dadd
 3243 01d8 FFF7FEFF 		bl	__aeabi_d2f
 3244 01dc 8146     		mov	r9, r0
 3245              	.LVL212:
 3246              	.L249:
 515:subsystems/nav.c **** 
 516:subsystems/nav.c ****   switch (eight_status) {
 3247              		.loc 1 516 0
 3248 01de 2F4B     		ldr	r3, .L310+28
 3249 01e0 1B78     		ldrb	r3, [r3, #0]	@ zero_extendqisi2
 3250 01e2 052B     		cmp	r3, #5
 3251 01e4 00F2A481 		bhi	.L245
 3252 01e8 DFE813F0 		tbh	[pc, r3, lsl #1]
 3253              	.L258:
 3254 01ec A900     		.2byte	(.L252-.L258)/2
 3255 01ee C100     		.2byte	(.L253-.L258)/2
 3256 01f0 D400     		.2byte	(.L254-.L258)/2
 3257 01f2 5901     		.2byte	(.L255-.L258)/2
 3258 01f4 7001     		.2byte	(.L256-.L258)/2
 3259 01f6 0600     		.2byte	(.L257-.L258)/2
 3260              	.L257:
 517:subsystems/nav.c ****   case C1 :
 518:subsystems/nav.c ****     NavCircleWaypoint(c1, radius);
 3261              		.loc 1 518 0
 3262 01f8 049E     		ldr	r6, [sp, #16]
 3263              	.LVL213:
 3264 01fa 0C22     		movs	r2, #12
 3265 01fc 7243     		muls	r2, r6, r2
 3266 01fe 2649     		ldr	r1, .L310+24
 3267              	.LBB43:
 3268              	.LBB44:
 3269              	.LBB45:
 519:subsystems/nav.c ****     if (NavQdrCloseTo(DegOfRad(qdr_out)-10)) {
 3270              		.loc 1 519 0
 3271 0200 4FF00008 		mov	r8, #0
 3272              	.LVL214:
 3273              	.LBE45:
 3274              	.LBE44:
 3275              	.LBE43:
 518:subsystems/nav.c ****     NavCircleWaypoint(c1, radius);
 3276              		.loc 1 518 0
 3277 0204 8B18     		adds	r3, r1, r2
 3278 0206 8858     		ldr	r0, [r1, r2]	@ float
 3279 0208 2246     		mov	r2, r4
 3280 020a 5968     		ldr	r1, [r3, #4]	@ float
 3281 020c FFF7FEFF 		bl	nav_circle_XY
 3282              	.LBB52:
 3283              		.loc 1 519 0
 3284 0210 4846     		mov	r0, r9
 3285 0212 FFF7FEFF 		bl	__aeabi_f2d
 3286 0216 1CA3     		adr	r3, .L310+8
 3287 0218 D3E90023 		ldrd	r2, [r3]
 3288 021c FFF7FEFF 		bl	__aeabi_dmul
 3289 0220 0022     		movs	r2, #0
 3290 0222 1F4B     		ldr	r3, .L310+32
 3291 0224 FFF7FEFF 		bl	__aeabi_dsub
 3292              	.LBB47:
 3293 0228 1E4B     		ldr	r3, .L310+36
 3294              	.LBE47:
 3295 022a 0446     		mov	r4, r0
 3296              	.LVL215:
 3297              	.LBB48:
 3298 022c 1868     		ldr	r0, [r3, #0]	@ float
 3299              	.LBE48:
 3300 022e 0D46     		mov	r5, r1
 3301              	.LVL216:
 3302              	.LBB49:
 3303 0230 FFF7FEFF 		bl	__aeabi_f2d
 3304 0234 0246     		mov	r2, r0
 3305 0236 0B46     		mov	r3, r1
 3306 0238 15A1     		adr	r1, .L310+16
 3307 023a D1E90001 		ldrd	r0, [r1]
 3308 023e FFF7FEFF 		bl	__aeabi_dsub
 3309 0242 11A3     		adr	r3, .L310+8
 3310 0244 D3E90023 		ldrd	r2, [r3]
 3311 0248 FFF7FEFF 		bl	__aeabi_dmul
 3312 024c FFF7FEFF 		bl	__aeabi_d2f
 3313 0250 0646     		mov	r6, r0
 3314              	.LVL217:
 3315              	.LBB46:
 3316 0252 04E0     		b	.L259
 3317              	.LVL218:
 3318              	.L262:
 3319              		.loc 1 519 0 is_stmt 0 discriminator 4
 3320 0254 3046     		mov	r0, r6
 3321 0256 1449     		ldr	r1, .L310+40
 3322 0258 FFF7FEFF 		bl	__aeabi_fadd
 3323 025c 0646     		mov	r6, r0
 3324              	.LVL219:
 3325              	.L259:
 3326              		.loc 1 519 0 discriminator 1
 3327 025e 3046     		mov	r0, r6
 3328              	.LVL220:
 3329 0260 0021     		movs	r1, #0
 3330 0262 5FFA88F7 		uxtb	r7, r8
 3331 0266 FFF7FEFF 		bl	__aeabi_fcmplt
 3332 026a 20B3     		cbz	r0, .L301
 3333              		.loc 1 519 0 discriminator 2
 3334 026c 08F10108 		add	r8, r8, #1
 3335 0270 B8F5807F 		cmp	r8, #256
 3336 0274 EED1     		bne	.L262
 3337              		.loc 1 519 0
 3338 0276 0027     		movs	r7, #0
 3339 0278 1DE0     		b	.L301
 3340              	.L311:
 3341 027a 00BFAFF3 		.align	3
 3341      0080
 3342              	.L310:
 3343 0280 182D4454 		.word	1413754136
 3344 0284 FB210940 		.word	1074340347
 3345 0288 F8C1631A 		.word	442745336
 3346 028c DCA54C40 		.word	1078765020
 3347 0290 182D4454 		.word	1413754136
 3348 0294 FB21F93F 		.word	1073291771
 3349 0298 00000000 		.word	.LANCHOR26
 3350 029c 00000000 		.word	.LANCHOR43
 3351 02a0 00002440 		.word	1076101120
 3352 02a4 00000000 		.word	.LANCHOR14
 3353 02a8 0000B443 		.word	1135869952
 3354              	.LVL221:
 3355              	.L266:
 3356              		.loc 1 519 0 discriminator 8
 3357 02ac 3046     		mov	r0, r6
 3358 02ae 9849     		ldr	r1, .L312+16
 3359 02b0 FFF7FEFF 		bl	__aeabi_fsub
 3360 02b4 0646     		mov	r6, r0
 3361              	.LVL222:
 3362              	.L301:
 3363              		.loc 1 519 0 discriminator 5
 3364 02b6 3046     		mov	r0, r6
 3365 02b8 9549     		ldr	r1, .L312+16
 3366 02ba FFF7FEFF 		bl	__aeabi_fcmpge
 3367 02be 18B1     		cbz	r0, .L264
 3368              		.loc 1 519 0 discriminator 6
 3369 02c0 0137     		adds	r7, r7, #1
 3370              	.LVL223:
 3371 02c2 FFB2     		uxtb	r7, r7
 3372              	.LVL224:
 3373 02c4 002F     		cmp	r7, #0
 3374 02c6 F1D1     		bne	.L266
 3375              	.LVL225:
 3376              	.L264:
 3377              	.LBE46:
 3378              	.LBE49:
 3379              		.loc 1 519 0 discriminator 7
 3380 02c8 3046     		mov	r0, r6
 3381 02ca FFF7FEFF 		bl	__aeabi_f2d
 3382 02ce 0246     		mov	r2, r0
 3383 02d0 0B46     		mov	r3, r1
 3384 02d2 2046     		mov	r0, r4
 3385 02d4 2946     		mov	r1, r5
 3386 02d6 FFF7FEFF 		bl	__aeabi_dsub
 3387 02da FFF7FEFF 		bl	__aeabi_d2f
 3388              	.LBB50:
 3389 02de 0026     		movs	r6, #0
 3390              	.LVL226:
 3391              	.LBE50:
 3392 02e0 0446     		mov	r4, r0
 3393              	.LVL227:
 3394              	.LBB51:
 3395 02e2 04E0     		b	.L267
 3396              	.LVL228:
 3397              	.L270:
 3398              		.loc 1 519 0 discriminator 12
 3399 02e4 2046     		mov	r0, r4
 3400 02e6 8A49     		ldr	r1, .L312+16
 3401 02e8 FFF7FEFF 		bl	__aeabi_fadd
 3402 02ec 0446     		mov	r4, r0
 3403              	.LVL229:
 3404              	.L267:
 3405              		.loc 1 519 0 discriminator 9
 3406 02ee 2046     		mov	r0, r4
 3407              	.LVL230:
 3408 02f0 0021     		movs	r1, #0
 3409 02f2 F5B2     		uxtb	r5, r6
 3410 02f4 FFF7FEFF 		bl	__aeabi_fcmplt
 3411 02f8 50B1     		cbz	r0, .L302
 3412              		.loc 1 519 0 discriminator 10
 3413 02fa 0136     		adds	r6, r6, #1
 3414 02fc B6F5807F 		cmp	r6, #256
 3415 0300 F0D1     		bne	.L270
 3416              		.loc 1 519 0
 3417 0302 0025     		movs	r5, #0
 3418 0304 04E0     		b	.L302
 3419              	.LVL231:
 3420              	.L274:
 3421              		.loc 1 519 0 discriminator 16
 3422 0306 2046     		mov	r0, r4
 3423 0308 8149     		ldr	r1, .L312+16
 3424 030a FFF7FEFF 		bl	__aeabi_fsub
 3425 030e 0446     		mov	r4, r0
 3426              	.LVL232:
 3427              	.L302:
 3428              		.loc 1 519 0 discriminator 13
 3429 0310 2046     		mov	r0, r4
 3430 0312 7F49     		ldr	r1, .L312+16
 3431 0314 FFF7FEFF 		bl	__aeabi_fcmpge
 3432 0318 18B1     		cbz	r0, .L272
 3433              		.loc 1 519 0 discriminator 14
 3434 031a 0135     		adds	r5, r5, #1
 3435              	.LVL233:
 3436 031c EDB2     		uxtb	r5, r5
 3437              	.LVL234:
 3438 031e 002D     		cmp	r5, #0
 3439 0320 F1D1     		bne	.L274
 3440              	.LVL235:
 3441              	.L272:
 3442              	.LBE51:
 3443              		.loc 1 519 0 discriminator 15
 3444 0322 2046     		mov	r0, r4
 3445 0324 7B49     		ldr	r1, .L312+20
 3446 0326 FFF7FEFF 		bl	__aeabi_fcmpgt
 3447 032a 30B9     		cbnz	r0, .L275
 3448              		.loc 1 519 0 discriminator 18
 3449 032c 2046     		mov	r0, r4
 3450 032e 7A49     		ldr	r1, .L312+24
 3451 0330 FFF7FEFF 		bl	__aeabi_fcmplt
 3452 0334 0028     		cmp	r0, #0
 3453 0336 00F0FB80 		beq	.L245
 3454              	.L275:
 3455              	.LBE52:
 520:subsystems/nav.c ****       eight_status = R1T;
 3456              		.loc 1 520 0 is_stmt 1 discriminator 20
 3457 033a 0022     		movs	r2, #0
 3458 033c D6E0     		b	.L309
 3459              	.LVL236:
 3460              	.L252:
 521:subsystems/nav.c ****       InitStage();
 522:subsystems/nav.c ****     }
 523:subsystems/nav.c ****     return;
 524:subsystems/nav.c **** 
 525:subsystems/nav.c ****   case R1T:
 526:subsystems/nav.c ****     nav_route_xy(c1_out.x, c1_out.y, c2_in.x, c2_in.y);
 3461              		.loc 1 526 0
 3462 033e 2846     		mov	r0, r5
 3463 0340 3146     		mov	r1, r6
 3464 0342 5246     		mov	r2, sl
 3465 0344 099B     		ldr	r3, [sp, #36]	@ float
 3466 0346 FFF7FEFF 		bl	nav_route_xy
 527:subsystems/nav.c ****     if (nav_approaching_xy(waypoints[target].x, waypoints[target].y, c1_out.x, c1_out.y, 0)) {
 3467              		.loc 1 527 0
 3468 034a 0398     		ldr	r0, [sp, #12]
 3469 034c 0C22     		movs	r2, #12
 3470 034e 4243     		muls	r2, r0, r2
 3471 0350 7249     		ldr	r1, .L312+28
 3472 0352 0020     		movs	r0, #0
 3473 0354 8B18     		adds	r3, r1, r2
 3474 0356 0090     		str	r0, [sp, #0]	@ float
 3475 0358 8858     		ldr	r0, [r1, r2]	@ float
 3476 035a 5968     		ldr	r1, [r3, #4]	@ float
 3477 035c 2A46     		mov	r2, r5
 3478 035e 3346     		mov	r3, r6
 3479 0360 FFF7FEFF 		bl	nav_approaching_xy
 3480 0364 0028     		cmp	r0, #0
 3481 0366 00F0E380 		beq	.L245
 528:subsystems/nav.c ****       eight_status = RT2;
 3482              		.loc 1 528 0
 3483 036a 0122     		movs	r2, #1
 3484 036c BEE0     		b	.L309
 3485              	.L253:
 529:subsystems/nav.c ****       InitStage();
 530:subsystems/nav.c ****     }
 531:subsystems/nav.c ****     return;
 532:subsystems/nav.c **** 
 533:subsystems/nav.c ****   case RT2:
 534:subsystems/nav.c ****     nav_route_xy(c1_out.x, c1_out.y, c2_in.x, c2_in.y);
 3486              		.loc 1 534 0
 3487 036e 2846     		mov	r0, r5
 3488 0370 3146     		mov	r1, r6
 3489 0372 5246     		mov	r2, sl
 3490 0374 099B     		ldr	r3, [sp, #36]	@ float
 3491 0376 FFF7FEFF 		bl	nav_route_xy
 535:subsystems/nav.c ****     if (nav_approaching_xy(c2_in.x, c2_in.y, c1_out.x, c1_out.y, CARROT)) {
 3492              		.loc 1 535 0
 3493 037a 694B     		ldr	r3, .L312+32
 3494 037c 5046     		mov	r0, sl
 3495 037e 0093     		str	r3, [sp, #0]	@ float
 3496 0380 0999     		ldr	r1, [sp, #36]	@ float
 3497 0382 2A46     		mov	r2, r5
 3498 0384 3346     		mov	r3, r6
 3499 0386 FFF7FEFF 		bl	nav_approaching_xy
 3500 038a 0028     		cmp	r0, #0
 3501 038c 00F0D080 		beq	.L245
 536:subsystems/nav.c ****       eight_status = C2;
 3502              		.loc 1 536 0
 3503 0390 0222     		movs	r2, #2
 3504 0392 ABE0     		b	.L309
 3505              	.L254:
 537:subsystems/nav.c ****       InitStage();
 538:subsystems/nav.c ****     }
 539:subsystems/nav.c ****     return;
 540:subsystems/nav.c **** 
 541:subsystems/nav.c ****   case C2 :
 542:subsystems/nav.c ****     nav_circle_XY(c2.x, c2.y, -radius);
 3506              		.loc 1 542 0
 3507 0394 04F10042 		add	r2, r4, #-2147483648
 3508 0398 0598     		ldr	r0, [sp, #20]	@ float
 3509 039a 0699     		ldr	r1, [sp, #24]	@ float
 3510 039c FFF7FEFF 		bl	nav_circle_XY
 3511              	.LBB53:
 543:subsystems/nav.c ****     if (NavQdrCloseTo(DegOfRad(qdr_out)+10)) {
 3512              		.loc 1 543 0
 3513 03a0 4846     		mov	r0, r9
 3514 03a2 FFF7FEFF 		bl	__aeabi_f2d
 3515 03a6 56A3     		adr	r3, .L312
 3516 03a8 D3E90023 		ldrd	r2, [r3]
 3517 03ac FFF7FEFF 		bl	__aeabi_dmul
 3518 03b0 0022     		movs	r2, #0
 3519 03b2 5C4B     		ldr	r3, .L312+36
 3520 03b4 FFF7FEFF 		bl	__aeabi_dadd
 3521              	.LBB54:
 3522 03b8 5B4B     		ldr	r3, .L312+40
 3523              	.LBE54:
 3524 03ba 0446     		mov	r4, r0
 3525              	.LVL237:
 3526              	.LBB57:
 3527 03bc 1868     		ldr	r0, [r3, #0]	@ float
 3528              	.LBE57:
 3529 03be 0D46     		mov	r5, r1
 3530              	.LVL238:
 3531              	.LBB58:
 3532 03c0 FFF7FEFF 		bl	__aeabi_f2d
 3533 03c4 0246     		mov	r2, r0
 3534 03c6 0B46     		mov	r3, r1
 3535 03c8 4FA1     		adr	r1, .L312+8
 3536 03ca D1E90001 		ldrd	r0, [r1]
 3537 03ce FFF7FEFF 		bl	__aeabi_dsub
 3538 03d2 4BA3     		adr	r3, .L312
 3539 03d4 D3E90023 		ldrd	r2, [r3]
 3540 03d8 FFF7FEFF 		bl	__aeabi_dmul
 3541 03dc FFF7FEFF 		bl	__aeabi_d2f
 3542              	.LBB55:
 3543 03e0 4FF00008 		mov	r8, #0
 3544              	.LVL239:
 3545              	.LBE55:
 3546 03e4 0646     		mov	r6, r0
 3547              	.LVL240:
 3548              	.LBB56:
 3549 03e6 04E0     		b	.L277
 3550              	.LVL241:
 3551              	.L280:
 3552              		.loc 1 543 0 is_stmt 0 discriminator 4
 3553 03e8 3046     		mov	r0, r6
 3554 03ea 4949     		ldr	r1, .L312+16
 3555 03ec FFF7FEFF 		bl	__aeabi_fadd
 3556 03f0 0646     		mov	r6, r0
 3557              	.LVL242:
 3558              	.L277:
 3559              		.loc 1 543 0 discriminator 1
 3560 03f2 3046     		mov	r0, r6
 3561              	.LVL243:
 3562 03f4 0021     		movs	r1, #0
 3563 03f6 5FFA88F7 		uxtb	r7, r8
 3564 03fa FFF7FEFF 		bl	__aeabi_fcmplt
 3565 03fe 58B1     		cbz	r0, .L303
 3566              		.loc 1 543 0 discriminator 2
 3567 0400 08F10108 		add	r8, r8, #1
 3568 0404 B8F5807F 		cmp	r8, #256
 3569 0408 EED1     		bne	.L280
 3570              		.loc 1 543 0
 3571 040a 0027     		movs	r7, #0
 3572 040c 04E0     		b	.L303
 3573              	.LVL244:
 3574              	.L284:
 3575              		.loc 1 543 0 discriminator 8
 3576 040e 3046     		mov	r0, r6
 3577 0410 3F49     		ldr	r1, .L312+16
 3578 0412 FFF7FEFF 		bl	__aeabi_fsub
 3579 0416 0646     		mov	r6, r0
 3580              	.LVL245:
 3581              	.L303:
 3582              		.loc 1 543 0 discriminator 5
 3583 0418 3046     		mov	r0, r6
 3584 041a 3D49     		ldr	r1, .L312+16
 3585 041c FFF7FEFF 		bl	__aeabi_fcmpge
 3586 0420 18B1     		cbz	r0, .L282
 3587              		.loc 1 543 0 discriminator 6
 3588 0422 0137     		adds	r7, r7, #1
 3589              	.LVL246:
 3590 0424 FFB2     		uxtb	r7, r7
 3591              	.LVL247:
 3592 0426 002F     		cmp	r7, #0
 3593 0428 F1D1     		bne	.L284
 3594              	.LVL248:
 3595              	.L282:
 3596              	.LBE56:
 3597              	.LBE58:
 3598              		.loc 1 543 0 discriminator 7
 3599 042a 3046     		mov	r0, r6
 3600 042c FFF7FEFF 		bl	__aeabi_f2d
 3601 0430 0246     		mov	r2, r0
 3602 0432 0B46     		mov	r3, r1
 3603 0434 2046     		mov	r0, r4
 3604 0436 2946     		mov	r1, r5
 3605 0438 FFF7FEFF 		bl	__aeabi_dsub
 3606 043c FFF7FEFF 		bl	__aeabi_d2f
 3607              	.LBB59:
 3608 0440 0026     		movs	r6, #0
 3609              	.LVL249:
 3610              	.LBE59:
 3611 0442 0446     		mov	r4, r0
 3612              	.LVL250:
 3613              	.LBB60:
 3614 0444 04E0     		b	.L285
 3615              	.LVL251:
 3616              	.L288:
 3617              		.loc 1 543 0 discriminator 12
 3618 0446 2046     		mov	r0, r4
 3619 0448 3149     		ldr	r1, .L312+16
 3620 044a FFF7FEFF 		bl	__aeabi_fadd
 3621 044e 0446     		mov	r4, r0
 3622              	.LVL252:
 3623              	.L285:
 3624              		.loc 1 543 0 discriminator 9
 3625 0450 2046     		mov	r0, r4
 3626              	.LVL253:
 3627 0452 0021     		movs	r1, #0
 3628 0454 F5B2     		uxtb	r5, r6
 3629 0456 FFF7FEFF 		bl	__aeabi_fcmplt
 3630 045a 50B1     		cbz	r0, .L304
 3631              		.loc 1 543 0 discriminator 10
 3632 045c 0136     		adds	r6, r6, #1
 3633 045e B6F5807F 		cmp	r6, #256
 3634 0462 F0D1     		bne	.L288
 3635              		.loc 1 543 0
 3636 0464 0025     		movs	r5, #0
 3637 0466 04E0     		b	.L304
 3638              	.LVL254:
 3639              	.L292:
 3640              		.loc 1 543 0 discriminator 16
 3641 0468 2046     		mov	r0, r4
 3642 046a 2949     		ldr	r1, .L312+16
 3643 046c FFF7FEFF 		bl	__aeabi_fsub
 3644 0470 0446     		mov	r4, r0
 3645              	.LVL255:
 3646              	.L304:
 3647              		.loc 1 543 0 discriminator 13
 3648 0472 2046     		mov	r0, r4
 3649 0474 2649     		ldr	r1, .L312+16
 3650 0476 FFF7FEFF 		bl	__aeabi_fcmpge
 3651 047a 18B1     		cbz	r0, .L290
 3652              		.loc 1 543 0 discriminator 14
 3653 047c 0135     		adds	r5, r5, #1
 3654              	.LVL256:
 3655 047e EDB2     		uxtb	r5, r5
 3656              	.LVL257:
 3657 0480 002D     		cmp	r5, #0
 3658 0482 F1D1     		bne	.L292
 3659              	.LVL258:
 3660              	.L290:
 3661              	.LBE60:
 3662              		.loc 1 543 0 discriminator 15
 3663 0484 2046     		mov	r0, r4
 3664 0486 2349     		ldr	r1, .L312+20
 3665 0488 FFF7FEFF 		bl	__aeabi_fcmpgt
 3666 048c 28B9     		cbnz	r0, .L293
 3667              		.loc 1 543 0 discriminator 18
 3668 048e 2046     		mov	r0, r4
 3669 0490 2149     		ldr	r1, .L312+24
 3670 0492 FFF7FEFF 		bl	__aeabi_fcmplt
 3671 0496 0028     		cmp	r0, #0
 3672 0498 4AD0     		beq	.L245
 3673              	.L293:
 3674              	.LBE53:
 544:subsystems/nav.c ****       eight_status = R2T;
 3675              		.loc 1 544 0 is_stmt 1 discriminator 20
 3676 049a 0322     		movs	r2, #3
 3677 049c 26E0     		b	.L309
 3678              	.LVL259:
 3679              	.L255:
 545:subsystems/nav.c ****       InitStage();
 546:subsystems/nav.c ****     }
 547:subsystems/nav.c ****     return;
 548:subsystems/nav.c **** 
 549:subsystems/nav.c ****   case R2T:
 550:subsystems/nav.c ****     nav_route_xy(c2_out.x, c2_out.y, c1_in.x, c1_in.y);
 3680              		.loc 1 550 0
 3681 049e 3846     		mov	r0, r7
 3682 04a0 4146     		mov	r1, r8
 3683 04a2 079A     		ldr	r2, [sp, #28]	@ float
 3684 04a4 089B     		ldr	r3, [sp, #32]	@ float
 3685 04a6 FFF7FEFF 		bl	nav_route_xy
 551:subsystems/nav.c ****     if (nav_approaching_xy(waypoints[target].x, waypoints[target].y, c2_out.x, c2_out.y, 0)) {
 3686              		.loc 1 551 0
 3687 04aa 039E     		ldr	r6, [sp, #12]
 3688              	.LVL260:
 3689 04ac 0C22     		movs	r2, #12
 3690 04ae 7243     		muls	r2, r6, r2
 3691 04b0 1A49     		ldr	r1, .L312+28
 3692 04b2 0020     		movs	r0, #0
 3693 04b4 8B18     		adds	r3, r1, r2
 3694 04b6 0090     		str	r0, [sp, #0]	@ float
 3695 04b8 8858     		ldr	r0, [r1, r2]	@ float
 3696 04ba 5968     		ldr	r1, [r3, #4]	@ float
 3697 04bc 3A46     		mov	r2, r7
 3698 04be 4346     		mov	r3, r8
 3699 04c0 FFF7FEFF 		bl	nav_approaching_xy
 3700 04c4 0028     		cmp	r0, #0
 3701 04c6 33D0     		beq	.L245
 552:subsystems/nav.c ****       eight_status = RT1;
 3702              		.loc 1 552 0
 3703 04c8 0422     		movs	r2, #4
 3704 04ca 0FE0     		b	.L309
 3705              	.LVL261:
 3706              	.L256:
 553:subsystems/nav.c ****       InitStage();
 554:subsystems/nav.c ****     }
 555:subsystems/nav.c ****     return;
 556:subsystems/nav.c **** 
 557:subsystems/nav.c ****   case RT1:
 558:subsystems/nav.c ****     nav_route_xy(c2_out.x, c2_out.y, c1_in.x, c1_in.y);
 3707              		.loc 1 558 0
 3708 04cc 3846     		mov	r0, r7
 3709 04ce 4146     		mov	r1, r8
 3710 04d0 079A     		ldr	r2, [sp, #28]	@ float
 3711 04d2 089B     		ldr	r3, [sp, #32]	@ float
 3712 04d4 FFF7FEFF 		bl	nav_route_xy
 559:subsystems/nav.c ****     if (nav_approaching_xy(c1_in.x, c1_in.y, c2_out.x, c2_out.y, CARROT)) {
 3713              		.loc 1 559 0
 3714 04d8 114B     		ldr	r3, .L312+32
 3715 04da 0798     		ldr	r0, [sp, #28]	@ float
 3716 04dc 0093     		str	r3, [sp, #0]	@ float
 3717 04de 0899     		ldr	r1, [sp, #32]	@ float
 3718 04e0 3A46     		mov	r2, r7
 3719 04e2 4346     		mov	r3, r8
 3720 04e4 FFF7FEFF 		bl	nav_approaching_xy
 3721 04e8 10B3     		cbz	r0, .L245
 560:subsystems/nav.c ****       eight_status = C1;
 3722              		.loc 1 560 0
 3723 04ea 0522     		movs	r2, #5
 3724              	.LVL262:
 3725              	.L309:
 3726 04ec 0F4B     		ldr	r3, .L312+44
 3727 04ee 1A70     		strb	r2, [r3, #0]
 561:subsystems/nav.c ****       InitStage();
 562:subsystems/nav.c ****     }
 563:subsystems/nav.c ****     return;
 564:subsystems/nav.c **** 
 565:subsystems/nav.c ****   default:/* Should not occur !!! Doing nothing */
 566:subsystems/nav.c ****     return;
 567:subsystems/nav.c ****   } /* switch */
 568:subsystems/nav.c **** }
 3728              		.loc 1 568 0
 3729 04f0 0DB0     		add	sp, sp, #52
 3730 04f2 BDE8F04F 		pop	{r4, r5, r6, r7, r8, r9, sl, fp, lr}
 561:subsystems/nav.c ****       InitStage();
 3731              		.loc 1 561 0
 3732 04f6 FFF7FEBF 		b	nav_init_stage
 3733              	.L313:
 3734 04fa 00BFAFF3 		.align	3
 3734      0080
 3735              	.L312:
 3736 0500 F8C1631A 		.word	442745336
 3737 0504 DCA54C40 		.word	1078765020
 3738 0508 182D4454 		.word	1413754136
 3739 050c FB21F93F 		.word	1073291771
 3740 0510 0000B443 		.word	1135869952
 3741 0514 0000AF43 		.word	1135542272
 3742 0518 00002041 		.word	1092616192
 3743 051c 00000000 		.word	.LANCHOR26
 3744 0520 0000A040 		.word	1084227584
 3745 0524 00002440 		.word	1076101120
 3746 0528 00000000 		.word	.LANCHOR14
 3747 052c 00000000 		.word	.LANCHOR43
 3748              	.L245:
 3749              		.loc 1 568 0
 3750 0530 0DB0     		add	sp, sp, #52
 3751 0532 BDE8F08F 		pop	{r4, r5, r6, r7, r8, r9, sl, fp, pc}
 3752              		.cfi_endproc
 3753              	.LFE56:
 3755 0536 00BF     		.section	.text.nav_oval_init,"ax",%progbits
 3756              		.align	1
 3757              		.global	nav_oval_init
 3758              		.thumb
 3759              		.thumb_func
 3761              	nav_oval_init:
 3762              	.LFB57:
 569:subsystems/nav.c **** 
 570:subsystems/nav.c **** /************** Oval Navigation **********************************************/
 571:subsystems/nav.c **** 
 572:subsystems/nav.c **** /** Navigation along a figure O. One side leg is defined by waypoints [p1] and
 573:subsystems/nav.c ****     [p2].
 574:subsystems/nav.c ****     The navigation goes through 4 states: OC1 (half circle next to [p1]),
 575:subsystems/nav.c ****     OR21 (route [p2] to [p1], OC2 (half circle next to [p2]) and OR12
 576:subsystems/nav.c ****     (opposite leg).
 577:subsystems/nav.c **** 
 578:subsystems/nav.c ****     Initial state is the route along the desired segment (OC2).
 579:subsystems/nav.c **** */
 580:subsystems/nav.c **** 
 581:subsystems/nav.c **** uint8_t nav_oval_count;
 582:subsystems/nav.c **** 
 583:subsystems/nav.c **** void nav_oval_init( void ) {
 3763              		.loc 1 583 0
 3764              		.cfi_startproc
 3765              		@ args = 0, pretend = 0, frame = 0
 3766              		@ frame_needed = 0, uses_anonymous_args = 0
 3767              		@ link register save eliminated.
 584:subsystems/nav.c ****   oval_status = OC2;
 3768              		.loc 1 584 0
 3769 0000 034B     		ldr	r3, .L315
 3770 0002 0122     		movs	r2, #1
 3771 0004 1A70     		strb	r2, [r3, #0]
 585:subsystems/nav.c ****   nav_oval_count = 0;
 3772              		.loc 1 585 0
 3773 0006 034B     		ldr	r3, .L315+4
 3774 0008 0022     		movs	r2, #0
 3775 000a 1A70     		strb	r2, [r3, #0]
 586:subsystems/nav.c **** }
 3776              		.loc 1 586 0
 3777 000c 7047     		bx	lr
 3778              	.L316:
 3779 000e 00BF     		.align	2
 3780              	.L315:
 3781 0010 00000000 		.word	.LANCHOR44
 3782 0014 00000000 		.word	.LANCHOR45
 3783              		.cfi_endproc
 3784              	.LFE57:
 3786              		.section	.text.nav_oval,"ax",%progbits
 3787              		.align	1
 3788              		.global	nav_oval
 3789              		.thumb
 3790              		.thumb_func
 3792              	nav_oval:
 3793              	.LFB58:
 587:subsystems/nav.c **** 
 588:subsystems/nav.c **** void nav_oval(uint8_t p1, uint8_t p2, float radius) {
 3794              		.loc 1 588 0
 3795              		.cfi_startproc
 3796              		@ args = 0, pretend = 0, frame = 40
 3797              		@ frame_needed = 0, uses_anonymous_args = 0
 3798              	.LVL263:
 3799 0000 2DE9F04F 		push	{r4, r5, r6, r7, r8, r9, sl, fp, lr}
 3800              	.LCFI15:
 3801              		.cfi_def_cfa_offset 36
 3802              		.cfi_offset 14, -4
 3803              		.cfi_offset 11, -8
 3804              		.cfi_offset 10, -12
 3805              		.cfi_offset 9, -16
 3806              		.cfi_offset 8, -20
 3807              		.cfi_offset 7, -24
 3808              		.cfi_offset 6, -28
 3809              		.cfi_offset 5, -32
 3810              		.cfi_offset 4, -36
 589:subsystems/nav.c ****   radius = - radius; /* Historical error ? */
 590:subsystems/nav.c **** 
 591:subsystems/nav.c ****   float alt = waypoints[p1].a;
 3811              		.loc 1 591 0
 3812 0004 0C27     		movs	r7, #12
 3813 0006 07FB00F9 		mul	r9, r7, r0
 3814 000a 9F4D     		ldr	r5, .L382+24
 592:subsystems/nav.c ****   waypoints[p2].a = alt;
 3815              		.loc 1 592 0
 3816 000c 4F43     		muls	r7, r1, r7
 591:subsystems/nav.c ****   float alt = waypoints[p1].a;
 3817              		.loc 1 591 0
 3818 000e 05EB0908 		add	r8, r5, r9
 3819 0012 D8F80830 		ldr	r3, [r8, #8]	@ float
 588:subsystems/nav.c **** void nav_oval(uint8_t p1, uint8_t p2, float radius) {
 3820              		.loc 1 588 0
 3821 0016 8DB0     		sub	sp, sp, #52
 3822              	.LCFI16:
 3823              		.cfi_def_cfa_offset 88
 3824              		.loc 1 592 0
 3825 0018 EE19     		adds	r6, r5, r7
 3826 001a B360     		str	r3, [r6, #8]	@ float
 588:subsystems/nav.c **** void nav_oval(uint8_t p1, uint8_t p2, float radius) {
 3827              		.loc 1 588 0
 3828 001c 0A90     		str	r0, [sp, #40]
 3829 001e 0B91     		str	r1, [sp, #44]
 593:subsystems/nav.c **** 
 594:subsystems/nav.c ****   float p2_p1_x = waypoints[p1].x - waypoints[p2].x;
 3830              		.loc 1 594 0
 3831 0020 55F80900 		ldr	r0, [r5, r9]	@ float
 3832              	.LVL264:
 3833 0024 E959     		ldr	r1, [r5, r7]	@ float
 3834              	.LVL265:
 589:subsystems/nav.c ****   radius = - radius; /* Historical error ? */
 3835              		.loc 1 589 0
 3836 0026 02F10044 		add	r4, r2, #-2147483648
 3837              	.LVL266:
 588:subsystems/nav.c **** void nav_oval(uint8_t p1, uint8_t p2, float radius) {
 3838              		.loc 1 588 0
 3839 002a 0492     		str	r2, [sp, #16]	@ float
 3840              		.loc 1 594 0
 3841 002c FFF7FEFF 		bl	__aeabi_fsub
 3842              	.LVL267:
 595:subsystems/nav.c ****   float p2_p1_y = waypoints[p1].y - waypoints[p2].y;
 3843              		.loc 1 595 0
 3844 0030 7168     		ldr	r1, [r6, #4]	@ float
 594:subsystems/nav.c ****   float p2_p1_x = waypoints[p1].x - waypoints[p2].x;
 3845              		.loc 1 594 0
 3846 0032 8346     		mov	fp, r0
 3847              	.LVL268:
 3848              		.loc 1 595 0
 3849 0034 D8F80400 		ldr	r0, [r8, #4]	@ float
 3850              	.LVL269:
 3851 0038 FFF7FEFF 		bl	__aeabi_fsub
 596:subsystems/nav.c ****   float d = sqrt(p2_p1_x*p2_p1_x+p2_p1_y*p2_p1_y);
 3852              		.loc 1 596 0
 3853 003c 5946     		mov	r1, fp
 595:subsystems/nav.c ****   float p2_p1_y = waypoints[p1].y - waypoints[p2].y;
 3854              		.loc 1 595 0
 3855 003e 8246     		mov	sl, r0
 3856              	.LVL270:
 3857              		.loc 1 596 0
 3858 0040 5846     		mov	r0, fp
 3859              	.LVL271:
 3860 0042 FFF7FEFF 		bl	__aeabi_fmul
 3861 0046 5146     		mov	r1, sl
 3862 0048 0346     		mov	r3, r0
 3863 004a 5046     		mov	r0, sl
 3864 004c 0393     		str	r3, [sp, #12]
 3865 004e FFF7FEFF 		bl	__aeabi_fmul
 3866 0052 039B     		ldr	r3, [sp, #12]
 3867 0054 0146     		mov	r1, r0
 3868 0056 1846     		mov	r0, r3
 3869 0058 FFF7FEFF 		bl	__aeabi_fadd
 3870 005c FFF7FEFF 		bl	__aeabi_f2d
 3871 0060 FFF7FEFF 		bl	sqrt
 3872 0064 FFF7FEFF 		bl	__aeabi_d2f
 3873 0068 0346     		mov	r3, r0
 3874              	.LVL272:
 597:subsystems/nav.c **** 
 598:subsystems/nav.c ****   /* Unit vector from p1 to p2 */
 599:subsystems/nav.c ****   float u_x = p2_p1_x / d;
 3875              		.loc 1 599 0
 3876 006a 1946     		mov	r1, r3
 3877 006c 5846     		mov	r0, fp
 3878              	.LVL273:
 3879 006e 0393     		str	r3, [sp, #12]
 3880 0070 FFF7FEFF 		bl	__aeabi_fdiv
 3881              	.LVL274:
 600:subsystems/nav.c ****   float u_y = p2_p1_y / d;
 3882              		.loc 1 600 0
 3883 0074 039B     		ldr	r3, [sp, #12]
 599:subsystems/nav.c ****   float u_x = p2_p1_x / d;
 3884              		.loc 1 599 0
 3885 0076 8346     		mov	fp, r0
 3886              	.LVL275:
 3887              		.loc 1 600 0
 3888 0078 1946     		mov	r1, r3
 3889 007a 5046     		mov	r0, sl
 3890              	.LVL276:
 3891 007c FFF7FEFF 		bl	__aeabi_fdiv
 601:subsystems/nav.c **** 
 602:subsystems/nav.c ****   /* The half circle centers and the other leg */
 603:subsystems/nav.c ****   struct point p1_center = { waypoints[p1].x + radius * -u_y,
 3892              		.loc 1 603 0
 3893 0080 00F10042 		add	r2, r0, #-2147483648
 3894 0084 0692     		str	r2, [sp, #24]
 3895 0086 55F80990 		ldr	r9, [r5, r9]	@ float
 3896 008a 0699     		ldr	r1, [sp, #24]	@ float
 600:subsystems/nav.c ****   float u_y = p2_p1_y / d;
 3897              		.loc 1 600 0
 3898 008c 8246     		mov	sl, r0
 3899              	.LVL277:
 3900              		.loc 1 603 0
 3901 008e 2046     		mov	r0, r4
 3902              	.LVL278:
 3903 0090 CDF81490 		str	r9, [sp, #20]	@ float
 3904 0094 FFF7FEFF 		bl	__aeabi_fmul
 604:subsystems/nav.c **** 			     waypoints[p1].y + radius * u_x,
 3905              		.loc 1 604 0
 3906 0098 D8F80480 		ldr	r8, [r8, #4]	@ float
 603:subsystems/nav.c ****   struct point p1_center = { waypoints[p1].x + radius * -u_y,
 3907              		.loc 1 603 0
 3908 009c 0790     		str	r0, [sp, #28]	@ float
 3909              	.LVL279:
 3910              		.loc 1 604 0
 3911 009e 5946     		mov	r1, fp
 3912 00a0 2046     		mov	r0, r4
 3913              	.LVL280:
 3914 00a2 CDF82080 		str	r8, [sp, #32]	@ float
 3915 00a6 FFF7FEFF 		bl	__aeabi_fmul
 3916 00aa 0990     		str	r0, [sp, #36]	@ float
 3917              	.LVL281:
 605:subsystems/nav.c **** 			     alt  };
 606:subsystems/nav.c ****   struct point p1_out = { waypoints[p1].x + 2*radius * -u_y,
 607:subsystems/nav.c **** 			  waypoints[p1].y + 2*radius * u_x,
 608:subsystems/nav.c **** 			  alt  };
 609:subsystems/nav.c **** 
 610:subsystems/nav.c ****   struct point p2_in = { waypoints[p2].x + 2*radius * -u_y,
 611:subsystems/nav.c **** 			 waypoints[p2].y + 2*radius * u_x,
 612:subsystems/nav.c **** 			 alt  };
 613:subsystems/nav.c ****   struct point p2_center = { waypoints[p2].x + radius * -u_y,
 614:subsystems/nav.c **** 			     waypoints[p2].y + radius * u_x,
 615:subsystems/nav.c **** 			     alt  };
 616:subsystems/nav.c **** 
 617:subsystems/nav.c ****   float qdr_out_2 = M_PI - atan2(u_y, u_x);
 3918              		.loc 1 617 0
 3919 00ac 5046     		mov	r0, sl
 3920              	.LVL282:
 3921 00ae FFF7FEFF 		bl	__aeabi_f2d
 611:subsystems/nav.c **** 			 waypoints[p2].y + 2*radius * u_x,
 3922              		.loc 1 611 0
 3923 00b2 D6F80480 		ldr	r8, [r6, #4]	@ float
 3924              	.LVL283:
 3925              		.loc 1 617 0
 3926 00b6 0646     		mov	r6, r0
 3927 00b8 5846     		mov	r0, fp
 610:subsystems/nav.c ****   struct point p2_in = { waypoints[p2].x + 2*radius * -u_y,
 3928              		.loc 1 610 0
 3929 00ba 55F80790 		ldr	r9, [r5, r7]	@ float
 3930              	.LVL284:
 3931              		.loc 1 617 0
 3932 00be 0F46     		mov	r7, r1
 3933 00c0 FFF7FEFF 		bl	__aeabi_f2d
 3934 00c4 0246     		mov	r2, r0
 3935 00c6 0B46     		mov	r3, r1
 3936 00c8 3046     		mov	r0, r6
 3937 00ca 3946     		mov	r1, r7
 3938 00cc FFF7FEFF 		bl	atan2
 3939 00d0 0246     		mov	r2, r0
 3940 00d2 0B46     		mov	r3, r1
 3941 00d4 66A1     		adr	r1, .L382
 3942 00d6 D1E90001 		ldrd	r0, [r1]
 3943 00da FFF7FEFF 		bl	__aeabi_dsub
 3944 00de FFF7FEFF 		bl	__aeabi_d2f
 3945 00e2 0746     		mov	r7, r0
 3946              	.LVL285:
 618:subsystems/nav.c ****   float qdr_out_1 = qdr_out_2 + M_PI;
 3947              		.loc 1 618 0
 3948 00e4 FFF7FEFF 		bl	__aeabi_f2d
 3949              	.LVL286:
 3950 00e8 61A3     		adr	r3, .L382
 3951 00ea D3E90023 		ldrd	r2, [r3]
 3952 00ee FFF7FEFF 		bl	__aeabi_dadd
 3953 00f2 FFF7FEFF 		bl	__aeabi_d2f
 619:subsystems/nav.c ****   if (radius < 0) {
 3954              		.loc 1 619 0
 3955 00f6 0021     		movs	r1, #0
 618:subsystems/nav.c ****   float qdr_out_1 = qdr_out_2 + M_PI;
 3956              		.loc 1 618 0
 3957 00f8 0646     		mov	r6, r0
 3958              	.LVL287:
 3959              		.loc 1 619 0
 3960 00fa 2046     		mov	r0, r4
 3961              	.LVL288:
 3962 00fc FFF7FEFF 		bl	__aeabi_fcmplt
 3963 0100 58B1     		cbz	r0, .L318
 3964              	.LVL289:
 620:subsystems/nav.c ****     qdr_out_2 += M_PI;
 621:subsystems/nav.c ****     qdr_out_1 += M_PI;
 3965              		.loc 1 621 0
 3966 0102 3046     		mov	r0, r6
 3967 0104 FFF7FEFF 		bl	__aeabi_f2d
 3968 0108 59A3     		adr	r3, .L382
 3969 010a D3E90023 		ldrd	r2, [r3]
 3970 010e FFF7FEFF 		bl	__aeabi_dadd
 3971 0112 FFF7FEFF 		bl	__aeabi_d2f
 3972              	.LVL290:
 620:subsystems/nav.c ****     qdr_out_2 += M_PI;
 3973              		.loc 1 620 0
 3974 0116 3746     		mov	r7, r6
 3975              		.loc 1 621 0
 3976 0118 0646     		mov	r6, r0
 3977              	.LVL291:
 3978              	.L318:
 622:subsystems/nav.c ****   }
 623:subsystems/nav.c ****   float qdr_anticipation = (radius > 0 ? -15 : 15);
 3979              		.loc 1 623 0
 3980 011a 2046     		mov	r0, r4
 3981 011c 0021     		movs	r1, #0
 3982 011e FFF7FEFF 		bl	__aeabi_fcmpgt
 3983 0122 08B1     		cbz	r0, .L371
 3984 0124 594D     		ldr	r5, .L382+28
 3985 0126 00E0     		b	.L320
 3986              	.L371:
 3987 0128 594D     		ldr	r5, .L382+32
 3988              	.L320:
 3989              	.LVL292:
 624:subsystems/nav.c **** 
 625:subsystems/nav.c ****   switch (oval_status) {
 3990              		.loc 1 625 0 discriminator 3
 3991 012a 5A4B     		ldr	r3, .L382+36
 3992 012c 1B78     		ldrb	r3, [r3, #0]	@ zero_extendqisi2
 3993 012e 032B     		cmp	r3, #3
 3994 0130 00F2AB81 		bhi	.L317
 3995 0134 DFE813F0 		tbh	[pc, r3, lsl #1]
 3996              	.L327:
 3997 0138 B800     		.2byte	(.L323-.L327)/2
 3998 013a F200     		.2byte	(.L324-.L327)/2
 3999 013c 8601     		.2byte	(.L325-.L327)/2
 4000 013e 0400     		.2byte	(.L326-.L327)/2
 4001              	.L326:
 603:subsystems/nav.c ****   struct point p1_center = { waypoints[p1].x + radius * -u_y,
 4002              		.loc 1 603 0
 4003 0140 0799     		ldr	r1, [sp, #28]	@ float
 4004 0142 0598     		ldr	r0, [sp, #20]	@ float
 4005 0144 FFF7FEFF 		bl	__aeabi_fadd
 604:subsystems/nav.c **** 			     waypoints[p1].y + radius * u_x,
 4006              		.loc 1 604 0
 4007 0148 0999     		ldr	r1, [sp, #36]	@ float
 603:subsystems/nav.c ****   struct point p1_center = { waypoints[p1].x + radius * -u_y,
 4008              		.loc 1 603 0
 4009 014a 0446     		mov	r4, r0
 4010              	.LVL293:
 604:subsystems/nav.c **** 			     waypoints[p1].y + radius * u_x,
 4011              		.loc 1 604 0
 4012 014c 0898     		ldr	r0, [sp, #32]	@ float
 4013 014e FFF7FEFF 		bl	__aeabi_fadd
 626:subsystems/nav.c ****   case OC1 :
 627:subsystems/nav.c ****     nav_circle_XY(p1_center.x,p1_center.y, -radius);
 4014              		.loc 1 627 0
 4015 0152 049A     		ldr	r2, [sp, #16]	@ float
 604:subsystems/nav.c **** 			     waypoints[p1].y + radius * u_x,
 4016              		.loc 1 604 0
 4017 0154 0146     		mov	r1, r0
 4018              		.loc 1 627 0
 4019 0156 2046     		mov	r0, r4
 4020 0158 FFF7FEFF 		bl	nav_circle_XY
 4021              	.LBB61:
 628:subsystems/nav.c ****     if (NavQdrCloseTo(DegOfRad(qdr_out_1)-qdr_anticipation)) {
 4022              		.loc 1 628 0
 4023 015c 3046     		mov	r0, r6
 4024 015e FFF7FEFF 		bl	__aeabi_f2d
 4025 0162 45A3     		adr	r3, .L382+8
 4026 0164 D3E90023 		ldrd	r2, [r3]
 4027 0168 FFF7FEFF 		bl	__aeabi_dmul
 4028 016c 0646     		mov	r6, r0
 4029              	.LVL294:
 4030 016e 2846     		mov	r0, r5
 4031 0170 0F46     		mov	r7, r1
 4032              	.LVL295:
 4033 0172 FFF7FEFF 		bl	__aeabi_f2d
 4034 0176 0246     		mov	r2, r0
 4035 0178 0B46     		mov	r3, r1
 4036 017a 3046     		mov	r0, r6
 4037 017c 3946     		mov	r1, r7
 4038 017e FFF7FEFF 		bl	__aeabi_dsub
 4039              	.LBB62:
 4040 0182 454B     		ldr	r3, .L382+40
 4041              	.LBE62:
 4042 0184 0446     		mov	r4, r0
 4043              	.LBB65:
 4044 0186 1868     		ldr	r0, [r3, #0]	@ float
 4045              	.LBE65:
 4046 0188 0D46     		mov	r5, r1
 4047              	.LVL296:
 4048              	.LBB66:
 4049 018a FFF7FEFF 		bl	__aeabi_f2d
 4050 018e 0246     		mov	r2, r0
 4051 0190 0B46     		mov	r3, r1
 4052 0192 3BA1     		adr	r1, .L382+16
 4053 0194 D1E90001 		ldrd	r0, [r1]
 4054 0198 FFF7FEFF 		bl	__aeabi_dsub
 4055 019c 36A3     		adr	r3, .L382+8
 4056 019e D3E90023 		ldrd	r2, [r3]
 4057 01a2 FFF7FEFF 		bl	__aeabi_dmul
 4058 01a6 FFF7FEFF 		bl	__aeabi_d2f
 4059              	.LBB63:
 4060 01aa 4FF00008 		mov	r8, #0
 4061              	.LVL297:
 4062              	.LBE63:
 4063 01ae 0646     		mov	r6, r0
 4064              	.LVL298:
 4065              	.LBB64:
 4066 01b0 04E0     		b	.L328
 4067              	.LVL299:
 4068              	.L331:
 4069              		.loc 1 628 0 is_stmt 0 discriminator 4
 4070 01b2 3046     		mov	r0, r6
 4071 01b4 3949     		ldr	r1, .L382+44
 4072 01b6 FFF7FEFF 		bl	__aeabi_fadd
 4073 01ba 0646     		mov	r6, r0
 4074              	.LVL300:
 4075              	.L328:
 4076              		.loc 1 628 0 discriminator 1
 4077 01bc 3046     		mov	r0, r6
 4078              	.LVL301:
 4079 01be 0021     		movs	r1, #0
 4080 01c0 5FFA88F7 		uxtb	r7, r8
 4081 01c4 FFF7FEFF 		bl	__aeabi_fcmplt
 4082 01c8 58B1     		cbz	r0, .L372
 4083              		.loc 1 628 0 discriminator 2
 4084 01ca 08F10108 		add	r8, r8, #1
 4085 01ce B8F5807F 		cmp	r8, #256
 4086 01d2 EED1     		bne	.L331
 4087              		.loc 1 628 0
 4088 01d4 0027     		movs	r7, #0
 4089 01d6 04E0     		b	.L372
 4090              	.LVL302:
 4091              	.L335:
 4092              		.loc 1 628 0 discriminator 8
 4093 01d8 3046     		mov	r0, r6
 4094 01da 3049     		ldr	r1, .L382+44
 4095 01dc FFF7FEFF 		bl	__aeabi_fsub
 4096 01e0 0646     		mov	r6, r0
 4097              	.LVL303:
 4098              	.L372:
 4099              		.loc 1 628 0 discriminator 5
 4100 01e2 3046     		mov	r0, r6
 4101 01e4 2D49     		ldr	r1, .L382+44
 4102 01e6 FFF7FEFF 		bl	__aeabi_fcmpge
 4103 01ea 18B1     		cbz	r0, .L333
 4104              		.loc 1 628 0 discriminator 6
 4105 01ec 0137     		adds	r7, r7, #1
 4106              	.LVL304:
 4107 01ee FFB2     		uxtb	r7, r7
 4108              	.LVL305:
 4109 01f0 002F     		cmp	r7, #0
 4110 01f2 F1D1     		bne	.L335
 4111              	.LVL306:
 4112              	.L333:
 4113              	.LBE64:
 4114              	.LBE66:
 4115              		.loc 1 628 0 discriminator 7
 4116 01f4 3046     		mov	r0, r6
 4117 01f6 FFF7FEFF 		bl	__aeabi_f2d
 4118 01fa 0246     		mov	r2, r0
 4119 01fc 0B46     		mov	r3, r1
 4120 01fe 2046     		mov	r0, r4
 4121 0200 2946     		mov	r1, r5
 4122 0202 FFF7FEFF 		bl	__aeabi_dsub
 4123 0206 FFF7FEFF 		bl	__aeabi_d2f
 4124              	.LBB67:
 4125 020a 0026     		movs	r6, #0
 4126              	.LVL307:
 4127              	.LBE67:
 4128 020c 0446     		mov	r4, r0
 4129              	.LVL308:
 4130              	.LBB68:
 4131 020e 04E0     		b	.L336
 4132              	.LVL309:
 4133              	.L339:
 4134              		.loc 1 628 0 discriminator 12
 4135 0210 2046     		mov	r0, r4
 4136 0212 2249     		ldr	r1, .L382+44
 4137 0214 FFF7FEFF 		bl	__aeabi_fadd
 4138 0218 0446     		mov	r4, r0
 4139              	.LVL310:
 4140              	.L336:
 4141              		.loc 1 628 0 discriminator 9
 4142 021a 2046     		mov	r0, r4
 4143              	.LVL311:
 4144 021c 0021     		movs	r1, #0
 4145 021e F5B2     		uxtb	r5, r6
 4146 0220 FFF7FEFF 		bl	__aeabi_fcmplt
 4147 0224 50B1     		cbz	r0, .L373
 4148              		.loc 1 628 0 discriminator 10
 4149 0226 0136     		adds	r6, r6, #1
 4150 0228 B6F5807F 		cmp	r6, #256
 4151 022c F0D1     		bne	.L339
 4152              		.loc 1 628 0
 4153 022e 0025     		movs	r5, #0
 4154 0230 04E0     		b	.L373
 4155              	.LVL312:
 4156              	.L343:
 4157              		.loc 1 628 0 discriminator 16
 4158 0232 2046     		mov	r0, r4
 4159 0234 1949     		ldr	r1, .L382+44
 4160 0236 FFF7FEFF 		bl	__aeabi_fsub
 4161 023a 0446     		mov	r4, r0
 4162              	.LVL313:
 4163              	.L373:
 4164              		.loc 1 628 0 discriminator 13
 4165 023c 2046     		mov	r0, r4
 4166 023e 1749     		ldr	r1, .L382+44
 4167 0240 FFF7FEFF 		bl	__aeabi_fcmpge
 4168 0244 18B1     		cbz	r0, .L341
 4169              		.loc 1 628 0 discriminator 14
 4170 0246 0135     		adds	r5, r5, #1
 4171              	.LVL314:
 4172 0248 EDB2     		uxtb	r5, r5
 4173              	.LVL315:
 4174 024a 002D     		cmp	r5, #0
 4175 024c F1D1     		bne	.L343
 4176              	.LVL316:
 4177              	.L341:
 4178              	.LBE68:
 4179              		.loc 1 628 0 discriminator 15
 4180 024e 2046     		mov	r0, r4
 4181 0250 1349     		ldr	r1, .L382+48
 4182 0252 FFF7FEFF 		bl	__aeabi_fcmpgt
 4183 0256 30B9     		cbnz	r0, .L344
 4184              		.loc 1 628 0 discriminator 18
 4185 0258 2046     		mov	r0, r4
 4186 025a 1249     		ldr	r1, .L382+52
 4187 025c FFF7FEFF 		bl	__aeabi_fcmplt
 4188 0260 0028     		cmp	r0, #0
 4189 0262 00F01281 		beq	.L317
 4190              	.L344:
 4191              	.LBE61:
 629:subsystems/nav.c ****       oval_status = OR12;
 4192              		.loc 1 629 0 is_stmt 1 discriminator 20
 4193 0266 0022     		movs	r2, #0
 4194 0268 08E1     		b	.L380
 4195              	.L383:
 4196 026a 00BFAFF3 		.align	3
 4196      0080
 4197              	.L382:
 4198 0270 182D4454 		.word	1413754136
 4199 0274 FB210940 		.word	1074340347
 4200 0278 F8C1631A 		.word	442745336
 4201 027c DCA54C40 		.word	1078765020
 4202 0280 182D4454 		.word	1413754136
 4203 0284 FB21F93F 		.word	1073291771
 4204 0288 00000000 		.word	.LANCHOR26
 4205 028c 000070C1 		.word	-1049624576
 4206 0290 00007041 		.word	1097859072
 4207 0294 00000000 		.word	.LANCHOR44
 4208 0298 00000000 		.word	.LANCHOR14
 4209 029c 0000B443 		.word	1135869952
 4210 02a0 0000AF43 		.word	1135542272
 4211 02a4 00002041 		.word	1092616192
 4212              	.LVL317:
 4213              	.L323:
 606:subsystems/nav.c ****   struct point p1_out = { waypoints[p1].x + 2*radius * -u_y,
 4214              		.loc 1 606 0
 4215 02a8 2146     		mov	r1, r4
 4216 02aa 2046     		mov	r0, r4
 4217 02ac FFF7FEFF 		bl	__aeabi_fadd
 4218 02b0 0699     		ldr	r1, [sp, #24]	@ float
 4219 02b2 0546     		mov	r5, r0
 4220              	.LVL318:
 4221 02b4 FFF7FEFF 		bl	__aeabi_fmul
 4222 02b8 0646     		mov	r6, r0
 4223              	.LVL319:
 4224 02ba 3146     		mov	r1, r6
 4225 02bc 0598     		ldr	r0, [sp, #20]	@ float
 4226 02be FFF7FEFF 		bl	__aeabi_fadd
 607:subsystems/nav.c **** 			  waypoints[p1].y + 2*radius * u_x,
 4227              		.loc 1 607 0
 4228 02c2 5946     		mov	r1, fp
 606:subsystems/nav.c ****   struct point p1_out = { waypoints[p1].x + 2*radius * -u_y,
 4229              		.loc 1 606 0
 4230 02c4 0446     		mov	r4, r0
 4231              	.LVL320:
 607:subsystems/nav.c **** 			  waypoints[p1].y + 2*radius * u_x,
 4232              		.loc 1 607 0
 4233 02c6 2846     		mov	r0, r5
 4234 02c8 FFF7FEFF 		bl	__aeabi_fmul
 4235 02cc 0746     		mov	r7, r0
 4236              	.LVL321:
 4237 02ce 3946     		mov	r1, r7
 4238 02d0 0898     		ldr	r0, [sp, #32]	@ float
 4239 02d2 FFF7FEFF 		bl	__aeabi_fadd
 610:subsystems/nav.c ****   struct point p2_in = { waypoints[p2].x + 2*radius * -u_y,
 4240              		.loc 1 610 0
 4241 02d6 3146     		mov	r1, r6
 607:subsystems/nav.c **** 			  waypoints[p1].y + 2*radius * u_x,
 4242              		.loc 1 607 0
 4243 02d8 0546     		mov	r5, r0
 610:subsystems/nav.c ****   struct point p2_in = { waypoints[p2].x + 2*radius * -u_y,
 4244              		.loc 1 610 0
 4245 02da 4846     		mov	r0, r9
 4246 02dc FFF7FEFF 		bl	__aeabi_fadd
 611:subsystems/nav.c **** 			 waypoints[p2].y + 2*radius * u_x,
 4247              		.loc 1 611 0
 4248 02e0 3946     		mov	r1, r7
 610:subsystems/nav.c ****   struct point p2_in = { waypoints[p2].x + 2*radius * -u_y,
 4249              		.loc 1 610 0
 4250 02e2 0646     		mov	r6, r0
 611:subsystems/nav.c **** 			 waypoints[p2].y + 2*radius * u_x,
 4251              		.loc 1 611 0
 4252 02e4 4046     		mov	r0, r8
 4253 02e6 FFF7FEFF 		bl	__aeabi_fadd
 4254 02ea 0746     		mov	r7, r0
 630:subsystems/nav.c ****       InitStage();
 631:subsystems/nav.c ****       LINE_START_FUNCTION;
 632:subsystems/nav.c ****     }
 633:subsystems/nav.c ****     return;
 634:subsystems/nav.c **** 
 635:subsystems/nav.c ****   case OR12:
 636:subsystems/nav.c ****     nav_route_xy(p1_out.x, p1_out.y, p2_in.x, p2_in.y);
 4255              		.loc 1 636 0
 4256 02ec 2946     		mov	r1, r5
 4257 02ee 2046     		mov	r0, r4
 4258 02f0 3246     		mov	r2, r6
 4259 02f2 3B46     		mov	r3, r7
 4260 02f4 FFF7FEFF 		bl	nav_route_xy
 637:subsystems/nav.c ****     if (nav_approaching_xy(p2_in.x, p2_in.y, p1_out.x, p1_out.y, CARROT)) {
 4261              		.loc 1 637 0
 4262 02f8 694B     		ldr	r3, .L384+16
 4263 02fa 3046     		mov	r0, r6
 4264 02fc 0093     		str	r3, [sp, #0]	@ float
 4265 02fe 3946     		mov	r1, r7
 4266 0300 2246     		mov	r2, r4
 4267 0302 2B46     		mov	r3, r5
 4268 0304 FFF7FEFF 		bl	nav_approaching_xy
 4269 0308 0028     		cmp	r0, #0
 4270 030a 00F0BE80 		beq	.L317
 638:subsystems/nav.c ****       oval_status = OC2;
 4271              		.loc 1 638 0
 4272 030e 654B     		ldr	r3, .L384+20
 4273 0310 0122     		movs	r2, #1
 4274 0312 1A70     		strb	r2, [r3, #0]
 639:subsystems/nav.c ****       nav_oval_count++;
 4275              		.loc 1 639 0
 4276 0314 644B     		ldr	r3, .L384+24
 4277 0316 1A78     		ldrb	r2, [r3, #0]	@ zero_extendqisi2
 4278 0318 0132     		adds	r2, r2, #1
 4279 031a B0E0     		b	.L381
 4280              	.LVL322:
 4281              	.L324:
 613:subsystems/nav.c ****   struct point p2_center = { waypoints[p2].x + radius * -u_y,
 4282              		.loc 1 613 0
 4283 031c 0799     		ldr	r1, [sp, #28]	@ float
 4284 031e 4846     		mov	r0, r9
 4285 0320 FFF7FEFF 		bl	__aeabi_fadd
 614:subsystems/nav.c **** 			     waypoints[p2].y + radius * u_x,
 4286              		.loc 1 614 0
 4287 0324 0999     		ldr	r1, [sp, #36]	@ float
 613:subsystems/nav.c ****   struct point p2_center = { waypoints[p2].x + radius * -u_y,
 4288              		.loc 1 613 0
 4289 0326 0446     		mov	r4, r0
 4290              	.LVL323:
 614:subsystems/nav.c **** 			     waypoints[p2].y + radius * u_x,
 4291              		.loc 1 614 0
 4292 0328 4046     		mov	r0, r8
 4293 032a FFF7FEFF 		bl	__aeabi_fadd
 640:subsystems/nav.c ****       InitStage();
 641:subsystems/nav.c ****       LINE_STOP_FUNCTION;
 642:subsystems/nav.c ****     }
 643:subsystems/nav.c ****     return;
 644:subsystems/nav.c **** 
 645:subsystems/nav.c ****   case OC2 :
 646:subsystems/nav.c ****     nav_circle_XY(p2_center.x, p2_center.y, -radius);
 4294              		.loc 1 646 0
 4295 032e 049A     		ldr	r2, [sp, #16]	@ float
 614:subsystems/nav.c **** 			     waypoints[p2].y + radius * u_x,
 4296              		.loc 1 614 0
 4297 0330 0146     		mov	r1, r0
 4298              		.loc 1 646 0
 4299 0332 2046     		mov	r0, r4
 4300 0334 FFF7FEFF 		bl	nav_circle_XY
 4301              	.LBB69:
 647:subsystems/nav.c ****     if (NavQdrCloseTo(DegOfRad(qdr_out_2)-qdr_anticipation)) {
 4302              		.loc 1 647 0
 4303 0338 3846     		mov	r0, r7
 4304 033a FFF7FEFF 		bl	__aeabi_f2d
 4305 033e 54A3     		adr	r3, .L384
 4306 0340 D3E90023 		ldrd	r2, [r3]
 4307 0344 FFF7FEFF 		bl	__aeabi_dmul
 4308 0348 0646     		mov	r6, r0
 4309              	.LVL324:
 4310 034a 2846     		mov	r0, r5
 4311 034c 0F46     		mov	r7, r1
 4312              	.LVL325:
 4313 034e FFF7FEFF 		bl	__aeabi_f2d
 4314 0352 0246     		mov	r2, r0
 4315 0354 0B46     		mov	r3, r1
 4316 0356 3046     		mov	r0, r6
 4317 0358 3946     		mov	r1, r7
 4318 035a FFF7FEFF 		bl	__aeabi_dsub
 4319              	.LBB70:
 4320 035e 534B     		ldr	r3, .L384+28
 4321              	.LBE70:
 4322 0360 0446     		mov	r4, r0
 4323              	.LBB73:
 4324 0362 1868     		ldr	r0, [r3, #0]	@ float
 4325              	.LBE73:
 4326 0364 0D46     		mov	r5, r1
 4327              	.LVL326:
 4328              	.LBB74:
 4329 0366 FFF7FEFF 		bl	__aeabi_f2d
 4330 036a 0246     		mov	r2, r0
 4331 036c 0B46     		mov	r3, r1
 4332 036e 4AA1     		adr	r1, .L384+8
 4333 0370 D1E90001 		ldrd	r0, [r1]
 4334 0374 FFF7FEFF 		bl	__aeabi_dsub
 4335 0378 45A3     		adr	r3, .L384
 4336 037a D3E90023 		ldrd	r2, [r3]
 4337 037e FFF7FEFF 		bl	__aeabi_dmul
 4338 0382 FFF7FEFF 		bl	__aeabi_d2f
 4339              	.LBB71:
 4340 0386 4FF00008 		mov	r8, #0
 4341              	.LVL327:
 4342              	.LBE71:
 4343 038a 0646     		mov	r6, r0
 4344              	.LVL328:
 4345              	.LBB72:
 4346 038c 04E0     		b	.L346
 4347              	.LVL329:
 4348              	.L349:
 4349              		.loc 1 647 0 is_stmt 0 discriminator 4
 4350 038e 3046     		mov	r0, r6
 4351 0390 4749     		ldr	r1, .L384+32
 4352 0392 FFF7FEFF 		bl	__aeabi_fadd
 4353 0396 0646     		mov	r6, r0
 4354              	.LVL330:
 4355              	.L346:
 4356              		.loc 1 647 0 discriminator 1
 4357 0398 3046     		mov	r0, r6
 4358              	.LVL331:
 4359 039a 0021     		movs	r1, #0
 4360 039c 5FFA88F7 		uxtb	r7, r8
 4361 03a0 FFF7FEFF 		bl	__aeabi_fcmplt
 4362 03a4 58B1     		cbz	r0, .L374
 4363              		.loc 1 647 0 discriminator 2
 4364 03a6 08F10108 		add	r8, r8, #1
 4365 03aa B8F5807F 		cmp	r8, #256
 4366 03ae EED1     		bne	.L349
 4367              		.loc 1 647 0
 4368 03b0 0027     		movs	r7, #0
 4369 03b2 04E0     		b	.L374
 4370              	.LVL332:
 4371              	.L353:
 4372              		.loc 1 647 0 discriminator 8
 4373 03b4 3046     		mov	r0, r6
 4374 03b6 3E49     		ldr	r1, .L384+32
 4375 03b8 FFF7FEFF 		bl	__aeabi_fsub
 4376 03bc 0646     		mov	r6, r0
 4377              	.LVL333:
 4378              	.L374:
 4379              		.loc 1 647 0 discriminator 5
 4380 03be 3046     		mov	r0, r6
 4381 03c0 3B49     		ldr	r1, .L384+32
 4382 03c2 FFF7FEFF 		bl	__aeabi_fcmpge
 4383 03c6 18B1     		cbz	r0, .L351
 4384              		.loc 1 647 0 discriminator 6
 4385 03c8 0137     		adds	r7, r7, #1
 4386              	.LVL334:
 4387 03ca FFB2     		uxtb	r7, r7
 4388              	.LVL335:
 4389 03cc 002F     		cmp	r7, #0
 4390 03ce F1D1     		bne	.L353
 4391              	.LVL336:
 4392              	.L351:
