   1              		.syntax unified
   2              		.cpu cortex-m3
   3              		.fpu softvfp
   4              		.eabi_attribute 20, 1
   5              		.eabi_attribute 21, 1
   6              		.eabi_attribute 23, 3
   7              		.eabi_attribute 24, 1
   8              		.eabi_attribute 25, 1
   9              		.eabi_attribute 26, 1
  10              		.eabi_attribute 30, 4
  11              		.eabi_attribute 18, 4
  12              		.thumb
  13              		.file	"plug_sys.c"
  14              		.text
  15              	.Ltext0:
  16              		.cfi_sections	.debug_frame
  17              		.section	.text._lseek,"ax",%progbits
  18              		.align	1
  19              		.global	_lseek
  20              		.thumb
  21              		.thumb_func
  23              	_lseek:
  24              	.LFB0:
  25              		.file 1 "lisa/plug_sys.c"
   1:lisa/plug_sys.c **** /*
   2:lisa/plug_sys.c ****  *
   3:lisa/plug_sys.c ****  *  looks like some functions of the math lib (eg sqrt, atan2) insist to believe
   4:lisa/plug_sys.c ****  *  they are running on UNIX. Let's keep them happy !
   5:lisa/plug_sys.c ****  *
   6:lisa/plug_sys.c ****  */
   7:lisa/plug_sys.c **** 
   8:lisa/plug_sys.c **** #include <unistd.h>
   9:lisa/plug_sys.c **** extern off_t                  _lseek(int, off_t, int);
  10:lisa/plug_sys.c **** extern void                   abort(void);
  11:lisa/plug_sys.c **** extern int                    kill(pid_t, int);
  12:lisa/plug_sys.c **** extern void *                 _sbrk(int);
  13:lisa/plug_sys.c **** extern ssize_t                _write(int, const void *, size_t);
  14:lisa/plug_sys.c **** extern int                    _close(int);
  15:lisa/plug_sys.c **** extern ssize_t                _read(int, void *, size_t);
  16:lisa/plug_sys.c **** 
  17:lisa/plug_sys.c **** off_t                  _lseek(int a, off_t b, int c) { return b;}
  26              		.loc 1 17 0
  27              		.cfi_startproc
  28              		@ args = 0, pretend = 0, frame = 0
  29              		@ frame_needed = 0, uses_anonymous_args = 0
  30              		@ link register save eliminated.
  31              	.LVL0:
  32              		.loc 1 17 0
  33 0000 0846     		mov	r0, r1
  34              	.LVL1:
  35 0002 7047     		bx	lr
  36              		.cfi_endproc
  37              	.LFE0:
  39              		.section	.text.abort,"ax",%progbits
  40              		.align	1
  41              		.global	abort
  42              		.thumb
  43              		.thumb_func
  45              	abort:
  46              	.LFB1:
  18:lisa/plug_sys.c **** void                   abort(void) {while(1){};}
  47              		.loc 1 18 0
  48              		.cfi_startproc
  49              		@ Volatile: function does not return.
  50              		@ args = 0, pretend = 0, frame = 0
  51              		@ frame_needed = 0, uses_anonymous_args = 0
  52              		@ link register save eliminated.
  53              	.L3:
  54 0000 FEE7     		b	.L3
  55              		.cfi_endproc
  56              	.LFE1:
  58              		.section	.text.getpid,"ax",%progbits
  59              		.align	1
  60              		.global	getpid
  61              		.thumb
  62              		.thumb_func
  64              	getpid:
  65              	.LFB2:
  19:lisa/plug_sys.c **** pid_t                  getpid(void) { return 0;}
  66              		.loc 1 19 0
  67              		.cfi_startproc
  68              		@ args = 0, pretend = 0, frame = 0
  69              		@ frame_needed = 0, uses_anonymous_args = 0
  70              		@ link register save eliminated.
  71              		.loc 1 19 0
  72 0000 0020     		movs	r0, #0
  73 0002 7047     		bx	lr
  74              		.cfi_endproc
  75              	.LFE2:
  77              		.section	.text.kill,"ax",%progbits
  78              		.align	1
  79              		.global	kill
  80              		.thumb
  81              		.thumb_func
  83              	kill:
  84              	.LFB3:
  20:lisa/plug_sys.c **** int                    kill(pid_t a, int b) {return 0;}
  85              		.loc 1 20 0
  86              		.cfi_startproc
  87              		@ args = 0, pretend = 0, frame = 0
  88              		@ frame_needed = 0, uses_anonymous_args = 0
  89              		@ link register save eliminated.
  90              	.LVL2:
  91              		.loc 1 20 0
  92 0000 0020     		movs	r0, #0
  93              	.LVL3:
  94 0002 7047     		bx	lr
  95              		.cfi_endproc
  96              	.LFE3:
  98              		.section	.text._sbrk,"ax",%progbits
  99              		.align	1
 100              		.global	_sbrk
 101              		.thumb
 102              		.thumb_func
 104              	_sbrk:
 105              	.LFB4:
  21:lisa/plug_sys.c **** void *                 _sbrk(int a) {return 0;}
 106              		.loc 1 21 0
 107              		.cfi_startproc
 108              		@ args = 0, pretend = 0, frame = 0
 109              		@ frame_needed = 0, uses_anonymous_args = 0
 110              		@ link register save eliminated.
 111              	.LVL4:
 112              		.loc 1 21 0
 113 0000 0020     		movs	r0, #0
 114              	.LVL5:
 115 0002 7047     		bx	lr
 116              		.cfi_endproc
 117              	.LFE4:
 119              		.section	.text._write,"ax",%progbits
 120              		.align	1
 121              		.global	_write
 122              		.thumb
 123              		.thumb_func
 125              	_write:
 126              	.LFB5:
  22:lisa/plug_sys.c **** ssize_t                _write(int a, const void *b, size_t c) {return 0; }
 127              		.loc 1 22 0
 128              		.cfi_startproc
 129              		@ args = 0, pretend = 0, frame = 0
 130              		@ frame_needed = 0, uses_anonymous_args = 0
 131              		@ link register save eliminated.
 132              	.LVL6:
 133              		.loc 1 22 0
 134 0000 0020     		movs	r0, #0
 135              	.LVL7:
 136 0002 7047     		bx	lr
 137              		.cfi_endproc
 138              	.LFE5:
 140              		.section	.text._close,"ax",%progbits
 141              		.align	1
 142              		.global	_close
 143              		.thumb
 144              		.thumb_func
 146              	_close:
 147              	.LFB6:
  23:lisa/plug_sys.c **** int                    _close(int a) { return 0;}
 148              		.loc 1 23 0
 149              		.cfi_startproc
 150              		@ args = 0, pretend = 0, frame = 0
 151              		@ frame_needed = 0, uses_anonymous_args = 0
 152              		@ link register save eliminated.
 153              	.LVL8:
 154              		.loc 1 23 0
 155 0000 0020     		movs	r0, #0
 156              	.LVL9:
 157 0002 7047     		bx	lr
 158              		.cfi_endproc
 159              	.LFE6:
 161              		.section	.text._read,"ax",%progbits
 162              		.align	1
 163              		.global	_read
 164              		.thumb
 165              		.thumb_func
 167              	_read:
 168              	.LFB7:
  24:lisa/plug_sys.c **** ssize_t                _read(int a, void *b, size_t c) {return 0;}
 169              		.loc 1 24 0
 170              		.cfi_startproc
 171              		@ args = 0, pretend = 0, frame = 0
 172              		@ frame_needed = 0, uses_anonymous_args = 0
 173              		@ link register save eliminated.
 174              	.LVL10:
 175              		.loc 1 24 0
 176 0000 0020     		movs	r0, #0
 177              	.LVL11:
 178 0002 7047     		bx	lr
 179              		.cfi_endproc
 180              	.LFE7:
 182              		.text
 183              	.Letext0:
 184              		.file 2 "/opt/paparazzi/arm-multilib/lib/gcc/arm-none-eabi/4.6.2/../../../../arm-none-eabi/include
 185              		.file 3 "/opt/paparazzi/arm-multilib/lib/gcc/arm-none-eabi/4.6.2/include/stddef.h"
 186              		.file 4 "/opt/paparazzi/arm-multilib/lib/gcc/arm-none-eabi/4.6.2/../../../../arm-none-eabi/include
 187              		.file 5 "/opt/paparazzi/arm-multilib/lib/gcc/arm-none-eabi/4.6.2/../../../../arm-none-eabi/include